ARM GAS  C:\Users\howe\AppData\Local\Temp\ccz4taye.s 			page 1


   1              		.syntax unified
   2              		.cpu cortex-m3
   3              		.fpu softvfp
   4              		.eabi_attribute 20, 1
   5              		.eabi_attribute 21, 1
   6              		.eabi_attribute 23, 3
   7              		.eabi_attribute 24, 1
   8              		.eabi_attribute 25, 1
   9              		.eabi_attribute 26, 1
  10              		.eabi_attribute 30, 6
  11              		.eabi_attribute 34, 1
  12              		.eabi_attribute 18, 4
  13              		.thumb
  14              		.syntax unified
  15              		.file	"cyfitter_cfg.c"
  16              		.text
  17              	.Ltext0:
  18              		.cfi_sections	.debug_frame
  19              		.section	.text.CYMEMZERO,"ax",%progbits
  20              		.align	2
  21              		.thumb
  22              		.thumb_func
  23              		.type	CYMEMZERO, %function
  24              	CYMEMZERO:
  25              	.LFB0:
  26              		.file 1 "Generated_Source\\PSoC5\\cyfitter_cfg.c"
   1:Generated_Source\PSoC5/cyfitter_cfg.c **** 
   2:Generated_Source\PSoC5/cyfitter_cfg.c **** /*******************************************************************************
   3:Generated_Source\PSoC5/cyfitter_cfg.c **** * File Name: cyfitter_cfg.c
   4:Generated_Source\PSoC5/cyfitter_cfg.c **** * 
   5:Generated_Source\PSoC5/cyfitter_cfg.c **** * PSoC Creator  4.2
   6:Generated_Source\PSoC5/cyfitter_cfg.c **** *
   7:Generated_Source\PSoC5/cyfitter_cfg.c **** * Description:
   8:Generated_Source\PSoC5/cyfitter_cfg.c **** * This file contains device initialization code.
   9:Generated_Source\PSoC5/cyfitter_cfg.c **** * Except for the user defined sections in CyClockStartupError(), this file should not be modified.
  10:Generated_Source\PSoC5/cyfitter_cfg.c **** * This file is automatically generated by PSoC Creator.
  11:Generated_Source\PSoC5/cyfitter_cfg.c **** *
  12:Generated_Source\PSoC5/cyfitter_cfg.c **** ********************************************************************************
  13:Generated_Source\PSoC5/cyfitter_cfg.c **** * Copyright (c) 2007-2018 Cypress Semiconductor.  All rights reserved.
  14:Generated_Source\PSoC5/cyfitter_cfg.c **** * You may use this file only in accordance with the license, terms, conditions, 
  15:Generated_Source\PSoC5/cyfitter_cfg.c **** * disclaimers, and limitations in the end user license agreement accompanying 
  16:Generated_Source\PSoC5/cyfitter_cfg.c **** * the software package with which this file was provided.
  17:Generated_Source\PSoC5/cyfitter_cfg.c **** ********************************************************************************/
  18:Generated_Source\PSoC5/cyfitter_cfg.c **** 
  19:Generated_Source\PSoC5/cyfitter_cfg.c **** #include <string.h>
  20:Generated_Source\PSoC5/cyfitter_cfg.c **** #include "cytypes.h"
  21:Generated_Source\PSoC5/cyfitter_cfg.c **** #include "cydevice_trm.h"
  22:Generated_Source\PSoC5/cyfitter_cfg.c **** #include "cyfitter.h"
  23:Generated_Source\PSoC5/cyfitter_cfg.c **** #include "CyLib.h"
  24:Generated_Source\PSoC5/cyfitter_cfg.c **** #include "cyfitter_cfg.h"
  25:Generated_Source\PSoC5/cyfitter_cfg.c **** 
  26:Generated_Source\PSoC5/cyfitter_cfg.c **** #define CY_NEED_CYCLOCKSTARTUPERROR 1
  27:Generated_Source\PSoC5/cyfitter_cfg.c **** 
  28:Generated_Source\PSoC5/cyfitter_cfg.c **** 
  29:Generated_Source\PSoC5/cyfitter_cfg.c **** #if defined(__GNUC__) || defined(__ARMCC_VERSION)
  30:Generated_Source\PSoC5/cyfitter_cfg.c ****     #define CYPACKED 
  31:Generated_Source\PSoC5/cyfitter_cfg.c ****     #define CYPACKED_ATTR __attribute__ ((packed))
ARM GAS  C:\Users\howe\AppData\Local\Temp\ccz4taye.s 			page 2


  32:Generated_Source\PSoC5/cyfitter_cfg.c ****     #define CYALIGNED __attribute__ ((aligned))
  33:Generated_Source\PSoC5/cyfitter_cfg.c ****     #define CY_CFG_UNUSED __attribute__ ((unused))
  34:Generated_Source\PSoC5/cyfitter_cfg.c ****     #ifndef CY_CFG_SECTION
  35:Generated_Source\PSoC5/cyfitter_cfg.c ****         #define CY_CFG_SECTION __attribute__ ((section(".psocinit")))
  36:Generated_Source\PSoC5/cyfitter_cfg.c ****     #endif
  37:Generated_Source\PSoC5/cyfitter_cfg.c ****     
  38:Generated_Source\PSoC5/cyfitter_cfg.c ****     #if defined(__ARMCC_VERSION)
  39:Generated_Source\PSoC5/cyfitter_cfg.c ****         #define CY_CFG_MEMORY_BARRIER() __memory_changed()
  40:Generated_Source\PSoC5/cyfitter_cfg.c ****     #else
  41:Generated_Source\PSoC5/cyfitter_cfg.c ****         #define CY_CFG_MEMORY_BARRIER() __sync_synchronize()
  42:Generated_Source\PSoC5/cyfitter_cfg.c ****     #endif
  43:Generated_Source\PSoC5/cyfitter_cfg.c ****     
  44:Generated_Source\PSoC5/cyfitter_cfg.c **** #elif defined(__ICCARM__)
  45:Generated_Source\PSoC5/cyfitter_cfg.c ****     #include <intrinsics.h>
  46:Generated_Source\PSoC5/cyfitter_cfg.c **** 
  47:Generated_Source\PSoC5/cyfitter_cfg.c ****     #define CYPACKED __packed
  48:Generated_Source\PSoC5/cyfitter_cfg.c ****     #define CYPACKED_ATTR 
  49:Generated_Source\PSoC5/cyfitter_cfg.c ****     #define CYALIGNED _Pragma("data_alignment=4")
  50:Generated_Source\PSoC5/cyfitter_cfg.c ****     #define CY_CFG_UNUSED _Pragma("diag_suppress=Pe177")
  51:Generated_Source\PSoC5/cyfitter_cfg.c ****     #define CY_CFG_SECTION _Pragma("location=\".psocinit\"")
  52:Generated_Source\PSoC5/cyfitter_cfg.c ****     
  53:Generated_Source\PSoC5/cyfitter_cfg.c ****     #define CY_CFG_MEMORY_BARRIER() __DMB()
  54:Generated_Source\PSoC5/cyfitter_cfg.c ****     
  55:Generated_Source\PSoC5/cyfitter_cfg.c **** #else
  56:Generated_Source\PSoC5/cyfitter_cfg.c ****     #error Unsupported toolchain
  57:Generated_Source\PSoC5/cyfitter_cfg.c **** #endif
  58:Generated_Source\PSoC5/cyfitter_cfg.c **** 
  59:Generated_Source\PSoC5/cyfitter_cfg.c **** #ifndef CYCODE
  60:Generated_Source\PSoC5/cyfitter_cfg.c ****     #define CYCODE
  61:Generated_Source\PSoC5/cyfitter_cfg.c **** #endif
  62:Generated_Source\PSoC5/cyfitter_cfg.c **** #ifndef CYDATA
  63:Generated_Source\PSoC5/cyfitter_cfg.c ****     #define CYDATA
  64:Generated_Source\PSoC5/cyfitter_cfg.c **** #endif
  65:Generated_Source\PSoC5/cyfitter_cfg.c **** #ifndef CYFAR
  66:Generated_Source\PSoC5/cyfitter_cfg.c ****     #define CYFAR
  67:Generated_Source\PSoC5/cyfitter_cfg.c **** #endif
  68:Generated_Source\PSoC5/cyfitter_cfg.c **** #ifndef CYXDATA
  69:Generated_Source\PSoC5/cyfitter_cfg.c ****     #define CYXDATA
  70:Generated_Source\PSoC5/cyfitter_cfg.c **** #endif
  71:Generated_Source\PSoC5/cyfitter_cfg.c **** 
  72:Generated_Source\PSoC5/cyfitter_cfg.c **** 
  73:Generated_Source\PSoC5/cyfitter_cfg.c **** CY_CFG_UNUSED
  74:Generated_Source\PSoC5/cyfitter_cfg.c **** static void CYMEMZERO(void *s, size_t n);
  75:Generated_Source\PSoC5/cyfitter_cfg.c **** CY_CFG_UNUSED
  76:Generated_Source\PSoC5/cyfitter_cfg.c **** static void CYMEMZERO(void *s, size_t n)
  77:Generated_Source\PSoC5/cyfitter_cfg.c **** {
  27              		.loc 1 77 0
  28              		.cfi_startproc
  29              		@ args = 0, pretend = 0, frame = 8
  30              		@ frame_needed = 1, uses_anonymous_args = 0
  31 0000 80B5     		push	{r7, lr}
  32              		.cfi_def_cfa_offset 8
  33              		.cfi_offset 7, -8
  34              		.cfi_offset 14, -4
  35 0002 82B0     		sub	sp, sp, #8
  36              		.cfi_def_cfa_offset 16
  37 0004 00AF     		add	r7, sp, #0
ARM GAS  C:\Users\howe\AppData\Local\Temp\ccz4taye.s 			page 3


  38              		.cfi_def_cfa_register 7
  39 0006 7860     		str	r0, [r7, #4]
  40 0008 3960     		str	r1, [r7]
  78:Generated_Source\PSoC5/cyfitter_cfg.c **** 	(void)memset(s, 0, n);
  41              		.loc 1 78 0
  42 000a 3A68     		ldr	r2, [r7]
  43 000c 0021     		movs	r1, #0
  44 000e 7868     		ldr	r0, [r7, #4]
  45 0010 FFF7FEFF 		bl	memset
  79:Generated_Source\PSoC5/cyfitter_cfg.c **** }
  46              		.loc 1 79 0
  47 0014 00BF     		nop
  48 0016 0837     		adds	r7, r7, #8
  49              		.cfi_def_cfa_offset 8
  50 0018 BD46     		mov	sp, r7
  51              		.cfi_def_cfa_register 13
  52              		@ sp needed
  53 001a 80BD     		pop	{r7, pc}
  54              		.cfi_endproc
  55              	.LFE0:
  56              		.size	CYMEMZERO, .-CYMEMZERO
  57              		.section	.text.CYCONFIGCPY,"ax",%progbits
  58              		.align	2
  59              		.thumb
  60              		.thumb_func
  61              		.type	CYCONFIGCPY, %function
  62              	CYCONFIGCPY:
  63              	.LFB1:
  80:Generated_Source\PSoC5/cyfitter_cfg.c **** CY_CFG_UNUSED
  81:Generated_Source\PSoC5/cyfitter_cfg.c **** static void CYCONFIGCPY(void *dest, const void *src, size_t n);
  82:Generated_Source\PSoC5/cyfitter_cfg.c **** CY_CFG_UNUSED
  83:Generated_Source\PSoC5/cyfitter_cfg.c **** static void CYCONFIGCPY(void *dest, const void *src, size_t n)
  84:Generated_Source\PSoC5/cyfitter_cfg.c **** {
  64              		.loc 1 84 0
  65              		.cfi_startproc
  66              		@ args = 0, pretend = 0, frame = 16
  67              		@ frame_needed = 1, uses_anonymous_args = 0
  68 0000 80B5     		push	{r7, lr}
  69              		.cfi_def_cfa_offset 8
  70              		.cfi_offset 7, -8
  71              		.cfi_offset 14, -4
  72 0002 84B0     		sub	sp, sp, #16
  73              		.cfi_def_cfa_offset 24
  74 0004 00AF     		add	r7, sp, #0
  75              		.cfi_def_cfa_register 7
  76 0006 F860     		str	r0, [r7, #12]
  77 0008 B960     		str	r1, [r7, #8]
  78 000a 7A60     		str	r2, [r7, #4]
  85:Generated_Source\PSoC5/cyfitter_cfg.c **** 	(void)memcpy(dest, src, n);
  79              		.loc 1 85 0
  80 000c 7A68     		ldr	r2, [r7, #4]
  81 000e B968     		ldr	r1, [r7, #8]
  82 0010 F868     		ldr	r0, [r7, #12]
  83 0012 FFF7FEFF 		bl	memcpy
  86:Generated_Source\PSoC5/cyfitter_cfg.c **** }
  84              		.loc 1 86 0
  85 0016 00BF     		nop
ARM GAS  C:\Users\howe\AppData\Local\Temp\ccz4taye.s 			page 4


  86 0018 1037     		adds	r7, r7, #16
  87              		.cfi_def_cfa_offset 8
  88 001a BD46     		mov	sp, r7
  89              		.cfi_def_cfa_register 13
  90              		@ sp needed
  91 001c 80BD     		pop	{r7, pc}
  92              		.cfi_endproc
  93              	.LFE1:
  94              		.size	CYCONFIGCPY, .-CYCONFIGCPY
  95 001e 00BF     		.section	.text.CYCONFIGCPYCODE,"ax",%progbits
  96              		.align	2
  97              		.thumb
  98              		.thumb_func
  99              		.type	CYCONFIGCPYCODE, %function
 100              	CYCONFIGCPYCODE:
 101              	.LFB2:
  87:Generated_Source\PSoC5/cyfitter_cfg.c **** CY_CFG_UNUSED
  88:Generated_Source\PSoC5/cyfitter_cfg.c **** static void CYCONFIGCPYCODE(void *dest, const void *src, size_t n);
  89:Generated_Source\PSoC5/cyfitter_cfg.c **** CY_CFG_UNUSED
  90:Generated_Source\PSoC5/cyfitter_cfg.c **** static void CYCONFIGCPYCODE(void *dest, const void *src, size_t n)
  91:Generated_Source\PSoC5/cyfitter_cfg.c **** {
 102              		.loc 1 91 0
 103              		.cfi_startproc
 104              		@ args = 0, pretend = 0, frame = 16
 105              		@ frame_needed = 1, uses_anonymous_args = 0
 106 0000 80B5     		push	{r7, lr}
 107              		.cfi_def_cfa_offset 8
 108              		.cfi_offset 7, -8
 109              		.cfi_offset 14, -4
 110 0002 84B0     		sub	sp, sp, #16
 111              		.cfi_def_cfa_offset 24
 112 0004 00AF     		add	r7, sp, #0
 113              		.cfi_def_cfa_register 7
 114 0006 F860     		str	r0, [r7, #12]
 115 0008 B960     		str	r1, [r7, #8]
 116 000a 7A60     		str	r2, [r7, #4]
  92:Generated_Source\PSoC5/cyfitter_cfg.c **** 	(void)memcpy(dest, src, n);
 117              		.loc 1 92 0
 118 000c 7A68     		ldr	r2, [r7, #4]
 119 000e B968     		ldr	r1, [r7, #8]
 120 0010 F868     		ldr	r0, [r7, #12]
 121 0012 FFF7FEFF 		bl	memcpy
  93:Generated_Source\PSoC5/cyfitter_cfg.c **** }
 122              		.loc 1 93 0
 123 0016 00BF     		nop
 124 0018 1037     		adds	r7, r7, #16
 125              		.cfi_def_cfa_offset 8
 126 001a BD46     		mov	sp, r7
 127              		.cfi_def_cfa_register 13
 128              		@ sp needed
 129 001c 80BD     		pop	{r7, pc}
 130              		.cfi_endproc
 131              	.LFE2:
 132              		.size	CYCONFIGCPYCODE, .-CYCONFIGCPYCODE
 133 001e 00BF     		.section	.text.CyClockStartupError,"ax",%progbits
 134              		.align	2
 135              		.thumb
ARM GAS  C:\Users\howe\AppData\Local\Temp\ccz4taye.s 			page 5


 136              		.thumb_func
 137              		.type	CyClockStartupError, %function
 138              	CyClockStartupError:
 139              	.LFB3:
  94:Generated_Source\PSoC5/cyfitter_cfg.c **** 
  95:Generated_Source\PSoC5/cyfitter_cfg.c **** 
  96:Generated_Source\PSoC5/cyfitter_cfg.c **** 
  97:Generated_Source\PSoC5/cyfitter_cfg.c **** 
  98:Generated_Source\PSoC5/cyfitter_cfg.c **** /* Clock startup error codes                                                   */
  99:Generated_Source\PSoC5/cyfitter_cfg.c **** #define CYCLOCKSTART_NO_ERROR    0u
 100:Generated_Source\PSoC5/cyfitter_cfg.c **** #define CYCLOCKSTART_XTAL_ERROR  1u
 101:Generated_Source\PSoC5/cyfitter_cfg.c **** #define CYCLOCKSTART_32KHZ_ERROR 2u
 102:Generated_Source\PSoC5/cyfitter_cfg.c **** #define CYCLOCKSTART_PLL_ERROR   3u
 103:Generated_Source\PSoC5/cyfitter_cfg.c **** #define CYCLOCKSTART_FLL_ERROR   4u
 104:Generated_Source\PSoC5/cyfitter_cfg.c **** #define CYCLOCKSTART_WCO_ERROR   5u
 105:Generated_Source\PSoC5/cyfitter_cfg.c **** 
 106:Generated_Source\PSoC5/cyfitter_cfg.c **** 
 107:Generated_Source\PSoC5/cyfitter_cfg.c **** #ifdef CY_NEED_CYCLOCKSTARTUPERROR
 108:Generated_Source\PSoC5/cyfitter_cfg.c **** /*******************************************************************************
 109:Generated_Source\PSoC5/cyfitter_cfg.c **** * Function Name: CyClockStartupError
 110:Generated_Source\PSoC5/cyfitter_cfg.c **** ********************************************************************************
 111:Generated_Source\PSoC5/cyfitter_cfg.c **** * Summary:
 112:Generated_Source\PSoC5/cyfitter_cfg.c **** *  If an error is encountered during clock configuration (crystal startup error,
 113:Generated_Source\PSoC5/cyfitter_cfg.c **** *  PLL lock error, etc.), the system will end up here.  Unless reimplemented by
 114:Generated_Source\PSoC5/cyfitter_cfg.c **** *  the customer, this function will stop in an infinite loop.
 115:Generated_Source\PSoC5/cyfitter_cfg.c **** *
 116:Generated_Source\PSoC5/cyfitter_cfg.c **** * Parameters:
 117:Generated_Source\PSoC5/cyfitter_cfg.c **** *   void
 118:Generated_Source\PSoC5/cyfitter_cfg.c **** *
 119:Generated_Source\PSoC5/cyfitter_cfg.c **** * Return:
 120:Generated_Source\PSoC5/cyfitter_cfg.c **** *   void
 121:Generated_Source\PSoC5/cyfitter_cfg.c **** *
 122:Generated_Source\PSoC5/cyfitter_cfg.c **** *******************************************************************************/
 123:Generated_Source\PSoC5/cyfitter_cfg.c **** CY_CFG_UNUSED
 124:Generated_Source\PSoC5/cyfitter_cfg.c **** static void CyClockStartupError(uint8 errorCode);
 125:Generated_Source\PSoC5/cyfitter_cfg.c **** CY_CFG_UNUSED
 126:Generated_Source\PSoC5/cyfitter_cfg.c **** static void CyClockStartupError(uint8 errorCode)
 127:Generated_Source\PSoC5/cyfitter_cfg.c **** {
 140              		.loc 1 127 0
 141              		.cfi_startproc
 142              		@ args = 0, pretend = 0, frame = 8
 143              		@ frame_needed = 1, uses_anonymous_args = 0
 144              		@ link register save eliminated.
 145 0000 80B4     		push	{r7}
 146              		.cfi_def_cfa_offset 4
 147              		.cfi_offset 7, -4
 148 0002 83B0     		sub	sp, sp, #12
 149              		.cfi_def_cfa_offset 16
 150 0004 00AF     		add	r7, sp, #0
 151              		.cfi_def_cfa_register 7
 152 0006 0346     		mov	r3, r0
 153 0008 FB71     		strb	r3, [r7, #7]
 154              	.L5:
 128:Generated_Source\PSoC5/cyfitter_cfg.c ****     /* To remove the compiler warning if errorCode not used.                */
 129:Generated_Source\PSoC5/cyfitter_cfg.c ****     errorCode = errorCode;
 130:Generated_Source\PSoC5/cyfitter_cfg.c **** 
 131:Generated_Source\PSoC5/cyfitter_cfg.c ****     /* If we have a clock startup error (bad MHz crystal, PLL lock, etc.),  */
ARM GAS  C:\Users\howe\AppData\Local\Temp\ccz4taye.s 			page 6


 132:Generated_Source\PSoC5/cyfitter_cfg.c ****     /* we will end up here to allow the customer to implement something to  */
 133:Generated_Source\PSoC5/cyfitter_cfg.c ****     /* deal with the clock condition.                                       */
 134:Generated_Source\PSoC5/cyfitter_cfg.c **** 
 135:Generated_Source\PSoC5/cyfitter_cfg.c **** #ifdef CY_CFG_CLOCK_STARTUP_ERROR_CALLBACK
 136:Generated_Source\PSoC5/cyfitter_cfg.c ****     CY_CFG_Clock_Startup_ErrorCallback();
 137:Generated_Source\PSoC5/cyfitter_cfg.c **** #else
 138:Generated_Source\PSoC5/cyfitter_cfg.c ****     /*  If not using CY_CFG_CLOCK_STARTUP_ERROR_CALLBACK, place your clock startup code here. */
 139:Generated_Source\PSoC5/cyfitter_cfg.c ****     /* `#START CyClockStartupError` */
 140:Generated_Source\PSoC5/cyfitter_cfg.c **** 
 141:Generated_Source\PSoC5/cyfitter_cfg.c ****     /* If we have a clock startup error (bad MHz crystal, PLL lock, etc.),  */
 142:Generated_Source\PSoC5/cyfitter_cfg.c ****     /* we will end up here to allow the customer to implement something to  */
 143:Generated_Source\PSoC5/cyfitter_cfg.c ****     /* deal with the clock condition.                                       */
 144:Generated_Source\PSoC5/cyfitter_cfg.c **** 
 145:Generated_Source\PSoC5/cyfitter_cfg.c ****     /* `#END` */
 146:Generated_Source\PSoC5/cyfitter_cfg.c **** 
 147:Generated_Source\PSoC5/cyfitter_cfg.c ****     while(1) {}
 155              		.loc 1 147 0 discriminator 1
 156 000a FEE7     		b	.L5
 157              		.cfi_endproc
 158              	.LFE3:
 159              		.size	CyClockStartupError, .-CyClockStartupError
 160              		.section	.text.cfg_write_bytes32,"ax",%progbits
 161              		.align	2
 162              		.thumb
 163              		.thumb_func
 164              		.type	cfg_write_bytes32, %function
 165              	cfg_write_bytes32:
 166              	.LFB4:
 148:Generated_Source\PSoC5/cyfitter_cfg.c **** #endif /* CY_CFG_CLOCK_STARTUP_ERROR_CALLBACK */
 149:Generated_Source\PSoC5/cyfitter_cfg.c **** }
 150:Generated_Source\PSoC5/cyfitter_cfg.c **** #endif
 151:Generated_Source\PSoC5/cyfitter_cfg.c **** 
 152:Generated_Source\PSoC5/cyfitter_cfg.c **** #define CY_CFG_BASE_ADDR_COUNT 36u
 153:Generated_Source\PSoC5/cyfitter_cfg.c **** CYPACKED typedef struct
 154:Generated_Source\PSoC5/cyfitter_cfg.c **** {
 155:Generated_Source\PSoC5/cyfitter_cfg.c **** 	uint8 offset;
 156:Generated_Source\PSoC5/cyfitter_cfg.c **** 	uint8 value;
 157:Generated_Source\PSoC5/cyfitter_cfg.c **** } CYPACKED_ATTR cy_cfg_addrvalue_t;
 158:Generated_Source\PSoC5/cyfitter_cfg.c **** 
 159:Generated_Source\PSoC5/cyfitter_cfg.c **** #define cy_cfg_addr_table ((const uint32 CYFAR *)0x48000000u)
 160:Generated_Source\PSoC5/cyfitter_cfg.c **** #define cy_cfg_data_table ((const cy_cfg_addrvalue_t CYFAR *)0x48000090u)
 161:Generated_Source\PSoC5/cyfitter_cfg.c **** 
 162:Generated_Source\PSoC5/cyfitter_cfg.c **** /* IOPINS0_0 Address: CYREG_PRT0_DM0 Size (bytes): 8 */
 163:Generated_Source\PSoC5/cyfitter_cfg.c **** #define BS_IOPINS0_0_VAL ((const uint8 CYFAR *)0x48000758u)
 164:Generated_Source\PSoC5/cyfitter_cfg.c **** 
 165:Generated_Source\PSoC5/cyfitter_cfg.c **** /* IOPINS0_8 Address: CYREG_PRT15_DR Size (bytes): 10 */
 166:Generated_Source\PSoC5/cyfitter_cfg.c **** #define BS_IOPINS0_8_VAL ((const uint8 CYFAR *)0x48000760u)
 167:Generated_Source\PSoC5/cyfitter_cfg.c **** 
 168:Generated_Source\PSoC5/cyfitter_cfg.c **** /* IOPINS0_1 Address: CYREG_PRT1_DR Size (bytes): 10 */
 169:Generated_Source\PSoC5/cyfitter_cfg.c **** #define BS_IOPINS0_1_VAL ((const uint8 CYFAR *)0x4800076Cu)
 170:Generated_Source\PSoC5/cyfitter_cfg.c **** 
 171:Generated_Source\PSoC5/cyfitter_cfg.c **** /* IOPINS0_3 Address: CYREG_PRT3_DM0 Size (bytes): 8 */
 172:Generated_Source\PSoC5/cyfitter_cfg.c **** #define BS_IOPINS0_3_VAL ((const uint8 CYFAR *)0x48000778u)
 173:Generated_Source\PSoC5/cyfitter_cfg.c **** 
 174:Generated_Source\PSoC5/cyfitter_cfg.c **** /* IOPINS0_5 Address: CYREG_PRT5_DM0 Size (bytes): 8 */
 175:Generated_Source\PSoC5/cyfitter_cfg.c **** #define BS_IOPINS0_5_VAL ((const uint8 CYFAR *)0x48000780u)
 176:Generated_Source\PSoC5/cyfitter_cfg.c **** 
ARM GAS  C:\Users\howe\AppData\Local\Temp\ccz4taye.s 			page 7


 177:Generated_Source\PSoC5/cyfitter_cfg.c **** /* IOPINS0_6 Address: CYREG_PRT6_DM0 Size (bytes): 8 */
 178:Generated_Source\PSoC5/cyfitter_cfg.c **** #define BS_IOPINS0_6_VAL ((const uint8 CYFAR *)0x48000788u)
 179:Generated_Source\PSoC5/cyfitter_cfg.c **** 
 180:Generated_Source\PSoC5/cyfitter_cfg.c **** 
 181:Generated_Source\PSoC5/cyfitter_cfg.c **** /*******************************************************************************
 182:Generated_Source\PSoC5/cyfitter_cfg.c **** * Function Name: cfg_write_bytes32
 183:Generated_Source\PSoC5/cyfitter_cfg.c **** ********************************************************************************
 184:Generated_Source\PSoC5/cyfitter_cfg.c **** * Summary:
 185:Generated_Source\PSoC5/cyfitter_cfg.c **** *  This function is used for setting up the chip configuration areas that
 186:Generated_Source\PSoC5/cyfitter_cfg.c **** *  contain relatively sparse data.
 187:Generated_Source\PSoC5/cyfitter_cfg.c **** *
 188:Generated_Source\PSoC5/cyfitter_cfg.c **** * Parameters:
 189:Generated_Source\PSoC5/cyfitter_cfg.c **** *   void
 190:Generated_Source\PSoC5/cyfitter_cfg.c **** *
 191:Generated_Source\PSoC5/cyfitter_cfg.c **** * Return:
 192:Generated_Source\PSoC5/cyfitter_cfg.c **** *   void
 193:Generated_Source\PSoC5/cyfitter_cfg.c **** *
 194:Generated_Source\PSoC5/cyfitter_cfg.c **** *******************************************************************************/
 195:Generated_Source\PSoC5/cyfitter_cfg.c **** static void cfg_write_bytes32(const uint32 addr_table[], const cy_cfg_addrvalue_t data_table[]);
 196:Generated_Source\PSoC5/cyfitter_cfg.c **** static void cfg_write_bytes32(const uint32 addr_table[], const cy_cfg_addrvalue_t data_table[])
 197:Generated_Source\PSoC5/cyfitter_cfg.c **** {
 167              		.loc 1 197 0
 168              		.cfi_startproc
 169              		@ args = 0, pretend = 0, frame = 24
 170              		@ frame_needed = 1, uses_anonymous_args = 0
 171              		@ link register save eliminated.
 172 0000 80B4     		push	{r7}
 173              		.cfi_def_cfa_offset 4
 174              		.cfi_offset 7, -4
 175 0002 87B0     		sub	sp, sp, #28
 176              		.cfi_def_cfa_offset 32
 177 0004 00AF     		add	r7, sp, #0
 178              		.cfi_def_cfa_register 7
 179 0006 7860     		str	r0, [r7, #4]
 180 0008 3960     		str	r1, [r7]
 198:Generated_Source\PSoC5/cyfitter_cfg.c **** 	/* For 32-bit little-endian architectures */
 199:Generated_Source\PSoC5/cyfitter_cfg.c **** 	uint32 i, j = 0u;
 181              		.loc 1 199 0
 182 000a 0023     		movs	r3, #0
 183 000c 3B61     		str	r3, [r7, #16]
 200:Generated_Source\PSoC5/cyfitter_cfg.c **** 	for (i = 0u; i < CY_CFG_BASE_ADDR_COUNT; i++)
 184              		.loc 1 200 0
 185 000e 0023     		movs	r3, #0
 186 0010 7B61     		str	r3, [r7, #20]
 187 0012 27E0     		b	.L7
 188              	.L10:
 189              	.LBB2:
 201:Generated_Source\PSoC5/cyfitter_cfg.c **** 	{
 202:Generated_Source\PSoC5/cyfitter_cfg.c **** 		uint32 baseAddr = addr_table[i];
 190              		.loc 1 202 0
 191 0014 7B69     		ldr	r3, [r7, #20]
 192 0016 9B00     		lsls	r3, r3, #2
 193 0018 7A68     		ldr	r2, [r7, #4]
 194 001a 1344     		add	r3, r3, r2
 195 001c 1B68     		ldr	r3, [r3]
 196 001e BB60     		str	r3, [r7, #8]
 203:Generated_Source\PSoC5/cyfitter_cfg.c **** 		uint8 count = (uint8)baseAddr;
ARM GAS  C:\Users\howe\AppData\Local\Temp\ccz4taye.s 			page 8


 197              		.loc 1 203 0
 198 0020 BB68     		ldr	r3, [r7, #8]
 199 0022 FB73     		strb	r3, [r7, #15]
 204:Generated_Source\PSoC5/cyfitter_cfg.c **** 		baseAddr &= 0xFFFFFF00u;
 200              		.loc 1 204 0
 201 0024 BB68     		ldr	r3, [r7, #8]
 202 0026 23F0FF03 		bic	r3, r3, #255
 203 002a BB60     		str	r3, [r7, #8]
 205:Generated_Source\PSoC5/cyfitter_cfg.c **** 		while (count != 0u)
 204              		.loc 1 205 0
 205 002c 14E0     		b	.L8
 206              	.L9:
 206:Generated_Source\PSoC5/cyfitter_cfg.c **** 		{
 207:Generated_Source\PSoC5/cyfitter_cfg.c **** 			CY_SET_REG8((void *)(baseAddr + data_table[j].offset), data_table[j].value);
 207              		.loc 1 207 0
 208 002e 3B69     		ldr	r3, [r7, #16]
 209 0030 5B00     		lsls	r3, r3, #1
 210 0032 3A68     		ldr	r2, [r7]
 211 0034 1344     		add	r3, r3, r2
 212 0036 1B78     		ldrb	r3, [r3]	@ zero_extendqisi2
 213 0038 1A46     		mov	r2, r3
 214 003a BB68     		ldr	r3, [r7, #8]
 215 003c 1344     		add	r3, r3, r2
 216 003e 1946     		mov	r1, r3
 217 0040 3B69     		ldr	r3, [r7, #16]
 218 0042 5B00     		lsls	r3, r3, #1
 219 0044 3A68     		ldr	r2, [r7]
 220 0046 1344     		add	r3, r3, r2
 221 0048 5B78     		ldrb	r3, [r3, #1]	@ zero_extendqisi2
 222 004a 0B70     		strb	r3, [r1]
 208:Generated_Source\PSoC5/cyfitter_cfg.c **** 			j++;
 223              		.loc 1 208 0
 224 004c 3B69     		ldr	r3, [r7, #16]
 225 004e 0133     		adds	r3, r3, #1
 226 0050 3B61     		str	r3, [r7, #16]
 209:Generated_Source\PSoC5/cyfitter_cfg.c **** 			count--;
 227              		.loc 1 209 0
 228 0052 FB7B     		ldrb	r3, [r7, #15]	@ zero_extendqisi2
 229 0054 013B     		subs	r3, r3, #1
 230 0056 FB73     		strb	r3, [r7, #15]
 231              	.L8:
 205:Generated_Source\PSoC5/cyfitter_cfg.c **** 		{
 232              		.loc 1 205 0
 233 0058 FB7B     		ldrb	r3, [r7, #15]	@ zero_extendqisi2
 234 005a 002B     		cmp	r3, #0
 235 005c E7D1     		bne	.L9
 236              	.LBE2:
 200:Generated_Source\PSoC5/cyfitter_cfg.c **** 	{
 237              		.loc 1 200 0 discriminator 2
 238 005e 7B69     		ldr	r3, [r7, #20]
 239 0060 0133     		adds	r3, r3, #1
 240 0062 7B61     		str	r3, [r7, #20]
 241              	.L7:
 200:Generated_Source\PSoC5/cyfitter_cfg.c **** 	{
 242              		.loc 1 200 0 is_stmt 0 discriminator 1
 243 0064 7B69     		ldr	r3, [r7, #20]
 244 0066 232B     		cmp	r3, #35
ARM GAS  C:\Users\howe\AppData\Local\Temp\ccz4taye.s 			page 9


 245 0068 D4D9     		bls	.L10
 210:Generated_Source\PSoC5/cyfitter_cfg.c **** 		}
 211:Generated_Source\PSoC5/cyfitter_cfg.c **** 	}
 212:Generated_Source\PSoC5/cyfitter_cfg.c **** }
 246              		.loc 1 212 0 is_stmt 1
 247 006a 00BF     		nop
 248 006c 1C37     		adds	r7, r7, #28
 249              		.cfi_def_cfa_offset 4
 250 006e BD46     		mov	sp, r7
 251              		.cfi_def_cfa_register 13
 252              		@ sp needed
 253 0070 80BC     		pop	{r7}
 254              		.cfi_restore 7
 255              		.cfi_def_cfa_offset 0
 256 0072 7047     		bx	lr
 257              		.cfi_endproc
 258              	.LFE4:
 259              		.size	cfg_write_bytes32, .-cfg_write_bytes32
 260              		.section	.text.ClockSetup,"ax",%progbits
 261              		.align	2
 262              		.thumb
 263              		.thumb_func
 264              		.type	ClockSetup, %function
 265              	ClockSetup:
 266              	.LFB5:
 213:Generated_Source\PSoC5/cyfitter_cfg.c **** 
 214:Generated_Source\PSoC5/cyfitter_cfg.c **** /*******************************************************************************
 215:Generated_Source\PSoC5/cyfitter_cfg.c **** * Function Name: ClockSetup
 216:Generated_Source\PSoC5/cyfitter_cfg.c **** ********************************************************************************
 217:Generated_Source\PSoC5/cyfitter_cfg.c **** *
 218:Generated_Source\PSoC5/cyfitter_cfg.c **** * Summary:
 219:Generated_Source\PSoC5/cyfitter_cfg.c **** *  Performs the initialization of all of the clocks in the device based on the
 220:Generated_Source\PSoC5/cyfitter_cfg.c **** *  settings in the Clock tab of the DWR.  This includes enabling the requested
 221:Generated_Source\PSoC5/cyfitter_cfg.c **** *  clocks and setting the necessary dividers to produce the desired frequency. 
 222:Generated_Source\PSoC5/cyfitter_cfg.c **** *
 223:Generated_Source\PSoC5/cyfitter_cfg.c **** * Parameters:
 224:Generated_Source\PSoC5/cyfitter_cfg.c **** *  void
 225:Generated_Source\PSoC5/cyfitter_cfg.c **** *
 226:Generated_Source\PSoC5/cyfitter_cfg.c **** * Return:
 227:Generated_Source\PSoC5/cyfitter_cfg.c **** *  void
 228:Generated_Source\PSoC5/cyfitter_cfg.c **** *
 229:Generated_Source\PSoC5/cyfitter_cfg.c **** *******************************************************************************/
 230:Generated_Source\PSoC5/cyfitter_cfg.c **** static void ClockSetup(void);
 231:Generated_Source\PSoC5/cyfitter_cfg.c **** static void ClockSetup(void)
 232:Generated_Source\PSoC5/cyfitter_cfg.c **** {
 267              		.loc 1 232 0
 268              		.cfi_startproc
 269              		@ args = 0, pretend = 0, frame = 8
 270              		@ frame_needed = 1, uses_anonymous_args = 0
 271 0000 80B5     		push	{r7, lr}
 272              		.cfi_def_cfa_offset 8
 273              		.cfi_offset 7, -8
 274              		.cfi_offset 14, -4
 275 0002 82B0     		sub	sp, sp, #8
 276              		.cfi_def_cfa_offset 16
 277 0004 00AF     		add	r7, sp, #0
 278              		.cfi_def_cfa_register 7
ARM GAS  C:\Users\howe\AppData\Local\Temp\ccz4taye.s 			page 10


 233:Generated_Source\PSoC5/cyfitter_cfg.c **** 	uint32 timeout;
 234:Generated_Source\PSoC5/cyfitter_cfg.c **** 	uint8 pllLock;
 235:Generated_Source\PSoC5/cyfitter_cfg.c **** 
 236:Generated_Source\PSoC5/cyfitter_cfg.c **** 
 237:Generated_Source\PSoC5/cyfitter_cfg.c **** 	/* Configure Digital Clocks based on settings from Clock DWR */
 238:Generated_Source\PSoC5/cyfitter_cfg.c **** 	CY_SET_XTND_REG16((void CYFAR *)(CYREG_CLKDIST_DCFG0_CFG0), 0x0001u);
 279              		.loc 1 238 0
 280 0006 3F4B     		ldr	r3, .L16
 281 0008 0122     		movs	r2, #1
 282 000a 1A80     		strh	r2, [r3]	@ movhi
 239:Generated_Source\PSoC5/cyfitter_cfg.c **** 	CY_SET_XTND_REG8((void CYFAR *)(CYREG_CLKDIST_DCFG0_CFG0 + 0x2u), 0x18u);
 283              		.loc 1 239 0
 284 000c 3E4B     		ldr	r3, .L16+4
 285 000e 1822     		movs	r2, #24
 286 0010 1A70     		strb	r2, [r3]
 240:Generated_Source\PSoC5/cyfitter_cfg.c **** 	CY_SET_XTND_REG16((void CYFAR *)(CYREG_CLKDIST_DCFG1_CFG0), 0x0001u);
 287              		.loc 1 240 0
 288 0012 3E4B     		ldr	r3, .L16+8
 289 0014 0122     		movs	r2, #1
 290 0016 1A80     		strh	r2, [r3]	@ movhi
 241:Generated_Source\PSoC5/cyfitter_cfg.c **** 	CY_SET_XTND_REG8((void CYFAR *)(CYREG_CLKDIST_DCFG1_CFG0 + 0x2u), 0x18u);
 291              		.loc 1 241 0
 292 0018 3D4B     		ldr	r3, .L16+12
 293 001a 1822     		movs	r2, #24
 294 001c 1A70     		strb	r2, [r3]
 242:Generated_Source\PSoC5/cyfitter_cfg.c **** 	CY_SET_XTND_REG16((void CYFAR *)(CYREG_CLKDIST_DCFG2_CFG0), 0x0001u);
 295              		.loc 1 242 0
 296 001e 3D4B     		ldr	r3, .L16+16
 297 0020 0122     		movs	r2, #1
 298 0022 1A80     		strh	r2, [r3]	@ movhi
 243:Generated_Source\PSoC5/cyfitter_cfg.c **** 	CY_SET_XTND_REG8((void CYFAR *)(CYREG_CLKDIST_DCFG2_CFG0 + 0x2u), 0x18u);
 299              		.loc 1 243 0
 300 0024 3C4B     		ldr	r3, .L16+20
 301 0026 1822     		movs	r2, #24
 302 0028 1A70     		strb	r2, [r3]
 244:Generated_Source\PSoC5/cyfitter_cfg.c **** 	CY_SET_XTND_REG16((void CYFAR *)(CYREG_CLKDIST_DCFG3_CFG0), 0x0023u);
 303              		.loc 1 244 0
 304 002a 3C4B     		ldr	r3, .L16+24
 305 002c 2322     		movs	r2, #35
 306 002e 1A80     		strh	r2, [r3]	@ movhi
 245:Generated_Source\PSoC5/cyfitter_cfg.c **** 	CY_SET_XTND_REG8((void CYFAR *)(CYREG_CLKDIST_DCFG3_CFG0 + 0x2u), 0x18u);
 307              		.loc 1 245 0
 308 0030 3B4B     		ldr	r3, .L16+28
 309 0032 1822     		movs	r2, #24
 310 0034 1A70     		strb	r2, [r3]
 246:Generated_Source\PSoC5/cyfitter_cfg.c **** 	CY_SET_XTND_REG16((void CYFAR *)(CYREG_CLKDIST_DCFG4_CFG0), 0x008Fu);
 311              		.loc 1 246 0
 312 0036 3B4B     		ldr	r3, .L16+32
 313 0038 8F22     		movs	r2, #143
 314 003a 1A80     		strh	r2, [r3]	@ movhi
 247:Generated_Source\PSoC5/cyfitter_cfg.c **** 	CY_SET_XTND_REG8((void CYFAR *)(CYREG_CLKDIST_DCFG4_CFG0 + 0x2u), 0x18u);
 315              		.loc 1 247 0
 316 003c 3A4B     		ldr	r3, .L16+36
 317 003e 1822     		movs	r2, #24
 318 0040 1A70     		strb	r2, [r3]
 248:Generated_Source\PSoC5/cyfitter_cfg.c **** 	CY_SET_XTND_REG16((void CYFAR *)(CYREG_CLKDIST_DCFG5_CFG0), 0x008Fu);
 319              		.loc 1 248 0
ARM GAS  C:\Users\howe\AppData\Local\Temp\ccz4taye.s 			page 11


 320 0042 3A4B     		ldr	r3, .L16+40
 321 0044 8F22     		movs	r2, #143
 322 0046 1A80     		strh	r2, [r3]	@ movhi
 249:Generated_Source\PSoC5/cyfitter_cfg.c **** 	CY_SET_XTND_REG8((void CYFAR *)(CYREG_CLKDIST_DCFG5_CFG0 + 0x2u), 0x18u);
 323              		.loc 1 249 0
 324 0048 394B     		ldr	r3, .L16+44
 325 004a 1822     		movs	r2, #24
 326 004c 1A70     		strb	r2, [r3]
 250:Generated_Source\PSoC5/cyfitter_cfg.c **** 
 251:Generated_Source\PSoC5/cyfitter_cfg.c **** 	/* Configure ILO based on settings from Clock DWR */
 252:Generated_Source\PSoC5/cyfitter_cfg.c **** 	CY_SET_XTND_REG8((void CYFAR *)(CYREG_SLOWCLK_ILO_CR0), 0x06u);
 327              		.loc 1 252 0
 328 004e 394B     		ldr	r3, .L16+48
 329 0050 0622     		movs	r2, #6
 330 0052 1A70     		strb	r2, [r3]
 253:Generated_Source\PSoC5/cyfitter_cfg.c **** 
 254:Generated_Source\PSoC5/cyfitter_cfg.c **** 	/* Configure IMO based on settings from Clock DWR */
 255:Generated_Source\PSoC5/cyfitter_cfg.c **** 	CY_SET_XTND_REG8((void CYFAR *)(CYREG_FASTCLK_IMO_CR), 0x52u);
 331              		.loc 1 255 0
 332 0054 384B     		ldr	r3, .L16+52
 333 0056 5222     		movs	r2, #82
 334 0058 1A70     		strb	r2, [r3]
 256:Generated_Source\PSoC5/cyfitter_cfg.c **** 	CY_SET_XTND_REG8((void CYFAR *)(CYREG_IMO_TR1), (CY_GET_XTND_REG8((void CYFAR *)CYREG_FLSHID_CUST_
 335              		.loc 1 256 0
 336 005a 384B     		ldr	r3, .L16+56
 337 005c 384A     		ldr	r2, .L16+60
 338 005e 1278     		ldrb	r2, [r2]
 339 0060 D2B2     		uxtb	r2, r2
 340 0062 1A70     		strb	r2, [r3]
 257:Generated_Source\PSoC5/cyfitter_cfg.c **** 
 258:Generated_Source\PSoC5/cyfitter_cfg.c **** 	/* Configure PLL based on settings from Clock DWR */
 259:Generated_Source\PSoC5/cyfitter_cfg.c **** 	CY_SET_XTND_REG16((void CYFAR *)(CYREG_FASTCLK_PLL_P), 0x070Cu);
 341              		.loc 1 259 0
 342 0064 374B     		ldr	r3, .L16+64
 343 0066 40F20C72 		movw	r2, #1804
 344 006a 1A80     		strh	r2, [r3]	@ movhi
 260:Generated_Source\PSoC5/cyfitter_cfg.c **** 	CY_SET_XTND_REG16((void CYFAR *)(CYREG_FASTCLK_PLL_CFG0), 0x1251u);
 345              		.loc 1 260 0
 346 006c 364B     		ldr	r3, .L16+68
 347 006e 41F25122 		movw	r2, #4689
 348 0072 1A80     		strh	r2, [r3]	@ movhi
 261:Generated_Source\PSoC5/cyfitter_cfg.c **** 	/* Wait up to 250us for the PLL to lock */
 262:Generated_Source\PSoC5/cyfitter_cfg.c **** 	pllLock = 0u;
 349              		.loc 1 262 0
 350 0074 0023     		movs	r3, #0
 351 0076 FB70     		strb	r3, [r7, #3]
 263:Generated_Source\PSoC5/cyfitter_cfg.c **** 	for (timeout = 250u / 10u; (timeout > 0u) && (pllLock != 0x03u); timeout--)
 352              		.loc 1 263 0
 353 0078 1923     		movs	r3, #25
 354 007a 7B60     		str	r3, [r7, #4]
 355 007c 14E0     		b	.L12
 356              	.L14:
 264:Generated_Source\PSoC5/cyfitter_cfg.c **** 	{ 
 265:Generated_Source\PSoC5/cyfitter_cfg.c **** 		pllLock = 0x03u & ((uint8)((uint8)pllLock << 1) | ((CY_GET_XTND_REG8((void CYFAR *)CYREG_FASTCLK_
 357              		.loc 1 265 0 discriminator 4
 358 007e FB78     		ldrb	r3, [r7, #3]
 359 0080 5B00     		lsls	r3, r3, #1
ARM GAS  C:\Users\howe\AppData\Local\Temp\ccz4taye.s 			page 12


 360 0082 DAB2     		uxtb	r2, r3
 361 0084 314B     		ldr	r3, .L16+72
 362 0086 1B78     		ldrb	r3, [r3]
 363 0088 DBB2     		uxtb	r3, r3
 364 008a 03F00103 		and	r3, r3, #1
 365 008e DBB2     		uxtb	r3, r3
 366 0090 1343     		orrs	r3, r3, r2
 367 0092 DBB2     		uxtb	r3, r3
 368 0094 03F00303 		and	r3, r3, #3
 369 0098 FB70     		strb	r3, [r7, #3]
 266:Generated_Source\PSoC5/cyfitter_cfg.c **** 		CyDelayCycles(10u * 48u); /* Delay 10us based on 48MHz clock */
 370              		.loc 1 266 0 discriminator 4
 371 009a 4FF4F070 		mov	r0, #480
 372 009e FFF7FEFF 		bl	CyDelayCycles
 263:Generated_Source\PSoC5/cyfitter_cfg.c **** 	for (timeout = 250u / 10u; (timeout > 0u) && (pllLock != 0x03u); timeout--)
 373              		.loc 1 263 0 discriminator 4
 374 00a2 7B68     		ldr	r3, [r7, #4]
 375 00a4 013B     		subs	r3, r3, #1
 376 00a6 7B60     		str	r3, [r7, #4]
 377              	.L12:
 263:Generated_Source\PSoC5/cyfitter_cfg.c **** 	for (timeout = 250u / 10u; (timeout > 0u) && (pllLock != 0x03u); timeout--)
 378              		.loc 1 263 0 is_stmt 0 discriminator 1
 379 00a8 7B68     		ldr	r3, [r7, #4]
 380 00aa 002B     		cmp	r3, #0
 381 00ac 02D0     		beq	.L13
 263:Generated_Source\PSoC5/cyfitter_cfg.c **** 	for (timeout = 250u / 10u; (timeout > 0u) && (pllLock != 0x03u); timeout--)
 382              		.loc 1 263 0 discriminator 3
 383 00ae FB78     		ldrb	r3, [r7, #3]	@ zero_extendqisi2
 384 00b0 032B     		cmp	r3, #3
 385 00b2 E4D1     		bne	.L14
 386              	.L13:
 267:Generated_Source\PSoC5/cyfitter_cfg.c **** 	}
 268:Generated_Source\PSoC5/cyfitter_cfg.c **** 	/* If we ran out of time the PLL didn't lock so go to the error function */
 269:Generated_Source\PSoC5/cyfitter_cfg.c **** 	if (timeout == 0u)
 387              		.loc 1 269 0 is_stmt 1
 388 00b4 7B68     		ldr	r3, [r7, #4]
 389 00b6 002B     		cmp	r3, #0
 390 00b8 02D1     		bne	.L15
 270:Generated_Source\PSoC5/cyfitter_cfg.c **** 	{
 271:Generated_Source\PSoC5/cyfitter_cfg.c **** 		CyClockStartupError(CYCLOCKSTART_PLL_ERROR);
 391              		.loc 1 271 0
 392 00ba 0320     		movs	r0, #3
 393 00bc FFF7FEFF 		bl	CyClockStartupError
 394              	.L15:
 272:Generated_Source\PSoC5/cyfitter_cfg.c **** 	}
 273:Generated_Source\PSoC5/cyfitter_cfg.c **** 
 274:Generated_Source\PSoC5/cyfitter_cfg.c **** 	/* Configure Bus/Master Clock based on settings from Clock DWR */
 275:Generated_Source\PSoC5/cyfitter_cfg.c **** 	CY_SET_XTND_REG16((void CYFAR *)(CYREG_CLKDIST_MSTR0), 0x0100u);
 395              		.loc 1 275 0
 396 00c0 234B     		ldr	r3, .L16+76
 397 00c2 4FF48072 		mov	r2, #256
 398 00c6 1A80     		strh	r2, [r3]	@ movhi
 276:Generated_Source\PSoC5/cyfitter_cfg.c **** 	CY_SET_XTND_REG8((void CYFAR *)(CYREG_CLKDIST_MSTR0), 0x07u);
 399              		.loc 1 276 0
 400 00c8 214B     		ldr	r3, .L16+76
 401 00ca 0722     		movs	r2, #7
 402 00cc 1A70     		strb	r2, [r3]
ARM GAS  C:\Users\howe\AppData\Local\Temp\ccz4taye.s 			page 13


 277:Generated_Source\PSoC5/cyfitter_cfg.c **** 	CY_SET_XTND_REG8((void CYFAR *)(CYREG_CLKDIST_BCFG0), 0x00u);
 403              		.loc 1 277 0
 404 00ce 214B     		ldr	r3, .L16+80
 405 00d0 0022     		movs	r2, #0
 406 00d2 1A70     		strb	r2, [r3]
 278:Generated_Source\PSoC5/cyfitter_cfg.c **** 	CY_SET_XTND_REG8((void CYFAR *)(CYREG_CLKDIST_BCFG2), 0x48u);
 407              		.loc 1 278 0
 408 00d4 204B     		ldr	r3, .L16+84
 409 00d6 4822     		movs	r2, #72
 410 00d8 1A70     		strb	r2, [r3]
 279:Generated_Source\PSoC5/cyfitter_cfg.c **** 	CY_SET_XTND_REG8((void CYFAR *)(CYREG_CLKDIST_MSTR0), 0x00u);
 411              		.loc 1 279 0
 412 00da 1D4B     		ldr	r3, .L16+76
 413 00dc 0022     		movs	r2, #0
 414 00de 1A70     		strb	r2, [r3]
 280:Generated_Source\PSoC5/cyfitter_cfg.c **** 
 281:Generated_Source\PSoC5/cyfitter_cfg.c **** 	/* Configure USB Clock based on settings from Clock DWR */
 282:Generated_Source\PSoC5/cyfitter_cfg.c **** 	CY_SET_XTND_REG8((void CYFAR *)(CYREG_CLKDIST_UCFG), 0x00u);
 415              		.loc 1 282 0
 416 00e0 1E4B     		ldr	r3, .L16+88
 417 00e2 0022     		movs	r2, #0
 418 00e4 1A70     		strb	r2, [r3]
 283:Generated_Source\PSoC5/cyfitter_cfg.c **** 	CY_SET_XTND_REG8((void CYFAR *)(CYREG_CLKDIST_LD), 0x02u);
 419              		.loc 1 283 0
 420 00e6 1E4B     		ldr	r3, .L16+92
 421 00e8 0222     		movs	r2, #2
 422 00ea 1A70     		strb	r2, [r3]
 284:Generated_Source\PSoC5/cyfitter_cfg.c **** 
 285:Generated_Source\PSoC5/cyfitter_cfg.c **** 	CY_SET_XTND_REG8((void CYFAR *)(CYREG_PM_ACT_CFG2), ((CY_GET_XTND_REG8((void CYFAR *)CYREG_PM_ACT_
 423              		.loc 1 285 0
 424 00ec 1D4A     		ldr	r2, .L16+96
 425 00ee 1D4B     		ldr	r3, .L16+96
 426 00f0 1B78     		ldrb	r3, [r3]
 427 00f2 DBB2     		uxtb	r3, r3
 428 00f4 43F03F03 		orr	r3, r3, #63
 429 00f8 DBB2     		uxtb	r3, r3
 430 00fa 1370     		strb	r3, [r2]
 286:Generated_Source\PSoC5/cyfitter_cfg.c **** }
 431              		.loc 1 286 0
 432 00fc 00BF     		nop
 433 00fe 0837     		adds	r7, r7, #8
 434              		.cfi_def_cfa_offset 8
 435 0100 BD46     		mov	sp, r7
 436              		.cfi_def_cfa_register 13
 437              		@ sp needed
 438 0102 80BD     		pop	{r7, pc}
 439              	.L17:
 440              		.align	2
 441              	.L16:
 442 0104 80400040 		.word	1073758336
 443 0108 82400040 		.word	1073758338
 444 010c 84400040 		.word	1073758340
 445 0110 86400040 		.word	1073758342
 446 0114 88400040 		.word	1073758344
 447 0118 8A400040 		.word	1073758346
 448 011c 8C400040 		.word	1073758348
 449 0120 8E400040 		.word	1073758350
ARM GAS  C:\Users\howe\AppData\Local\Temp\ccz4taye.s 			page 14


 450 0124 90400040 		.word	1073758352
 451 0128 92400040 		.word	1073758354
 452 012c 94400040 		.word	1073758356
 453 0130 96400040 		.word	1073758358
 454 0134 00430040 		.word	1073758976
 455 0138 00420040 		.word	1073758720
 456 013c A1460040 		.word	1073759905
 457 0140 0F010049 		.word	1224737039
 458 0144 22420040 		.word	1073758754
 459 0148 20420040 		.word	1073758752
 460 014c 25420040 		.word	1073758757
 461 0150 04400040 		.word	1073758212
 462 0154 06400040 		.word	1073758214
 463 0158 08400040 		.word	1073758216
 464 015c 09400040 		.word	1073758217
 465 0160 01400040 		.word	1073758209
 466 0164 A2430040 		.word	1073759138
 467              		.cfi_endproc
 468              	.LFE5:
 469              		.size	ClockSetup, .-ClockSetup
 470              		.section	.text.AnalogSetDefault,"ax",%progbits
 471              		.align	2
 472              		.thumb
 473              		.thumb_func
 474              		.type	AnalogSetDefault, %function
 475              	AnalogSetDefault:
 476              	.LFB6:
 287:Generated_Source\PSoC5/cyfitter_cfg.c **** 
 288:Generated_Source\PSoC5/cyfitter_cfg.c **** 
 289:Generated_Source\PSoC5/cyfitter_cfg.c **** /* Analog API Functions */
 290:Generated_Source\PSoC5/cyfitter_cfg.c **** 
 291:Generated_Source\PSoC5/cyfitter_cfg.c **** 
 292:Generated_Source\PSoC5/cyfitter_cfg.c **** /*******************************************************************************
 293:Generated_Source\PSoC5/cyfitter_cfg.c **** * Function Name: AnalogSetDefault
 294:Generated_Source\PSoC5/cyfitter_cfg.c **** ********************************************************************************
 295:Generated_Source\PSoC5/cyfitter_cfg.c **** *
 296:Generated_Source\PSoC5/cyfitter_cfg.c **** * Summary:
 297:Generated_Source\PSoC5/cyfitter_cfg.c **** *  Sets up the analog portions of the chip to default values based on chip
 298:Generated_Source\PSoC5/cyfitter_cfg.c **** *  configuration options from the project.
 299:Generated_Source\PSoC5/cyfitter_cfg.c **** *
 300:Generated_Source\PSoC5/cyfitter_cfg.c **** * Parameters:
 301:Generated_Source\PSoC5/cyfitter_cfg.c **** *  void
 302:Generated_Source\PSoC5/cyfitter_cfg.c **** *
 303:Generated_Source\PSoC5/cyfitter_cfg.c **** * Return:
 304:Generated_Source\PSoC5/cyfitter_cfg.c **** *  void
 305:Generated_Source\PSoC5/cyfitter_cfg.c **** *
 306:Generated_Source\PSoC5/cyfitter_cfg.c **** *******************************************************************************/
 307:Generated_Source\PSoC5/cyfitter_cfg.c **** static void AnalogSetDefault(void);
 308:Generated_Source\PSoC5/cyfitter_cfg.c **** static void AnalogSetDefault(void)
 309:Generated_Source\PSoC5/cyfitter_cfg.c **** {
 477              		.loc 1 309 0
 478              		.cfi_startproc
 479              		@ args = 0, pretend = 0, frame = 8
 480              		@ frame_needed = 1, uses_anonymous_args = 0
 481 0000 80B5     		push	{r7, lr}
 482              		.cfi_def_cfa_offset 8
 483              		.cfi_offset 7, -8
ARM GAS  C:\Users\howe\AppData\Local\Temp\ccz4taye.s 			page 15


 484              		.cfi_offset 14, -4
 485 0002 82B0     		sub	sp, sp, #8
 486              		.cfi_def_cfa_offset 16
 487 0004 00AF     		add	r7, sp, #0
 488              		.cfi_def_cfa_register 7
 310:Generated_Source\PSoC5/cyfitter_cfg.c **** 	uint8 bg_xover_inl_trim = CY_GET_XTND_REG8((void CYFAR *)(CYREG_FLSHID_MFG_CFG_BG_XOVER_INL_TRIM +
 489              		.loc 1 310 0
 490 0006 374B     		ldr	r3, .L19
 491 0008 1B78     		ldrb	r3, [r3]
 492 000a FB71     		strb	r3, [r7, #7]
 311:Generated_Source\PSoC5/cyfitter_cfg.c **** 	uint8 cr4 = CY_GET_XTND_REG8((void CYFAR *)(CYREG_RESET_CR4));
 493              		.loc 1 311 0
 494 000c 364B     		ldr	r3, .L19+4
 495 000e 1B78     		ldrb	r3, [r3]
 496 0010 BB71     		strb	r3, [r7, #6]
 312:Generated_Source\PSoC5/cyfitter_cfg.c **** 	uint8 cr5 = CY_GET_XTND_REG8((void CYFAR *)(CYREG_RESET_CR5));
 497              		.loc 1 312 0
 498 0012 364B     		ldr	r3, .L19+8
 499 0014 1B78     		ldrb	r3, [r3]
 500 0016 7B71     		strb	r3, [r7, #5]
 313:Generated_Source\PSoC5/cyfitter_cfg.c **** 	CY_SET_XTND_REG8((void CYFAR *)(CYREG_BG_DFT0), (bg_xover_inl_trim & 0x07u));
 501              		.loc 1 313 0
 502 0018 354A     		ldr	r2, .L19+12
 503 001a FB79     		ldrb	r3, [r7, #7]
 504 001c 03F00703 		and	r3, r3, #7
 505 0020 DBB2     		uxtb	r3, r3
 506 0022 1370     		strb	r3, [r2]
 314:Generated_Source\PSoC5/cyfitter_cfg.c **** 	CY_SET_XTND_REG8((void CYFAR *)(CYREG_BG_DFT1), ((bg_xover_inl_trim >> 4) & 0x0Fu));
 507              		.loc 1 314 0
 508 0024 334A     		ldr	r2, .L19+16
 509 0026 FB79     		ldrb	r3, [r7, #7]	@ zero_extendqisi2
 510 0028 1B09     		lsrs	r3, r3, #4
 511 002a DBB2     		uxtb	r3, r3
 512 002c 1370     		strb	r3, [r2]
 315:Generated_Source\PSoC5/cyfitter_cfg.c **** 	/* Disable PRES while setting up SAR voltage reference */
 316:Generated_Source\PSoC5/cyfitter_cfg.c **** 	CY_SET_XTND_REG8((void CYFAR *)(CYREG_RESET_CR4), (cr4 | 0x03u));
 513              		.loc 1 316 0
 514 002e 2E4A     		ldr	r2, .L19+4
 515 0030 BB79     		ldrb	r3, [r7, #6]
 516 0032 43F00303 		orr	r3, r3, #3
 517 0036 DBB2     		uxtb	r3, r3
 518 0038 1370     		strb	r3, [r2]
 317:Generated_Source\PSoC5/cyfitter_cfg.c **** 	CY_SET_XTND_REG8((void CYFAR *)(CYREG_RESET_CR5), (cr5 | 0x03u));
 519              		.loc 1 317 0
 520 003a 2C4A     		ldr	r2, .L19+8
 521 003c 7B79     		ldrb	r3, [r7, #5]
 522 003e 43F00303 		orr	r3, r3, #3
 523 0042 DBB2     		uxtb	r3, r3
 524 0044 1370     		strb	r3, [r2]
 318:Generated_Source\PSoC5/cyfitter_cfg.c **** 	CY_SET_XTND_REG16((void CYFAR *)CYREG_PRT0_AMUX, 0x0201u);
 525              		.loc 1 318 0
 526 0046 2C4B     		ldr	r3, .L19+20
 527 0048 40F20122 		movw	r2, #513
 528 004c 1A80     		strh	r2, [r3]	@ movhi
 319:Generated_Source\PSoC5/cyfitter_cfg.c **** 	CY_SET_XTND_REG8((void CYFAR *)CYREG_PRT3_AG, 0xC0u);
 529              		.loc 1 319 0
 530 004e 2B4B     		ldr	r3, .L19+24
ARM GAS  C:\Users\howe\AppData\Local\Temp\ccz4taye.s 			page 16


 531 0050 C022     		movs	r2, #192
 532 0052 1A70     		strb	r2, [r3]
 320:Generated_Source\PSoC5/cyfitter_cfg.c **** 	CY_SET_XTND_REG16((void CYFAR *)CYREG_PRT5_AMUX, 0x8040u);
 533              		.loc 1 320 0
 534 0054 2A4B     		ldr	r3, .L19+28
 535 0056 48F24002 		movw	r2, #32832
 536 005a 1A80     		strh	r2, [r3]	@ movhi
 321:Generated_Source\PSoC5/cyfitter_cfg.c **** 	CY_SET_XTND_REG8((void CYFAR *)CYREG_SAR0_CSR1, 0x40u);
 537              		.loc 1 321 0
 538 005c 294B     		ldr	r3, .L19+32
 539 005e 4022     		movs	r2, #64
 540 0060 1A70     		strb	r2, [r3]
 322:Generated_Source\PSoC5/cyfitter_cfg.c **** 	CY_SET_XTND_REG8((void CYFAR *)CYREG_SAR0_CSR3, 0x40u);
 541              		.loc 1 322 0
 542 0062 294B     		ldr	r3, .L19+36
 543 0064 4022     		movs	r2, #64
 544 0066 1A70     		strb	r2, [r3]
 323:Generated_Source\PSoC5/cyfitter_cfg.c **** 	CY_SET_XTND_REG8((void CYFAR *)CYREG_SAR1_CSR1, 0x40u);
 545              		.loc 1 323 0
 546 0068 284B     		ldr	r3, .L19+40
 547 006a 4022     		movs	r2, #64
 548 006c 1A70     		strb	r2, [r3]
 324:Generated_Source\PSoC5/cyfitter_cfg.c **** 	CY_SET_XTND_REG8((void CYFAR *)CYREG_SAR1_CSR3, 0x40u);
 549              		.loc 1 324 0
 550 006e 284B     		ldr	r3, .L19+44
 551 0070 4022     		movs	r2, #64
 552 0072 1A70     		strb	r2, [r3]
 325:Generated_Source\PSoC5/cyfitter_cfg.c **** 	CY_SET_XTND_REG8((void CYFAR *)CYREG_DAC1_SW2, 0x08u);
 553              		.loc 1 325 0
 554 0074 274B     		ldr	r3, .L19+48
 555 0076 0822     		movs	r2, #8
 556 0078 1A70     		strb	r2, [r3]
 326:Generated_Source\PSoC5/cyfitter_cfg.c **** 	CY_SET_XTND_REG8((void CYFAR *)CYREG_DAC3_SW0, 0x10u);
 557              		.loc 1 326 0
 558 007a 274B     		ldr	r3, .L19+52
 559 007c 1022     		movs	r2, #16
 560 007e 1A70     		strb	r2, [r3]
 327:Generated_Source\PSoC5/cyfitter_cfg.c **** 	CY_SET_XTND_REG8((void CYFAR *)CYREG_CMP1_SW4, 0x10u);
 561              		.loc 1 327 0
 562 0080 264B     		ldr	r3, .L19+56
 563 0082 1022     		movs	r2, #16
 564 0084 1A70     		strb	r2, [r3]
 328:Generated_Source\PSoC5/cyfitter_cfg.c **** 	CY_SET_XTND_REG8((void CYFAR *)CYREG_DSM0_SW0, 0x28u);
 565              		.loc 1 328 0
 566 0086 264B     		ldr	r3, .L19+60
 567 0088 2822     		movs	r2, #40
 568 008a 1A70     		strb	r2, [r3]
 329:Generated_Source\PSoC5/cyfitter_cfg.c **** 	CY_SET_XTND_REG8((void CYFAR *)CYREG_SAR0_SW0, 0x40u);
 569              		.loc 1 329 0
 570 008c 254B     		ldr	r3, .L19+64
 571 008e 4022     		movs	r2, #64
 572 0090 1A70     		strb	r2, [r3]
 330:Generated_Source\PSoC5/cyfitter_cfg.c **** 	CY_SET_XTND_REG8((void CYFAR *)CYREG_SAR0_SW3, 0x20u);
 573              		.loc 1 330 0
 574 0092 254B     		ldr	r3, .L19+68
 575 0094 2022     		movs	r2, #32
 576 0096 1A70     		strb	r2, [r3]
ARM GAS  C:\Users\howe\AppData\Local\Temp\ccz4taye.s 			page 17


 331:Generated_Source\PSoC5/cyfitter_cfg.c **** 	CY_SET_XTND_REG8((void CYFAR *)CYREG_SAR1_SW0, 0x80u);
 577              		.loc 1 331 0
 578 0098 244B     		ldr	r3, .L19+72
 579 009a 8022     		movs	r2, #128
 580 009c 1A70     		strb	r2, [r3]
 332:Generated_Source\PSoC5/cyfitter_cfg.c **** 	CY_SET_XTND_REG8((void CYFAR *)CYREG_SAR1_SW3, 0x20u);
 581              		.loc 1 332 0
 582 009e 244B     		ldr	r3, .L19+76
 583 00a0 2022     		movs	r2, #32
 584 00a2 1A70     		strb	r2, [r3]
 333:Generated_Source\PSoC5/cyfitter_cfg.c **** 	CY_SET_XTND_REG16((void CYFAR *)CYREG_OPAMP0_MX, 0x0108u);
 585              		.loc 1 333 0
 586 00a4 234B     		ldr	r3, .L19+80
 587 00a6 4FF48472 		mov	r2, #264
 588 00aa 1A80     		strh	r2, [r3]	@ movhi
 334:Generated_Source\PSoC5/cyfitter_cfg.c **** 	CY_SET_XTND_REG16((void CYFAR *)CYREG_OPAMP2_MX, 0x0101u);
 589              		.loc 1 334 0
 590 00ac 224B     		ldr	r3, .L19+84
 591 00ae 40F20112 		movw	r2, #257
 592 00b2 1A80     		strh	r2, [r3]	@ movhi
 335:Generated_Source\PSoC5/cyfitter_cfg.c **** 	CY_SET_XTND_REG8((void CYFAR *)CYREG_BUS_SW0, 0x58u);
 593              		.loc 1 335 0
 594 00b4 214B     		ldr	r3, .L19+88
 595 00b6 5822     		movs	r2, #88
 596 00b8 1A70     		strb	r2, [r3]
 336:Generated_Source\PSoC5/cyfitter_cfg.c **** 	CY_SET_XTND_REG16((void CYFAR *)CYREG_BUS_SW2, 0x0108u);
 597              		.loc 1 336 0
 598 00ba 214B     		ldr	r3, .L19+92
 599 00bc 4FF48472 		mov	r2, #264
 600 00c0 1A80     		strh	r2, [r3]	@ movhi
 337:Generated_Source\PSoC5/cyfitter_cfg.c **** 	CyDelayUs(10u); /* Allow vref to settle before re-enabling PRES */
 601              		.loc 1 337 0
 602 00c2 0A20     		movs	r0, #10
 603 00c4 FFF7FEFF 		bl	CyDelayUs
 338:Generated_Source\PSoC5/cyfitter_cfg.c **** 	CY_SET_XTND_REG8((void CYFAR *)(CYREG_RESET_CR5), (cr5));
 604              		.loc 1 338 0
 605 00c8 084A     		ldr	r2, .L19+8
 606 00ca 7B79     		ldrb	r3, [r7, #5]
 607 00cc 1370     		strb	r3, [r2]
 339:Generated_Source\PSoC5/cyfitter_cfg.c **** 	CY_SET_XTND_REG8((void CYFAR *)(CYREG_RESET_CR4), (cr4));
 608              		.loc 1 339 0
 609 00ce 064A     		ldr	r2, .L19+4
 610 00d0 BB79     		ldrb	r3, [r7, #6]
 611 00d2 1370     		strb	r3, [r2]
 340:Generated_Source\PSoC5/cyfitter_cfg.c **** 	CY_SET_XTND_REG8((void CYFAR *)CYREG_PUMP_CR0, 0x44u);
 612              		.loc 1 340 0
 613 00d4 1B4B     		ldr	r3, .L19+96
 614 00d6 4422     		movs	r2, #68
 615 00d8 1A70     		strb	r2, [r3]
 341:Generated_Source\PSoC5/cyfitter_cfg.c **** }
 616              		.loc 1 341 0
 617 00da 00BF     		nop
 618 00dc 0837     		adds	r7, r7, #8
 619              		.cfi_def_cfa_offset 8
 620 00de BD46     		mov	sp, r7
 621              		.cfi_def_cfa_register 13
 622              		@ sp needed
ARM GAS  C:\Users\howe\AppData\Local\Temp\ccz4taye.s 			page 18


 623 00e0 80BD     		pop	{r7, pc}
 624              	.L20:
 625 00e2 00BF     		.align	2
 626              	.L19:
 627 00e4 CF010049 		.word	1224737231
 628 00e8 F8460040 		.word	1073759992
 629 00ec F9460040 		.word	1073759993
 630 00f0 6E580040 		.word	1073764462
 631 00f4 6F580040 		.word	1073764463
 632 00f8 0C510040 		.word	1073762572
 633 00fc 3D510040 		.word	1073762621
 634 0100 5C510040 		.word	1073762652
 635 0104 01590040 		.word	1073764609
 636 0108 03590040 		.word	1073764611
 637 010c 09590040 		.word	1073764617
 638 0110 0B590040 		.word	1073764619
 639 0114 8A5A0040 		.word	1073765002
 640 0118 985A0040 		.word	1073765016
 641 011c CC5A0040 		.word	1073765068
 642 0120 005B0040 		.word	1073765120
 643 0124 205B0040 		.word	1073765152
 644 0128 235B0040 		.word	1073765155
 645 012c 285B0040 		.word	1073765160
 646 0130 2B5B0040 		.word	1073765163
 647 0134 405B0040 		.word	1073765184
 648 0138 445B0040 		.word	1073765188
 649 013c 585B0040 		.word	1073765208
 650 0140 5A5B0040 		.word	1073765210
 651 0144 76580040 		.word	1073764470
 652              		.cfi_endproc
 653              	.LFE6:
 654              		.size	AnalogSetDefault, .-AnalogSetDefault
 655              		.section	.text.SetAnalogRoutingPumps,"ax",%progbits
 656              		.align	2
 657              		.global	SetAnalogRoutingPumps
 658              		.thumb
 659              		.thumb_func
 660              		.type	SetAnalogRoutingPumps, %function
 661              	SetAnalogRoutingPumps:
 662              	.LFB7:
 342:Generated_Source\PSoC5/cyfitter_cfg.c **** 
 343:Generated_Source\PSoC5/cyfitter_cfg.c **** 
 344:Generated_Source\PSoC5/cyfitter_cfg.c **** /*******************************************************************************
 345:Generated_Source\PSoC5/cyfitter_cfg.c **** * Function Name: SetAnalogRoutingPumps
 346:Generated_Source\PSoC5/cyfitter_cfg.c **** ********************************************************************************
 347:Generated_Source\PSoC5/cyfitter_cfg.c **** *
 348:Generated_Source\PSoC5/cyfitter_cfg.c **** * Summary:
 349:Generated_Source\PSoC5/cyfitter_cfg.c **** * Enables or disables the analog pumps feeding analog routing switches.
 350:Generated_Source\PSoC5/cyfitter_cfg.c **** * Intended to be called at startup, based on the Vdda system configuration;
 351:Generated_Source\PSoC5/cyfitter_cfg.c **** * may be called during operation when the user informs us that the Vdda voltage
 352:Generated_Source\PSoC5/cyfitter_cfg.c **** * crossed the pump threshold.
 353:Generated_Source\PSoC5/cyfitter_cfg.c **** *
 354:Generated_Source\PSoC5/cyfitter_cfg.c **** * Parameters:
 355:Generated_Source\PSoC5/cyfitter_cfg.c **** *  enabled - 1 to enable the pumps, 0 to disable the pumps
 356:Generated_Source\PSoC5/cyfitter_cfg.c **** *
 357:Generated_Source\PSoC5/cyfitter_cfg.c **** * Return:
 358:Generated_Source\PSoC5/cyfitter_cfg.c **** *  void
ARM GAS  C:\Users\howe\AppData\Local\Temp\ccz4taye.s 			page 19


 359:Generated_Source\PSoC5/cyfitter_cfg.c **** *
 360:Generated_Source\PSoC5/cyfitter_cfg.c **** *******************************************************************************/
 361:Generated_Source\PSoC5/cyfitter_cfg.c **** void SetAnalogRoutingPumps(uint8 enabled)
 362:Generated_Source\PSoC5/cyfitter_cfg.c **** {
 663              		.loc 1 362 0
 664              		.cfi_startproc
 665              		@ args = 0, pretend = 0, frame = 16
 666              		@ frame_needed = 1, uses_anonymous_args = 0
 667              		@ link register save eliminated.
 668 0000 80B4     		push	{r7}
 669              		.cfi_def_cfa_offset 4
 670              		.cfi_offset 7, -4
 671 0002 85B0     		sub	sp, sp, #20
 672              		.cfi_def_cfa_offset 24
 673 0004 00AF     		add	r7, sp, #0
 674              		.cfi_def_cfa_register 7
 675 0006 0346     		mov	r3, r0
 676 0008 FB71     		strb	r3, [r7, #7]
 363:Generated_Source\PSoC5/cyfitter_cfg.c **** 	uint8 regValue = CY_GET_XTND_REG8((void CYFAR *)CYREG_PUMP_CR0);
 677              		.loc 1 363 0
 678 000a 0B4B     		ldr	r3, .L24
 679 000c 1B78     		ldrb	r3, [r3]
 680 000e FB73     		strb	r3, [r7, #15]
 364:Generated_Source\PSoC5/cyfitter_cfg.c **** 	if (enabled != 0u)
 681              		.loc 1 364 0
 682 0010 FB79     		ldrb	r3, [r7, #7]	@ zero_extendqisi2
 683 0012 002B     		cmp	r3, #0
 684 0014 04D0     		beq	.L22
 365:Generated_Source\PSoC5/cyfitter_cfg.c **** 	{
 366:Generated_Source\PSoC5/cyfitter_cfg.c **** 		regValue |= 0x22u;
 685              		.loc 1 366 0
 686 0016 FB7B     		ldrb	r3, [r7, #15]
 687 0018 43F02203 		orr	r3, r3, #34
 688 001c FB73     		strb	r3, [r7, #15]
 689 001e 03E0     		b	.L23
 690              	.L22:
 367:Generated_Source\PSoC5/cyfitter_cfg.c **** 	}
 368:Generated_Source\PSoC5/cyfitter_cfg.c **** 	else
 369:Generated_Source\PSoC5/cyfitter_cfg.c **** 	{
 370:Generated_Source\PSoC5/cyfitter_cfg.c **** 		regValue &= (uint8)~0x22u;
 691              		.loc 1 370 0
 692 0020 FB7B     		ldrb	r3, [r7, #15]
 693 0022 23F02203 		bic	r3, r3, #34
 694 0026 FB73     		strb	r3, [r7, #15]
 695              	.L23:
 371:Generated_Source\PSoC5/cyfitter_cfg.c **** 	}
 372:Generated_Source\PSoC5/cyfitter_cfg.c **** 	CY_SET_XTND_REG8((void CYFAR *)CYREG_PUMP_CR0, regValue);
 696              		.loc 1 372 0
 697 0028 034A     		ldr	r2, .L24
 698 002a FB7B     		ldrb	r3, [r7, #15]
 699 002c 1370     		strb	r3, [r2]
 373:Generated_Source\PSoC5/cyfitter_cfg.c **** }
 700              		.loc 1 373 0
 701 002e 00BF     		nop
 702 0030 1437     		adds	r7, r7, #20
 703              		.cfi_def_cfa_offset 4
 704 0032 BD46     		mov	sp, r7
ARM GAS  C:\Users\howe\AppData\Local\Temp\ccz4taye.s 			page 20


 705              		.cfi_def_cfa_register 13
 706              		@ sp needed
 707 0034 80BC     		pop	{r7}
 708              		.cfi_restore 7
 709              		.cfi_def_cfa_offset 0
 710 0036 7047     		bx	lr
 711              	.L25:
 712              		.align	2
 713              	.L24:
 714 0038 76580040 		.word	1073764470
 715              		.cfi_endproc
 716              	.LFE7:
 717              		.size	SetAnalogRoutingPumps, .-SetAnalogRoutingPumps
 718              		.global	Amux_Trigger__addrTable
 719              		.section	.rodata
 720              		.align	2
 721              		.type	Amux_Trigger__addrTable, %object
 722              		.size	Amux_Trigger__addrTable, 8
 723              	Amux_Trigger__addrTable:
 724 0000 C85A0040 		.word	1073765064
 725 0004 C85A0040 		.word	1073765064
 726              		.global	Amux_Trigger__maskTable
 727              		.align	2
 728              		.type	Amux_Trigger__maskTable, %object
 729              		.size	Amux_Trigger__maskTable, 2
 730              	Amux_Trigger__maskTable:
 731 0008 40       		.byte	64
 732 0009 80       		.byte	-128
 733              		.section	.text.Amux_Trigger_Set,"ax",%progbits
 734              		.align	2
 735              		.global	Amux_Trigger_Set
 736              		.thumb
 737              		.thumb_func
 738              		.type	Amux_Trigger_Set, %function
 739              	Amux_Trigger_Set:
 740              	.LFB8:
 374:Generated_Source\PSoC5/cyfitter_cfg.c **** 
 375:Generated_Source\PSoC5/cyfitter_cfg.c **** 
 376:Generated_Source\PSoC5/cyfitter_cfg.c **** #define CY_AMUX_UNUSED CYREG_BOOST_SR
 377:Generated_Source\PSoC5/cyfitter_cfg.c **** /* This is an implementation detail of the AMux. Code that depends on it may be
 378:Generated_Source\PSoC5/cyfitter_cfg.c ****    incompatible with other versions of PSoC Creator. */
 379:Generated_Source\PSoC5/cyfitter_cfg.c **** uint8 CYXDATA * const CYCODE Amux_Trigger__addrTable[2] = {
 380:Generated_Source\PSoC5/cyfitter_cfg.c **** 	(uint8 CYXDATA *)CYREG_CMP1_SW0, 
 381:Generated_Source\PSoC5/cyfitter_cfg.c **** 	(uint8 CYXDATA *)CYREG_CMP1_SW0, 
 382:Generated_Source\PSoC5/cyfitter_cfg.c **** };
 383:Generated_Source\PSoC5/cyfitter_cfg.c **** 
 384:Generated_Source\PSoC5/cyfitter_cfg.c **** /* This is an implementation detail of the AMux. Code that depends on it may be
 385:Generated_Source\PSoC5/cyfitter_cfg.c ****    incompatible with other versions of PSoC Creator. */
 386:Generated_Source\PSoC5/cyfitter_cfg.c **** const uint8 CYCODE Amux_Trigger__maskTable[2] = {
 387:Generated_Source\PSoC5/cyfitter_cfg.c **** 	0x40u, 
 388:Generated_Source\PSoC5/cyfitter_cfg.c **** 	0x80u, 
 389:Generated_Source\PSoC5/cyfitter_cfg.c **** };
 390:Generated_Source\PSoC5/cyfitter_cfg.c **** 
 391:Generated_Source\PSoC5/cyfitter_cfg.c **** /*******************************************************************************
 392:Generated_Source\PSoC5/cyfitter_cfg.c **** * Function Name: Amux_Trigger_Set
 393:Generated_Source\PSoC5/cyfitter_cfg.c **** ********************************************************************************
 394:Generated_Source\PSoC5/cyfitter_cfg.c **** * Summary:
ARM GAS  C:\Users\howe\AppData\Local\Temp\ccz4taye.s 			page 21


 395:Generated_Source\PSoC5/cyfitter_cfg.c **** *  This function is used to set a particular channel as active on the AMux.
 396:Generated_Source\PSoC5/cyfitter_cfg.c **** *
 397:Generated_Source\PSoC5/cyfitter_cfg.c **** * Parameters:  
 398:Generated_Source\PSoC5/cyfitter_cfg.c **** *   channel - The mux channel input to set as active
 399:Generated_Source\PSoC5/cyfitter_cfg.c **** *
 400:Generated_Source\PSoC5/cyfitter_cfg.c **** * Return:
 401:Generated_Source\PSoC5/cyfitter_cfg.c **** *   void
 402:Generated_Source\PSoC5/cyfitter_cfg.c **** *
 403:Generated_Source\PSoC5/cyfitter_cfg.c **** *******************************************************************************/
 404:Generated_Source\PSoC5/cyfitter_cfg.c **** void Amux_Trigger_Set(uint8 channel)
 405:Generated_Source\PSoC5/cyfitter_cfg.c **** {
 741              		.loc 1 405 0
 742              		.cfi_startproc
 743              		@ args = 0, pretend = 0, frame = 8
 744              		@ frame_needed = 1, uses_anonymous_args = 0
 745              		@ link register save eliminated.
 746 0000 80B4     		push	{r7}
 747              		.cfi_def_cfa_offset 4
 748              		.cfi_offset 7, -4
 749 0002 83B0     		sub	sp, sp, #12
 750              		.cfi_def_cfa_offset 16
 751 0004 00AF     		add	r7, sp, #0
 752              		.cfi_def_cfa_register 7
 753 0006 0346     		mov	r3, r0
 754 0008 FB71     		strb	r3, [r7, #7]
 406:Generated_Source\PSoC5/cyfitter_cfg.c **** 	if (channel < 2)
 755              		.loc 1 406 0
 756 000a FB79     		ldrb	r3, [r7, #7]	@ zero_extendqisi2
 757 000c 012B     		cmp	r3, #1
 758 000e 0ED8     		bhi	.L28
 407:Generated_Source\PSoC5/cyfitter_cfg.c **** 	{
 408:Generated_Source\PSoC5/cyfitter_cfg.c **** 		*Amux_Trigger__addrTable[channel] |= Amux_Trigger__maskTable[channel];
 759              		.loc 1 408 0
 760 0010 FB79     		ldrb	r3, [r7, #7]	@ zero_extendqisi2
 761 0012 094A     		ldr	r2, .L29
 762 0014 52F82330 		ldr	r3, [r2, r3, lsl #2]
 763 0018 FA79     		ldrb	r2, [r7, #7]	@ zero_extendqisi2
 764 001a 0749     		ldr	r1, .L29
 765 001c 51F82220 		ldr	r2, [r1, r2, lsl #2]
 766 0020 1178     		ldrb	r1, [r2]	@ zero_extendqisi2
 767 0022 FA79     		ldrb	r2, [r7, #7]	@ zero_extendqisi2
 768 0024 0548     		ldr	r0, .L29+4
 769 0026 825C     		ldrb	r2, [r0, r2]	@ zero_extendqisi2
 770 0028 0A43     		orrs	r2, r2, r1
 771 002a D2B2     		uxtb	r2, r2
 772 002c 1A70     		strb	r2, [r3]
 773              	.L28:
 409:Generated_Source\PSoC5/cyfitter_cfg.c **** 	}
 410:Generated_Source\PSoC5/cyfitter_cfg.c **** }
 774              		.loc 1 410 0
 775 002e 00BF     		nop
 776 0030 0C37     		adds	r7, r7, #12
 777              		.cfi_def_cfa_offset 4
 778 0032 BD46     		mov	sp, r7
 779              		.cfi_def_cfa_register 13
 780              		@ sp needed
 781 0034 80BC     		pop	{r7}
ARM GAS  C:\Users\howe\AppData\Local\Temp\ccz4taye.s 			page 22


 782              		.cfi_restore 7
 783              		.cfi_def_cfa_offset 0
 784 0036 7047     		bx	lr
 785              	.L30:
 786              		.align	2
 787              	.L29:
 788 0038 00000000 		.word	Amux_Trigger__addrTable
 789 003c 00000000 		.word	Amux_Trigger__maskTable
 790              		.cfi_endproc
 791              	.LFE8:
 792              		.size	Amux_Trigger_Set, .-Amux_Trigger_Set
 793              		.section	.text.Amux_Trigger_Unset,"ax",%progbits
 794              		.align	2
 795              		.global	Amux_Trigger_Unset
 796              		.thumb
 797              		.thumb_func
 798              		.type	Amux_Trigger_Unset, %function
 799              	Amux_Trigger_Unset:
 800              	.LFB9:
 411:Generated_Source\PSoC5/cyfitter_cfg.c **** 
 412:Generated_Source\PSoC5/cyfitter_cfg.c **** /*******************************************************************************
 413:Generated_Source\PSoC5/cyfitter_cfg.c **** * Function Name: Amux_Trigger_Unset
 414:Generated_Source\PSoC5/cyfitter_cfg.c **** ********************************************************************************
 415:Generated_Source\PSoC5/cyfitter_cfg.c **** * Summary:
 416:Generated_Source\PSoC5/cyfitter_cfg.c **** *  This function is used to clear a particular channel from being active on the
 417:Generated_Source\PSoC5/cyfitter_cfg.c **** *  AMux.
 418:Generated_Source\PSoC5/cyfitter_cfg.c **** *
 419:Generated_Source\PSoC5/cyfitter_cfg.c **** * Parameters:  
 420:Generated_Source\PSoC5/cyfitter_cfg.c **** *   channel - The mux channel input to mark inactive
 421:Generated_Source\PSoC5/cyfitter_cfg.c **** *
 422:Generated_Source\PSoC5/cyfitter_cfg.c **** * Return:
 423:Generated_Source\PSoC5/cyfitter_cfg.c **** *   void
 424:Generated_Source\PSoC5/cyfitter_cfg.c **** *
 425:Generated_Source\PSoC5/cyfitter_cfg.c **** *******************************************************************************/
 426:Generated_Source\PSoC5/cyfitter_cfg.c **** void Amux_Trigger_Unset(uint8 channel)
 427:Generated_Source\PSoC5/cyfitter_cfg.c **** {
 801              		.loc 1 427 0
 802              		.cfi_startproc
 803              		@ args = 0, pretend = 0, frame = 8
 804              		@ frame_needed = 1, uses_anonymous_args = 0
 805              		@ link register save eliminated.
 806 0000 80B4     		push	{r7}
 807              		.cfi_def_cfa_offset 4
 808              		.cfi_offset 7, -4
 809 0002 83B0     		sub	sp, sp, #12
 810              		.cfi_def_cfa_offset 16
 811 0004 00AF     		add	r7, sp, #0
 812              		.cfi_def_cfa_register 7
 813 0006 0346     		mov	r3, r0
 814 0008 FB71     		strb	r3, [r7, #7]
 428:Generated_Source\PSoC5/cyfitter_cfg.c **** 	if (channel < 2)
 815              		.loc 1 428 0
 816 000a FB79     		ldrb	r3, [r7, #7]	@ zero_extendqisi2
 817 000c 012B     		cmp	r3, #1
 818 000e 10D8     		bhi	.L33
 429:Generated_Source\PSoC5/cyfitter_cfg.c **** 	{
 430:Generated_Source\PSoC5/cyfitter_cfg.c **** 		*Amux_Trigger__addrTable[channel] &= (uint8)~Amux_Trigger__maskTable[channel];
ARM GAS  C:\Users\howe\AppData\Local\Temp\ccz4taye.s 			page 23


 819              		.loc 1 430 0
 820 0010 FB79     		ldrb	r3, [r7, #7]	@ zero_extendqisi2
 821 0012 0A4A     		ldr	r2, .L34
 822 0014 52F82330 		ldr	r3, [r2, r3, lsl #2]
 823 0018 FA79     		ldrb	r2, [r7, #7]	@ zero_extendqisi2
 824 001a 0849     		ldr	r1, .L34
 825 001c 51F82220 		ldr	r2, [r1, r2, lsl #2]
 826 0020 1178     		ldrb	r1, [r2]	@ zero_extendqisi2
 827 0022 FA79     		ldrb	r2, [r7, #7]	@ zero_extendqisi2
 828 0024 0648     		ldr	r0, .L34+4
 829 0026 825C     		ldrb	r2, [r0, r2]	@ zero_extendqisi2
 830 0028 D243     		mvns	r2, r2
 831 002a D2B2     		uxtb	r2, r2
 832 002c 0A40     		ands	r2, r2, r1
 833 002e D2B2     		uxtb	r2, r2
 834 0030 1A70     		strb	r2, [r3]
 835              	.L33:
 431:Generated_Source\PSoC5/cyfitter_cfg.c **** 	}
 432:Generated_Source\PSoC5/cyfitter_cfg.c **** }
 836              		.loc 1 432 0
 837 0032 00BF     		nop
 838 0034 0C37     		adds	r7, r7, #12
 839              		.cfi_def_cfa_offset 4
 840 0036 BD46     		mov	sp, r7
 841              		.cfi_def_cfa_register 13
 842              		@ sp needed
 843 0038 80BC     		pop	{r7}
 844              		.cfi_restore 7
 845              		.cfi_def_cfa_offset 0
 846 003a 7047     		bx	lr
 847              	.L35:
 848              		.align	2
 849              	.L34:
 850 003c 00000000 		.word	Amux_Trigger__addrTable
 851 0040 00000000 		.word	Amux_Trigger__maskTable
 852              		.cfi_endproc
 853              	.LFE9:
 854              		.size	Amux_Trigger_Unset, .-Amux_Trigger_Unset
 855              		.section	.text.cyfitter_cfg,"ax",%progbits
 856              		.align	2
 857              		.global	cyfitter_cfg
 858              		.thumb
 859              		.thumb_func
 860              		.type	cyfitter_cfg, %function
 861              	cyfitter_cfg:
 862              	.LFB10:
 433:Generated_Source\PSoC5/cyfitter_cfg.c **** 
 434:Generated_Source\PSoC5/cyfitter_cfg.c **** 
 435:Generated_Source\PSoC5/cyfitter_cfg.c **** 
 436:Generated_Source\PSoC5/cyfitter_cfg.c **** /*******************************************************************************
 437:Generated_Source\PSoC5/cyfitter_cfg.c **** * Function Name: cyfitter_cfg
 438:Generated_Source\PSoC5/cyfitter_cfg.c **** ********************************************************************************
 439:Generated_Source\PSoC5/cyfitter_cfg.c **** * Summary:
 440:Generated_Source\PSoC5/cyfitter_cfg.c **** *  This function is called by the start-up code for the selected device. It
 441:Generated_Source\PSoC5/cyfitter_cfg.c **** *  performs all of the necessary device configuration based on the design
 442:Generated_Source\PSoC5/cyfitter_cfg.c **** *  settings.  This includes settings from the Design Wide Resources (DWR) such
 443:Generated_Source\PSoC5/cyfitter_cfg.c **** *  as Clocks and Pins as well as any component configuration that is necessary.
ARM GAS  C:\Users\howe\AppData\Local\Temp\ccz4taye.s 			page 24


 444:Generated_Source\PSoC5/cyfitter_cfg.c **** *
 445:Generated_Source\PSoC5/cyfitter_cfg.c **** * Parameters:
 446:Generated_Source\PSoC5/cyfitter_cfg.c **** *   void
 447:Generated_Source\PSoC5/cyfitter_cfg.c **** *
 448:Generated_Source\PSoC5/cyfitter_cfg.c **** * Return:
 449:Generated_Source\PSoC5/cyfitter_cfg.c **** *   void
 450:Generated_Source\PSoC5/cyfitter_cfg.c **** *
 451:Generated_Source\PSoC5/cyfitter_cfg.c **** *******************************************************************************/
 452:Generated_Source\PSoC5/cyfitter_cfg.c **** 
 453:Generated_Source\PSoC5/cyfitter_cfg.c **** void cyfitter_cfg(void)
 454:Generated_Source\PSoC5/cyfitter_cfg.c **** {
 863              		.loc 1 454 0
 864              		.cfi_startproc
 865              		@ args = 0, pretend = 0, frame = 8
 866              		@ frame_needed = 1, uses_anonymous_args = 0
 867 0000 80B5     		push	{r7, lr}
 868              		.cfi_def_cfa_offset 8
 869              		.cfi_offset 7, -8
 870              		.cfi_offset 14, -4
 871 0002 82B0     		sub	sp, sp, #8
 872              		.cfi_def_cfa_offset 16
 873 0004 00AF     		add	r7, sp, #0
 874              		.cfi_def_cfa_register 7
 455:Generated_Source\PSoC5/cyfitter_cfg.c **** #ifdef CYGlobalIntDisable
 456:Generated_Source\PSoC5/cyfitter_cfg.c **** 	/* Disable interrupts by default. Let user enable if/when they want. */
 457:Generated_Source\PSoC5/cyfitter_cfg.c **** 	CYGlobalIntDisable
 875              		.loc 1 457 0
 876              		.syntax unified
 877              	@ 457 "Generated_Source\PSoC5\cyfitter_cfg.c" 1
 878 0006 72B6     		CPSID   i
 879              	@ 0 "" 2
 458:Generated_Source\PSoC5/cyfitter_cfg.c **** #endif
 459:Generated_Source\PSoC5/cyfitter_cfg.c **** 
 460:Generated_Source\PSoC5/cyfitter_cfg.c **** 	/* Enable/Disable Debug functionality based on settings from System DWR */
 461:Generated_Source\PSoC5/cyfitter_cfg.c **** 	CY_SET_XTND_REG8((void CYFAR *)CYREG_MLOGIC_DEBUG, (CY_GET_XTND_REG8((void CYFAR *)CYREG_MLOGIC_DE
 880              		.loc 1 461 0
 881              		.thumb
 882              		.syntax unified
 883 0008 494A     		ldr	r2, .L39
 884 000a 494B     		ldr	r3, .L39
 885 000c 1B78     		ldrb	r3, [r3]
 886 000e DBB2     		uxtb	r3, r3
 887 0010 43F00403 		orr	r3, r3, #4
 888 0014 DBB2     		uxtb	r3, r3
 889 0016 1370     		strb	r3, [r2]
 890              	.LBB3:
 462:Generated_Source\PSoC5/cyfitter_cfg.c **** 
 463:Generated_Source\PSoC5/cyfitter_cfg.c **** 	{
 464:Generated_Source\PSoC5/cyfitter_cfg.c **** 
 465:Generated_Source\PSoC5/cyfitter_cfg.c **** 		CYPACKED typedef struct {
 466:Generated_Source\PSoC5/cyfitter_cfg.c **** 			void CYFAR *address;
 467:Generated_Source\PSoC5/cyfitter_cfg.c **** 			uint16 size;
 468:Generated_Source\PSoC5/cyfitter_cfg.c **** 		} CYPACKED_ATTR cfg_memset_t;
 469:Generated_Source\PSoC5/cyfitter_cfg.c **** 
 470:Generated_Source\PSoC5/cyfitter_cfg.c **** 		static const cfg_memset_t CYCODE cfg_memset_list[] = {
 471:Generated_Source\PSoC5/cyfitter_cfg.c **** 			/* address, size */
 472:Generated_Source\PSoC5/cyfitter_cfg.c **** 			{(void CYFAR *)(CYREG_PRT2_DR), 16u},
ARM GAS  C:\Users\howe\AppData\Local\Temp\ccz4taye.s 			page 25


 473:Generated_Source\PSoC5/cyfitter_cfg.c **** 			{(void CYFAR *)(CYREG_PRT4_DR), 16u},
 474:Generated_Source\PSoC5/cyfitter_cfg.c **** 			{(void CYFAR *)(CYREG_PRT12_DR), 16u},
 475:Generated_Source\PSoC5/cyfitter_cfg.c **** 			{(void CYFAR *)(CYDEV_UCFG_B0_P0_U0_BASE), 4096u},
 476:Generated_Source\PSoC5/cyfitter_cfg.c **** 			{(void CYFAR *)(CYDEV_UCFG_B1_P2_U0_BASE), 2048u},
 477:Generated_Source\PSoC5/cyfitter_cfg.c **** 			{(void CYFAR *)(CYDEV_UCFG_DSI0_BASE), 2560u},
 478:Generated_Source\PSoC5/cyfitter_cfg.c **** 			{(void CYFAR *)(CYDEV_UCFG_DSI12_BASE), 512u},
 479:Generated_Source\PSoC5/cyfitter_cfg.c **** 			{(void CYFAR *)(CYREG_BCTL0_MDCLK_EN), 32u},
 480:Generated_Source\PSoC5/cyfitter_cfg.c **** 		};
 481:Generated_Source\PSoC5/cyfitter_cfg.c **** 
 482:Generated_Source\PSoC5/cyfitter_cfg.c **** 		uint8 CYDATA i;
 483:Generated_Source\PSoC5/cyfitter_cfg.c **** 
 484:Generated_Source\PSoC5/cyfitter_cfg.c **** 		/* Zero out critical memory blocks before beginning configuration */
 485:Generated_Source\PSoC5/cyfitter_cfg.c **** 		for (i = 0u; i < (sizeof(cfg_memset_list)/sizeof(cfg_memset_list[0])); i++)
 891              		.loc 1 485 0
 892 0018 0023     		movs	r3, #0
 893 001a FB71     		strb	r3, [r7, #7]
 894 001c 13E0     		b	.L37
 895              	.L38:
 896              	.LBB4:
 486:Generated_Source\PSoC5/cyfitter_cfg.c **** 		{
 487:Generated_Source\PSoC5/cyfitter_cfg.c **** 			const cfg_memset_t CYCODE * CYDATA ms = &cfg_memset_list[i];
 897              		.loc 1 487 0 discriminator 3
 898 001e FA79     		ldrb	r2, [r7, #7]	@ zero_extendqisi2
 899 0020 1346     		mov	r3, r2
 900 0022 5B00     		lsls	r3, r3, #1
 901 0024 1344     		add	r3, r3, r2
 902 0026 5B00     		lsls	r3, r3, #1
 903 0028 424A     		ldr	r2, .L39+4
 904 002a 1344     		add	r3, r3, r2
 905 002c 3B60     		str	r3, [r7]
 488:Generated_Source\PSoC5/cyfitter_cfg.c **** 			CYMEMZERO(ms->address, (size_t)(uint32)(ms->size));
 906              		.loc 1 488 0 discriminator 3
 907 002e 3B68     		ldr	r3, [r7]
 908 0030 1A68     		ldr	r2, [r3]	@ unaligned
 909 0032 3B68     		ldr	r3, [r7]
 910 0034 9B88     		ldrh	r3, [r3, #4]	@ unaligned
 911 0036 9BB2     		uxth	r3, r3
 912 0038 1946     		mov	r1, r3
 913 003a 1046     		mov	r0, r2
 914 003c FFF7FEFF 		bl	CYMEMZERO
 915              	.LBE4:
 485:Generated_Source\PSoC5/cyfitter_cfg.c **** 		{
 916              		.loc 1 485 0 discriminator 3
 917 0040 FB79     		ldrb	r3, [r7, #7]	@ zero_extendqisi2
 918 0042 0133     		adds	r3, r3, #1
 919 0044 FB71     		strb	r3, [r7, #7]
 920              	.L37:
 485:Generated_Source\PSoC5/cyfitter_cfg.c **** 		{
 921              		.loc 1 485 0 is_stmt 0 discriminator 1
 922 0046 FB79     		ldrb	r3, [r7, #7]	@ zero_extendqisi2
 923 0048 072B     		cmp	r3, #7
 924 004a E8D9     		bls	.L38
 489:Generated_Source\PSoC5/cyfitter_cfg.c **** 		}
 490:Generated_Source\PSoC5/cyfitter_cfg.c **** 
 491:Generated_Source\PSoC5/cyfitter_cfg.c **** 		cfg_write_bytes32(cy_cfg_addr_table, cy_cfg_data_table);
 925              		.loc 1 491 0 is_stmt 1
 926 004c 3A49     		ldr	r1, .L39+8
ARM GAS  C:\Users\howe\AppData\Local\Temp\ccz4taye.s 			page 26


 927 004e 4FF09040 		mov	r0, #1207959552
 928 0052 FFF7FEFF 		bl	cfg_write_bytes32
 492:Generated_Source\PSoC5/cyfitter_cfg.c **** 
 493:Generated_Source\PSoC5/cyfitter_cfg.c **** 		/* Perform normal device configuration. Order is not critical for these items. */
 494:Generated_Source\PSoC5/cyfitter_cfg.c **** 		CY_SET_XTND_REG16((void CYFAR *)(CYREG_LUT1_CR), 0x0103u);
 929              		.loc 1 494 0
 930 0056 394B     		ldr	r3, .L39+12
 931 0058 40F20312 		movw	r2, #259
 932 005c 1A80     		strh	r2, [r3]	@ movhi
 495:Generated_Source\PSoC5/cyfitter_cfg.c **** 		CYMEMZERO((void CYFAR *)(CYREG_PHUB_CFGMEM0_CFG0), 4u);
 933              		.loc 1 495 0
 934 005e 0421     		movs	r1, #4
 935 0060 3748     		ldr	r0, .L39+16
 936 0062 FFF7FEFF 		bl	CYMEMZERO
 496:Generated_Source\PSoC5/cyfitter_cfg.c **** 		CYMEMZERO((void CYFAR *)(CYREG_PHUB_CFGMEM1_CFG0), 4u);
 937              		.loc 1 496 0
 938 0066 0421     		movs	r1, #4
 939 0068 3648     		ldr	r0, .L39+20
 940 006a FFF7FEFF 		bl	CYMEMZERO
 497:Generated_Source\PSoC5/cyfitter_cfg.c **** 		CYMEMZERO((void CYFAR *)(CYREG_PHUB_CFGMEM2_CFG0), 4u);
 941              		.loc 1 497 0
 942 006e 0421     		movs	r1, #4
 943 0070 3548     		ldr	r0, .L39+24
 944 0072 FFF7FEFF 		bl	CYMEMZERO
 498:Generated_Source\PSoC5/cyfitter_cfg.c **** 		CYMEMZERO((void CYFAR *)(CYREG_PHUB_CFGMEM3_CFG0), 4u);
 945              		.loc 1 498 0
 946 0076 0421     		movs	r1, #4
 947 0078 3448     		ldr	r0, .L39+28
 948 007a FFF7FEFF 		bl	CYMEMZERO
 499:Generated_Source\PSoC5/cyfitter_cfg.c **** 
 500:Generated_Source\PSoC5/cyfitter_cfg.c **** 		/* Enable digital routing */
 501:Generated_Source\PSoC5/cyfitter_cfg.c **** 		CY_SET_XTND_REG8((void CYFAR *)CYREG_BCTL0_BANK_CTL, CY_GET_XTND_REG8((void CYFAR *)CYREG_BCTL0_B
 949              		.loc 1 501 0
 950 007e 344A     		ldr	r2, .L39+32
 951 0080 334B     		ldr	r3, .L39+32
 952 0082 1B78     		ldrb	r3, [r3]
 953 0084 DBB2     		uxtb	r3, r3
 954 0086 43F00203 		orr	r3, r3, #2
 955 008a DBB2     		uxtb	r3, r3
 956 008c 1370     		strb	r3, [r2]
 502:Generated_Source\PSoC5/cyfitter_cfg.c **** 		CY_SET_XTND_REG8((void CYFAR *)CYREG_BCTL1_BANK_CTL, CY_GET_XTND_REG8((void CYFAR *)CYREG_BCTL1_B
 957              		.loc 1 502 0
 958 008e 314A     		ldr	r2, .L39+36
 959 0090 304B     		ldr	r3, .L39+36
 960 0092 1B78     		ldrb	r3, [r3]
 961 0094 DBB2     		uxtb	r3, r3
 962 0096 43F00203 		orr	r3, r3, #2
 963 009a DBB2     		uxtb	r3, r3
 964 009c 1370     		strb	r3, [r2]
 503:Generated_Source\PSoC5/cyfitter_cfg.c **** 
 504:Generated_Source\PSoC5/cyfitter_cfg.c **** 		/* Enable UDB array */
 505:Generated_Source\PSoC5/cyfitter_cfg.c **** 		CY_SET_XTND_REG8((void CYFAR *)CYREG_PM_ACT_CFG0, CY_GET_XTND_REG8((void CYFAR *)CYREG_PM_ACT_CFG
 965              		.loc 1 505 0
 966 009e 2E4A     		ldr	r2, .L39+40
 967 00a0 2D4B     		ldr	r3, .L39+40
 968 00a2 1B78     		ldrb	r3, [r3]
 969 00a4 DBB2     		uxtb	r3, r3
ARM GAS  C:\Users\howe\AppData\Local\Temp\ccz4taye.s 			page 27


 970 00a6 43F04003 		orr	r3, r3, #64
 971 00aa DBB2     		uxtb	r3, r3
 972 00ac 1370     		strb	r3, [r2]
 506:Generated_Source\PSoC5/cyfitter_cfg.c **** 		CY_SET_XTND_REG8((void CYFAR *)CYREG_PM_AVAIL_CR2, CY_GET_XTND_REG8((void CYFAR *)CYREG_PM_AVAIL_
 973              		.loc 1 506 0
 974 00ae 2B4A     		ldr	r2, .L39+44
 975 00b0 2A4B     		ldr	r3, .L39+44
 976 00b2 1B78     		ldrb	r3, [r3]
 977 00b4 DBB2     		uxtb	r3, r3
 978 00b6 43F01003 		orr	r3, r3, #16
 979 00ba DBB2     		uxtb	r3, r3
 980 00bc 1370     		strb	r3, [r2]
 981              	.LBE3:
 507:Generated_Source\PSoC5/cyfitter_cfg.c **** 	}
 508:Generated_Source\PSoC5/cyfitter_cfg.c **** 
 509:Generated_Source\PSoC5/cyfitter_cfg.c **** 
 510:Generated_Source\PSoC5/cyfitter_cfg.c **** 	/* Perform second pass device configuration. These items must be configured in specific order afte
 511:Generated_Source\PSoC5/cyfitter_cfg.c **** 	CYCONFIGCPY((void CYFAR *)(CYREG_PRT0_DM0), (const void CYFAR *)(BS_IOPINS0_0_VAL), 8u);
 982              		.loc 1 511 0
 983 00be 0822     		movs	r2, #8
 984 00c0 2749     		ldr	r1, .L39+48
 985 00c2 2848     		ldr	r0, .L39+52
 986 00c4 FFF7FEFF 		bl	CYCONFIGCPY
 512:Generated_Source\PSoC5/cyfitter_cfg.c **** 	CYCONFIGCPY((void CYFAR *)(CYREG_PRT15_DR), (const void CYFAR *)(BS_IOPINS0_8_VAL), 10u);
 987              		.loc 1 512 0
 988 00c8 0A22     		movs	r2, #10
 989 00ca 2749     		ldr	r1, .L39+56
 990 00cc 2748     		ldr	r0, .L39+60
 991 00ce FFF7FEFF 		bl	CYCONFIGCPY
 513:Generated_Source\PSoC5/cyfitter_cfg.c **** 	CYCONFIGCPY((void CYFAR *)(CYREG_PRT1_DR), (const void CYFAR *)(BS_IOPINS0_1_VAL), 10u);
 992              		.loc 1 513 0
 993 00d2 0A22     		movs	r2, #10
 994 00d4 2649     		ldr	r1, .L39+64
 995 00d6 2748     		ldr	r0, .L39+68
 996 00d8 FFF7FEFF 		bl	CYCONFIGCPY
 514:Generated_Source\PSoC5/cyfitter_cfg.c **** 	CYCONFIGCPY((void CYFAR *)(CYREG_PRT3_DM0), (const void CYFAR *)(BS_IOPINS0_3_VAL), 8u);
 997              		.loc 1 514 0
 998 00dc 0822     		movs	r2, #8
 999 00de 2649     		ldr	r1, .L39+72
 1000 00e0 2648     		ldr	r0, .L39+76
 1001 00e2 FFF7FEFF 		bl	CYCONFIGCPY
 515:Generated_Source\PSoC5/cyfitter_cfg.c **** 	CYCONFIGCPY((void CYFAR *)(CYREG_PRT5_DM0), (const void CYFAR *)(BS_IOPINS0_5_VAL), 8u);
 1002              		.loc 1 515 0
 1003 00e6 0822     		movs	r2, #8
 1004 00e8 2549     		ldr	r1, .L39+80
 1005 00ea 2648     		ldr	r0, .L39+84
 1006 00ec FFF7FEFF 		bl	CYCONFIGCPY
 516:Generated_Source\PSoC5/cyfitter_cfg.c **** 	CYCONFIGCPY((void CYFAR *)(CYREG_PRT6_DM0), (const void CYFAR *)(BS_IOPINS0_6_VAL), 8u);
 1007              		.loc 1 516 0
 1008 00f0 0822     		movs	r2, #8
 1009 00f2 2549     		ldr	r1, .L39+88
 1010 00f4 2548     		ldr	r0, .L39+92
 1011 00f6 FFF7FEFF 		bl	CYCONFIGCPY
 517:Generated_Source\PSoC5/cyfitter_cfg.c **** 	/* Switch Boost to the precision bandgap reference from its internal reference */
 518:Generated_Source\PSoC5/cyfitter_cfg.c **** 	CY_SET_REG8((void CYXDATA *)CYREG_BOOST_CR2, (CY_GET_REG8((void CYXDATA *)CYREG_BOOST_CR2) | 0x08u
 1012              		.loc 1 518 0
 1013 00fa 254A     		ldr	r2, .L39+96
ARM GAS  C:\Users\howe\AppData\Local\Temp\ccz4taye.s 			page 28


 1014 00fc 244B     		ldr	r3, .L39+96
 1015 00fe 1B78     		ldrb	r3, [r3]
 1016 0100 DBB2     		uxtb	r3, r3
 1017 0102 43F00803 		orr	r3, r3, #8
 1018 0106 DBB2     		uxtb	r3, r3
 1019 0108 1370     		strb	r3, [r2]
 519:Generated_Source\PSoC5/cyfitter_cfg.c **** 
 520:Generated_Source\PSoC5/cyfitter_cfg.c **** 	/* Set Flash Cycles based on max possible frequency in case a glitch occurs during ClockSetup(). *
 521:Generated_Source\PSoC5/cyfitter_cfg.c **** 	CY_SET_XTND_REG8((void CYFAR *)(CYREG_CACHE_CC_CTL), (((CYDEV_INSTRUCT_CACHE_ENABLED) != 0) ? 0x61
 1020              		.loc 1 521 0
 1021 010a 224B     		ldr	r3, .L39+100
 1022 010c 6122     		movs	r2, #97
 1023 010e 1A70     		strb	r2, [r3]
 522:Generated_Source\PSoC5/cyfitter_cfg.c **** 	/* Setup clocks based on selections from Clock DWR */
 523:Generated_Source\PSoC5/cyfitter_cfg.c **** 	ClockSetup();
 1024              		.loc 1 523 0
 1025 0110 FFF7FEFF 		bl	ClockSetup
 524:Generated_Source\PSoC5/cyfitter_cfg.c **** 	/* Set Flash Cycles based on newly configured 36.00MHz Bus Clock. */
 525:Generated_Source\PSoC5/cyfitter_cfg.c **** 	CY_SET_XTND_REG8((void CYFAR *)(CYREG_CACHE_CC_CTL), (((CYDEV_INSTRUCT_CACHE_ENABLED) != 0) ? 0xC1
 1026              		.loc 1 525 0
 1027 0114 1F4B     		ldr	r3, .L39+100
 1028 0116 C122     		movs	r2, #193
 1029 0118 1A70     		strb	r2, [r3]
 526:Generated_Source\PSoC5/cyfitter_cfg.c **** 
 527:Generated_Source\PSoC5/cyfitter_cfg.c **** 	/* Perform basic analog initialization to defaults */
 528:Generated_Source\PSoC5/cyfitter_cfg.c **** 	AnalogSetDefault();
 1030              		.loc 1 528 0
 1031 011a FFF7FEFF 		bl	AnalogSetDefault
 529:Generated_Source\PSoC5/cyfitter_cfg.c **** 
 530:Generated_Source\PSoC5/cyfitter_cfg.c **** 	/* Configure alternate active mode */
 531:Generated_Source\PSoC5/cyfitter_cfg.c **** 	CYCONFIGCPY((void CYFAR *)CYDEV_PM_STBY_BASE, (const void CYFAR *)CYDEV_PM_ACT_BASE, 14u);
 1032              		.loc 1 531 0
 1033 011e 0E22     		movs	r2, #14
 1034 0120 0D49     		ldr	r1, .L39+40
 1035 0122 1D48     		ldr	r0, .L39+104
 1036 0124 FFF7FEFF 		bl	CYCONFIGCPY
 532:Generated_Source\PSoC5/cyfitter_cfg.c **** }
 1037              		.loc 1 532 0
 1038 0128 00BF     		nop
 1039 012a 0837     		adds	r7, r7, #8
 1040              		.cfi_def_cfa_offset 8
 1041 012c BD46     		mov	sp, r7
 1042              		.cfi_def_cfa_register 13
 1043              		@ sp needed
 1044 012e 80BD     		pop	{r7, pc}
 1045              	.L40:
 1046              		.align	2
 1047              	.L39:
 1048 0130 E8460040 		.word	1073759976
 1049 0134 0C000000 		.word	cfg_memset_list.5018
 1050 0138 90000048 		.word	1207959696
 1051 013c 4A580040 		.word	1073764426
 1052 0140 00760040 		.word	1073772032
 1053 0144 08760040 		.word	1073772040
 1054 0148 10760040 		.word	1073772048
 1055 014c 18760040 		.word	1073772056
 1056 0150 03500140 		.word	1073827843
ARM GAS  C:\Users\howe\AppData\Local\Temp\ccz4taye.s 			page 29


 1057 0154 13500140 		.word	1073827859
 1058 0158 A0430040 		.word	1073759136
 1059 015c C2430040 		.word	1073759170
 1060 0160 58070048 		.word	1207961432
 1061 0164 02510040 		.word	1073762562
 1062 0168 60070048 		.word	1207961440
 1063 016c F0510040 		.word	1073762800
 1064 0170 6C070048 		.word	1207961452
 1065 0174 10510040 		.word	1073762576
 1066 0178 78070048 		.word	1207961464
 1067 017c 32510040 		.word	1073762610
 1068 0180 80070048 		.word	1207961472
 1069 0184 52510040 		.word	1073762642
 1070 0188 88070048 		.word	1207961480
 1071 018c 62510040 		.word	1073762658
 1072 0190 22430040 		.word	1073759010
 1073 0194 00480040 		.word	1073760256
 1074 0198 B0430040 		.word	1073759152
 1075              		.cfi_endproc
 1076              	.LFE10:
 1077              		.size	cyfitter_cfg, .-cyfitter_cfg
 1078              		.section	.rodata
 1079 000a 0000     		.align	2
 1080              		.type	cfg_memset_list.5018, %object
 1081              		.size	cfg_memset_list.5018, 48
 1082              	cfg_memset_list.5018:
 1083 000c 20510040 		.word	1073762592
 1084 0010 1000     		.short	16
 1085 0012 40510040 		.4byte	1073762624
 1086 0016 1000     		.short	16
 1087 0018 C0510040 		.word	1073762752
 1088 001c 1000     		.short	16
 1089 001e 00000140 		.4byte	1073807360
 1090 0022 0010     		.short	4096
 1091 0024 00140140 		.word	1073812480
 1092 0028 0008     		.short	2048
 1093 002a 00400140 		.4byte	1073823744
 1094 002e 000A     		.short	2560
 1095 0030 004C0140 		.word	1073826816
 1096 0034 0002     		.short	512
 1097 0036 00500140 		.4byte	1073827840
 1098 003a 2000     		.short	32
 1099              		.text
 1100              	.Letext0:
 1101              		.file 2 "c:\\program files (x86)\\cypress\\psoc creator\\4.2\\psoc creator\\import\\gnu\\arm\\5.4.
 1102              		.file 3 "Generated_Source\\PSoC5\\cytypes.h"