ARM GAS  C:\Users\Greg\AppData\Local\Temp\ccakl0TD.s 			page 1


   1              		.syntax unified
   2              		.cpu cortex-m3
   3              		.fpu softvfp
   4              		.eabi_attribute 20, 1
   5              		.eabi_attribute 21, 1
   6              		.eabi_attribute 23, 3
   7              		.eabi_attribute 24, 1
   8              		.eabi_attribute 25, 1
   9              		.eabi_attribute 26, 1
  10              		.eabi_attribute 30, 6
  11              		.eabi_attribute 34, 1
  12              		.eabi_attribute 18, 4
  13              		.thumb
  14              		.file	"ADC_2_INT.c"
  15              		.text
  16              	.Ltext0:
  17              		.cfi_sections	.debug_frame
  18              		.section	.text.ADC_2_ISR,"ax",%progbits
  19              		.align	2
  20              		.global	ADC_2_ISR
  21              		.thumb
  22              		.thumb_func
  23              		.type	ADC_2_ISR, %function
  24              	ADC_2_ISR:
  25              	.LFB0:
  26              		.file 1 "Generated_Source\\PSoC5\\ADC_2_INT.c"
   1:Generated_Source\PSoC5/ADC_2_INT.c **** /*******************************************************************************
   2:Generated_Source\PSoC5/ADC_2_INT.c **** * File Name: ADC_2_INT.c
   3:Generated_Source\PSoC5/ADC_2_INT.c **** * Version 3.0
   4:Generated_Source\PSoC5/ADC_2_INT.c **** *
   5:Generated_Source\PSoC5/ADC_2_INT.c **** *  Description:
   6:Generated_Source\PSoC5/ADC_2_INT.c **** *    This file contains the code that operates during the ADC_SAR interrupt
   7:Generated_Source\PSoC5/ADC_2_INT.c **** *    service routine.
   8:Generated_Source\PSoC5/ADC_2_INT.c **** *
   9:Generated_Source\PSoC5/ADC_2_INT.c **** *   Note:
  10:Generated_Source\PSoC5/ADC_2_INT.c **** *
  11:Generated_Source\PSoC5/ADC_2_INT.c **** ********************************************************************************
  12:Generated_Source\PSoC5/ADC_2_INT.c **** * Copyright 2008-2015, Cypress Semiconductor Corporation.  All rights reserved.
  13:Generated_Source\PSoC5/ADC_2_INT.c **** * You may use this file only in accordance with the license, terms, conditions,
  14:Generated_Source\PSoC5/ADC_2_INT.c **** * disclaimers, and limitations in the end user license agreement accompanying
  15:Generated_Source\PSoC5/ADC_2_INT.c **** * the software package with which this file was provided.
  16:Generated_Source\PSoC5/ADC_2_INT.c **** *******************************************************************************/
  17:Generated_Source\PSoC5/ADC_2_INT.c **** 
  18:Generated_Source\PSoC5/ADC_2_INT.c **** #include "ADC_2.h"
  19:Generated_Source\PSoC5/ADC_2_INT.c **** 
  20:Generated_Source\PSoC5/ADC_2_INT.c **** 
  21:Generated_Source\PSoC5/ADC_2_INT.c **** 
  22:Generated_Source\PSoC5/ADC_2_INT.c **** /******************************************************************************
  23:Generated_Source\PSoC5/ADC_2_INT.c **** * Custom Declarations and Variables
  24:Generated_Source\PSoC5/ADC_2_INT.c **** * - add user inlcude files, prototypes and variables between the following
  25:Generated_Source\PSoC5/ADC_2_INT.c **** *   #START and #END tags
  26:Generated_Source\PSoC5/ADC_2_INT.c **** ******************************************************************************/
  27:Generated_Source\PSoC5/ADC_2_INT.c **** /* `#START ADC_SYS_VAR`  */
  28:Generated_Source\PSoC5/ADC_2_INT.c **** 
  29:Generated_Source\PSoC5/ADC_2_INT.c **** /* `#END`  */
  30:Generated_Source\PSoC5/ADC_2_INT.c **** 
  31:Generated_Source\PSoC5/ADC_2_INT.c **** #if(ADC_2_IRQ_REMOVE == 0u)
ARM GAS  C:\Users\Greg\AppData\Local\Temp\ccakl0TD.s 			page 2


  32:Generated_Source\PSoC5/ADC_2_INT.c **** 
  33:Generated_Source\PSoC5/ADC_2_INT.c **** 
  34:Generated_Source\PSoC5/ADC_2_INT.c ****     /******************************************************************************
  35:Generated_Source\PSoC5/ADC_2_INT.c ****     * Function Name: ADC_2_ISR
  36:Generated_Source\PSoC5/ADC_2_INT.c ****     *******************************************************************************
  37:Generated_Source\PSoC5/ADC_2_INT.c ****     *
  38:Generated_Source\PSoC5/ADC_2_INT.c ****     * Summary:
  39:Generated_Source\PSoC5/ADC_2_INT.c ****     *  Handle Interrupt Service Routine.
  40:Generated_Source\PSoC5/ADC_2_INT.c ****     *
  41:Generated_Source\PSoC5/ADC_2_INT.c ****     * Parameters:
  42:Generated_Source\PSoC5/ADC_2_INT.c ****     *  None.
  43:Generated_Source\PSoC5/ADC_2_INT.c ****     *
  44:Generated_Source\PSoC5/ADC_2_INT.c ****     * Return:
  45:Generated_Source\PSoC5/ADC_2_INT.c ****     *  None.
  46:Generated_Source\PSoC5/ADC_2_INT.c ****     *
  47:Generated_Source\PSoC5/ADC_2_INT.c ****     * Reentrant:
  48:Generated_Source\PSoC5/ADC_2_INT.c ****     *  No.
  49:Generated_Source\PSoC5/ADC_2_INT.c ****     *
  50:Generated_Source\PSoC5/ADC_2_INT.c ****     ******************************************************************************/
  51:Generated_Source\PSoC5/ADC_2_INT.c ****     CY_ISR( ADC_2_ISR )
  52:Generated_Source\PSoC5/ADC_2_INT.c ****     {
  27              		.loc 1 52 0
  28              		.cfi_startproc
  29              		@ args = 0, pretend = 0, frame = 0
  30              		@ frame_needed = 1, uses_anonymous_args = 0
  31              		@ link register save eliminated.
  32 0000 80B4     		push	{r7}
  33              		.cfi_def_cfa_offset 4
  34              		.cfi_offset 7, -4
  35 0002 00AF     		add	r7, sp, #0
  36              		.cfi_def_cfa_register 7
  53:Generated_Source\PSoC5/ADC_2_INT.c ****         #ifdef ADC_2_ISR_INTERRUPT_CALLBACK
  54:Generated_Source\PSoC5/ADC_2_INT.c ****             ADC_2_ISR_InterruptCallback();
  55:Generated_Source\PSoC5/ADC_2_INT.c ****         #endif /* ADC_2_ISR_INTERRUPT_CALLBACK */          
  56:Generated_Source\PSoC5/ADC_2_INT.c **** 
  57:Generated_Source\PSoC5/ADC_2_INT.c ****         
  58:Generated_Source\PSoC5/ADC_2_INT.c ****         /************************************************************************
  59:Generated_Source\PSoC5/ADC_2_INT.c ****         *  Custom Code
  60:Generated_Source\PSoC5/ADC_2_INT.c ****         *  - add user ISR code between the following #START and #END tags
  61:Generated_Source\PSoC5/ADC_2_INT.c ****         *************************************************************************/
  62:Generated_Source\PSoC5/ADC_2_INT.c ****           /* `#START MAIN_ADC_ISR`  */
  63:Generated_Source\PSoC5/ADC_2_INT.c **** 
  64:Generated_Source\PSoC5/ADC_2_INT.c ****           /* `#END`  */
  65:Generated_Source\PSoC5/ADC_2_INT.c ****     }
  37              		.loc 1 65 0
  38 0004 BD46     		mov	sp, r7
  39              		.cfi_def_cfa_register 13
  40              		@ sp needed
  41 0006 5DF8047B 		ldr	r7, [sp], #4
  42              		.cfi_restore 7
  43              		.cfi_def_cfa_offset 0
  44 000a 7047     		bx	lr
  45              		.cfi_endproc
  46              	.LFE0:
  47              		.size	ADC_2_ISR, .-ADC_2_ISR
  48              		.text
  49              	.Letext0:
ARM GAS  C:\Users\Greg\AppData\Local\Temp\ccakl0TD.s 			page 3

