ARM GAS  C:\Users\Greg\AppData\Local\Temp\ccUD1Aai.s 			page 1


   1              		.syntax unified
   2              		.cpu cortex-m3
   3              		.fpu softvfp
   4              		.eabi_attribute 20, 1
   5              		.eabi_attribute 21, 1
   6              		.eabi_attribute 23, 3
   7              		.eabi_attribute 24, 1
   8              		.eabi_attribute 25, 1
   9              		.eabi_attribute 26, 1
  10              		.eabi_attribute 30, 6
  11              		.eabi_attribute 34, 1
  12              		.eabi_attribute 18, 4
  13              		.thumb
  14              		.file	"ADC_1_PM.c"
  15              		.text
  16              	.Ltext0:
  17              		.cfi_sections	.debug_frame
  18              		.bss
  19              		.align	2
  20              	ADC_1_backup:
  21 0000 00       		.space	1
  22 0001 000000   		.section	.text.ADC_1_SaveConfig,"ax",%progbits
  23              		.align	2
  24              		.global	ADC_1_SaveConfig
  25              		.thumb
  26              		.thumb_func
  27              		.type	ADC_1_SaveConfig, %function
  28              	ADC_1_SaveConfig:
  29              	.LFB0:
  30              		.file 1 "Generated_Source\\PSoC5\\ADC_1_PM.c"
   1:Generated_Source\PSoC5/ADC_1_PM.c **** /*******************************************************************************
   2:Generated_Source\PSoC5/ADC_1_PM.c **** * File Name: ADC_1_PM.c
   3:Generated_Source\PSoC5/ADC_1_PM.c **** * Version 3.0
   4:Generated_Source\PSoC5/ADC_1_PM.c **** *
   5:Generated_Source\PSoC5/ADC_1_PM.c **** * Description:
   6:Generated_Source\PSoC5/ADC_1_PM.c **** *  This file provides Sleep/WakeUp APIs functionality.
   7:Generated_Source\PSoC5/ADC_1_PM.c **** *
   8:Generated_Source\PSoC5/ADC_1_PM.c **** * Note:
   9:Generated_Source\PSoC5/ADC_1_PM.c **** *
  10:Generated_Source\PSoC5/ADC_1_PM.c **** ********************************************************************************
  11:Generated_Source\PSoC5/ADC_1_PM.c **** * Copyright 2008-2015, Cypress Semiconductor Corporation.  All rights reserved.
  12:Generated_Source\PSoC5/ADC_1_PM.c **** * You may use this file only in accordance with the license, terms, conditions,
  13:Generated_Source\PSoC5/ADC_1_PM.c **** * disclaimers, and limitations in the end user license agreement accompanying
  14:Generated_Source\PSoC5/ADC_1_PM.c **** * the software package with which this file was provided.
  15:Generated_Source\PSoC5/ADC_1_PM.c **** *******************************************************************************/
  16:Generated_Source\PSoC5/ADC_1_PM.c **** 
  17:Generated_Source\PSoC5/ADC_1_PM.c **** #include "ADC_1.h"
  18:Generated_Source\PSoC5/ADC_1_PM.c **** 
  19:Generated_Source\PSoC5/ADC_1_PM.c **** 
  20:Generated_Source\PSoC5/ADC_1_PM.c **** /***************************************
  21:Generated_Source\PSoC5/ADC_1_PM.c **** * Local data allocation
  22:Generated_Source\PSoC5/ADC_1_PM.c **** ***************************************/
  23:Generated_Source\PSoC5/ADC_1_PM.c **** 
  24:Generated_Source\PSoC5/ADC_1_PM.c **** static ADC_1_BACKUP_STRUCT  ADC_1_backup =
  25:Generated_Source\PSoC5/ADC_1_PM.c **** {
  26:Generated_Source\PSoC5/ADC_1_PM.c ****     ADC_1_DISABLED
  27:Generated_Source\PSoC5/ADC_1_PM.c **** };
ARM GAS  C:\Users\Greg\AppData\Local\Temp\ccUD1Aai.s 			page 2


  28:Generated_Source\PSoC5/ADC_1_PM.c **** 
  29:Generated_Source\PSoC5/ADC_1_PM.c **** 
  30:Generated_Source\PSoC5/ADC_1_PM.c **** /*******************************************************************************
  31:Generated_Source\PSoC5/ADC_1_PM.c **** * Function Name: ADC_1_SaveConfig
  32:Generated_Source\PSoC5/ADC_1_PM.c **** ********************************************************************************
  33:Generated_Source\PSoC5/ADC_1_PM.c **** *
  34:Generated_Source\PSoC5/ADC_1_PM.c **** * Summary:
  35:Generated_Source\PSoC5/ADC_1_PM.c **** *  Saves the current user configuration.
  36:Generated_Source\PSoC5/ADC_1_PM.c **** *
  37:Generated_Source\PSoC5/ADC_1_PM.c **** * Parameters:
  38:Generated_Source\PSoC5/ADC_1_PM.c **** *  None.
  39:Generated_Source\PSoC5/ADC_1_PM.c **** *
  40:Generated_Source\PSoC5/ADC_1_PM.c **** * Return:
  41:Generated_Source\PSoC5/ADC_1_PM.c **** *  None.
  42:Generated_Source\PSoC5/ADC_1_PM.c **** *
  43:Generated_Source\PSoC5/ADC_1_PM.c **** *******************************************************************************/
  44:Generated_Source\PSoC5/ADC_1_PM.c **** void ADC_1_SaveConfig(void)
  45:Generated_Source\PSoC5/ADC_1_PM.c **** {
  31              		.loc 1 45 0
  32              		.cfi_startproc
  33              		@ args = 0, pretend = 0, frame = 0
  34              		@ frame_needed = 1, uses_anonymous_args = 0
  35              		@ link register save eliminated.
  36 0000 80B4     		push	{r7}
  37              		.cfi_def_cfa_offset 4
  38              		.cfi_offset 7, -4
  39 0002 00AF     		add	r7, sp, #0
  40              		.cfi_def_cfa_register 7
  46:Generated_Source\PSoC5/ADC_1_PM.c ****     /* All configuration registers are marked as [reset_all_retention] */
  47:Generated_Source\PSoC5/ADC_1_PM.c **** }
  41              		.loc 1 47 0
  42 0004 BD46     		mov	sp, r7
  43              		.cfi_def_cfa_register 13
  44              		@ sp needed
  45 0006 5DF8047B 		ldr	r7, [sp], #4
  46              		.cfi_restore 7
  47              		.cfi_def_cfa_offset 0
  48 000a 7047     		bx	lr
  49              		.cfi_endproc
  50              	.LFE0:
  51              		.size	ADC_1_SaveConfig, .-ADC_1_SaveConfig
  52              		.section	.text.ADC_1_RestoreConfig,"ax",%progbits
  53              		.align	2
  54              		.global	ADC_1_RestoreConfig
  55              		.thumb
  56              		.thumb_func
  57              		.type	ADC_1_RestoreConfig, %function
  58              	ADC_1_RestoreConfig:
  59              	.LFB1:
  48:Generated_Source\PSoC5/ADC_1_PM.c **** 
  49:Generated_Source\PSoC5/ADC_1_PM.c **** 
  50:Generated_Source\PSoC5/ADC_1_PM.c **** /*******************************************************************************
  51:Generated_Source\PSoC5/ADC_1_PM.c **** * Function Name: ADC_1_RestoreConfig
  52:Generated_Source\PSoC5/ADC_1_PM.c **** ********************************************************************************
  53:Generated_Source\PSoC5/ADC_1_PM.c **** *
  54:Generated_Source\PSoC5/ADC_1_PM.c **** * Summary:
  55:Generated_Source\PSoC5/ADC_1_PM.c **** *  Restores the current user configuration.
ARM GAS  C:\Users\Greg\AppData\Local\Temp\ccUD1Aai.s 			page 3


  56:Generated_Source\PSoC5/ADC_1_PM.c **** *
  57:Generated_Source\PSoC5/ADC_1_PM.c **** * Parameters:
  58:Generated_Source\PSoC5/ADC_1_PM.c **** *  None.
  59:Generated_Source\PSoC5/ADC_1_PM.c **** *
  60:Generated_Source\PSoC5/ADC_1_PM.c **** * Return:
  61:Generated_Source\PSoC5/ADC_1_PM.c **** *  None.
  62:Generated_Source\PSoC5/ADC_1_PM.c **** *
  63:Generated_Source\PSoC5/ADC_1_PM.c **** *******************************************************************************/
  64:Generated_Source\PSoC5/ADC_1_PM.c **** void ADC_1_RestoreConfig(void)
  65:Generated_Source\PSoC5/ADC_1_PM.c **** {
  60              		.loc 1 65 0
  61              		.cfi_startproc
  62              		@ args = 0, pretend = 0, frame = 0
  63              		@ frame_needed = 1, uses_anonymous_args = 0
  64              		@ link register save eliminated.
  65 0000 80B4     		push	{r7}
  66              		.cfi_def_cfa_offset 4
  67              		.cfi_offset 7, -4
  68 0002 00AF     		add	r7, sp, #0
  69              		.cfi_def_cfa_register 7
  66:Generated_Source\PSoC5/ADC_1_PM.c ****     /* All congiguration registers are marked as [reset_all_retention] */
  67:Generated_Source\PSoC5/ADC_1_PM.c **** }
  70              		.loc 1 67 0
  71 0004 BD46     		mov	sp, r7
  72              		.cfi_def_cfa_register 13
  73              		@ sp needed
  74 0006 5DF8047B 		ldr	r7, [sp], #4
  75              		.cfi_restore 7
  76              		.cfi_def_cfa_offset 0
  77 000a 7047     		bx	lr
  78              		.cfi_endproc
  79              	.LFE1:
  80              		.size	ADC_1_RestoreConfig, .-ADC_1_RestoreConfig
  81              		.section	.text.ADC_1_Sleep,"ax",%progbits
  82              		.align	2
  83              		.global	ADC_1_Sleep
  84              		.thumb
  85              		.thumb_func
  86              		.type	ADC_1_Sleep, %function
  87              	ADC_1_Sleep:
  88              	.LFB2:
  68:Generated_Source\PSoC5/ADC_1_PM.c **** 
  69:Generated_Source\PSoC5/ADC_1_PM.c **** 
  70:Generated_Source\PSoC5/ADC_1_PM.c **** /*******************************************************************************
  71:Generated_Source\PSoC5/ADC_1_PM.c **** * Function Name: ADC_1_Sleep
  72:Generated_Source\PSoC5/ADC_1_PM.c **** ********************************************************************************
  73:Generated_Source\PSoC5/ADC_1_PM.c **** *
  74:Generated_Source\PSoC5/ADC_1_PM.c **** * Summary:
  75:Generated_Source\PSoC5/ADC_1_PM.c **** *  This is the preferred routine to prepare the component for sleep.
  76:Generated_Source\PSoC5/ADC_1_PM.c **** *  The ADC_1_Sleep() routine saves the current component state,
  77:Generated_Source\PSoC5/ADC_1_PM.c **** *  then it calls the ADC_Stop() function.
  78:Generated_Source\PSoC5/ADC_1_PM.c **** *
  79:Generated_Source\PSoC5/ADC_1_PM.c **** * Parameters:
  80:Generated_Source\PSoC5/ADC_1_PM.c **** *  None.
  81:Generated_Source\PSoC5/ADC_1_PM.c **** *
  82:Generated_Source\PSoC5/ADC_1_PM.c **** * Return:
  83:Generated_Source\PSoC5/ADC_1_PM.c **** *  None.
ARM GAS  C:\Users\Greg\AppData\Local\Temp\ccUD1Aai.s 			page 4


  84:Generated_Source\PSoC5/ADC_1_PM.c **** *
  85:Generated_Source\PSoC5/ADC_1_PM.c **** * Global Variables:
  86:Generated_Source\PSoC5/ADC_1_PM.c **** *  ADC_1_backup - The structure field 'enableState' is modified
  87:Generated_Source\PSoC5/ADC_1_PM.c **** *  depending on the enable state of the block before entering to sleep mode.
  88:Generated_Source\PSoC5/ADC_1_PM.c **** *
  89:Generated_Source\PSoC5/ADC_1_PM.c **** *******************************************************************************/
  90:Generated_Source\PSoC5/ADC_1_PM.c **** void ADC_1_Sleep(void)
  91:Generated_Source\PSoC5/ADC_1_PM.c **** {
  89              		.loc 1 91 0
  90              		.cfi_startproc
  91              		@ args = 0, pretend = 0, frame = 0
  92              		@ frame_needed = 1, uses_anonymous_args = 0
  93 0000 80B5     		push	{r7, lr}
  94              		.cfi_def_cfa_offset 8
  95              		.cfi_offset 7, -8
  96              		.cfi_offset 14, -4
  97 0002 00AF     		add	r7, sp, #0
  98              		.cfi_def_cfa_register 7
  92:Generated_Source\PSoC5/ADC_1_PM.c ****     if((ADC_1_PWRMGR_SAR_REG  & ADC_1_ACT_PWR_SAR_EN) != 0u)
  99              		.loc 1 92 0
 100 0004 0D4B     		ldr	r3, .L8
 101 0006 1B78     		ldrb	r3, [r3]
 102 0008 DBB2     		uxtb	r3, r3
 103 000a 03F00103 		and	r3, r3, #1
 104 000e 002B     		cmp	r3, #0
 105 0010 10D0     		beq	.L4
  93:Generated_Source\PSoC5/ADC_1_PM.c ****     {
  94:Generated_Source\PSoC5/ADC_1_PM.c ****         if((ADC_1_SAR_CSR0_REG & ADC_1_SAR_SOF_START_CONV) != 0u)
 106              		.loc 1 94 0
 107 0012 0B4B     		ldr	r3, .L8+4
 108 0014 1B78     		ldrb	r3, [r3]
 109 0016 DBB2     		uxtb	r3, r3
 110 0018 03F00103 		and	r3, r3, #1
 111 001c 002B     		cmp	r3, #0
 112 001e 03D0     		beq	.L5
  95:Generated_Source\PSoC5/ADC_1_PM.c ****         {
  96:Generated_Source\PSoC5/ADC_1_PM.c ****             ADC_1_backup.enableState = ADC_1_ENABLED | ADC_1_STARTED;
 113              		.loc 1 96 0
 114 0020 084B     		ldr	r3, .L8+8
 115 0022 0322     		movs	r2, #3
 116 0024 1A70     		strb	r2, [r3]
 117 0026 02E0     		b	.L6
 118              	.L5:
  97:Generated_Source\PSoC5/ADC_1_PM.c ****         }
  98:Generated_Source\PSoC5/ADC_1_PM.c ****         else
  99:Generated_Source\PSoC5/ADC_1_PM.c ****         {
 100:Generated_Source\PSoC5/ADC_1_PM.c ****             ADC_1_backup.enableState = ADC_1_ENABLED;
 119              		.loc 1 100 0
 120 0028 064B     		ldr	r3, .L8+8
 121 002a 0122     		movs	r2, #1
 122 002c 1A70     		strb	r2, [r3]
 123              	.L6:
 101:Generated_Source\PSoC5/ADC_1_PM.c ****         }
 102:Generated_Source\PSoC5/ADC_1_PM.c ****         ADC_1_Stop();
 124              		.loc 1 102 0
 125 002e FFF7FEFF 		bl	ADC_1_Stop
 126 0032 02E0     		b	.L3
ARM GAS  C:\Users\Greg\AppData\Local\Temp\ccUD1Aai.s 			page 5


 127              	.L4:
 103:Generated_Source\PSoC5/ADC_1_PM.c ****     }
 104:Generated_Source\PSoC5/ADC_1_PM.c ****     else
 105:Generated_Source\PSoC5/ADC_1_PM.c ****     {
 106:Generated_Source\PSoC5/ADC_1_PM.c ****         ADC_1_backup.enableState = ADC_1_DISABLED;
 128              		.loc 1 106 0
 129 0034 034B     		ldr	r3, .L8+8
 130 0036 0022     		movs	r2, #0
 131 0038 1A70     		strb	r2, [r3]
 132              	.L3:
 107:Generated_Source\PSoC5/ADC_1_PM.c ****     }
 108:Generated_Source\PSoC5/ADC_1_PM.c **** }
 133              		.loc 1 108 0
 134 003a 80BD     		pop	{r7, pc}
 135              	.L9:
 136              		.align	2
 137              	.L8:
 138 003c AB430040 		.word	1073759147
 139 0040 00590040 		.word	1073764608
 140 0044 00000000 		.word	ADC_1_backup
 141              		.cfi_endproc
 142              	.LFE2:
 143              		.size	ADC_1_Sleep, .-ADC_1_Sleep
 144              		.section	.text.ADC_1_Wakeup,"ax",%progbits
 145              		.align	2
 146              		.global	ADC_1_Wakeup
 147              		.thumb
 148              		.thumb_func
 149              		.type	ADC_1_Wakeup, %function
 150              	ADC_1_Wakeup:
 151              	.LFB3:
 109:Generated_Source\PSoC5/ADC_1_PM.c **** 
 110:Generated_Source\PSoC5/ADC_1_PM.c **** 
 111:Generated_Source\PSoC5/ADC_1_PM.c **** /*******************************************************************************
 112:Generated_Source\PSoC5/ADC_1_PM.c **** * Function Name: ADC_1_Wakeup
 113:Generated_Source\PSoC5/ADC_1_PM.c **** ********************************************************************************
 114:Generated_Source\PSoC5/ADC_1_PM.c **** *
 115:Generated_Source\PSoC5/ADC_1_PM.c **** * Summary:
 116:Generated_Source\PSoC5/ADC_1_PM.c **** *  This is the preferred routine to restore the component to the state when
 117:Generated_Source\PSoC5/ADC_1_PM.c **** *  ADC_1_Sleep() was called. If the component was enabled before the
 118:Generated_Source\PSoC5/ADC_1_PM.c **** *  ADC_1_Sleep() function was called, the
 119:Generated_Source\PSoC5/ADC_1_PM.c **** *  ADC_1_Wakeup() function also re-enables the component.
 120:Generated_Source\PSoC5/ADC_1_PM.c **** *
 121:Generated_Source\PSoC5/ADC_1_PM.c **** * Parameters:
 122:Generated_Source\PSoC5/ADC_1_PM.c **** *  None.
 123:Generated_Source\PSoC5/ADC_1_PM.c **** *
 124:Generated_Source\PSoC5/ADC_1_PM.c **** * Return:
 125:Generated_Source\PSoC5/ADC_1_PM.c **** *  None.
 126:Generated_Source\PSoC5/ADC_1_PM.c **** *
 127:Generated_Source\PSoC5/ADC_1_PM.c **** * Global Variables:
 128:Generated_Source\PSoC5/ADC_1_PM.c **** *  ADC_1_backup - The structure field 'enableState' is used to
 129:Generated_Source\PSoC5/ADC_1_PM.c **** *  restore the enable state of block after wakeup from sleep mode.
 130:Generated_Source\PSoC5/ADC_1_PM.c **** *
 131:Generated_Source\PSoC5/ADC_1_PM.c **** *******************************************************************************/
 132:Generated_Source\PSoC5/ADC_1_PM.c **** void ADC_1_Wakeup(void)
 133:Generated_Source\PSoC5/ADC_1_PM.c **** {
 152              		.loc 1 133 0
ARM GAS  C:\Users\Greg\AppData\Local\Temp\ccUD1Aai.s 			page 6


 153              		.cfi_startproc
 154              		@ args = 0, pretend = 0, frame = 0
 155              		@ frame_needed = 1, uses_anonymous_args = 0
 156 0000 80B5     		push	{r7, lr}
 157              		.cfi_def_cfa_offset 8
 158              		.cfi_offset 7, -8
 159              		.cfi_offset 14, -4
 160 0002 00AF     		add	r7, sp, #0
 161              		.cfi_def_cfa_register 7
 134:Generated_Source\PSoC5/ADC_1_PM.c ****     if(ADC_1_backup.enableState != ADC_1_DISABLED)
 162              		.loc 1 134 0
 163 0004 034B     		ldr	r3, .L12
 164 0006 1B78     		ldrb	r3, [r3]	@ zero_extendqisi2
 165 0008 002B     		cmp	r3, #0
 166 000a 01D0     		beq	.L10
 135:Generated_Source\PSoC5/ADC_1_PM.c ****     {
 136:Generated_Source\PSoC5/ADC_1_PM.c ****         ADC_1_Enable();
 167              		.loc 1 136 0
 168 000c FFF7FEFF 		bl	ADC_1_Enable
 169              	.L10:
 137:Generated_Source\PSoC5/ADC_1_PM.c ****         #if(ADC_1_DEFAULT_CONV_MODE != ADC_1__HARDWARE_TRIGGER)
 138:Generated_Source\PSoC5/ADC_1_PM.c ****             if((ADC_1_backup.enableState & ADC_1_STARTED) != 0u)
 139:Generated_Source\PSoC5/ADC_1_PM.c ****             {
 140:Generated_Source\PSoC5/ADC_1_PM.c ****                 ADC_1_StartConvert();
 141:Generated_Source\PSoC5/ADC_1_PM.c ****             }
 142:Generated_Source\PSoC5/ADC_1_PM.c ****         #endif /* End ADC_1_DEFAULT_CONV_MODE != ADC_1__HARDWARE_TRIGGER */
 143:Generated_Source\PSoC5/ADC_1_PM.c ****     }
 144:Generated_Source\PSoC5/ADC_1_PM.c **** }
 170              		.loc 1 144 0
 171 0010 80BD     		pop	{r7, pc}
 172              	.L13:
 173 0012 00BF     		.align	2
 174              	.L12:
 175 0014 00000000 		.word	ADC_1_backup
 176              		.cfi_endproc
 177              	.LFE3:
 178              		.size	ADC_1_Wakeup, .-ADC_1_Wakeup
 179              		.text
 180              	.Letext0:
 181              		.file 2 "Generated_Source\\PSoC5\\cytypes.h"
 182              		.file 3 "Generated_Source\\PSoC5\\ADC_1.h"