ARM GAS  C:\Users\Greg\AppData\Local\Temp\ccooDGpN.s 			page 1


   1              		.syntax unified
   2              		.cpu cortex-m3
   3              		.fpu softvfp
   4              		.eabi_attribute 20, 1
   5              		.eabi_attribute 21, 1
   6              		.eabi_attribute 23, 3
   7              		.eabi_attribute 24, 1
   8              		.eabi_attribute 25, 1
   9              		.eabi_attribute 26, 1
  10              		.eabi_attribute 30, 6
  11              		.eabi_attribute 34, 1
  12              		.eabi_attribute 18, 4
  13              		.thumb
  14              		.file	"cyfitter_cfg.c"
  15              		.text
  16              	.Ltext0:
  17              		.cfi_sections	.debug_frame
  18              		.section	.text.CYMEMZERO,"ax",%progbits
  19              		.align	2
  20              		.thumb
  21              		.thumb_func
  22              		.type	CYMEMZERO, %function
  23              	CYMEMZERO:
  24              	.LFB0:
  25              		.file 1 "Generated_Source\\PSoC5\\cyfitter_cfg.c"
   1:Generated_Source\PSoC5/cyfitter_cfg.c **** /*******************************************************************************
   2:Generated_Source\PSoC5/cyfitter_cfg.c **** * File Name: cyfitter_cfg.c
   3:Generated_Source\PSoC5/cyfitter_cfg.c **** * 
   4:Generated_Source\PSoC5/cyfitter_cfg.c **** * PSoC Creator  4.0
   5:Generated_Source\PSoC5/cyfitter_cfg.c **** *
   6:Generated_Source\PSoC5/cyfitter_cfg.c **** * Description:
   7:Generated_Source\PSoC5/cyfitter_cfg.c **** * This file contains device initialization code.
   8:Generated_Source\PSoC5/cyfitter_cfg.c **** * Except for the user defined sections in CyClockStartupError(), this file should not be modified.
   9:Generated_Source\PSoC5/cyfitter_cfg.c **** * This file is automatically generated by PSoC Creator.
  10:Generated_Source\PSoC5/cyfitter_cfg.c **** *
  11:Generated_Source\PSoC5/cyfitter_cfg.c **** ********************************************************************************
  12:Generated_Source\PSoC5/cyfitter_cfg.c **** * Copyright (c) 2007-2016 Cypress Semiconductor.  All rights reserved.
  13:Generated_Source\PSoC5/cyfitter_cfg.c **** * You may use this file only in accordance with the license, terms, conditions, 
  14:Generated_Source\PSoC5/cyfitter_cfg.c **** * disclaimers, and limitations in the end user license agreement accompanying 
  15:Generated_Source\PSoC5/cyfitter_cfg.c **** * the software package with which this file was provided.
  16:Generated_Source\PSoC5/cyfitter_cfg.c **** ********************************************************************************/
  17:Generated_Source\PSoC5/cyfitter_cfg.c **** 
  18:Generated_Source\PSoC5/cyfitter_cfg.c **** #include <string.h>
  19:Generated_Source\PSoC5/cyfitter_cfg.c **** #include "cytypes.h"
  20:Generated_Source\PSoC5/cyfitter_cfg.c **** #include "cydevice_trm.h"
  21:Generated_Source\PSoC5/cyfitter_cfg.c **** #include "cyfitter.h"
  22:Generated_Source\PSoC5/cyfitter_cfg.c **** #include "CyLib.h"
  23:Generated_Source\PSoC5/cyfitter_cfg.c **** #include "cyfitter_cfg.h"
  24:Generated_Source\PSoC5/cyfitter_cfg.c **** 
  25:Generated_Source\PSoC5/cyfitter_cfg.c **** #define CY_NEED_CYCLOCKSTARTUPERROR 1
  26:Generated_Source\PSoC5/cyfitter_cfg.c **** 
  27:Generated_Source\PSoC5/cyfitter_cfg.c **** 
  28:Generated_Source\PSoC5/cyfitter_cfg.c **** #if defined(__GNUC__) || defined(__ARMCC_VERSION)
  29:Generated_Source\PSoC5/cyfitter_cfg.c ****     #define CYPACKED 
  30:Generated_Source\PSoC5/cyfitter_cfg.c ****     #define CYPACKED_ATTR __attribute__ ((packed))
  31:Generated_Source\PSoC5/cyfitter_cfg.c ****     #define CYALIGNED __attribute__ ((aligned))
  32:Generated_Source\PSoC5/cyfitter_cfg.c ****     #define CY_CFG_UNUSED __attribute__ ((unused))
ARM GAS  C:\Users\Greg\AppData\Local\Temp\ccooDGpN.s 			page 2


  33:Generated_Source\PSoC5/cyfitter_cfg.c ****     #ifndef CY_CFG_SECTION
  34:Generated_Source\PSoC5/cyfitter_cfg.c ****         #define CY_CFG_SECTION __attribute__ ((section(".psocinit")))
  35:Generated_Source\PSoC5/cyfitter_cfg.c ****     #endif
  36:Generated_Source\PSoC5/cyfitter_cfg.c ****     
  37:Generated_Source\PSoC5/cyfitter_cfg.c ****     #if defined(__ARMCC_VERSION)
  38:Generated_Source\PSoC5/cyfitter_cfg.c ****         #define CY_CFG_MEMORY_BARRIER() __memory_changed()
  39:Generated_Source\PSoC5/cyfitter_cfg.c ****     #else
  40:Generated_Source\PSoC5/cyfitter_cfg.c ****         #define CY_CFG_MEMORY_BARRIER() __sync_synchronize()
  41:Generated_Source\PSoC5/cyfitter_cfg.c ****     #endif
  42:Generated_Source\PSoC5/cyfitter_cfg.c ****     
  43:Generated_Source\PSoC5/cyfitter_cfg.c **** #elif defined(__ICCARM__)
  44:Generated_Source\PSoC5/cyfitter_cfg.c ****     #include <intrinsics.h>
  45:Generated_Source\PSoC5/cyfitter_cfg.c **** 
  46:Generated_Source\PSoC5/cyfitter_cfg.c ****     #define CYPACKED __packed
  47:Generated_Source\PSoC5/cyfitter_cfg.c ****     #define CYPACKED_ATTR 
  48:Generated_Source\PSoC5/cyfitter_cfg.c ****     #define CYALIGNED _Pragma("data_alignment=4")
  49:Generated_Source\PSoC5/cyfitter_cfg.c ****     #define CY_CFG_UNUSED _Pragma("diag_suppress=Pe177")
  50:Generated_Source\PSoC5/cyfitter_cfg.c ****     #define CY_CFG_SECTION _Pragma("location=\".psocinit\"")
  51:Generated_Source\PSoC5/cyfitter_cfg.c ****     
  52:Generated_Source\PSoC5/cyfitter_cfg.c ****     #define CY_CFG_MEMORY_BARRIER() __DMB()
  53:Generated_Source\PSoC5/cyfitter_cfg.c ****     
  54:Generated_Source\PSoC5/cyfitter_cfg.c **** #else
  55:Generated_Source\PSoC5/cyfitter_cfg.c ****     #error Unsupported toolchain
  56:Generated_Source\PSoC5/cyfitter_cfg.c **** #endif
  57:Generated_Source\PSoC5/cyfitter_cfg.c **** 
  58:Generated_Source\PSoC5/cyfitter_cfg.c **** 
  59:Generated_Source\PSoC5/cyfitter_cfg.c **** CY_CFG_UNUSED
  60:Generated_Source\PSoC5/cyfitter_cfg.c **** static void CYMEMZERO(void *s, size_t n);
  61:Generated_Source\PSoC5/cyfitter_cfg.c **** CY_CFG_UNUSED
  62:Generated_Source\PSoC5/cyfitter_cfg.c **** static void CYMEMZERO(void *s, size_t n)
  63:Generated_Source\PSoC5/cyfitter_cfg.c **** {
  26              		.loc 1 63 0
  27              		.cfi_startproc
  28              		@ args = 0, pretend = 0, frame = 8
  29              		@ frame_needed = 1, uses_anonymous_args = 0
  30 0000 80B5     		push	{r7, lr}
  31              		.cfi_def_cfa_offset 8
  32              		.cfi_offset 7, -8
  33              		.cfi_offset 14, -4
  34 0002 82B0     		sub	sp, sp, #8
  35              		.cfi_def_cfa_offset 16
  36 0004 00AF     		add	r7, sp, #0
  37              		.cfi_def_cfa_register 7
  38 0006 7860     		str	r0, [r7, #4]
  39 0008 3960     		str	r1, [r7]
  64:Generated_Source\PSoC5/cyfitter_cfg.c **** 	(void)memset(s, 0, n);
  40              		.loc 1 64 0
  41 000a 7868     		ldr	r0, [r7, #4]
  42 000c 0021     		movs	r1, #0
  43 000e 3A68     		ldr	r2, [r7]
  44 0010 FFF7FEFF 		bl	memset
  65:Generated_Source\PSoC5/cyfitter_cfg.c **** }
  45              		.loc 1 65 0
  46 0014 0837     		adds	r7, r7, #8
  47              		.cfi_def_cfa_offset 8
  48 0016 BD46     		mov	sp, r7
  49              		.cfi_def_cfa_register 13
ARM GAS  C:\Users\Greg\AppData\Local\Temp\ccooDGpN.s 			page 3


  50              		@ sp needed
  51 0018 80BD     		pop	{r7, pc}
  52              		.cfi_endproc
  53              	.LFE0:
  54              		.size	CYMEMZERO, .-CYMEMZERO
  55 001a 00BF     		.section	.text.CYCONFIGCPY,"ax",%progbits
  56              		.align	2
  57              		.thumb
  58              		.thumb_func
  59              		.type	CYCONFIGCPY, %function
  60              	CYCONFIGCPY:
  61              	.LFB1:
  66:Generated_Source\PSoC5/cyfitter_cfg.c **** CY_CFG_UNUSED
  67:Generated_Source\PSoC5/cyfitter_cfg.c **** static void CYCONFIGCPY(void *dest, const void *src, size_t n);
  68:Generated_Source\PSoC5/cyfitter_cfg.c **** CY_CFG_UNUSED
  69:Generated_Source\PSoC5/cyfitter_cfg.c **** static void CYCONFIGCPY(void *dest, const void *src, size_t n)
  70:Generated_Source\PSoC5/cyfitter_cfg.c **** {
  62              		.loc 1 70 0
  63              		.cfi_startproc
  64              		@ args = 0, pretend = 0, frame = 16
  65              		@ frame_needed = 1, uses_anonymous_args = 0
  66 0000 80B5     		push	{r7, lr}
  67              		.cfi_def_cfa_offset 8
  68              		.cfi_offset 7, -8
  69              		.cfi_offset 14, -4
  70 0002 84B0     		sub	sp, sp, #16
  71              		.cfi_def_cfa_offset 24
  72 0004 00AF     		add	r7, sp, #0
  73              		.cfi_def_cfa_register 7
  74 0006 F860     		str	r0, [r7, #12]
  75 0008 B960     		str	r1, [r7, #8]
  76 000a 7A60     		str	r2, [r7, #4]
  71:Generated_Source\PSoC5/cyfitter_cfg.c **** 	(void)memcpy(dest, src, n);
  77              		.loc 1 71 0
  78 000c F868     		ldr	r0, [r7, #12]
  79 000e B968     		ldr	r1, [r7, #8]
  80 0010 7A68     		ldr	r2, [r7, #4]
  81 0012 FFF7FEFF 		bl	memcpy
  72:Generated_Source\PSoC5/cyfitter_cfg.c **** }
  82              		.loc 1 72 0
  83 0016 1037     		adds	r7, r7, #16
  84              		.cfi_def_cfa_offset 8
  85 0018 BD46     		mov	sp, r7
  86              		.cfi_def_cfa_register 13
  87              		@ sp needed
  88 001a 80BD     		pop	{r7, pc}
  89              		.cfi_endproc
  90              	.LFE1:
  91              		.size	CYCONFIGCPY, .-CYCONFIGCPY
  92              		.section	.text.CYCONFIGCPYCODE,"ax",%progbits
  93              		.align	2
  94              		.thumb
  95              		.thumb_func
  96              		.type	CYCONFIGCPYCODE, %function
  97              	CYCONFIGCPYCODE:
  98              	.LFB2:
  73:Generated_Source\PSoC5/cyfitter_cfg.c **** CY_CFG_UNUSED
ARM GAS  C:\Users\Greg\AppData\Local\Temp\ccooDGpN.s 			page 4


  74:Generated_Source\PSoC5/cyfitter_cfg.c **** static void CYCONFIGCPYCODE(void *dest, const void *src, size_t n);
  75:Generated_Source\PSoC5/cyfitter_cfg.c **** CY_CFG_UNUSED
  76:Generated_Source\PSoC5/cyfitter_cfg.c **** static void CYCONFIGCPYCODE(void *dest, const void *src, size_t n)
  77:Generated_Source\PSoC5/cyfitter_cfg.c **** {
  99              		.loc 1 77 0
 100              		.cfi_startproc
 101              		@ args = 0, pretend = 0, frame = 16
 102              		@ frame_needed = 1, uses_anonymous_args = 0
 103 0000 80B5     		push	{r7, lr}
 104              		.cfi_def_cfa_offset 8
 105              		.cfi_offset 7, -8
 106              		.cfi_offset 14, -4
 107 0002 84B0     		sub	sp, sp, #16
 108              		.cfi_def_cfa_offset 24
 109 0004 00AF     		add	r7, sp, #0
 110              		.cfi_def_cfa_register 7
 111 0006 F860     		str	r0, [r7, #12]
 112 0008 B960     		str	r1, [r7, #8]
 113 000a 7A60     		str	r2, [r7, #4]
  78:Generated_Source\PSoC5/cyfitter_cfg.c **** 	(void)memcpy(dest, src, n);
 114              		.loc 1 78 0
 115 000c F868     		ldr	r0, [r7, #12]
 116 000e B968     		ldr	r1, [r7, #8]
 117 0010 7A68     		ldr	r2, [r7, #4]
 118 0012 FFF7FEFF 		bl	memcpy
  79:Generated_Source\PSoC5/cyfitter_cfg.c **** }
 119              		.loc 1 79 0
 120 0016 1037     		adds	r7, r7, #16
 121              		.cfi_def_cfa_offset 8
 122 0018 BD46     		mov	sp, r7
 123              		.cfi_def_cfa_register 13
 124              		@ sp needed
 125 001a 80BD     		pop	{r7, pc}
 126              		.cfi_endproc
 127              	.LFE2:
 128              		.size	CYCONFIGCPYCODE, .-CYCONFIGCPYCODE
 129              		.section	.text.CyClockStartupError,"ax",%progbits
 130              		.align	2
 131              		.thumb
 132              		.thumb_func
 133              		.type	CyClockStartupError, %function
 134              	CyClockStartupError:
 135              	.LFB3:
  80:Generated_Source\PSoC5/cyfitter_cfg.c **** 
  81:Generated_Source\PSoC5/cyfitter_cfg.c **** 
  82:Generated_Source\PSoC5/cyfitter_cfg.c **** 
  83:Generated_Source\PSoC5/cyfitter_cfg.c **** 
  84:Generated_Source\PSoC5/cyfitter_cfg.c **** /* Clock startup error codes                                                   */
  85:Generated_Source\PSoC5/cyfitter_cfg.c **** #define CYCLOCKSTART_NO_ERROR    0u
  86:Generated_Source\PSoC5/cyfitter_cfg.c **** #define CYCLOCKSTART_XTAL_ERROR  1u
  87:Generated_Source\PSoC5/cyfitter_cfg.c **** #define CYCLOCKSTART_32KHZ_ERROR 2u
  88:Generated_Source\PSoC5/cyfitter_cfg.c **** #define CYCLOCKSTART_PLL_ERROR   3u
  89:Generated_Source\PSoC5/cyfitter_cfg.c **** 
  90:Generated_Source\PSoC5/cyfitter_cfg.c **** 
  91:Generated_Source\PSoC5/cyfitter_cfg.c **** #ifdef CY_NEED_CYCLOCKSTARTUPERROR
  92:Generated_Source\PSoC5/cyfitter_cfg.c **** /*******************************************************************************
  93:Generated_Source\PSoC5/cyfitter_cfg.c **** * Function Name: CyClockStartupError
ARM GAS  C:\Users\Greg\AppData\Local\Temp\ccooDGpN.s 			page 5


  94:Generated_Source\PSoC5/cyfitter_cfg.c **** ********************************************************************************
  95:Generated_Source\PSoC5/cyfitter_cfg.c **** * Summary:
  96:Generated_Source\PSoC5/cyfitter_cfg.c **** *  If an error is encountered during clock configuration (crystal startup error,
  97:Generated_Source\PSoC5/cyfitter_cfg.c **** *  PLL lock error, etc.), the system will end up here.  Unless reimplemented by
  98:Generated_Source\PSoC5/cyfitter_cfg.c **** *  the customer, this function will stop in an infinite loop.
  99:Generated_Source\PSoC5/cyfitter_cfg.c **** *
 100:Generated_Source\PSoC5/cyfitter_cfg.c **** * Parameters:
 101:Generated_Source\PSoC5/cyfitter_cfg.c **** *   void
 102:Generated_Source\PSoC5/cyfitter_cfg.c **** *
 103:Generated_Source\PSoC5/cyfitter_cfg.c **** * Return:
 104:Generated_Source\PSoC5/cyfitter_cfg.c **** *   void
 105:Generated_Source\PSoC5/cyfitter_cfg.c **** *
 106:Generated_Source\PSoC5/cyfitter_cfg.c **** *******************************************************************************/
 107:Generated_Source\PSoC5/cyfitter_cfg.c **** CY_CFG_UNUSED
 108:Generated_Source\PSoC5/cyfitter_cfg.c **** static void CyClockStartupError(uint8 errorCode);
 109:Generated_Source\PSoC5/cyfitter_cfg.c **** CY_CFG_UNUSED
 110:Generated_Source\PSoC5/cyfitter_cfg.c **** static void CyClockStartupError(uint8 errorCode)
 111:Generated_Source\PSoC5/cyfitter_cfg.c **** {
 136              		.loc 1 111 0
 137              		.cfi_startproc
 138              		@ args = 0, pretend = 0, frame = 8
 139              		@ frame_needed = 1, uses_anonymous_args = 0
 140              		@ link register save eliminated.
 141 0000 80B4     		push	{r7}
 142              		.cfi_def_cfa_offset 4
 143              		.cfi_offset 7, -4
 144 0002 83B0     		sub	sp, sp, #12
 145              		.cfi_def_cfa_offset 16
 146 0004 00AF     		add	r7, sp, #0
 147              		.cfi_def_cfa_register 7
 148 0006 0346     		mov	r3, r0
 149 0008 FB71     		strb	r3, [r7, #7]
 150              	.L5:
 112:Generated_Source\PSoC5/cyfitter_cfg.c ****     /* To remove the compiler warning if errorCode not used.                */
 113:Generated_Source\PSoC5/cyfitter_cfg.c ****     errorCode = errorCode;
 114:Generated_Source\PSoC5/cyfitter_cfg.c **** 
 115:Generated_Source\PSoC5/cyfitter_cfg.c ****     /* If we have a clock startup error (bad MHz crystal, PLL lock, etc.),  */
 116:Generated_Source\PSoC5/cyfitter_cfg.c ****     /* we will end up here to allow the customer to implement something to  */
 117:Generated_Source\PSoC5/cyfitter_cfg.c ****     /* deal with the clock condition.                                       */
 118:Generated_Source\PSoC5/cyfitter_cfg.c **** 
 119:Generated_Source\PSoC5/cyfitter_cfg.c **** #ifdef CY_CFG_CLOCK_STARTUP_ERROR_CALLBACK
 120:Generated_Source\PSoC5/cyfitter_cfg.c **** 	CY_CFG_Clock_Startup_ErrorCallback();
 121:Generated_Source\PSoC5/cyfitter_cfg.c **** #else
 122:Generated_Source\PSoC5/cyfitter_cfg.c **** 	/*  If not using CY_CFG_CLOCK_STARTUP_ERROR_CALLBACK, place your clock startup code here. */
 123:Generated_Source\PSoC5/cyfitter_cfg.c ****     /* `#START CyClockStartupError` */
 124:Generated_Source\PSoC5/cyfitter_cfg.c **** 
 125:Generated_Source\PSoC5/cyfitter_cfg.c ****     /* If we have a clock startup error (bad MHz crystal, PLL lock, etc.),  */
 126:Generated_Source\PSoC5/cyfitter_cfg.c ****     /* we will end up here to allow the customer to implement something to  */
 127:Generated_Source\PSoC5/cyfitter_cfg.c ****     /* deal with the clock condition.                                       */
 128:Generated_Source\PSoC5/cyfitter_cfg.c **** 
 129:Generated_Source\PSoC5/cyfitter_cfg.c ****     /* `#END` */
 130:Generated_Source\PSoC5/cyfitter_cfg.c **** 
 131:Generated_Source\PSoC5/cyfitter_cfg.c ****     /* If nothing else, stop here since the clocks have not started         */
 132:Generated_Source\PSoC5/cyfitter_cfg.c ****     /* correctly.                                                           */
 133:Generated_Source\PSoC5/cyfitter_cfg.c ****     while(1) {}
 151              		.loc 1 133 0 discriminator 1
 152 000a FEE7     		b	.L5
ARM GAS  C:\Users\Greg\AppData\Local\Temp\ccooDGpN.s 			page 6


 153              		.cfi_endproc
 154              	.LFE3:
 155              		.size	CyClockStartupError, .-CyClockStartupError
 156              		.section	.text.cfg_write_bytes32,"ax",%progbits
 157              		.align	2
 158              		.thumb
 159              		.thumb_func
 160              		.type	cfg_write_bytes32, %function
 161              	cfg_write_bytes32:
 162              	.LFB4:
 134:Generated_Source\PSoC5/cyfitter_cfg.c **** #endif /* CY_CFG_CLOCK_STARTUP_ERROR_CALLBACK */ 
 135:Generated_Source\PSoC5/cyfitter_cfg.c **** }
 136:Generated_Source\PSoC5/cyfitter_cfg.c **** #endif
 137:Generated_Source\PSoC5/cyfitter_cfg.c **** 
 138:Generated_Source\PSoC5/cyfitter_cfg.c **** #define CY_CFG_BASE_ADDR_COUNT 34u
 139:Generated_Source\PSoC5/cyfitter_cfg.c **** CYPACKED typedef struct
 140:Generated_Source\PSoC5/cyfitter_cfg.c **** {
 141:Generated_Source\PSoC5/cyfitter_cfg.c **** 	uint8 offset;
 142:Generated_Source\PSoC5/cyfitter_cfg.c **** 	uint8 value;
 143:Generated_Source\PSoC5/cyfitter_cfg.c **** } CYPACKED_ATTR cy_cfg_addrvalue_t;
 144:Generated_Source\PSoC5/cyfitter_cfg.c **** 
 145:Generated_Source\PSoC5/cyfitter_cfg.c **** #define cy_cfg_addr_table ((const uint32 CYFAR *)0x48000000u)
 146:Generated_Source\PSoC5/cyfitter_cfg.c **** #define cy_cfg_data_table ((const cy_cfg_addrvalue_t CYFAR *)0x48000088u)
 147:Generated_Source\PSoC5/cyfitter_cfg.c **** 
 148:Generated_Source\PSoC5/cyfitter_cfg.c **** /* IOPINS0_0 Address: CYREG_PRT0_DM0 Size (bytes): 8 */
 149:Generated_Source\PSoC5/cyfitter_cfg.c **** #define BS_IOPINS0_0_VAL ((const uint8 CYFAR *)0x48000768u)
 150:Generated_Source\PSoC5/cyfitter_cfg.c **** 
 151:Generated_Source\PSoC5/cyfitter_cfg.c **** /* IOPINS0_7 Address: CYREG_PRT12_DM0 Size (bytes): 8 */
 152:Generated_Source\PSoC5/cyfitter_cfg.c **** #define BS_IOPINS0_7_VAL ((const uint8 CYFAR *)0x48000770u)
 153:Generated_Source\PSoC5/cyfitter_cfg.c **** 
 154:Generated_Source\PSoC5/cyfitter_cfg.c **** /* IOPINS0_8 Address: CYREG_PRT15_DR Size (bytes): 10 */
 155:Generated_Source\PSoC5/cyfitter_cfg.c **** #define BS_IOPINS0_8_VAL ((const uint8 CYFAR *)0x48000778u)
 156:Generated_Source\PSoC5/cyfitter_cfg.c **** 
 157:Generated_Source\PSoC5/cyfitter_cfg.c **** /* IOPINS0_1 Address: CYREG_PRT1_DM0 Size (bytes): 8 */
 158:Generated_Source\PSoC5/cyfitter_cfg.c **** #define BS_IOPINS0_1_VAL ((const uint8 CYFAR *)0x48000784u)
 159:Generated_Source\PSoC5/cyfitter_cfg.c **** 
 160:Generated_Source\PSoC5/cyfitter_cfg.c **** /* IOPINS0_2 Address: CYREG_PRT2_DR Size (bytes): 10 */
 161:Generated_Source\PSoC5/cyfitter_cfg.c **** #define BS_IOPINS0_2_VAL ((const uint8 CYFAR *)0x4800078Cu)
 162:Generated_Source\PSoC5/cyfitter_cfg.c **** 
 163:Generated_Source\PSoC5/cyfitter_cfg.c **** /* IOPINS0_3 Address: CYREG_PRT3_DM0 Size (bytes): 8 */
 164:Generated_Source\PSoC5/cyfitter_cfg.c **** #define BS_IOPINS0_3_VAL ((const uint8 CYFAR *)0x48000798u)
 165:Generated_Source\PSoC5/cyfitter_cfg.c **** 
 166:Generated_Source\PSoC5/cyfitter_cfg.c **** 
 167:Generated_Source\PSoC5/cyfitter_cfg.c **** /*******************************************************************************
 168:Generated_Source\PSoC5/cyfitter_cfg.c **** * Function Name: cfg_write_bytes32
 169:Generated_Source\PSoC5/cyfitter_cfg.c **** ********************************************************************************
 170:Generated_Source\PSoC5/cyfitter_cfg.c **** * Summary:
 171:Generated_Source\PSoC5/cyfitter_cfg.c **** *  This function is used for setting up the chip configuration areas that
 172:Generated_Source\PSoC5/cyfitter_cfg.c **** *  contain relatively sparse data.
 173:Generated_Source\PSoC5/cyfitter_cfg.c **** *
 174:Generated_Source\PSoC5/cyfitter_cfg.c **** * Parameters:
 175:Generated_Source\PSoC5/cyfitter_cfg.c **** *   void
 176:Generated_Source\PSoC5/cyfitter_cfg.c **** *
 177:Generated_Source\PSoC5/cyfitter_cfg.c **** * Return:
 178:Generated_Source\PSoC5/cyfitter_cfg.c **** *   void
 179:Generated_Source\PSoC5/cyfitter_cfg.c **** *
 180:Generated_Source\PSoC5/cyfitter_cfg.c **** *******************************************************************************/
ARM GAS  C:\Users\Greg\AppData\Local\Temp\ccooDGpN.s 			page 7


 181:Generated_Source\PSoC5/cyfitter_cfg.c **** static void cfg_write_bytes32(const uint32 addr_table[], const cy_cfg_addrvalue_t data_table[]);
 182:Generated_Source\PSoC5/cyfitter_cfg.c **** static void cfg_write_bytes32(const uint32 addr_table[], const cy_cfg_addrvalue_t data_table[])
 183:Generated_Source\PSoC5/cyfitter_cfg.c **** {
 163              		.loc 1 183 0
 164              		.cfi_startproc
 165              		@ args = 0, pretend = 0, frame = 24
 166              		@ frame_needed = 1, uses_anonymous_args = 0
 167              		@ link register save eliminated.
 168 0000 80B4     		push	{r7}
 169              		.cfi_def_cfa_offset 4
 170              		.cfi_offset 7, -4
 171 0002 87B0     		sub	sp, sp, #28
 172              		.cfi_def_cfa_offset 32
 173 0004 00AF     		add	r7, sp, #0
 174              		.cfi_def_cfa_register 7
 175 0006 7860     		str	r0, [r7, #4]
 176 0008 3960     		str	r1, [r7]
 184:Generated_Source\PSoC5/cyfitter_cfg.c **** 	/* For 32-bit little-endian architectures */
 185:Generated_Source\PSoC5/cyfitter_cfg.c **** 	uint32 i, j = 0u;
 177              		.loc 1 185 0
 178 000a 0023     		movs	r3, #0
 179 000c 3B61     		str	r3, [r7, #16]
 186:Generated_Source\PSoC5/cyfitter_cfg.c **** 	for (i = 0u; i < CY_CFG_BASE_ADDR_COUNT; i++)
 180              		.loc 1 186 0
 181 000e 0023     		movs	r3, #0
 182 0010 7B61     		str	r3, [r7, #20]
 183 0012 27E0     		b	.L7
 184              	.L10:
 185              	.LBB2:
 187:Generated_Source\PSoC5/cyfitter_cfg.c **** 	{
 188:Generated_Source\PSoC5/cyfitter_cfg.c **** 		uint32 baseAddr = addr_table[i];
 186              		.loc 1 188 0
 187 0014 7B69     		ldr	r3, [r7, #20]
 188 0016 9B00     		lsls	r3, r3, #2
 189 0018 7A68     		ldr	r2, [r7, #4]
 190 001a 1344     		add	r3, r3, r2
 191 001c 1B68     		ldr	r3, [r3]
 192 001e BB60     		str	r3, [r7, #8]
 189:Generated_Source\PSoC5/cyfitter_cfg.c **** 		uint8 count = (uint8)baseAddr;
 193              		.loc 1 189 0
 194 0020 BB68     		ldr	r3, [r7, #8]
 195 0022 FB73     		strb	r3, [r7, #15]
 190:Generated_Source\PSoC5/cyfitter_cfg.c **** 		baseAddr &= 0xFFFFFF00u;
 196              		.loc 1 190 0
 197 0024 BB68     		ldr	r3, [r7, #8]
 198 0026 23F0FF03 		bic	r3, r3, #255
 199 002a BB60     		str	r3, [r7, #8]
 191:Generated_Source\PSoC5/cyfitter_cfg.c **** 		while (count != 0u)
 200              		.loc 1 191 0
 201 002c 14E0     		b	.L8
 202              	.L9:
 192:Generated_Source\PSoC5/cyfitter_cfg.c **** 		{
 193:Generated_Source\PSoC5/cyfitter_cfg.c **** 			CY_SET_XTND_REG8((void CYFAR *)(baseAddr + data_table[j].offset), data_table[j].value);
 203              		.loc 1 193 0
 204 002e 3B69     		ldr	r3, [r7, #16]
 205 0030 5B00     		lsls	r3, r3, #1
 206 0032 3A68     		ldr	r2, [r7]
ARM GAS  C:\Users\Greg\AppData\Local\Temp\ccooDGpN.s 			page 8


 207 0034 1344     		add	r3, r3, r2
 208 0036 1B78     		ldrb	r3, [r3]	@ zero_extendqisi2
 209 0038 1A46     		mov	r2, r3
 210 003a BB68     		ldr	r3, [r7, #8]
 211 003c 1344     		add	r3, r3, r2
 212 003e 1946     		mov	r1, r3
 213 0040 3B69     		ldr	r3, [r7, #16]
 214 0042 5B00     		lsls	r3, r3, #1
 215 0044 3A68     		ldr	r2, [r7]
 216 0046 1344     		add	r3, r3, r2
 217 0048 5B78     		ldrb	r3, [r3, #1]	@ zero_extendqisi2
 218 004a 0B70     		strb	r3, [r1]
 194:Generated_Source\PSoC5/cyfitter_cfg.c **** 			j++;
 219              		.loc 1 194 0
 220 004c 3B69     		ldr	r3, [r7, #16]
 221 004e 0133     		adds	r3, r3, #1
 222 0050 3B61     		str	r3, [r7, #16]
 195:Generated_Source\PSoC5/cyfitter_cfg.c **** 			count--;
 223              		.loc 1 195 0
 224 0052 FB7B     		ldrb	r3, [r7, #15]	@ zero_extendqisi2
 225 0054 013B     		subs	r3, r3, #1
 226 0056 FB73     		strb	r3, [r7, #15]
 227              	.L8:
 191:Generated_Source\PSoC5/cyfitter_cfg.c **** 		{
 228              		.loc 1 191 0
 229 0058 FB7B     		ldrb	r3, [r7, #15]	@ zero_extendqisi2
 230 005a 002B     		cmp	r3, #0
 231 005c E7D1     		bne	.L9
 232              	.LBE2:
 186:Generated_Source\PSoC5/cyfitter_cfg.c **** 	{
 233              		.loc 1 186 0 discriminator 2
 234 005e 7B69     		ldr	r3, [r7, #20]
 235 0060 0133     		adds	r3, r3, #1
 236 0062 7B61     		str	r3, [r7, #20]
 237              	.L7:
 186:Generated_Source\PSoC5/cyfitter_cfg.c **** 	{
 238              		.loc 1 186 0 is_stmt 0 discriminator 1
 239 0064 7B69     		ldr	r3, [r7, #20]
 240 0066 212B     		cmp	r3, #33
 241 0068 D4D9     		bls	.L10
 196:Generated_Source\PSoC5/cyfitter_cfg.c **** 		}
 197:Generated_Source\PSoC5/cyfitter_cfg.c **** 	}
 198:Generated_Source\PSoC5/cyfitter_cfg.c **** }
 242              		.loc 1 198 0 is_stmt 1
 243 006a 1C37     		adds	r7, r7, #28
 244              		.cfi_def_cfa_offset 4
 245 006c BD46     		mov	sp, r7
 246              		.cfi_def_cfa_register 13
 247              		@ sp needed
 248 006e 5DF8047B 		ldr	r7, [sp], #4
 249              		.cfi_restore 7
 250              		.cfi_def_cfa_offset 0
 251 0072 7047     		bx	lr
 252              		.cfi_endproc
 253              	.LFE4:
 254              		.size	cfg_write_bytes32, .-cfg_write_bytes32
 255              		.section	.text.ClockSetup,"ax",%progbits
ARM GAS  C:\Users\Greg\AppData\Local\Temp\ccooDGpN.s 			page 9


 256              		.align	2
 257              		.thumb
 258              		.thumb_func
 259              		.type	ClockSetup, %function
 260              	ClockSetup:
 261              	.LFB5:
 199:Generated_Source\PSoC5/cyfitter_cfg.c **** 
 200:Generated_Source\PSoC5/cyfitter_cfg.c **** /*******************************************************************************
 201:Generated_Source\PSoC5/cyfitter_cfg.c **** * Function Name: ClockSetup
 202:Generated_Source\PSoC5/cyfitter_cfg.c **** ********************************************************************************
 203:Generated_Source\PSoC5/cyfitter_cfg.c **** *
 204:Generated_Source\PSoC5/cyfitter_cfg.c **** * Summary:
 205:Generated_Source\PSoC5/cyfitter_cfg.c **** *  Performs the initialization of all of the clocks in the device based on the
 206:Generated_Source\PSoC5/cyfitter_cfg.c **** *  settings in the Clock tab of the DWR.  This includes enabling the requested
 207:Generated_Source\PSoC5/cyfitter_cfg.c **** *  clocks and setting the necessary dividers to produce the desired frequency. 
 208:Generated_Source\PSoC5/cyfitter_cfg.c **** *
 209:Generated_Source\PSoC5/cyfitter_cfg.c **** * Parameters:
 210:Generated_Source\PSoC5/cyfitter_cfg.c **** *  void
 211:Generated_Source\PSoC5/cyfitter_cfg.c **** *
 212:Generated_Source\PSoC5/cyfitter_cfg.c **** * Return:
 213:Generated_Source\PSoC5/cyfitter_cfg.c **** *  void
 214:Generated_Source\PSoC5/cyfitter_cfg.c **** *
 215:Generated_Source\PSoC5/cyfitter_cfg.c **** *******************************************************************************/
 216:Generated_Source\PSoC5/cyfitter_cfg.c **** static void ClockSetup(void);
 217:Generated_Source\PSoC5/cyfitter_cfg.c **** static void ClockSetup(void)
 218:Generated_Source\PSoC5/cyfitter_cfg.c **** {
 262              		.loc 1 218 0
 263              		.cfi_startproc
 264              		@ args = 0, pretend = 0, frame = 8
 265              		@ frame_needed = 1, uses_anonymous_args = 0
 266 0000 80B5     		push	{r7, lr}
 267              		.cfi_def_cfa_offset 8
 268              		.cfi_offset 7, -8
 269              		.cfi_offset 14, -4
 270 0002 82B0     		sub	sp, sp, #8
 271              		.cfi_def_cfa_offset 16
 272 0004 00AF     		add	r7, sp, #0
 273              		.cfi_def_cfa_register 7
 219:Generated_Source\PSoC5/cyfitter_cfg.c **** 	uint32 timeout;
 220:Generated_Source\PSoC5/cyfitter_cfg.c **** 	uint8 pllLock;
 221:Generated_Source\PSoC5/cyfitter_cfg.c **** 
 222:Generated_Source\PSoC5/cyfitter_cfg.c **** 
 223:Generated_Source\PSoC5/cyfitter_cfg.c **** 	/* Configure Digital Clocks based on settings from Clock DWR */
 224:Generated_Source\PSoC5/cyfitter_cfg.c **** 	CY_SET_XTND_REG16((void CYFAR *)(CYREG_CLKDIST_DCFG0_CFG0), 0x0001u);
 274              		.loc 1 224 0
 275 0006 3F4B     		ldr	r3, .L16
 276 0008 0122     		movs	r2, #1
 277 000a 1A80     		strh	r2, [r3]	@ movhi
 225:Generated_Source\PSoC5/cyfitter_cfg.c **** 	CY_SET_XTND_REG8((void CYFAR *)(CYREG_CLKDIST_DCFG0_CFG0 + 0x2u), 0x18u);
 278              		.loc 1 225 0
 279 000c 3E4B     		ldr	r3, .L16+4
 280 000e 1822     		movs	r2, #24
 281 0010 1A70     		strb	r2, [r3]
 226:Generated_Source\PSoC5/cyfitter_cfg.c **** 	CY_SET_XTND_REG16((void CYFAR *)(CYREG_CLKDIST_DCFG1_CFG0), 0x0001u);
 282              		.loc 1 226 0
 283 0012 3E4B     		ldr	r3, .L16+8
 284 0014 0122     		movs	r2, #1
ARM GAS  C:\Users\Greg\AppData\Local\Temp\ccooDGpN.s 			page 10


 285 0016 1A80     		strh	r2, [r3]	@ movhi
 227:Generated_Source\PSoC5/cyfitter_cfg.c **** 	CY_SET_XTND_REG8((void CYFAR *)(CYREG_CLKDIST_DCFG1_CFG0 + 0x2u), 0x18u);
 286              		.loc 1 227 0
 287 0018 3D4B     		ldr	r3, .L16+12
 288 001a 1822     		movs	r2, #24
 289 001c 1A70     		strb	r2, [r3]
 228:Generated_Source\PSoC5/cyfitter_cfg.c **** 	CY_SET_XTND_REG16((void CYFAR *)(CYREG_CLKDIST_DCFG2_CFG0), 0x0001u);
 290              		.loc 1 228 0
 291 001e 3D4B     		ldr	r3, .L16+16
 292 0020 0122     		movs	r2, #1
 293 0022 1A80     		strh	r2, [r3]	@ movhi
 229:Generated_Source\PSoC5/cyfitter_cfg.c **** 	CY_SET_XTND_REG8((void CYFAR *)(CYREG_CLKDIST_DCFG2_CFG0 + 0x2u), 0x18u);
 294              		.loc 1 229 0
 295 0024 3C4B     		ldr	r3, .L16+20
 296 0026 1822     		movs	r2, #24
 297 0028 1A70     		strb	r2, [r3]
 230:Generated_Source\PSoC5/cyfitter_cfg.c **** 	CY_SET_XTND_REG16((void CYFAR *)(CYREG_CLKDIST_DCFG3_CFG0), 0x0023u);
 298              		.loc 1 230 0
 299 002a 3C4B     		ldr	r3, .L16+24
 300 002c 2322     		movs	r2, #35
 301 002e 1A80     		strh	r2, [r3]	@ movhi
 231:Generated_Source\PSoC5/cyfitter_cfg.c **** 	CY_SET_XTND_REG8((void CYFAR *)(CYREG_CLKDIST_DCFG3_CFG0 + 0x2u), 0x18u);
 302              		.loc 1 231 0
 303 0030 3B4B     		ldr	r3, .L16+28
 304 0032 1822     		movs	r2, #24
 305 0034 1A70     		strb	r2, [r3]
 232:Generated_Source\PSoC5/cyfitter_cfg.c **** 	CY_SET_XTND_REG16((void CYFAR *)(CYREG_CLKDIST_DCFG4_CFG0), 0x008Fu);
 306              		.loc 1 232 0
 307 0036 3B4B     		ldr	r3, .L16+32
 308 0038 8F22     		movs	r2, #143
 309 003a 1A80     		strh	r2, [r3]	@ movhi
 233:Generated_Source\PSoC5/cyfitter_cfg.c **** 	CY_SET_XTND_REG8((void CYFAR *)(CYREG_CLKDIST_DCFG4_CFG0 + 0x2u), 0x18u);
 310              		.loc 1 233 0
 311 003c 3A4B     		ldr	r3, .L16+36
 312 003e 1822     		movs	r2, #24
 313 0040 1A70     		strb	r2, [r3]
 234:Generated_Source\PSoC5/cyfitter_cfg.c **** 	CY_SET_XTND_REG16((void CYFAR *)(CYREG_CLKDIST_DCFG5_CFG0), 0x008Fu);
 314              		.loc 1 234 0
 315 0042 3A4B     		ldr	r3, .L16+40
 316 0044 8F22     		movs	r2, #143
 317 0046 1A80     		strh	r2, [r3]	@ movhi
 235:Generated_Source\PSoC5/cyfitter_cfg.c **** 	CY_SET_XTND_REG8((void CYFAR *)(CYREG_CLKDIST_DCFG5_CFG0 + 0x2u), 0x18u);
 318              		.loc 1 235 0
 319 0048 394B     		ldr	r3, .L16+44
 320 004a 1822     		movs	r2, #24
 321 004c 1A70     		strb	r2, [r3]
 236:Generated_Source\PSoC5/cyfitter_cfg.c **** 
 237:Generated_Source\PSoC5/cyfitter_cfg.c **** 	/* Configure ILO based on settings from Clock DWR */
 238:Generated_Source\PSoC5/cyfitter_cfg.c **** 	CY_SET_XTND_REG8((void CYFAR *)(CYREG_SLOWCLK_ILO_CR0), 0x06u);
 322              		.loc 1 238 0
 323 004e 394B     		ldr	r3, .L16+48
 324 0050 0622     		movs	r2, #6
 325 0052 1A70     		strb	r2, [r3]
 239:Generated_Source\PSoC5/cyfitter_cfg.c **** 
 240:Generated_Source\PSoC5/cyfitter_cfg.c **** 	/* Configure IMO based on settings from Clock DWR */
 241:Generated_Source\PSoC5/cyfitter_cfg.c **** 	CY_SET_XTND_REG8((void CYFAR *)(CYREG_FASTCLK_IMO_CR), 0x52u);
 326              		.loc 1 241 0
ARM GAS  C:\Users\Greg\AppData\Local\Temp\ccooDGpN.s 			page 11


 327 0054 384B     		ldr	r3, .L16+52
 328 0056 5222     		movs	r2, #82
 329 0058 1A70     		strb	r2, [r3]
 242:Generated_Source\PSoC5/cyfitter_cfg.c **** 	CY_SET_XTND_REG8((void CYFAR *)(CYREG_IMO_TR1), (CY_GET_XTND_REG8((void CYFAR *)CYREG_FLSHID_CUST_
 330              		.loc 1 242 0
 331 005a 384B     		ldr	r3, .L16+56
 332 005c 384A     		ldr	r2, .L16+60
 333 005e 1278     		ldrb	r2, [r2]
 334 0060 D2B2     		uxtb	r2, r2
 335 0062 1A70     		strb	r2, [r3]
 243:Generated_Source\PSoC5/cyfitter_cfg.c **** 
 244:Generated_Source\PSoC5/cyfitter_cfg.c **** 	/* Configure PLL based on settings from Clock DWR */
 245:Generated_Source\PSoC5/cyfitter_cfg.c **** 	CY_SET_XTND_REG16((void CYFAR *)(CYREG_FASTCLK_PLL_P), 0x070Cu);
 336              		.loc 1 245 0
 337 0064 374B     		ldr	r3, .L16+64
 338 0066 40F20C72 		movw	r2, #1804
 339 006a 1A80     		strh	r2, [r3]	@ movhi
 246:Generated_Source\PSoC5/cyfitter_cfg.c **** 	CY_SET_XTND_REG16((void CYFAR *)(CYREG_FASTCLK_PLL_CFG0), 0x1251u);
 340              		.loc 1 246 0
 341 006c 364B     		ldr	r3, .L16+68
 342 006e 41F25122 		movw	r2, #4689
 343 0072 1A80     		strh	r2, [r3]	@ movhi
 247:Generated_Source\PSoC5/cyfitter_cfg.c **** 	/* Wait up to 250us for the PLL to lock */
 248:Generated_Source\PSoC5/cyfitter_cfg.c **** 	pllLock = 0u;
 344              		.loc 1 248 0
 345 0074 0023     		movs	r3, #0
 346 0076 FB70     		strb	r3, [r7, #3]
 249:Generated_Source\PSoC5/cyfitter_cfg.c **** 	for (timeout = 250u / 10u; (timeout > 0u) && (pllLock != 0x03u); timeout--)
 347              		.loc 1 249 0
 348 0078 1923     		movs	r3, #25
 349 007a 7B60     		str	r3, [r7, #4]
 350 007c 14E0     		b	.L12
 351              	.L14:
 250:Generated_Source\PSoC5/cyfitter_cfg.c **** 	{ 
 251:Generated_Source\PSoC5/cyfitter_cfg.c **** 		pllLock = 0x03u & ((uint8)((uint8)pllLock << 1) | ((CY_GET_XTND_REG8((void CYFAR *)CYREG_FASTCLK_
 352              		.loc 1 251 0 discriminator 4
 353 007e FB78     		ldrb	r3, [r7, #3]
 354 0080 5B00     		lsls	r3, r3, #1
 355 0082 DAB2     		uxtb	r2, r3
 356 0084 314B     		ldr	r3, .L16+72
 357 0086 1B78     		ldrb	r3, [r3]
 358 0088 DBB2     		uxtb	r3, r3
 359 008a 03F00103 		and	r3, r3, #1
 360 008e DBB2     		uxtb	r3, r3
 361 0090 1343     		orrs	r3, r3, r2
 362 0092 DBB2     		uxtb	r3, r3
 363 0094 03F00303 		and	r3, r3, #3
 364 0098 FB70     		strb	r3, [r7, #3]
 252:Generated_Source\PSoC5/cyfitter_cfg.c **** 		CyDelayCycles(10u * 48u); /* Delay 10us based on 48MHz clock */
 365              		.loc 1 252 0 discriminator 4
 366 009a 4FF4F070 		mov	r0, #480
 367 009e FFF7FEFF 		bl	CyDelayCycles
 249:Generated_Source\PSoC5/cyfitter_cfg.c **** 	for (timeout = 250u / 10u; (timeout > 0u) && (pllLock != 0x03u); timeout--)
 368              		.loc 1 249 0 discriminator 4
 369 00a2 7B68     		ldr	r3, [r7, #4]
 370 00a4 013B     		subs	r3, r3, #1
 371 00a6 7B60     		str	r3, [r7, #4]
ARM GAS  C:\Users\Greg\AppData\Local\Temp\ccooDGpN.s 			page 12


 372              	.L12:
 249:Generated_Source\PSoC5/cyfitter_cfg.c **** 	for (timeout = 250u / 10u; (timeout > 0u) && (pllLock != 0x03u); timeout--)
 373              		.loc 1 249 0 is_stmt 0 discriminator 1
 374 00a8 7B68     		ldr	r3, [r7, #4]
 375 00aa 002B     		cmp	r3, #0
 376 00ac 02D0     		beq	.L13
 249:Generated_Source\PSoC5/cyfitter_cfg.c **** 	for (timeout = 250u / 10u; (timeout > 0u) && (pllLock != 0x03u); timeout--)
 377              		.loc 1 249 0 discriminator 3
 378 00ae FB78     		ldrb	r3, [r7, #3]	@ zero_extendqisi2
 379 00b0 032B     		cmp	r3, #3
 380 00b2 E4D1     		bne	.L14
 381              	.L13:
 253:Generated_Source\PSoC5/cyfitter_cfg.c **** 	}
 254:Generated_Source\PSoC5/cyfitter_cfg.c **** 	/* If we ran out of time the PLL didn't lock so go to the error function */
 255:Generated_Source\PSoC5/cyfitter_cfg.c **** 	if (timeout == 0u)
 382              		.loc 1 255 0 is_stmt 1
 383 00b4 7B68     		ldr	r3, [r7, #4]
 384 00b6 002B     		cmp	r3, #0
 385 00b8 02D1     		bne	.L15
 256:Generated_Source\PSoC5/cyfitter_cfg.c **** 	{
 257:Generated_Source\PSoC5/cyfitter_cfg.c **** 		CyClockStartupError(CYCLOCKSTART_PLL_ERROR);
 386              		.loc 1 257 0
 387 00ba 0320     		movs	r0, #3
 388 00bc FFF7FEFF 		bl	CyClockStartupError
 389              	.L15:
 258:Generated_Source\PSoC5/cyfitter_cfg.c **** 	}
 259:Generated_Source\PSoC5/cyfitter_cfg.c **** 
 260:Generated_Source\PSoC5/cyfitter_cfg.c **** 	/* Configure Bus/Master Clock based on settings from Clock DWR */
 261:Generated_Source\PSoC5/cyfitter_cfg.c **** 	CY_SET_XTND_REG16((void CYFAR *)(CYREG_CLKDIST_MSTR0), 0x0100u);
 390              		.loc 1 261 0
 391 00c0 234B     		ldr	r3, .L16+76
 392 00c2 4FF48072 		mov	r2, #256
 393 00c6 1A80     		strh	r2, [r3]	@ movhi
 262:Generated_Source\PSoC5/cyfitter_cfg.c **** 	CY_SET_XTND_REG8((void CYFAR *)(CYREG_CLKDIST_MSTR0), 0x07u);
 394              		.loc 1 262 0
 395 00c8 214B     		ldr	r3, .L16+76
 396 00ca 0722     		movs	r2, #7
 397 00cc 1A70     		strb	r2, [r3]
 263:Generated_Source\PSoC5/cyfitter_cfg.c **** 	CY_SET_XTND_REG8((void CYFAR *)(CYREG_CLKDIST_BCFG0), 0x00u);
 398              		.loc 1 263 0
 399 00ce 214B     		ldr	r3, .L16+80
 400 00d0 0022     		movs	r2, #0
 401 00d2 1A70     		strb	r2, [r3]
 264:Generated_Source\PSoC5/cyfitter_cfg.c **** 	CY_SET_XTND_REG8((void CYFAR *)(CYREG_CLKDIST_BCFG2), 0x48u);
 402              		.loc 1 264 0
 403 00d4 204B     		ldr	r3, .L16+84
 404 00d6 4822     		movs	r2, #72
 405 00d8 1A70     		strb	r2, [r3]
 265:Generated_Source\PSoC5/cyfitter_cfg.c **** 	CY_SET_XTND_REG8((void CYFAR *)(CYREG_CLKDIST_MSTR0), 0x00u);
 406              		.loc 1 265 0
 407 00da 1D4B     		ldr	r3, .L16+76
 408 00dc 0022     		movs	r2, #0
 409 00de 1A70     		strb	r2, [r3]
 266:Generated_Source\PSoC5/cyfitter_cfg.c **** 
 267:Generated_Source\PSoC5/cyfitter_cfg.c **** 	/* Configure USB Clock based on settings from Clock DWR */
 268:Generated_Source\PSoC5/cyfitter_cfg.c **** 	CY_SET_XTND_REG8((void CYFAR *)(CYREG_CLKDIST_UCFG), 0x00u);
 410              		.loc 1 268 0
ARM GAS  C:\Users\Greg\AppData\Local\Temp\ccooDGpN.s 			page 13


 411 00e0 1E4B     		ldr	r3, .L16+88
 412 00e2 0022     		movs	r2, #0
 413 00e4 1A70     		strb	r2, [r3]
 269:Generated_Source\PSoC5/cyfitter_cfg.c **** 	CY_SET_XTND_REG8((void CYFAR *)(CYREG_CLKDIST_LD), 0x02u);
 414              		.loc 1 269 0
 415 00e6 1E4B     		ldr	r3, .L16+92
 416 00e8 0222     		movs	r2, #2
 417 00ea 1A70     		strb	r2, [r3]
 270:Generated_Source\PSoC5/cyfitter_cfg.c **** 
 271:Generated_Source\PSoC5/cyfitter_cfg.c **** 	CY_SET_XTND_REG8((void CYFAR *)(CYREG_PM_ACT_CFG2), ((CY_GET_XTND_REG8((void CYFAR *)CYREG_PM_ACT_
 418              		.loc 1 271 0
 419 00ec 1D4A     		ldr	r2, .L16+96
 420 00ee 1D4B     		ldr	r3, .L16+96
 421 00f0 1B78     		ldrb	r3, [r3]
 422 00f2 DBB2     		uxtb	r3, r3
 423 00f4 43F03F03 		orr	r3, r3, #63
 424 00f8 DBB2     		uxtb	r3, r3
 425 00fa 1370     		strb	r3, [r2]
 272:Generated_Source\PSoC5/cyfitter_cfg.c **** }
 426              		.loc 1 272 0
 427 00fc 0837     		adds	r7, r7, #8
 428              		.cfi_def_cfa_offset 8
 429 00fe BD46     		mov	sp, r7
 430              		.cfi_def_cfa_register 13
 431              		@ sp needed
 432 0100 80BD     		pop	{r7, pc}
 433              	.L17:
 434 0102 00BF     		.align	2
 435              	.L16:
 436 0104 80400040 		.word	1073758336
 437 0108 82400040 		.word	1073758338
 438 010c 84400040 		.word	1073758340
 439 0110 86400040 		.word	1073758342
 440 0114 88400040 		.word	1073758344
 441 0118 8A400040 		.word	1073758346
 442 011c 8C400040 		.word	1073758348
 443 0120 8E400040 		.word	1073758350
 444 0124 90400040 		.word	1073758352
 445 0128 92400040 		.word	1073758354
 446 012c 94400040 		.word	1073758356
 447 0130 96400040 		.word	1073758358
 448 0134 00430040 		.word	1073758976
 449 0138 00420040 		.word	1073758720
 450 013c A1460040 		.word	1073759905
 451 0140 0F010049 		.word	1224737039
 452 0144 22420040 		.word	1073758754
 453 0148 20420040 		.word	1073758752
 454 014c 25420040 		.word	1073758757
 455 0150 04400040 		.word	1073758212
 456 0154 06400040 		.word	1073758214
 457 0158 08400040 		.word	1073758216
 458 015c 09400040 		.word	1073758217
 459 0160 01400040 		.word	1073758209
 460 0164 A2430040 		.word	1073759138
 461              		.cfi_endproc
 462              	.LFE5:
 463              		.size	ClockSetup, .-ClockSetup
ARM GAS  C:\Users\Greg\AppData\Local\Temp\ccooDGpN.s 			page 14


 464              		.section	.text.AnalogSetDefault,"ax",%progbits
 465              		.align	2
 466              		.thumb
 467              		.thumb_func
 468              		.type	AnalogSetDefault, %function
 469              	AnalogSetDefault:
 470              	.LFB6:
 273:Generated_Source\PSoC5/cyfitter_cfg.c **** 
 274:Generated_Source\PSoC5/cyfitter_cfg.c **** 
 275:Generated_Source\PSoC5/cyfitter_cfg.c **** /* Analog API Functions */
 276:Generated_Source\PSoC5/cyfitter_cfg.c **** 
 277:Generated_Source\PSoC5/cyfitter_cfg.c **** 
 278:Generated_Source\PSoC5/cyfitter_cfg.c **** /*******************************************************************************
 279:Generated_Source\PSoC5/cyfitter_cfg.c **** * Function Name: AnalogSetDefault
 280:Generated_Source\PSoC5/cyfitter_cfg.c **** ********************************************************************************
 281:Generated_Source\PSoC5/cyfitter_cfg.c **** *
 282:Generated_Source\PSoC5/cyfitter_cfg.c **** * Summary:
 283:Generated_Source\PSoC5/cyfitter_cfg.c **** *  Sets up the analog portions of the chip to default values based on chip
 284:Generated_Source\PSoC5/cyfitter_cfg.c **** *  configuration options from the project.
 285:Generated_Source\PSoC5/cyfitter_cfg.c **** *
 286:Generated_Source\PSoC5/cyfitter_cfg.c **** * Parameters:
 287:Generated_Source\PSoC5/cyfitter_cfg.c **** *  void
 288:Generated_Source\PSoC5/cyfitter_cfg.c **** *
 289:Generated_Source\PSoC5/cyfitter_cfg.c **** * Return:
 290:Generated_Source\PSoC5/cyfitter_cfg.c **** *  void
 291:Generated_Source\PSoC5/cyfitter_cfg.c **** *
 292:Generated_Source\PSoC5/cyfitter_cfg.c **** *******************************************************************************/
 293:Generated_Source\PSoC5/cyfitter_cfg.c **** static void AnalogSetDefault(void);
 294:Generated_Source\PSoC5/cyfitter_cfg.c **** static void AnalogSetDefault(void)
 295:Generated_Source\PSoC5/cyfitter_cfg.c **** {
 471              		.loc 1 295 0
 472              		.cfi_startproc
 473              		@ args = 0, pretend = 0, frame = 8
 474              		@ frame_needed = 1, uses_anonymous_args = 0
 475 0000 80B5     		push	{r7, lr}
 476              		.cfi_def_cfa_offset 8
 477              		.cfi_offset 7, -8
 478              		.cfi_offset 14, -4
 479 0002 82B0     		sub	sp, sp, #8
 480              		.cfi_def_cfa_offset 16
 481 0004 00AF     		add	r7, sp, #0
 482              		.cfi_def_cfa_register 7
 296:Generated_Source\PSoC5/cyfitter_cfg.c **** 	uint8 bg_xover_inl_trim = CY_GET_XTND_REG8((void CYFAR *)(CYREG_FLSHID_MFG_CFG_BG_XOVER_INL_TRIM +
 483              		.loc 1 296 0
 484 0006 314B     		ldr	r3, .L19
 485 0008 1B78     		ldrb	r3, [r3]
 486 000a FB71     		strb	r3, [r7, #7]
 297:Generated_Source\PSoC5/cyfitter_cfg.c **** 	uint8 cr4 = CY_GET_XTND_REG8((void CYFAR *)(CYREG_RESET_CR4));
 487              		.loc 1 297 0
 488 000c 304B     		ldr	r3, .L19+4
 489 000e 1B78     		ldrb	r3, [r3]
 490 0010 BB71     		strb	r3, [r7, #6]
 298:Generated_Source\PSoC5/cyfitter_cfg.c **** 	uint8 cr5 = CY_GET_XTND_REG8((void CYFAR *)(CYREG_RESET_CR5));
 491              		.loc 1 298 0
 492 0012 304B     		ldr	r3, .L19+8
 493 0014 1B78     		ldrb	r3, [r3]
 494 0016 7B71     		strb	r3, [r7, #5]
ARM GAS  C:\Users\Greg\AppData\Local\Temp\ccooDGpN.s 			page 15


 299:Generated_Source\PSoC5/cyfitter_cfg.c **** 	CY_SET_XTND_REG8((void CYFAR *)(CYREG_BG_DFT0), (bg_xover_inl_trim & 0x07u));
 495              		.loc 1 299 0
 496 0018 2F4A     		ldr	r2, .L19+12
 497 001a FB79     		ldrb	r3, [r7, #7]
 498 001c 03F00703 		and	r3, r3, #7
 499 0020 DBB2     		uxtb	r3, r3
 500 0022 1370     		strb	r3, [r2]
 300:Generated_Source\PSoC5/cyfitter_cfg.c **** 	CY_SET_XTND_REG8((void CYFAR *)(CYREG_BG_DFT1), ((bg_xover_inl_trim >> 4) & 0x0Fu));
 501              		.loc 1 300 0
 502 0024 2D4A     		ldr	r2, .L19+16
 503 0026 FB79     		ldrb	r3, [r7, #7]	@ zero_extendqisi2
 504 0028 1B09     		lsrs	r3, r3, #4
 505 002a DBB2     		uxtb	r3, r3
 506 002c 1370     		strb	r3, [r2]
 301:Generated_Source\PSoC5/cyfitter_cfg.c **** 	/* Disable PRES while setting up SAR voltage reference */
 302:Generated_Source\PSoC5/cyfitter_cfg.c **** 	CY_SET_XTND_REG8((void CYFAR *)(CYREG_RESET_CR4), (cr4 | 0x03u));
 507              		.loc 1 302 0
 508 002e 284A     		ldr	r2, .L19+4
 509 0030 BB79     		ldrb	r3, [r7, #6]
 510 0032 43F00303 		orr	r3, r3, #3
 511 0036 DBB2     		uxtb	r3, r3
 512 0038 1370     		strb	r3, [r2]
 303:Generated_Source\PSoC5/cyfitter_cfg.c **** 	CY_SET_XTND_REG8((void CYFAR *)(CYREG_RESET_CR5), (cr5 | 0x03u));
 513              		.loc 1 303 0
 514 003a 264A     		ldr	r2, .L19+8
 515 003c 7B79     		ldrb	r3, [r7, #5]
 516 003e 43F00303 		orr	r3, r3, #3
 517 0042 DBB2     		uxtb	r3, r3
 518 0044 1370     		strb	r3, [r2]
 304:Generated_Source\PSoC5/cyfitter_cfg.c **** 	CY_SET_XTND_REG8((void CYFAR *)CYREG_PRT1_AG, 0x80u);
 519              		.loc 1 304 0
 520 0046 264B     		ldr	r3, .L19+20
 521 0048 8022     		movs	r2, #128
 522 004a 1A70     		strb	r2, [r3]
 305:Generated_Source\PSoC5/cyfitter_cfg.c **** 	CY_SET_XTND_REG8((void CYFAR *)CYREG_PRT3_AG, 0x01u);
 523              		.loc 1 305 0
 524 004c 254B     		ldr	r3, .L19+24
 525 004e 0122     		movs	r2, #1
 526 0050 1A70     		strb	r2, [r3]
 306:Generated_Source\PSoC5/cyfitter_cfg.c **** 	CY_SET_XTND_REG8((void CYFAR *)CYREG_SAR0_CSR1, 0x40u);
 527              		.loc 1 306 0
 528 0052 254B     		ldr	r3, .L19+28
 529 0054 4022     		movs	r2, #64
 530 0056 1A70     		strb	r2, [r3]
 307:Generated_Source\PSoC5/cyfitter_cfg.c **** 	CY_SET_XTND_REG8((void CYFAR *)CYREG_SAR0_CSR3, 0x40u);
 531              		.loc 1 307 0
 532 0058 244B     		ldr	r3, .L19+32
 533 005a 4022     		movs	r2, #64
 534 005c 1A70     		strb	r2, [r3]
 308:Generated_Source\PSoC5/cyfitter_cfg.c **** 	CY_SET_XTND_REG8((void CYFAR *)CYREG_SAR1_CSR1, 0x40u);
 535              		.loc 1 308 0
 536 005e 244B     		ldr	r3, .L19+36
 537 0060 4022     		movs	r2, #64
 538 0062 1A70     		strb	r2, [r3]
 309:Generated_Source\PSoC5/cyfitter_cfg.c **** 	CY_SET_XTND_REG8((void CYFAR *)CYREG_SAR1_CSR3, 0x40u);
 539              		.loc 1 309 0
 540 0064 234B     		ldr	r3, .L19+40
ARM GAS  C:\Users\Greg\AppData\Local\Temp\ccooDGpN.s 			page 16


 541 0066 4022     		movs	r2, #64
 542 0068 1A70     		strb	r2, [r3]
 310:Generated_Source\PSoC5/cyfitter_cfg.c **** 	CY_SET_XTND_REG8((void CYFAR *)CYREG_DAC1_SW2, 0x02u);
 543              		.loc 1 310 0
 544 006a 234B     		ldr	r3, .L19+44
 545 006c 0222     		movs	r2, #2
 546 006e 1A70     		strb	r2, [r3]
 311:Generated_Source\PSoC5/cyfitter_cfg.c **** 	CY_SET_XTND_REG8((void CYFAR *)CYREG_DAC3_SW0, 0x20u);
 547              		.loc 1 311 0
 548 0070 224B     		ldr	r3, .L19+48
 549 0072 2022     		movs	r2, #32
 550 0074 1A70     		strb	r2, [r3]
 312:Generated_Source\PSoC5/cyfitter_cfg.c **** 	CY_SET_XTND_REG8((void CYFAR *)CYREG_DAC3_SW2, 0x04u);
 551              		.loc 1 312 0
 552 0076 224B     		ldr	r3, .L19+52
 553 0078 0422     		movs	r2, #4
 554 007a 1A70     		strb	r2, [r3]
 313:Generated_Source\PSoC5/cyfitter_cfg.c **** 	CY_SET_XTND_REG8((void CYFAR *)CYREG_CMP1_SW6, 0x04u);
 555              		.loc 1 313 0
 556 007c 214B     		ldr	r3, .L19+56
 557 007e 0422     		movs	r2, #4
 558 0080 1A70     		strb	r2, [r3]
 314:Generated_Source\PSoC5/cyfitter_cfg.c **** 	CY_SET_XTND_REG8((void CYFAR *)CYREG_SAR0_SW0, 0x10u);
 559              		.loc 1 314 0
 560 0082 214B     		ldr	r3, .L19+60
 561 0084 1022     		movs	r2, #16
 562 0086 1A70     		strb	r2, [r3]
 315:Generated_Source\PSoC5/cyfitter_cfg.c **** 	CY_SET_XTND_REG8((void CYFAR *)CYREG_SAR0_SW3, 0x20u);
 563              		.loc 1 315 0
 564 0088 204B     		ldr	r3, .L19+64
 565 008a 2022     		movs	r2, #32
 566 008c 1A70     		strb	r2, [r3]
 316:Generated_Source\PSoC5/cyfitter_cfg.c **** 	CY_SET_XTND_REG8((void CYFAR *)CYREG_SAR1_SW0, 0x08u);
 567              		.loc 1 316 0
 568 008e 204B     		ldr	r3, .L19+68
 569 0090 0822     		movs	r2, #8
 570 0092 1A70     		strb	r2, [r3]
 317:Generated_Source\PSoC5/cyfitter_cfg.c **** 	CY_SET_XTND_REG8((void CYFAR *)CYREG_SAR1_SW3, 0x20u);
 571              		.loc 1 317 0
 572 0094 1F4B     		ldr	r3, .L19+72
 573 0096 2022     		movs	r2, #32
 574 0098 1A70     		strb	r2, [r3]
 318:Generated_Source\PSoC5/cyfitter_cfg.c **** 	CY_SET_XTND_REG32((void CYFAR *)CYREG_OPAMP0_MX, 0x01020106u);
 575              		.loc 1 318 0
 576 009a 1F4B     		ldr	r3, .L19+76
 577 009c 1F4A     		ldr	r2, .L19+80
 578 009e 1A60     		str	r2, [r3]
 319:Generated_Source\PSoC5/cyfitter_cfg.c **** 	CY_SET_XTND_REG8((void CYFAR *)CYREG_BUS_SW0, 0x10u);
 579              		.loc 1 319 0
 580 00a0 1F4B     		ldr	r3, .L19+84
 581 00a2 1022     		movs	r2, #16
 582 00a4 1A70     		strb	r2, [r3]
 320:Generated_Source\PSoC5/cyfitter_cfg.c **** 	CY_SET_XTND_REG8((void CYFAR *)CYREG_BUS_SW2, 0x02u);
 583              		.loc 1 320 0
 584 00a6 1F4B     		ldr	r3, .L19+88
 585 00a8 0222     		movs	r2, #2
 586 00aa 1A70     		strb	r2, [r3]
ARM GAS  C:\Users\Greg\AppData\Local\Temp\ccooDGpN.s 			page 17


 321:Generated_Source\PSoC5/cyfitter_cfg.c **** 	CyDelayUs(10u); /* Allow vref to settle before re-enabling PRES */
 587              		.loc 1 321 0
 588 00ac 0A20     		movs	r0, #10
 589 00ae FFF7FEFF 		bl	CyDelayUs
 322:Generated_Source\PSoC5/cyfitter_cfg.c **** 	CY_SET_XTND_REG8((void CYFAR *)(CYREG_RESET_CR5), (cr5));
 590              		.loc 1 322 0
 591 00b2 084A     		ldr	r2, .L19+8
 592 00b4 7B79     		ldrb	r3, [r7, #5]
 593 00b6 1370     		strb	r3, [r2]
 323:Generated_Source\PSoC5/cyfitter_cfg.c **** 	CY_SET_XTND_REG8((void CYFAR *)(CYREG_RESET_CR4), (cr4));
 594              		.loc 1 323 0
 595 00b8 054A     		ldr	r2, .L19+4
 596 00ba BB79     		ldrb	r3, [r7, #6]
 597 00bc 1370     		strb	r3, [r2]
 324:Generated_Source\PSoC5/cyfitter_cfg.c **** 	CY_SET_XTND_REG8((void CYFAR *)CYREG_PUMP_CR0, 0x44u);
 598              		.loc 1 324 0
 599 00be 1A4B     		ldr	r3, .L19+92
 600 00c0 4422     		movs	r2, #68
 601 00c2 1A70     		strb	r2, [r3]
 325:Generated_Source\PSoC5/cyfitter_cfg.c **** }
 602              		.loc 1 325 0
 603 00c4 0837     		adds	r7, r7, #8
 604              		.cfi_def_cfa_offset 8
 605 00c6 BD46     		mov	sp, r7
 606              		.cfi_def_cfa_register 13
 607              		@ sp needed
 608 00c8 80BD     		pop	{r7, pc}
 609              	.L20:
 610 00ca 00BF     		.align	2
 611              	.L19:
 612 00cc CF010049 		.word	1224737231
 613 00d0 F8460040 		.word	1073759992
 614 00d4 F9460040 		.word	1073759993
 615 00d8 6E580040 		.word	1073764462
 616 00dc 6F580040 		.word	1073764463
 617 00e0 1D510040 		.word	1073762589
 618 00e4 3D510040 		.word	1073762621
 619 00e8 01590040 		.word	1073764609
 620 00ec 03590040 		.word	1073764611
 621 00f0 09590040 		.word	1073764617
 622 00f4 0B590040 		.word	1073764619
 623 00f8 8A5A0040 		.word	1073765002
 624 00fc 985A0040 		.word	1073765016
 625 0100 9A5A0040 		.word	1073765018
 626 0104 CE5A0040 		.word	1073765070
 627 0108 205B0040 		.word	1073765152
 628 010c 235B0040 		.word	1073765155
 629 0110 285B0040 		.word	1073765160
 630 0114 2B5B0040 		.word	1073765163
 631 0118 405B0040 		.word	1073765184
 632 011c 06010201 		.word	16908550
 633 0120 585B0040 		.word	1073765208
 634 0124 5A5B0040 		.word	1073765210
 635 0128 76580040 		.word	1073764470
 636              		.cfi_endproc
 637              	.LFE6:
 638              		.size	AnalogSetDefault, .-AnalogSetDefault
ARM GAS  C:\Users\Greg\AppData\Local\Temp\ccooDGpN.s 			page 18


 639              		.section	.text.SetAnalogRoutingPumps,"ax",%progbits
 640              		.align	2
 641              		.global	SetAnalogRoutingPumps
 642              		.thumb
 643              		.thumb_func
 644              		.type	SetAnalogRoutingPumps, %function
 645              	SetAnalogRoutingPumps:
 646              	.LFB7:
 326:Generated_Source\PSoC5/cyfitter_cfg.c **** 
 327:Generated_Source\PSoC5/cyfitter_cfg.c **** 
 328:Generated_Source\PSoC5/cyfitter_cfg.c **** /*******************************************************************************
 329:Generated_Source\PSoC5/cyfitter_cfg.c **** * Function Name: SetAnalogRoutingPumps
 330:Generated_Source\PSoC5/cyfitter_cfg.c **** ********************************************************************************
 331:Generated_Source\PSoC5/cyfitter_cfg.c **** *
 332:Generated_Source\PSoC5/cyfitter_cfg.c **** * Summary:
 333:Generated_Source\PSoC5/cyfitter_cfg.c **** * Enables or disables the analog pumps feeding analog routing switches.
 334:Generated_Source\PSoC5/cyfitter_cfg.c **** * Intended to be called at startup, based on the Vdda system configuration;
 335:Generated_Source\PSoC5/cyfitter_cfg.c **** * may be called during operation when the user informs us that the Vdda voltage
 336:Generated_Source\PSoC5/cyfitter_cfg.c **** * crossed the pump threshold.
 337:Generated_Source\PSoC5/cyfitter_cfg.c **** *
 338:Generated_Source\PSoC5/cyfitter_cfg.c **** * Parameters:
 339:Generated_Source\PSoC5/cyfitter_cfg.c **** *  enabled - 1 to enable the pumps, 0 to disable the pumps
 340:Generated_Source\PSoC5/cyfitter_cfg.c **** *
 341:Generated_Source\PSoC5/cyfitter_cfg.c **** * Return:
 342:Generated_Source\PSoC5/cyfitter_cfg.c **** *  void
 343:Generated_Source\PSoC5/cyfitter_cfg.c **** *
 344:Generated_Source\PSoC5/cyfitter_cfg.c **** *******************************************************************************/
 345:Generated_Source\PSoC5/cyfitter_cfg.c **** void SetAnalogRoutingPumps(uint8 enabled)
 346:Generated_Source\PSoC5/cyfitter_cfg.c **** {
 647              		.loc 1 346 0
 648              		.cfi_startproc
 649              		@ args = 0, pretend = 0, frame = 16
 650              		@ frame_needed = 1, uses_anonymous_args = 0
 651              		@ link register save eliminated.
 652 0000 80B4     		push	{r7}
 653              		.cfi_def_cfa_offset 4
 654              		.cfi_offset 7, -4
 655 0002 85B0     		sub	sp, sp, #20
 656              		.cfi_def_cfa_offset 24
 657 0004 00AF     		add	r7, sp, #0
 658              		.cfi_def_cfa_register 7
 659 0006 0346     		mov	r3, r0
 660 0008 FB71     		strb	r3, [r7, #7]
 347:Generated_Source\PSoC5/cyfitter_cfg.c **** 	uint8 regValue = CY_GET_XTND_REG8((void CYFAR *)CYREG_PUMP_CR0);
 661              		.loc 1 347 0
 662 000a 0B4B     		ldr	r3, .L24
 663 000c 1B78     		ldrb	r3, [r3]
 664 000e FB73     		strb	r3, [r7, #15]
 348:Generated_Source\PSoC5/cyfitter_cfg.c **** 	if (enabled != 0u)
 665              		.loc 1 348 0
 666 0010 FB79     		ldrb	r3, [r7, #7]	@ zero_extendqisi2
 667 0012 002B     		cmp	r3, #0
 668 0014 04D0     		beq	.L22
 349:Generated_Source\PSoC5/cyfitter_cfg.c **** 	{
 350:Generated_Source\PSoC5/cyfitter_cfg.c **** 		regValue |= 0x22u;
 669              		.loc 1 350 0
 670 0016 FB7B     		ldrb	r3, [r7, #15]
ARM GAS  C:\Users\Greg\AppData\Local\Temp\ccooDGpN.s 			page 19


 671 0018 43F02203 		orr	r3, r3, #34
 672 001c FB73     		strb	r3, [r7, #15]
 673 001e 03E0     		b	.L23
 674              	.L22:
 351:Generated_Source\PSoC5/cyfitter_cfg.c **** 	}
 352:Generated_Source\PSoC5/cyfitter_cfg.c **** 	else
 353:Generated_Source\PSoC5/cyfitter_cfg.c **** 	{
 354:Generated_Source\PSoC5/cyfitter_cfg.c **** 		regValue &= (uint8)~0x22u;
 675              		.loc 1 354 0
 676 0020 FB7B     		ldrb	r3, [r7, #15]
 677 0022 23F02203 		bic	r3, r3, #34
 678 0026 FB73     		strb	r3, [r7, #15]
 679              	.L23:
 355:Generated_Source\PSoC5/cyfitter_cfg.c **** 	}
 356:Generated_Source\PSoC5/cyfitter_cfg.c **** 	CY_SET_XTND_REG8((void CYFAR *)CYREG_PUMP_CR0, regValue);
 680              		.loc 1 356 0
 681 0028 034A     		ldr	r2, .L24
 682 002a FB7B     		ldrb	r3, [r7, #15]
 683 002c 1370     		strb	r3, [r2]
 357:Generated_Source\PSoC5/cyfitter_cfg.c **** }
 684              		.loc 1 357 0
 685 002e 1437     		adds	r7, r7, #20
 686              		.cfi_def_cfa_offset 4
 687 0030 BD46     		mov	sp, r7
 688              		.cfi_def_cfa_register 13
 689              		@ sp needed
 690 0032 5DF8047B 		ldr	r7, [sp], #4
 691              		.cfi_restore 7
 692              		.cfi_def_cfa_offset 0
 693 0036 7047     		bx	lr
 694              	.L25:
 695              		.align	2
 696              	.L24:
 697 0038 76580040 		.word	1073764470
 698              		.cfi_endproc
 699              	.LFE7:
 700              		.size	SetAnalogRoutingPumps, .-SetAnalogRoutingPumps
 701              		.global	Amux_Trigger__addrTable
 702              		.section	.rodata
 703              		.align	2
 704              		.type	Amux_Trigger__addrTable, %object
 705              		.size	Amux_Trigger__addrTable, 8
 706              	Amux_Trigger__addrTable:
 707 0000 C85A0040 		.word	1073765064
 708 0004 C85A0040 		.word	1073765064
 709              		.global	Amux_Trigger__maskTable
 710              		.align	2
 711              		.type	Amux_Trigger__maskTable, %object
 712              		.size	Amux_Trigger__maskTable, 2
 713              	Amux_Trigger__maskTable:
 714 0008 10       		.byte	16
 715 0009 08       		.byte	8
 716              		.section	.text.Amux_Trigger_Set,"ax",%progbits
 717              		.align	2
 718              		.global	Amux_Trigger_Set
 719              		.thumb
 720              		.thumb_func
ARM GAS  C:\Users\Greg\AppData\Local\Temp\ccooDGpN.s 			page 20


 721              		.type	Amux_Trigger_Set, %function
 722              	Amux_Trigger_Set:
 723              	.LFB8:
 358:Generated_Source\PSoC5/cyfitter_cfg.c **** 
 359:Generated_Source\PSoC5/cyfitter_cfg.c **** #define CY_AMUX_UNUSED CYREG_BOOST_SR
 360:Generated_Source\PSoC5/cyfitter_cfg.c **** /* This is an implementation detail of the AMux. Code that depends on it may be
 361:Generated_Source\PSoC5/cyfitter_cfg.c ****    incompatible with other versions of PSoC Creator. */
 362:Generated_Source\PSoC5/cyfitter_cfg.c **** uint8 CYXDATA * const CYCODE Amux_Trigger__addrTable[2] = {
 363:Generated_Source\PSoC5/cyfitter_cfg.c **** 	(uint8 CYXDATA *)CYREG_CMP1_SW0, 
 364:Generated_Source\PSoC5/cyfitter_cfg.c **** 	(uint8 CYXDATA *)CYREG_CMP1_SW0, 
 365:Generated_Source\PSoC5/cyfitter_cfg.c **** };
 366:Generated_Source\PSoC5/cyfitter_cfg.c **** 
 367:Generated_Source\PSoC5/cyfitter_cfg.c **** /* This is an implementation detail of the AMux. Code that depends on it may be
 368:Generated_Source\PSoC5/cyfitter_cfg.c ****    incompatible with other versions of PSoC Creator. */
 369:Generated_Source\PSoC5/cyfitter_cfg.c **** const uint8 CYCODE Amux_Trigger__maskTable[2] = {
 370:Generated_Source\PSoC5/cyfitter_cfg.c **** 	0x10u, 
 371:Generated_Source\PSoC5/cyfitter_cfg.c **** 	0x08u, 
 372:Generated_Source\PSoC5/cyfitter_cfg.c **** };
 373:Generated_Source\PSoC5/cyfitter_cfg.c **** 
 374:Generated_Source\PSoC5/cyfitter_cfg.c **** /*******************************************************************************
 375:Generated_Source\PSoC5/cyfitter_cfg.c **** * Function Name: Amux_Trigger_Set
 376:Generated_Source\PSoC5/cyfitter_cfg.c **** ********************************************************************************
 377:Generated_Source\PSoC5/cyfitter_cfg.c **** * Summary:
 378:Generated_Source\PSoC5/cyfitter_cfg.c **** *  This function is used to set a particular channel as active on the AMux.
 379:Generated_Source\PSoC5/cyfitter_cfg.c **** *
 380:Generated_Source\PSoC5/cyfitter_cfg.c **** * Parameters:  
 381:Generated_Source\PSoC5/cyfitter_cfg.c **** *   channel - The mux channel input to set as active
 382:Generated_Source\PSoC5/cyfitter_cfg.c **** *
 383:Generated_Source\PSoC5/cyfitter_cfg.c **** * Return:
 384:Generated_Source\PSoC5/cyfitter_cfg.c **** *   void
 385:Generated_Source\PSoC5/cyfitter_cfg.c **** *
 386:Generated_Source\PSoC5/cyfitter_cfg.c **** *******************************************************************************/
 387:Generated_Source\PSoC5/cyfitter_cfg.c **** void Amux_Trigger_Set(uint8 channel)
 388:Generated_Source\PSoC5/cyfitter_cfg.c **** {
 724              		.loc 1 388 0
 725              		.cfi_startproc
 726              		@ args = 0, pretend = 0, frame = 8
 727              		@ frame_needed = 1, uses_anonymous_args = 0
 728              		@ link register save eliminated.
 729 0000 80B4     		push	{r7}
 730              		.cfi_def_cfa_offset 4
 731              		.cfi_offset 7, -4
 732 0002 83B0     		sub	sp, sp, #12
 733              		.cfi_def_cfa_offset 16
 734 0004 00AF     		add	r7, sp, #0
 735              		.cfi_def_cfa_register 7
 736 0006 0346     		mov	r3, r0
 737 0008 FB71     		strb	r3, [r7, #7]
 389:Generated_Source\PSoC5/cyfitter_cfg.c **** 	if (channel < 2)
 738              		.loc 1 389 0
 739 000a FB79     		ldrb	r3, [r7, #7]	@ zero_extendqisi2
 740 000c 012B     		cmp	r3, #1
 741 000e 0ED8     		bhi	.L26
 390:Generated_Source\PSoC5/cyfitter_cfg.c **** 	{
 391:Generated_Source\PSoC5/cyfitter_cfg.c **** 		*Amux_Trigger__addrTable[channel] |= Amux_Trigger__maskTable[channel];
 742              		.loc 1 391 0
 743 0010 FB79     		ldrb	r3, [r7, #7]	@ zero_extendqisi2
ARM GAS  C:\Users\Greg\AppData\Local\Temp\ccooDGpN.s 			page 21


 744 0012 094A     		ldr	r2, .L28
 745 0014 52F82330 		ldr	r3, [r2, r3, lsl #2]
 746 0018 FA79     		ldrb	r2, [r7, #7]	@ zero_extendqisi2
 747 001a 0749     		ldr	r1, .L28
 748 001c 51F82220 		ldr	r2, [r1, r2, lsl #2]
 749 0020 1178     		ldrb	r1, [r2]	@ zero_extendqisi2
 750 0022 FA79     		ldrb	r2, [r7, #7]	@ zero_extendqisi2
 751 0024 0548     		ldr	r0, .L28+4
 752 0026 825C     		ldrb	r2, [r0, r2]	@ zero_extendqisi2
 753 0028 0A43     		orrs	r2, r2, r1
 754 002a D2B2     		uxtb	r2, r2
 755 002c 1A70     		strb	r2, [r3]
 756              	.L26:
 392:Generated_Source\PSoC5/cyfitter_cfg.c **** 	}
 393:Generated_Source\PSoC5/cyfitter_cfg.c **** }
 757              		.loc 1 393 0
 758 002e 0C37     		adds	r7, r7, #12
 759              		.cfi_def_cfa_offset 4
 760 0030 BD46     		mov	sp, r7
 761              		.cfi_def_cfa_register 13
 762              		@ sp needed
 763 0032 5DF8047B 		ldr	r7, [sp], #4
 764              		.cfi_restore 7
 765              		.cfi_def_cfa_offset 0
 766 0036 7047     		bx	lr
 767              	.L29:
 768              		.align	2
 769              	.L28:
 770 0038 00000000 		.word	Amux_Trigger__addrTable
 771 003c 00000000 		.word	Amux_Trigger__maskTable
 772              		.cfi_endproc
 773              	.LFE8:
 774              		.size	Amux_Trigger_Set, .-Amux_Trigger_Set
 775              		.section	.text.Amux_Trigger_Unset,"ax",%progbits
 776              		.align	2
 777              		.global	Amux_Trigger_Unset
 778              		.thumb
 779              		.thumb_func
 780              		.type	Amux_Trigger_Unset, %function
 781              	Amux_Trigger_Unset:
 782              	.LFB9:
 394:Generated_Source\PSoC5/cyfitter_cfg.c **** 
 395:Generated_Source\PSoC5/cyfitter_cfg.c **** /*******************************************************************************
 396:Generated_Source\PSoC5/cyfitter_cfg.c **** * Function Name: Amux_Trigger_Unset
 397:Generated_Source\PSoC5/cyfitter_cfg.c **** ********************************************************************************
 398:Generated_Source\PSoC5/cyfitter_cfg.c **** * Summary:
 399:Generated_Source\PSoC5/cyfitter_cfg.c **** *  This function is used to clear a particular channel from being active on the
 400:Generated_Source\PSoC5/cyfitter_cfg.c **** *  AMux.
 401:Generated_Source\PSoC5/cyfitter_cfg.c **** *
 402:Generated_Source\PSoC5/cyfitter_cfg.c **** * Parameters:  
 403:Generated_Source\PSoC5/cyfitter_cfg.c **** *   channel - The mux channel input to mark inactive
 404:Generated_Source\PSoC5/cyfitter_cfg.c **** *
 405:Generated_Source\PSoC5/cyfitter_cfg.c **** * Return:
 406:Generated_Source\PSoC5/cyfitter_cfg.c **** *   void
 407:Generated_Source\PSoC5/cyfitter_cfg.c **** *
 408:Generated_Source\PSoC5/cyfitter_cfg.c **** *******************************************************************************/
 409:Generated_Source\PSoC5/cyfitter_cfg.c **** void Amux_Trigger_Unset(uint8 channel)
ARM GAS  C:\Users\Greg\AppData\Local\Temp\ccooDGpN.s 			page 22


 410:Generated_Source\PSoC5/cyfitter_cfg.c **** {
 783              		.loc 1 410 0
 784              		.cfi_startproc
 785              		@ args = 0, pretend = 0, frame = 8
 786              		@ frame_needed = 1, uses_anonymous_args = 0
 787              		@ link register save eliminated.
 788 0000 80B4     		push	{r7}
 789              		.cfi_def_cfa_offset 4
 790              		.cfi_offset 7, -4
 791 0002 83B0     		sub	sp, sp, #12
 792              		.cfi_def_cfa_offset 16
 793 0004 00AF     		add	r7, sp, #0
 794              		.cfi_def_cfa_register 7
 795 0006 0346     		mov	r3, r0
 796 0008 FB71     		strb	r3, [r7, #7]
 411:Generated_Source\PSoC5/cyfitter_cfg.c **** 	if (channel < 2)
 797              		.loc 1 411 0
 798 000a FB79     		ldrb	r3, [r7, #7]	@ zero_extendqisi2
 799 000c 012B     		cmp	r3, #1
 800 000e 10D8     		bhi	.L30
 412:Generated_Source\PSoC5/cyfitter_cfg.c **** 	{
 413:Generated_Source\PSoC5/cyfitter_cfg.c **** 		*Amux_Trigger__addrTable[channel] &= (uint8)~Amux_Trigger__maskTable[channel];
 801              		.loc 1 413 0
 802 0010 FB79     		ldrb	r3, [r7, #7]	@ zero_extendqisi2
 803 0012 0A4A     		ldr	r2, .L32
 804 0014 52F82330 		ldr	r3, [r2, r3, lsl #2]
 805 0018 FA79     		ldrb	r2, [r7, #7]	@ zero_extendqisi2
 806 001a 0849     		ldr	r1, .L32
 807 001c 51F82220 		ldr	r2, [r1, r2, lsl #2]
 808 0020 1178     		ldrb	r1, [r2]	@ zero_extendqisi2
 809 0022 FA79     		ldrb	r2, [r7, #7]	@ zero_extendqisi2
 810 0024 0648     		ldr	r0, .L32+4
 811 0026 825C     		ldrb	r2, [r0, r2]	@ zero_extendqisi2
 812 0028 D243     		mvns	r2, r2
 813 002a D2B2     		uxtb	r2, r2
 814 002c 0A40     		ands	r2, r2, r1
 815 002e D2B2     		uxtb	r2, r2
 816 0030 1A70     		strb	r2, [r3]
 817              	.L30:
 414:Generated_Source\PSoC5/cyfitter_cfg.c **** 	}
 415:Generated_Source\PSoC5/cyfitter_cfg.c **** }
 818              		.loc 1 415 0
 819 0032 0C37     		adds	r7, r7, #12
 820              		.cfi_def_cfa_offset 4
 821 0034 BD46     		mov	sp, r7
 822              		.cfi_def_cfa_register 13
 823              		@ sp needed
 824 0036 5DF8047B 		ldr	r7, [sp], #4
 825              		.cfi_restore 7
 826              		.cfi_def_cfa_offset 0
 827 003a 7047     		bx	lr
 828              	.L33:
 829              		.align	2
 830              	.L32:
 831 003c 00000000 		.word	Amux_Trigger__addrTable
 832 0040 00000000 		.word	Amux_Trigger__maskTable
 833              		.cfi_endproc
ARM GAS  C:\Users\Greg\AppData\Local\Temp\ccooDGpN.s 			page 23


 834              	.LFE9:
 835              		.size	Amux_Trigger_Unset, .-Amux_Trigger_Unset
 836              		.section	.text.cyfitter_cfg,"ax",%progbits
 837              		.align	2
 838              		.global	cyfitter_cfg
 839              		.thumb
 840              		.thumb_func
 841              		.type	cyfitter_cfg, %function
 842              	cyfitter_cfg:
 843              	.LFB10:
 416:Generated_Source\PSoC5/cyfitter_cfg.c **** 
 417:Generated_Source\PSoC5/cyfitter_cfg.c **** 
 418:Generated_Source\PSoC5/cyfitter_cfg.c **** 
 419:Generated_Source\PSoC5/cyfitter_cfg.c **** /*******************************************************************************
 420:Generated_Source\PSoC5/cyfitter_cfg.c **** * Function Name: cyfitter_cfg
 421:Generated_Source\PSoC5/cyfitter_cfg.c **** ********************************************************************************
 422:Generated_Source\PSoC5/cyfitter_cfg.c **** * Summary:
 423:Generated_Source\PSoC5/cyfitter_cfg.c **** *  This function is called by the start-up code for the selected device. It
 424:Generated_Source\PSoC5/cyfitter_cfg.c **** *  performs all of the necessary device configuration based on the design
 425:Generated_Source\PSoC5/cyfitter_cfg.c **** *  settings.  This includes settings from the Design Wide Resources (DWR) such
 426:Generated_Source\PSoC5/cyfitter_cfg.c **** *  as Clocks and Pins as well as any component configuration that is necessary.
 427:Generated_Source\PSoC5/cyfitter_cfg.c **** *
 428:Generated_Source\PSoC5/cyfitter_cfg.c **** * Parameters:  
 429:Generated_Source\PSoC5/cyfitter_cfg.c **** *   void
 430:Generated_Source\PSoC5/cyfitter_cfg.c **** *
 431:Generated_Source\PSoC5/cyfitter_cfg.c **** * Return:
 432:Generated_Source\PSoC5/cyfitter_cfg.c **** *   void
 433:Generated_Source\PSoC5/cyfitter_cfg.c **** *
 434:Generated_Source\PSoC5/cyfitter_cfg.c **** *******************************************************************************/
 435:Generated_Source\PSoC5/cyfitter_cfg.c **** 
 436:Generated_Source\PSoC5/cyfitter_cfg.c **** void cyfitter_cfg(void)
 437:Generated_Source\PSoC5/cyfitter_cfg.c **** {
 844              		.loc 1 437 0
 845              		.cfi_startproc
 846              		@ args = 0, pretend = 0, frame = 8
 847              		@ frame_needed = 1, uses_anonymous_args = 0
 848 0000 80B5     		push	{r7, lr}
 849              		.cfi_def_cfa_offset 8
 850              		.cfi_offset 7, -8
 851              		.cfi_offset 14, -4
 852 0002 82B0     		sub	sp, sp, #8
 853              		.cfi_def_cfa_offset 16
 854 0004 00AF     		add	r7, sp, #0
 855              		.cfi_def_cfa_register 7
 438:Generated_Source\PSoC5/cyfitter_cfg.c **** #ifdef CYGlobalIntDisable
 439:Generated_Source\PSoC5/cyfitter_cfg.c **** 	/* Disable interrupts by default. Let user enable if/when they want. */
 440:Generated_Source\PSoC5/cyfitter_cfg.c **** 	CYGlobalIntDisable
 856              		.loc 1 440 0
 857              	@ 440 "Generated_Source\PSoC5\cyfitter_cfg.c" 1
 858 0006 72B6     		CPSID   i
 859              	@ 0 "" 2
 441:Generated_Source\PSoC5/cyfitter_cfg.c **** #endif
 442:Generated_Source\PSoC5/cyfitter_cfg.c **** 
 443:Generated_Source\PSoC5/cyfitter_cfg.c **** 	/* Enable/Disable Debug functionality based on settings from System DWR */
 444:Generated_Source\PSoC5/cyfitter_cfg.c **** 	CY_SET_XTND_REG8((void CYFAR *)CYREG_MLOGIC_DEBUG, (CY_GET_XTND_REG8((void CYFAR *)CYREG_MLOGIC_DE
 860              		.loc 1 444 0
 861              		.thumb
ARM GAS  C:\Users\Greg\AppData\Local\Temp\ccooDGpN.s 			page 24


 862 0008 4C4A     		ldr	r2, .L37
 863 000a 4C4B     		ldr	r3, .L37
 864 000c 1B78     		ldrb	r3, [r3]
 865 000e DBB2     		uxtb	r3, r3
 866 0010 43F00403 		orr	r3, r3, #4
 867 0014 DBB2     		uxtb	r3, r3
 868 0016 1370     		strb	r3, [r2]
 869              	.LBB3:
 445:Generated_Source\PSoC5/cyfitter_cfg.c **** 
 446:Generated_Source\PSoC5/cyfitter_cfg.c **** 	{
 447:Generated_Source\PSoC5/cyfitter_cfg.c **** 
 448:Generated_Source\PSoC5/cyfitter_cfg.c **** 		CYPACKED typedef struct {
 449:Generated_Source\PSoC5/cyfitter_cfg.c **** 			void CYFAR *address;
 450:Generated_Source\PSoC5/cyfitter_cfg.c **** 			uint16 size;
 451:Generated_Source\PSoC5/cyfitter_cfg.c **** 		} CYPACKED_ATTR cfg_memset_t;
 452:Generated_Source\PSoC5/cyfitter_cfg.c **** 
 453:Generated_Source\PSoC5/cyfitter_cfg.c **** 		static const cfg_memset_t CYCODE cfg_memset_list [] = {
 454:Generated_Source\PSoC5/cyfitter_cfg.c **** 			/* address, size */
 455:Generated_Source\PSoC5/cyfitter_cfg.c **** 			{(void CYFAR *)(CYREG_PRT4_DR), 48u},
 456:Generated_Source\PSoC5/cyfitter_cfg.c **** 			{(void CYFAR *)(CYDEV_UCFG_B0_P0_U0_BASE), 4096u},
 457:Generated_Source\PSoC5/cyfitter_cfg.c **** 			{(void CYFAR *)(CYDEV_UCFG_B1_P2_U0_BASE), 2048u},
 458:Generated_Source\PSoC5/cyfitter_cfg.c **** 			{(void CYFAR *)(CYDEV_UCFG_DSI0_BASE), 2560u},
 459:Generated_Source\PSoC5/cyfitter_cfg.c **** 			{(void CYFAR *)(CYDEV_UCFG_DSI12_BASE), 512u},
 460:Generated_Source\PSoC5/cyfitter_cfg.c **** 			{(void CYFAR *)(CYREG_BCTL0_MDCLK_EN), 32u},
 461:Generated_Source\PSoC5/cyfitter_cfg.c **** 		};
 462:Generated_Source\PSoC5/cyfitter_cfg.c **** 
 463:Generated_Source\PSoC5/cyfitter_cfg.c **** 		uint8 CYDATA i;
 464:Generated_Source\PSoC5/cyfitter_cfg.c **** 
 465:Generated_Source\PSoC5/cyfitter_cfg.c **** 		/* Zero out critical memory blocks before beginning configuration */
 466:Generated_Source\PSoC5/cyfitter_cfg.c **** 		for (i = 0u; i < (sizeof(cfg_memset_list)/sizeof(cfg_memset_list[0])); i++)
 870              		.loc 1 466 0
 871 0018 0023     		movs	r3, #0
 872 001a FB71     		strb	r3, [r7, #7]
 873 001c 13E0     		b	.L35
 874              	.L36:
 875              	.LBB4:
 467:Generated_Source\PSoC5/cyfitter_cfg.c **** 		{
 468:Generated_Source\PSoC5/cyfitter_cfg.c **** 			const cfg_memset_t CYCODE * CYDATA ms = &cfg_memset_list[i];
 876              		.loc 1 468 0 discriminator 3
 877 001e FA79     		ldrb	r2, [r7, #7]	@ zero_extendqisi2
 878 0020 1346     		mov	r3, r2
 879 0022 5B00     		lsls	r3, r3, #1
 880 0024 1344     		add	r3, r3, r2
 881 0026 5B00     		lsls	r3, r3, #1
 882 0028 454A     		ldr	r2, .L37+4
 883 002a 1344     		add	r3, r3, r2
 884 002c 3B60     		str	r3, [r7]
 469:Generated_Source\PSoC5/cyfitter_cfg.c **** 			CYMEMZERO(ms->address, (size_t)(uint32)(ms->size));
 885              		.loc 1 469 0 discriminator 3
 886 002e 3B68     		ldr	r3, [r7]
 887 0030 1A68     		ldr	r2, [r3]	@ unaligned
 888 0032 3B68     		ldr	r3, [r7]
 889 0034 9B88     		ldrh	r3, [r3, #4]	@ unaligned
 890 0036 9BB2     		uxth	r3, r3
 891 0038 1046     		mov	r0, r2
 892 003a 1946     		mov	r1, r3
 893 003c FFF7FEFF 		bl	CYMEMZERO
ARM GAS  C:\Users\Greg\AppData\Local\Temp\ccooDGpN.s 			page 25


 894              	.LBE4:
 466:Generated_Source\PSoC5/cyfitter_cfg.c **** 		{
 895              		.loc 1 466 0 discriminator 3
 896 0040 FB79     		ldrb	r3, [r7, #7]	@ zero_extendqisi2
 897 0042 0133     		adds	r3, r3, #1
 898 0044 FB71     		strb	r3, [r7, #7]
 899              	.L35:
 466:Generated_Source\PSoC5/cyfitter_cfg.c **** 		{
 900              		.loc 1 466 0 is_stmt 0 discriminator 1
 901 0046 FB79     		ldrb	r3, [r7, #7]	@ zero_extendqisi2
 902 0048 052B     		cmp	r3, #5
 903 004a E8D9     		bls	.L36
 470:Generated_Source\PSoC5/cyfitter_cfg.c **** 		}
 471:Generated_Source\PSoC5/cyfitter_cfg.c **** 
 472:Generated_Source\PSoC5/cyfitter_cfg.c **** 		cfg_write_bytes32(cy_cfg_addr_table, cy_cfg_data_table);
 904              		.loc 1 472 0 is_stmt 1
 905 004c 4FF09040 		mov	r0, #1207959552
 906 0050 3C49     		ldr	r1, .L37+8
 907 0052 FFF7FEFF 		bl	cfg_write_bytes32
 473:Generated_Source\PSoC5/cyfitter_cfg.c **** 
 474:Generated_Source\PSoC5/cyfitter_cfg.c **** 		/* Perform normal device configuration. Order is not critical for these items. */
 475:Generated_Source\PSoC5/cyfitter_cfg.c **** 		CY_SET_XTND_REG16((void CYFAR *)(CYREG_LUT1_CR), 0x0103u);
 908              		.loc 1 475 0
 909 0056 3C4B     		ldr	r3, .L37+12
 910 0058 40F20312 		movw	r2, #259
 911 005c 1A80     		strh	r2, [r3]	@ movhi
 476:Generated_Source\PSoC5/cyfitter_cfg.c **** 		CYMEMZERO((void CYFAR *)(CYREG_PHUB_CFGMEM0_CFG0), 4u);
 912              		.loc 1 476 0
 913 005e 3B48     		ldr	r0, .L37+16
 914 0060 0421     		movs	r1, #4
 915 0062 FFF7FEFF 		bl	CYMEMZERO
 477:Generated_Source\PSoC5/cyfitter_cfg.c **** 		CYMEMZERO((void CYFAR *)(CYREG_PHUB_CFGMEM1_CFG0), 4u);
 916              		.loc 1 477 0
 917 0066 3A48     		ldr	r0, .L37+20
 918 0068 0421     		movs	r1, #4
 919 006a FFF7FEFF 		bl	CYMEMZERO
 478:Generated_Source\PSoC5/cyfitter_cfg.c **** 		CYMEMZERO((void CYFAR *)(CYREG_PHUB_CFGMEM2_CFG0), 4u);
 920              		.loc 1 478 0
 921 006e 3948     		ldr	r0, .L37+24
 922 0070 0421     		movs	r1, #4
 923 0072 FFF7FEFF 		bl	CYMEMZERO
 479:Generated_Source\PSoC5/cyfitter_cfg.c **** 		CYMEMZERO((void CYFAR *)(CYREG_PHUB_CFGMEM3_CFG0), 4u);
 924              		.loc 1 479 0
 925 0076 3848     		ldr	r0, .L37+28
 926 0078 0421     		movs	r1, #4
 927 007a FFF7FEFF 		bl	CYMEMZERO
 480:Generated_Source\PSoC5/cyfitter_cfg.c **** 
 481:Generated_Source\PSoC5/cyfitter_cfg.c **** 		/* Enable digital routing */
 482:Generated_Source\PSoC5/cyfitter_cfg.c **** 		CY_SET_XTND_REG8((void CYFAR *)CYREG_BCTL0_BANK_CTL, CY_GET_XTND_REG8((void CYFAR *)CYREG_BCTL0_B
 928              		.loc 1 482 0
 929 007e 374A     		ldr	r2, .L37+32
 930 0080 364B     		ldr	r3, .L37+32
 931 0082 1B78     		ldrb	r3, [r3]
 932 0084 DBB2     		uxtb	r3, r3
 933 0086 43F00203 		orr	r3, r3, #2
 934 008a DBB2     		uxtb	r3, r3
 935 008c 1370     		strb	r3, [r2]
ARM GAS  C:\Users\Greg\AppData\Local\Temp\ccooDGpN.s 			page 26


 483:Generated_Source\PSoC5/cyfitter_cfg.c **** 		CY_SET_XTND_REG8((void CYFAR *)CYREG_BCTL1_BANK_CTL, CY_GET_XTND_REG8((void CYFAR *)CYREG_BCTL1_B
 936              		.loc 1 483 0
 937 008e 344A     		ldr	r2, .L37+36
 938 0090 334B     		ldr	r3, .L37+36
 939 0092 1B78     		ldrb	r3, [r3]
 940 0094 DBB2     		uxtb	r3, r3
 941 0096 43F00203 		orr	r3, r3, #2
 942 009a DBB2     		uxtb	r3, r3
 943 009c 1370     		strb	r3, [r2]
 484:Generated_Source\PSoC5/cyfitter_cfg.c **** 
 485:Generated_Source\PSoC5/cyfitter_cfg.c **** 		/* Enable UDB array */
 486:Generated_Source\PSoC5/cyfitter_cfg.c **** 		CY_SET_XTND_REG8((void CYFAR *)CYREG_PM_ACT_CFG0, CY_GET_XTND_REG8((void CYFAR *)CYREG_PM_ACT_CFG
 944              		.loc 1 486 0
 945 009e 314A     		ldr	r2, .L37+40
 946 00a0 304B     		ldr	r3, .L37+40
 947 00a2 1B78     		ldrb	r3, [r3]
 948 00a4 DBB2     		uxtb	r3, r3
 949 00a6 43F04003 		orr	r3, r3, #64
 950 00aa DBB2     		uxtb	r3, r3
 951 00ac 1370     		strb	r3, [r2]
 487:Generated_Source\PSoC5/cyfitter_cfg.c **** 		CY_SET_XTND_REG8((void CYFAR *)CYREG_PM_AVAIL_CR2, CY_GET_XTND_REG8((void CYFAR *)CYREG_PM_AVAIL_
 952              		.loc 1 487 0
 953 00ae 2E4A     		ldr	r2, .L37+44
 954 00b0 2D4B     		ldr	r3, .L37+44
 955 00b2 1B78     		ldrb	r3, [r3]
 956 00b4 DBB2     		uxtb	r3, r3
 957 00b6 43F01003 		orr	r3, r3, #16
 958 00ba DBB2     		uxtb	r3, r3
 959 00bc 1370     		strb	r3, [r2]
 960              	.LBE3:
 488:Generated_Source\PSoC5/cyfitter_cfg.c **** 	}
 489:Generated_Source\PSoC5/cyfitter_cfg.c **** 
 490:Generated_Source\PSoC5/cyfitter_cfg.c **** 
 491:Generated_Source\PSoC5/cyfitter_cfg.c **** 	/* Perform second pass device configuration. These items must be configured in specific order afte
 492:Generated_Source\PSoC5/cyfitter_cfg.c **** 	CYCONFIGCPY((void CYFAR *)(CYREG_PRT0_DM0), (const void CYFAR *)(BS_IOPINS0_0_VAL), 8u);
 961              		.loc 1 492 0
 962 00be 2B48     		ldr	r0, .L37+48
 963 00c0 2B49     		ldr	r1, .L37+52
 964 00c2 0822     		movs	r2, #8
 965 00c4 FFF7FEFF 		bl	CYCONFIGCPY
 493:Generated_Source\PSoC5/cyfitter_cfg.c **** 	CYCONFIGCPY((void CYFAR *)(CYREG_PRT12_DM0), (const void CYFAR *)(BS_IOPINS0_7_VAL), 8u);
 966              		.loc 1 493 0
 967 00c8 2A48     		ldr	r0, .L37+56
 968 00ca 2B49     		ldr	r1, .L37+60
 969 00cc 0822     		movs	r2, #8
 970 00ce FFF7FEFF 		bl	CYCONFIGCPY
 494:Generated_Source\PSoC5/cyfitter_cfg.c **** 	CYCONFIGCPY((void CYFAR *)(CYREG_PRT15_DR), (const void CYFAR *)(BS_IOPINS0_8_VAL), 10u);
 971              		.loc 1 494 0
 972 00d2 2A48     		ldr	r0, .L37+64
 973 00d4 2A49     		ldr	r1, .L37+68
 974 00d6 0A22     		movs	r2, #10
 975 00d8 FFF7FEFF 		bl	CYCONFIGCPY
 495:Generated_Source\PSoC5/cyfitter_cfg.c **** 	CYCONFIGCPY((void CYFAR *)(CYREG_PRT1_DM0), (const void CYFAR *)(BS_IOPINS0_1_VAL), 8u);
 976              		.loc 1 495 0
 977 00dc 2948     		ldr	r0, .L37+72
 978 00de 2A49     		ldr	r1, .L37+76
 979 00e0 0822     		movs	r2, #8
ARM GAS  C:\Users\Greg\AppData\Local\Temp\ccooDGpN.s 			page 27


 980 00e2 FFF7FEFF 		bl	CYCONFIGCPY
 496:Generated_Source\PSoC5/cyfitter_cfg.c **** 	CYCONFIGCPY((void CYFAR *)(CYREG_PRT2_DR), (const void CYFAR *)(BS_IOPINS0_2_VAL), 10u);
 981              		.loc 1 496 0
 982 00e6 2948     		ldr	r0, .L37+80
 983 00e8 2949     		ldr	r1, .L37+84
 984 00ea 0A22     		movs	r2, #10
 985 00ec FFF7FEFF 		bl	CYCONFIGCPY
 497:Generated_Source\PSoC5/cyfitter_cfg.c **** 	CYCONFIGCPY((void CYFAR *)(CYREG_PRT3_DM0), (const void CYFAR *)(BS_IOPINS0_3_VAL), 8u);
 986              		.loc 1 497 0
 987 00f0 2848     		ldr	r0, .L37+88
 988 00f2 2949     		ldr	r1, .L37+92
 989 00f4 0822     		movs	r2, #8
 990 00f6 FFF7FEFF 		bl	CYCONFIGCPY
 498:Generated_Source\PSoC5/cyfitter_cfg.c **** 	CY_SET_XTND_REG8((void CYFAR *)(CYREG_B0_P2_U0_CFG24), 0x4Bu);
 991              		.loc 1 498 0
 992 00fa 284B     		ldr	r3, .L37+96
 993 00fc 4B22     		movs	r2, #75
 994 00fe 1A70     		strb	r2, [r3]
 499:Generated_Source\PSoC5/cyfitter_cfg.c **** 	CY_SET_XTND_REG8((void CYFAR *)(CYREG_B0_P2_U0_CFG27), 0x4Bu);
 995              		.loc 1 499 0
 996 0100 274B     		ldr	r3, .L37+100
 997 0102 4B22     		movs	r2, #75
 998 0104 1A70     		strb	r2, [r3]
 500:Generated_Source\PSoC5/cyfitter_cfg.c **** 	/* Switch Boost to the precision bandgap reference from its internal reference */
 501:Generated_Source\PSoC5/cyfitter_cfg.c **** 	CY_SET_REG8((void CYXDATA *)CYREG_BOOST_CR2, (CY_GET_REG8((void CYXDATA *)CYREG_BOOST_CR2) | 0x08u
 999              		.loc 1 501 0
 1000 0106 274A     		ldr	r2, .L37+104
 1001 0108 264B     		ldr	r3, .L37+104
 1002 010a 1B78     		ldrb	r3, [r3]
 1003 010c DBB2     		uxtb	r3, r3
 1004 010e 43F00803 		orr	r3, r3, #8
 1005 0112 DBB2     		uxtb	r3, r3
 1006 0114 1370     		strb	r3, [r2]
 502:Generated_Source\PSoC5/cyfitter_cfg.c **** 
 503:Generated_Source\PSoC5/cyfitter_cfg.c **** 	/* Set Flash Cycles based on max possible frequency in case a glitch occurs during ClockSetup(). *
 504:Generated_Source\PSoC5/cyfitter_cfg.c **** 	CY_SET_XTND_REG8((void CYFAR *)(CYREG_CACHE_CC_CTL), (((CYDEV_INSTRUCT_CACHE_ENABLED) != 0) ? 0x61
 1007              		.loc 1 504 0
 1008 0116 244B     		ldr	r3, .L37+108
 1009 0118 6122     		movs	r2, #97
 1010 011a 1A70     		strb	r2, [r3]
 505:Generated_Source\PSoC5/cyfitter_cfg.c **** 	/* Setup clocks based on selections from Clock DWR */
 506:Generated_Source\PSoC5/cyfitter_cfg.c **** 	ClockSetup();
 1011              		.loc 1 506 0
 1012 011c FFF7FEFF 		bl	ClockSetup
 507:Generated_Source\PSoC5/cyfitter_cfg.c **** 	/* Set Flash Cycles based on newly configured 36.00MHz Bus Clock. */
 508:Generated_Source\PSoC5/cyfitter_cfg.c **** 	CY_SET_XTND_REG8((void CYFAR *)(CYREG_CACHE_CC_CTL), (((CYDEV_INSTRUCT_CACHE_ENABLED) != 0) ? 0xC1
 1013              		.loc 1 508 0
 1014 0120 214B     		ldr	r3, .L37+108
 1015 0122 C122     		movs	r2, #193
 1016 0124 1A70     		strb	r2, [r3]
 509:Generated_Source\PSoC5/cyfitter_cfg.c **** 
 510:Generated_Source\PSoC5/cyfitter_cfg.c **** 	/* Perform basic analog initialization to defaults */
 511:Generated_Source\PSoC5/cyfitter_cfg.c **** 	AnalogSetDefault();
 1017              		.loc 1 511 0
 1018 0126 FFF7FEFF 		bl	AnalogSetDefault
 512:Generated_Source\PSoC5/cyfitter_cfg.c **** 
 513:Generated_Source\PSoC5/cyfitter_cfg.c **** 	/* Configure alternate active mode */
ARM GAS  C:\Users\Greg\AppData\Local\Temp\ccooDGpN.s 			page 28


 514:Generated_Source\PSoC5/cyfitter_cfg.c **** 	CYCONFIGCPY((void CYFAR *)CYDEV_PM_STBY_BASE, (const void CYFAR *)CYDEV_PM_ACT_BASE, 14u);
 1019              		.loc 1 514 0
 1020 012a 2048     		ldr	r0, .L37+112
 1021 012c 0D49     		ldr	r1, .L37+40
 1022 012e 0E22     		movs	r2, #14
 1023 0130 FFF7FEFF 		bl	CYCONFIGCPY
 515:Generated_Source\PSoC5/cyfitter_cfg.c **** }
 1024              		.loc 1 515 0
 1025 0134 0837     		adds	r7, r7, #8
 1026              		.cfi_def_cfa_offset 8
 1027 0136 BD46     		mov	sp, r7
 1028              		.cfi_def_cfa_register 13
 1029              		@ sp needed
 1030 0138 80BD     		pop	{r7, pc}
 1031              	.L38:
 1032 013a 00BF     		.align	2
 1033              	.L37:
 1034 013c E8460040 		.word	1073759976
 1035 0140 0C000000 		.word	cfg_memset_list.4896
 1036 0144 88000048 		.word	1207959688
 1037 0148 4A580040 		.word	1073764426
 1038 014c 00760040 		.word	1073772032
 1039 0150 08760040 		.word	1073772040
 1040 0154 10760040 		.word	1073772048
 1041 0158 18760040 		.word	1073772056
 1042 015c 03500140 		.word	1073827843
 1043 0160 13500140 		.word	1073827859
 1044 0164 A0430040 		.word	1073759136
 1045 0168 C2430040 		.word	1073759170
 1046 016c 02510040 		.word	1073762562
 1047 0170 68070048 		.word	1207961448
 1048 0174 C2510040 		.word	1073762754
 1049 0178 70070048 		.word	1207961456
 1050 017c F0510040 		.word	1073762800
 1051 0180 78070048 		.word	1207961464
 1052 0184 12510040 		.word	1073762578
 1053 0188 84070048 		.word	1207961476
 1054 018c 20510040 		.word	1073762592
 1055 0190 8C070048 		.word	1207961484
 1056 0194 32510040 		.word	1073762610
 1057 0198 98070048 		.word	1207961496
 1058 019c 58040140 		.word	1073808472
 1059 01a0 5B040140 		.word	1073808475
 1060 01a4 22430040 		.word	1073759010
 1061 01a8 00480040 		.word	1073760256
 1062 01ac B0430040 		.word	1073759152
 1063              		.cfi_endproc
 1064              	.LFE10:
 1065              		.size	cyfitter_cfg, .-cyfitter_cfg
 1066              		.section	.rodata
 1067 000a 0000     		.align	2
 1068              		.type	cfg_memset_list.4896, %object
 1069              		.size	cfg_memset_list.4896, 36
 1070              	cfg_memset_list.4896:
 1071 000c 40510040 		.word	1073762624
 1072 0010 3000     		.short	48
 1073 0012 00000140 		.4byte	1073807360
ARM GAS  C:\Users\Greg\AppData\Local\Temp\ccooDGpN.s 			page 29


 1074 0016 0010     		.short	4096
 1075 0018 00140140 		.word	1073812480
 1076 001c 0008     		.short	2048
 1077 001e 00400140 		.4byte	1073823744
 1078 0022 000A     		.short	2560
 1079 0024 004C0140 		.word	1073826816
 1080 0028 0002     		.short	512
 1081 002a 00500140 		.4byte	1073827840
 1082 002e 2000     		.short	32
 1083              		.text
 1084              	.Letext0:
 1085              		.file 2 "c:\\program files (x86)\\cypress\\psoc creator\\4.0\\psoc creator\\import\\gnu\\arm\\4.9.
 1086              		.file 3 "Generated_Source\\PSoC5\\cytypes.h"