ARM GAS  C:\Users\Greg\AppData\Local\Temp\cckn4sbk.s 			page 1


   1              		.syntax unified
   2              		.cpu cortex-m3
   3              		.fpu softvfp
   4              		.eabi_attribute 20, 1
   5              		.eabi_attribute 21, 1
   6              		.eabi_attribute 23, 3
   7              		.eabi_attribute 24, 1
   8              		.eabi_attribute 25, 1
   9              		.eabi_attribute 26, 1
  10              		.eabi_attribute 30, 6
  11              		.eabi_attribute 34, 1
  12              		.eabi_attribute 18, 4
  13              		.thumb
  14              		.file	"Digital_Out_Control_PM.c"
  15              		.text
  16              	.Ltext0:
  17              		.cfi_sections	.debug_frame
  18              		.bss
  19              		.align	2
  20              	Digital_Out_Control_backup:
  21 0000 00       		.space	1
  22 0001 000000   		.section	.text.Digital_Out_Control_SaveConfig,"ax",%progbits
  23              		.align	2
  24              		.global	Digital_Out_Control_SaveConfig
  25              		.thumb
  26              		.thumb_func
  27              		.type	Digital_Out_Control_SaveConfig, %function
  28              	Digital_Out_Control_SaveConfig:
  29              	.LFB0:
  30              		.file 1 "Generated_Source\\PSoC5\\Digital_Out_Control_PM.c"
   1:Generated_Source\PSoC5/Digital_Out_Control_PM.c **** /*******************************************************************************
   2:Generated_Source\PSoC5/Digital_Out_Control_PM.c **** * File Name: Digital_Out_Control_PM.c
   3:Generated_Source\PSoC5/Digital_Out_Control_PM.c **** * Version 1.80
   4:Generated_Source\PSoC5/Digital_Out_Control_PM.c **** *
   5:Generated_Source\PSoC5/Digital_Out_Control_PM.c **** * Description:
   6:Generated_Source\PSoC5/Digital_Out_Control_PM.c **** *  This file contains the setup, control, and status commands to support 
   7:Generated_Source\PSoC5/Digital_Out_Control_PM.c **** *  the component operation in the low power mode. 
   8:Generated_Source\PSoC5/Digital_Out_Control_PM.c **** *
   9:Generated_Source\PSoC5/Digital_Out_Control_PM.c **** * Note:
  10:Generated_Source\PSoC5/Digital_Out_Control_PM.c **** *
  11:Generated_Source\PSoC5/Digital_Out_Control_PM.c **** ********************************************************************************
  12:Generated_Source\PSoC5/Digital_Out_Control_PM.c **** * Copyright 2015, Cypress Semiconductor Corporation.  All rights reserved.
  13:Generated_Source\PSoC5/Digital_Out_Control_PM.c **** * You may use this file only in accordance with the license, terms, conditions, 
  14:Generated_Source\PSoC5/Digital_Out_Control_PM.c **** * disclaimers, and limitations in the end user license agreement accompanying 
  15:Generated_Source\PSoC5/Digital_Out_Control_PM.c **** * the software package with which this file was provided.
  16:Generated_Source\PSoC5/Digital_Out_Control_PM.c **** *******************************************************************************/
  17:Generated_Source\PSoC5/Digital_Out_Control_PM.c **** 
  18:Generated_Source\PSoC5/Digital_Out_Control_PM.c **** #include "Digital_Out_Control.h"
  19:Generated_Source\PSoC5/Digital_Out_Control_PM.c **** 
  20:Generated_Source\PSoC5/Digital_Out_Control_PM.c **** /* Check for removal by optimization */
  21:Generated_Source\PSoC5/Digital_Out_Control_PM.c **** #if !defined(Digital_Out_Control_Sync_ctrl_reg__REMOVED)
  22:Generated_Source\PSoC5/Digital_Out_Control_PM.c **** 
  23:Generated_Source\PSoC5/Digital_Out_Control_PM.c **** static Digital_Out_Control_BACKUP_STRUCT  Digital_Out_Control_backup = {0u};
  24:Generated_Source\PSoC5/Digital_Out_Control_PM.c **** 
  25:Generated_Source\PSoC5/Digital_Out_Control_PM.c ****     
  26:Generated_Source\PSoC5/Digital_Out_Control_PM.c **** /*******************************************************************************
  27:Generated_Source\PSoC5/Digital_Out_Control_PM.c **** * Function Name: Digital_Out_Control_SaveConfig
ARM GAS  C:\Users\Greg\AppData\Local\Temp\cckn4sbk.s 			page 2


  28:Generated_Source\PSoC5/Digital_Out_Control_PM.c **** ********************************************************************************
  29:Generated_Source\PSoC5/Digital_Out_Control_PM.c **** *
  30:Generated_Source\PSoC5/Digital_Out_Control_PM.c **** * Summary:
  31:Generated_Source\PSoC5/Digital_Out_Control_PM.c **** *  Saves the control register value.
  32:Generated_Source\PSoC5/Digital_Out_Control_PM.c **** *
  33:Generated_Source\PSoC5/Digital_Out_Control_PM.c **** * Parameters:
  34:Generated_Source\PSoC5/Digital_Out_Control_PM.c **** *  None
  35:Generated_Source\PSoC5/Digital_Out_Control_PM.c **** *
  36:Generated_Source\PSoC5/Digital_Out_Control_PM.c **** * Return:
  37:Generated_Source\PSoC5/Digital_Out_Control_PM.c **** *  None
  38:Generated_Source\PSoC5/Digital_Out_Control_PM.c **** *
  39:Generated_Source\PSoC5/Digital_Out_Control_PM.c **** *******************************************************************************/
  40:Generated_Source\PSoC5/Digital_Out_Control_PM.c **** void Digital_Out_Control_SaveConfig(void) 
  41:Generated_Source\PSoC5/Digital_Out_Control_PM.c **** {
  31              		.loc 1 41 0
  32              		.cfi_startproc
  33              		@ args = 0, pretend = 0, frame = 0
  34              		@ frame_needed = 1, uses_anonymous_args = 0
  35              		@ link register save eliminated.
  36 0000 80B4     		push	{r7}
  37              		.cfi_def_cfa_offset 4
  38              		.cfi_offset 7, -4
  39 0002 00AF     		add	r7, sp, #0
  40              		.cfi_def_cfa_register 7
  42:Generated_Source\PSoC5/Digital_Out_Control_PM.c ****     Digital_Out_Control_backup.controlState = Digital_Out_Control_Control;
  41              		.loc 1 42 0
  42 0004 044B     		ldr	r3, .L2
  43 0006 1B78     		ldrb	r3, [r3]
  44 0008 DAB2     		uxtb	r2, r3
  45 000a 044B     		ldr	r3, .L2+4
  46 000c 1A70     		strb	r2, [r3]
  43:Generated_Source\PSoC5/Digital_Out_Control_PM.c **** }
  47              		.loc 1 43 0
  48 000e BD46     		mov	sp, r7
  49              		.cfi_def_cfa_register 13
  50              		@ sp needed
  51 0010 5DF8047B 		ldr	r7, [sp], #4
  52              		.cfi_restore 7
  53              		.cfi_def_cfa_offset 0
  54 0014 7047     		bx	lr
  55              	.L3:
  56 0016 00BF     		.align	2
  57              	.L2:
  58 0018 72640040 		.word	1073767538
  59 001c 00000000 		.word	Digital_Out_Control_backup
  60              		.cfi_endproc
  61              	.LFE0:
  62              		.size	Digital_Out_Control_SaveConfig, .-Digital_Out_Control_SaveConfig
  63              		.section	.text.Digital_Out_Control_RestoreConfig,"ax",%progbits
  64              		.align	2
  65              		.global	Digital_Out_Control_RestoreConfig
  66              		.thumb
  67              		.thumb_func
  68              		.type	Digital_Out_Control_RestoreConfig, %function
  69              	Digital_Out_Control_RestoreConfig:
  70              	.LFB1:
  44:Generated_Source\PSoC5/Digital_Out_Control_PM.c **** 
ARM GAS  C:\Users\Greg\AppData\Local\Temp\cckn4sbk.s 			page 3


  45:Generated_Source\PSoC5/Digital_Out_Control_PM.c **** 
  46:Generated_Source\PSoC5/Digital_Out_Control_PM.c **** /*******************************************************************************
  47:Generated_Source\PSoC5/Digital_Out_Control_PM.c **** * Function Name: Digital_Out_Control_RestoreConfig
  48:Generated_Source\PSoC5/Digital_Out_Control_PM.c **** ********************************************************************************
  49:Generated_Source\PSoC5/Digital_Out_Control_PM.c **** *
  50:Generated_Source\PSoC5/Digital_Out_Control_PM.c **** * Summary:
  51:Generated_Source\PSoC5/Digital_Out_Control_PM.c **** *  Restores the control register value.
  52:Generated_Source\PSoC5/Digital_Out_Control_PM.c **** *
  53:Generated_Source\PSoC5/Digital_Out_Control_PM.c **** * Parameters:
  54:Generated_Source\PSoC5/Digital_Out_Control_PM.c **** *  None
  55:Generated_Source\PSoC5/Digital_Out_Control_PM.c **** *
  56:Generated_Source\PSoC5/Digital_Out_Control_PM.c **** * Return:
  57:Generated_Source\PSoC5/Digital_Out_Control_PM.c **** *  None
  58:Generated_Source\PSoC5/Digital_Out_Control_PM.c **** *
  59:Generated_Source\PSoC5/Digital_Out_Control_PM.c **** *
  60:Generated_Source\PSoC5/Digital_Out_Control_PM.c **** *******************************************************************************/
  61:Generated_Source\PSoC5/Digital_Out_Control_PM.c **** void Digital_Out_Control_RestoreConfig(void) 
  62:Generated_Source\PSoC5/Digital_Out_Control_PM.c **** {
  71              		.loc 1 62 0
  72              		.cfi_startproc
  73              		@ args = 0, pretend = 0, frame = 0
  74              		@ frame_needed = 1, uses_anonymous_args = 0
  75              		@ link register save eliminated.
  76 0000 80B4     		push	{r7}
  77              		.cfi_def_cfa_offset 4
  78              		.cfi_offset 7, -4
  79 0002 00AF     		add	r7, sp, #0
  80              		.cfi_def_cfa_register 7
  63:Generated_Source\PSoC5/Digital_Out_Control_PM.c ****      Digital_Out_Control_Control = Digital_Out_Control_backup.controlState;
  81              		.loc 1 63 0
  82 0004 034B     		ldr	r3, .L5
  83 0006 044A     		ldr	r2, .L5+4
  84 0008 1278     		ldrb	r2, [r2]	@ zero_extendqisi2
  85 000a 1A70     		strb	r2, [r3]
  64:Generated_Source\PSoC5/Digital_Out_Control_PM.c **** }
  86              		.loc 1 64 0
  87 000c BD46     		mov	sp, r7
  88              		.cfi_def_cfa_register 13
  89              		@ sp needed
  90 000e 5DF8047B 		ldr	r7, [sp], #4
  91              		.cfi_restore 7
  92              		.cfi_def_cfa_offset 0
  93 0012 7047     		bx	lr
  94              	.L6:
  95              		.align	2
  96              	.L5:
  97 0014 72640040 		.word	1073767538
  98 0018 00000000 		.word	Digital_Out_Control_backup
  99              		.cfi_endproc
 100              	.LFE1:
 101              		.size	Digital_Out_Control_RestoreConfig, .-Digital_Out_Control_RestoreConfig
 102              		.section	.text.Digital_Out_Control_Sleep,"ax",%progbits
 103              		.align	2
 104              		.global	Digital_Out_Control_Sleep
 105              		.thumb
 106              		.thumb_func
 107              		.type	Digital_Out_Control_Sleep, %function
ARM GAS  C:\Users\Greg\AppData\Local\Temp\cckn4sbk.s 			page 4


 108              	Digital_Out_Control_Sleep:
 109              	.LFB2:
  65:Generated_Source\PSoC5/Digital_Out_Control_PM.c **** 
  66:Generated_Source\PSoC5/Digital_Out_Control_PM.c **** 
  67:Generated_Source\PSoC5/Digital_Out_Control_PM.c **** /*******************************************************************************
  68:Generated_Source\PSoC5/Digital_Out_Control_PM.c **** * Function Name: Digital_Out_Control_Sleep
  69:Generated_Source\PSoC5/Digital_Out_Control_PM.c **** ********************************************************************************
  70:Generated_Source\PSoC5/Digital_Out_Control_PM.c **** *
  71:Generated_Source\PSoC5/Digital_Out_Control_PM.c **** * Summary:
  72:Generated_Source\PSoC5/Digital_Out_Control_PM.c **** *  Prepares the component for entering the low power mode.
  73:Generated_Source\PSoC5/Digital_Out_Control_PM.c **** *
  74:Generated_Source\PSoC5/Digital_Out_Control_PM.c **** * Parameters:
  75:Generated_Source\PSoC5/Digital_Out_Control_PM.c **** *  None
  76:Generated_Source\PSoC5/Digital_Out_Control_PM.c **** *
  77:Generated_Source\PSoC5/Digital_Out_Control_PM.c **** * Return:
  78:Generated_Source\PSoC5/Digital_Out_Control_PM.c **** *  None
  79:Generated_Source\PSoC5/Digital_Out_Control_PM.c **** *
  80:Generated_Source\PSoC5/Digital_Out_Control_PM.c **** *******************************************************************************/
  81:Generated_Source\PSoC5/Digital_Out_Control_PM.c **** void Digital_Out_Control_Sleep(void) 
  82:Generated_Source\PSoC5/Digital_Out_Control_PM.c **** {
 110              		.loc 1 82 0
 111              		.cfi_startproc
 112              		@ args = 0, pretend = 0, frame = 0
 113              		@ frame_needed = 1, uses_anonymous_args = 0
 114 0000 80B5     		push	{r7, lr}
 115              		.cfi_def_cfa_offset 8
 116              		.cfi_offset 7, -8
 117              		.cfi_offset 14, -4
 118 0002 00AF     		add	r7, sp, #0
 119              		.cfi_def_cfa_register 7
  83:Generated_Source\PSoC5/Digital_Out_Control_PM.c ****     Digital_Out_Control_SaveConfig();
 120              		.loc 1 83 0
 121 0004 FFF7FEFF 		bl	Digital_Out_Control_SaveConfig
  84:Generated_Source\PSoC5/Digital_Out_Control_PM.c **** }
 122              		.loc 1 84 0
 123 0008 80BD     		pop	{r7, pc}
 124              		.cfi_endproc
 125              	.LFE2:
 126              		.size	Digital_Out_Control_Sleep, .-Digital_Out_Control_Sleep
 127 000a 00BF     		.section	.text.Digital_Out_Control_Wakeup,"ax",%progbits
 128              		.align	2
 129              		.global	Digital_Out_Control_Wakeup
 130              		.thumb
 131              		.thumb_func
 132              		.type	Digital_Out_Control_Wakeup, %function
 133              	Digital_Out_Control_Wakeup:
 134              	.LFB3:
  85:Generated_Source\PSoC5/Digital_Out_Control_PM.c **** 
  86:Generated_Source\PSoC5/Digital_Out_Control_PM.c **** 
  87:Generated_Source\PSoC5/Digital_Out_Control_PM.c **** /*******************************************************************************
  88:Generated_Source\PSoC5/Digital_Out_Control_PM.c **** * Function Name: Digital_Out_Control_Wakeup
  89:Generated_Source\PSoC5/Digital_Out_Control_PM.c **** ********************************************************************************
  90:Generated_Source\PSoC5/Digital_Out_Control_PM.c **** *
  91:Generated_Source\PSoC5/Digital_Out_Control_PM.c **** * Summary:
  92:Generated_Source\PSoC5/Digital_Out_Control_PM.c **** *  Restores the component after waking up from the low power mode.
  93:Generated_Source\PSoC5/Digital_Out_Control_PM.c **** *
  94:Generated_Source\PSoC5/Digital_Out_Control_PM.c **** * Parameters:
ARM GAS  C:\Users\Greg\AppData\Local\Temp\cckn4sbk.s 			page 5


  95:Generated_Source\PSoC5/Digital_Out_Control_PM.c **** *  None
  96:Generated_Source\PSoC5/Digital_Out_Control_PM.c **** *
  97:Generated_Source\PSoC5/Digital_Out_Control_PM.c **** * Return:
  98:Generated_Source\PSoC5/Digital_Out_Control_PM.c **** *  None
  99:Generated_Source\PSoC5/Digital_Out_Control_PM.c **** *
 100:Generated_Source\PSoC5/Digital_Out_Control_PM.c **** *******************************************************************************/
 101:Generated_Source\PSoC5/Digital_Out_Control_PM.c **** void Digital_Out_Control_Wakeup(void)  
 102:Generated_Source\PSoC5/Digital_Out_Control_PM.c **** {
 135              		.loc 1 102 0
 136              		.cfi_startproc
 137              		@ args = 0, pretend = 0, frame = 0
 138              		@ frame_needed = 1, uses_anonymous_args = 0
 139 0000 80B5     		push	{r7, lr}
 140              		.cfi_def_cfa_offset 8
 141              		.cfi_offset 7, -8
 142              		.cfi_offset 14, -4
 143 0002 00AF     		add	r7, sp, #0
 144              		.cfi_def_cfa_register 7
 103:Generated_Source\PSoC5/Digital_Out_Control_PM.c ****     Digital_Out_Control_RestoreConfig();
 145              		.loc 1 103 0
 146 0004 FFF7FEFF 		bl	Digital_Out_Control_RestoreConfig
 104:Generated_Source\PSoC5/Digital_Out_Control_PM.c **** }
 147              		.loc 1 104 0
 148 0008 80BD     		pop	{r7, pc}
 149              		.cfi_endproc
 150              	.LFE3:
 151              		.size	Digital_Out_Control_Wakeup, .-Digital_Out_Control_Wakeup
 152 000a 00BF     		.text
 153              	.Letext0:
 154              		.file 2 "Generated_Source\\PSoC5\\cytypes.h"
 155              		.file 3 "Generated_Source\\PSoC5\\Digital_Out_Control.h"