ARM GAS  C:\Users\Greg\AppData\Local\Temp\cciUC7S3.s 			page 1


   1              		.syntax unified
   2              		.cpu cortex-m3
   3              		.fpu softvfp
   4              		.eabi_attribute 20, 1
   5              		.eabi_attribute 21, 1
   6              		.eabi_attribute 23, 3
   7              		.eabi_attribute 24, 1
   8              		.eabi_attribute 25, 1
   9              		.eabi_attribute 26, 1
  10              		.eabi_attribute 30, 6
  11              		.eabi_attribute 34, 1
  12              		.eabi_attribute 18, 4
  13              		.thumb
  14              		.file	"Digital_PWM_PM.c"
  15              		.text
  16              	.Ltext0:
  17              		.cfi_sections	.debug_frame
  18              		.bss
  19              		.align	2
  20              	Digital_PWM_backup:
  21 0000 00000000 		.space	5
  21      00
  22 0005 000000   		.section	.text.Digital_PWM_SaveConfig,"ax",%progbits
  23              		.align	2
  24              		.global	Digital_PWM_SaveConfig
  25              		.thumb
  26              		.thumb_func
  27              		.type	Digital_PWM_SaveConfig, %function
  28              	Digital_PWM_SaveConfig:
  29              	.LFB0:
  30              		.file 1 "Generated_Source\\PSoC5\\Digital_PWM_PM.c"
   1:Generated_Source\PSoC5/Digital_PWM_PM.c **** /*******************************************************************************
   2:Generated_Source\PSoC5/Digital_PWM_PM.c **** * File Name: Digital_PWM_PM.c
   3:Generated_Source\PSoC5/Digital_PWM_PM.c **** * Version 3.30
   4:Generated_Source\PSoC5/Digital_PWM_PM.c **** *
   5:Generated_Source\PSoC5/Digital_PWM_PM.c **** * Description:
   6:Generated_Source\PSoC5/Digital_PWM_PM.c **** *  This file provides the power management source code to API for the
   7:Generated_Source\PSoC5/Digital_PWM_PM.c **** *  PWM.
   8:Generated_Source\PSoC5/Digital_PWM_PM.c **** *
   9:Generated_Source\PSoC5/Digital_PWM_PM.c **** * Note:
  10:Generated_Source\PSoC5/Digital_PWM_PM.c **** *
  11:Generated_Source\PSoC5/Digital_PWM_PM.c **** ********************************************************************************
  12:Generated_Source\PSoC5/Digital_PWM_PM.c **** * Copyright 2008-2014, Cypress Semiconductor Corporation.  All rights reserved.
  13:Generated_Source\PSoC5/Digital_PWM_PM.c **** * You may use this file only in accordance with the license, terms, conditions,
  14:Generated_Source\PSoC5/Digital_PWM_PM.c **** * disclaimers, and limitations in the end user license agreement accompanying
  15:Generated_Source\PSoC5/Digital_PWM_PM.c **** * the software package with which this file was provided.
  16:Generated_Source\PSoC5/Digital_PWM_PM.c **** *******************************************************************************/
  17:Generated_Source\PSoC5/Digital_PWM_PM.c **** 
  18:Generated_Source\PSoC5/Digital_PWM_PM.c **** #include "Digital_PWM.h"
  19:Generated_Source\PSoC5/Digital_PWM_PM.c **** 
  20:Generated_Source\PSoC5/Digital_PWM_PM.c **** static Digital_PWM_backupStruct Digital_PWM_backup;
  21:Generated_Source\PSoC5/Digital_PWM_PM.c **** 
  22:Generated_Source\PSoC5/Digital_PWM_PM.c **** 
  23:Generated_Source\PSoC5/Digital_PWM_PM.c **** /*******************************************************************************
  24:Generated_Source\PSoC5/Digital_PWM_PM.c **** * Function Name: Digital_PWM_SaveConfig
  25:Generated_Source\PSoC5/Digital_PWM_PM.c **** ********************************************************************************
  26:Generated_Source\PSoC5/Digital_PWM_PM.c **** *
ARM GAS  C:\Users\Greg\AppData\Local\Temp\cciUC7S3.s 			page 2


  27:Generated_Source\PSoC5/Digital_PWM_PM.c **** * Summary:
  28:Generated_Source\PSoC5/Digital_PWM_PM.c **** *  Saves the current user configuration of the component.
  29:Generated_Source\PSoC5/Digital_PWM_PM.c **** *
  30:Generated_Source\PSoC5/Digital_PWM_PM.c **** * Parameters:
  31:Generated_Source\PSoC5/Digital_PWM_PM.c **** *  None
  32:Generated_Source\PSoC5/Digital_PWM_PM.c **** *
  33:Generated_Source\PSoC5/Digital_PWM_PM.c **** * Return:
  34:Generated_Source\PSoC5/Digital_PWM_PM.c **** *  None
  35:Generated_Source\PSoC5/Digital_PWM_PM.c **** *
  36:Generated_Source\PSoC5/Digital_PWM_PM.c **** * Global variables:
  37:Generated_Source\PSoC5/Digital_PWM_PM.c **** *  Digital_PWM_backup:  Variables of this global structure are modified to
  38:Generated_Source\PSoC5/Digital_PWM_PM.c **** *  store the values of non retention configuration registers when Sleep() API is
  39:Generated_Source\PSoC5/Digital_PWM_PM.c **** *  called.
  40:Generated_Source\PSoC5/Digital_PWM_PM.c **** *
  41:Generated_Source\PSoC5/Digital_PWM_PM.c **** *******************************************************************************/
  42:Generated_Source\PSoC5/Digital_PWM_PM.c **** void Digital_PWM_SaveConfig(void) 
  43:Generated_Source\PSoC5/Digital_PWM_PM.c **** {
  31              		.loc 1 43 0
  32              		.cfi_startproc
  33              		@ args = 0, pretend = 0, frame = 0
  34              		@ frame_needed = 1, uses_anonymous_args = 0
  35 0000 80B5     		push	{r7, lr}
  36              		.cfi_def_cfa_offset 8
  37              		.cfi_offset 7, -8
  38              		.cfi_offset 14, -4
  39 0002 00AF     		add	r7, sp, #0
  40              		.cfi_def_cfa_register 7
  44:Generated_Source\PSoC5/Digital_PWM_PM.c **** 
  45:Generated_Source\PSoC5/Digital_PWM_PM.c ****     #if(!Digital_PWM_UsingFixedFunction)
  46:Generated_Source\PSoC5/Digital_PWM_PM.c ****         #if(!Digital_PWM_PWMModeIsCenterAligned)
  47:Generated_Source\PSoC5/Digital_PWM_PM.c ****             Digital_PWM_backup.PWMPeriod = Digital_PWM_ReadPeriod();
  41              		.loc 1 47 0
  42 0004 FFF7FEFF 		bl	Digital_PWM_ReadPeriod
  43 0008 0346     		mov	r3, r0
  44 000a 1A46     		mov	r2, r3
  45 000c 094B     		ldr	r3, .L2
  46 000e 9A70     		strb	r2, [r3, #2]
  48:Generated_Source\PSoC5/Digital_PWM_PM.c ****         #endif /* (!Digital_PWM_PWMModeIsCenterAligned) */
  49:Generated_Source\PSoC5/Digital_PWM_PM.c ****         Digital_PWM_backup.PWMUdb = Digital_PWM_ReadCounter();
  47              		.loc 1 49 0
  48 0010 FFF7FEFF 		bl	Digital_PWM_ReadCounter
  49 0014 0346     		mov	r3, r0
  50 0016 1A46     		mov	r2, r3
  51 0018 064B     		ldr	r3, .L2
  52 001a 5A70     		strb	r2, [r3, #1]
  50:Generated_Source\PSoC5/Digital_PWM_PM.c ****         #if (Digital_PWM_UseStatus)
  51:Generated_Source\PSoC5/Digital_PWM_PM.c ****             Digital_PWM_backup.InterruptMaskValue = Digital_PWM_STATUS_MASK;
  53              		.loc 1 51 0
  54 001c 064B     		ldr	r3, .L2+4
  55 001e 1B78     		ldrb	r3, [r3]
  56 0020 DAB2     		uxtb	r2, r3
  57 0022 044B     		ldr	r3, .L2
  58 0024 DA70     		strb	r2, [r3, #3]
  52:Generated_Source\PSoC5/Digital_PWM_PM.c ****         #endif /* (Digital_PWM_UseStatus) */
  53:Generated_Source\PSoC5/Digital_PWM_PM.c **** 
  54:Generated_Source\PSoC5/Digital_PWM_PM.c ****         #if(Digital_PWM_DeadBandMode == Digital_PWM__B_PWM__DBM_256_CLOCKS || \
  55:Generated_Source\PSoC5/Digital_PWM_PM.c ****             Digital_PWM_DeadBandMode == Digital_PWM__B_PWM__DBM_2_4_CLOCKS)
ARM GAS  C:\Users\Greg\AppData\Local\Temp\cciUC7S3.s 			page 3


  56:Generated_Source\PSoC5/Digital_PWM_PM.c ****             Digital_PWM_backup.PWMdeadBandValue = Digital_PWM_ReadDeadTime();
  57:Generated_Source\PSoC5/Digital_PWM_PM.c ****         #endif /*  deadband count is either 2-4 clocks or 256 clocks */
  58:Generated_Source\PSoC5/Digital_PWM_PM.c **** 
  59:Generated_Source\PSoC5/Digital_PWM_PM.c ****         #if(Digital_PWM_KillModeMinTime)
  60:Generated_Source\PSoC5/Digital_PWM_PM.c ****              Digital_PWM_backup.PWMKillCounterPeriod = Digital_PWM_ReadKillTime();
  61:Generated_Source\PSoC5/Digital_PWM_PM.c ****         #endif /* (Digital_PWM_KillModeMinTime) */
  62:Generated_Source\PSoC5/Digital_PWM_PM.c **** 
  63:Generated_Source\PSoC5/Digital_PWM_PM.c ****         #if(Digital_PWM_UseControl)
  64:Generated_Source\PSoC5/Digital_PWM_PM.c ****             Digital_PWM_backup.PWMControlRegister = Digital_PWM_ReadControlRegister();
  59              		.loc 1 64 0
  60 0026 FFF7FEFF 		bl	Digital_PWM_ReadControlRegister
  61 002a 0346     		mov	r3, r0
  62 002c 1A46     		mov	r2, r3
  63 002e 014B     		ldr	r3, .L2
  64 0030 1A71     		strb	r2, [r3, #4]
  65:Generated_Source\PSoC5/Digital_PWM_PM.c ****         #endif /* (Digital_PWM_UseControl) */
  66:Generated_Source\PSoC5/Digital_PWM_PM.c ****     #endif  /* (!Digital_PWM_UsingFixedFunction) */
  67:Generated_Source\PSoC5/Digital_PWM_PM.c **** }
  65              		.loc 1 67 0
  66 0032 80BD     		pop	{r7, pc}
  67              	.L3:
  68              		.align	2
  69              	.L2:
  70 0034 00000000 		.word	Digital_PWM_backup
  71 0038 83640040 		.word	1073767555
  72              		.cfi_endproc
  73              	.LFE0:
  74              		.size	Digital_PWM_SaveConfig, .-Digital_PWM_SaveConfig
  75              		.section	.text.Digital_PWM_RestoreConfig,"ax",%progbits
  76              		.align	2
  77              		.global	Digital_PWM_RestoreConfig
  78              		.thumb
  79              		.thumb_func
  80              		.type	Digital_PWM_RestoreConfig, %function
  81              	Digital_PWM_RestoreConfig:
  82              	.LFB1:
  68:Generated_Source\PSoC5/Digital_PWM_PM.c **** 
  69:Generated_Source\PSoC5/Digital_PWM_PM.c **** 
  70:Generated_Source\PSoC5/Digital_PWM_PM.c **** /*******************************************************************************
  71:Generated_Source\PSoC5/Digital_PWM_PM.c **** * Function Name: Digital_PWM_RestoreConfig
  72:Generated_Source\PSoC5/Digital_PWM_PM.c **** ********************************************************************************
  73:Generated_Source\PSoC5/Digital_PWM_PM.c **** *
  74:Generated_Source\PSoC5/Digital_PWM_PM.c **** * Summary:
  75:Generated_Source\PSoC5/Digital_PWM_PM.c **** *  Restores the current user configuration of the component.
  76:Generated_Source\PSoC5/Digital_PWM_PM.c **** *
  77:Generated_Source\PSoC5/Digital_PWM_PM.c **** * Parameters:
  78:Generated_Source\PSoC5/Digital_PWM_PM.c **** *  None
  79:Generated_Source\PSoC5/Digital_PWM_PM.c **** *
  80:Generated_Source\PSoC5/Digital_PWM_PM.c **** * Return:
  81:Generated_Source\PSoC5/Digital_PWM_PM.c **** *  None
  82:Generated_Source\PSoC5/Digital_PWM_PM.c **** *
  83:Generated_Source\PSoC5/Digital_PWM_PM.c **** * Global variables:
  84:Generated_Source\PSoC5/Digital_PWM_PM.c **** *  Digital_PWM_backup:  Variables of this global structure are used to
  85:Generated_Source\PSoC5/Digital_PWM_PM.c **** *  restore the values of non retention registers on wakeup from sleep mode.
  86:Generated_Source\PSoC5/Digital_PWM_PM.c **** *
  87:Generated_Source\PSoC5/Digital_PWM_PM.c **** *******************************************************************************/
  88:Generated_Source\PSoC5/Digital_PWM_PM.c **** void Digital_PWM_RestoreConfig(void) 
ARM GAS  C:\Users\Greg\AppData\Local\Temp\cciUC7S3.s 			page 4


  89:Generated_Source\PSoC5/Digital_PWM_PM.c **** {
  83              		.loc 1 89 0
  84              		.cfi_startproc
  85              		@ args = 0, pretend = 0, frame = 0
  86              		@ frame_needed = 1, uses_anonymous_args = 0
  87 0000 80B5     		push	{r7, lr}
  88              		.cfi_def_cfa_offset 8
  89              		.cfi_offset 7, -8
  90              		.cfi_offset 14, -4
  91 0002 00AF     		add	r7, sp, #0
  92              		.cfi_def_cfa_register 7
  90:Generated_Source\PSoC5/Digital_PWM_PM.c ****         #if(!Digital_PWM_UsingFixedFunction)
  91:Generated_Source\PSoC5/Digital_PWM_PM.c ****             #if(!Digital_PWM_PWMModeIsCenterAligned)
  92:Generated_Source\PSoC5/Digital_PWM_PM.c ****                 Digital_PWM_WritePeriod(Digital_PWM_backup.PWMPeriod);
  93              		.loc 1 92 0
  94 0004 094B     		ldr	r3, .L5
  95 0006 9B78     		ldrb	r3, [r3, #2]	@ zero_extendqisi2
  96 0008 1846     		mov	r0, r3
  97 000a FFF7FEFF 		bl	Digital_PWM_WritePeriod
  93:Generated_Source\PSoC5/Digital_PWM_PM.c ****             #endif /* (!Digital_PWM_PWMModeIsCenterAligned) */
  94:Generated_Source\PSoC5/Digital_PWM_PM.c **** 
  95:Generated_Source\PSoC5/Digital_PWM_PM.c ****             Digital_PWM_WriteCounter(Digital_PWM_backup.PWMUdb);
  98              		.loc 1 95 0
  99 000e 074B     		ldr	r3, .L5
 100 0010 5B78     		ldrb	r3, [r3, #1]	@ zero_extendqisi2
 101 0012 1846     		mov	r0, r3
 102 0014 FFF7FEFF 		bl	Digital_PWM_WriteCounter
  96:Generated_Source\PSoC5/Digital_PWM_PM.c **** 
  97:Generated_Source\PSoC5/Digital_PWM_PM.c ****             #if (Digital_PWM_UseStatus)
  98:Generated_Source\PSoC5/Digital_PWM_PM.c ****                 Digital_PWM_STATUS_MASK = Digital_PWM_backup.InterruptMaskValue;
 103              		.loc 1 98 0
 104 0018 054B     		ldr	r3, .L5+4
 105 001a 044A     		ldr	r2, .L5
 106 001c D278     		ldrb	r2, [r2, #3]	@ zero_extendqisi2
 107 001e 1A70     		strb	r2, [r3]
  99:Generated_Source\PSoC5/Digital_PWM_PM.c ****             #endif /* (Digital_PWM_UseStatus) */
 100:Generated_Source\PSoC5/Digital_PWM_PM.c **** 
 101:Generated_Source\PSoC5/Digital_PWM_PM.c ****             #if(Digital_PWM_DeadBandMode == Digital_PWM__B_PWM__DBM_256_CLOCKS || \
 102:Generated_Source\PSoC5/Digital_PWM_PM.c ****                 Digital_PWM_DeadBandMode == Digital_PWM__B_PWM__DBM_2_4_CLOCKS)
 103:Generated_Source\PSoC5/Digital_PWM_PM.c ****                 Digital_PWM_WriteDeadTime(Digital_PWM_backup.PWMdeadBandValue);
 104:Generated_Source\PSoC5/Digital_PWM_PM.c ****             #endif /* deadband count is either 2-4 clocks or 256 clocks */
 105:Generated_Source\PSoC5/Digital_PWM_PM.c **** 
 106:Generated_Source\PSoC5/Digital_PWM_PM.c ****             #if(Digital_PWM_KillModeMinTime)
 107:Generated_Source\PSoC5/Digital_PWM_PM.c ****                 Digital_PWM_WriteKillTime(Digital_PWM_backup.PWMKillCounterPeriod);
 108:Generated_Source\PSoC5/Digital_PWM_PM.c ****             #endif /* (Digital_PWM_KillModeMinTime) */
 109:Generated_Source\PSoC5/Digital_PWM_PM.c **** 
 110:Generated_Source\PSoC5/Digital_PWM_PM.c ****             #if(Digital_PWM_UseControl)
 111:Generated_Source\PSoC5/Digital_PWM_PM.c ****                 Digital_PWM_WriteControlRegister(Digital_PWM_backup.PWMControlRegister);
 108              		.loc 1 111 0
 109 0020 024B     		ldr	r3, .L5
 110 0022 1B79     		ldrb	r3, [r3, #4]	@ zero_extendqisi2
 111 0024 1846     		mov	r0, r3
 112 0026 FFF7FEFF 		bl	Digital_PWM_WriteControlRegister
 112:Generated_Source\PSoC5/Digital_PWM_PM.c ****             #endif /* (Digital_PWM_UseControl) */
 113:Generated_Source\PSoC5/Digital_PWM_PM.c ****         #endif  /* (!Digital_PWM_UsingFixedFunction) */
 114:Generated_Source\PSoC5/Digital_PWM_PM.c ****     }
 113              		.loc 1 114 0
ARM GAS  C:\Users\Greg\AppData\Local\Temp\cciUC7S3.s 			page 5


 114 002a 80BD     		pop	{r7, pc}
 115              	.L6:
 116              		.align	2
 117              	.L5:
 118 002c 00000000 		.word	Digital_PWM_backup
 119 0030 83640040 		.word	1073767555
 120              		.cfi_endproc
 121              	.LFE1:
 122              		.size	Digital_PWM_RestoreConfig, .-Digital_PWM_RestoreConfig
 123              		.section	.text.Digital_PWM_Sleep,"ax",%progbits
 124              		.align	2
 125              		.global	Digital_PWM_Sleep
 126              		.thumb
 127              		.thumb_func
 128              		.type	Digital_PWM_Sleep, %function
 129              	Digital_PWM_Sleep:
 130              	.LFB2:
 115:Generated_Source\PSoC5/Digital_PWM_PM.c **** 
 116:Generated_Source\PSoC5/Digital_PWM_PM.c **** 
 117:Generated_Source\PSoC5/Digital_PWM_PM.c **** /*******************************************************************************
 118:Generated_Source\PSoC5/Digital_PWM_PM.c **** * Function Name: Digital_PWM_Sleep
 119:Generated_Source\PSoC5/Digital_PWM_PM.c **** ********************************************************************************
 120:Generated_Source\PSoC5/Digital_PWM_PM.c **** *
 121:Generated_Source\PSoC5/Digital_PWM_PM.c **** * Summary:
 122:Generated_Source\PSoC5/Digital_PWM_PM.c **** *  Disables block's operation and saves the user configuration. Should be called
 123:Generated_Source\PSoC5/Digital_PWM_PM.c **** *  just prior to entering sleep.
 124:Generated_Source\PSoC5/Digital_PWM_PM.c **** *
 125:Generated_Source\PSoC5/Digital_PWM_PM.c **** * Parameters:
 126:Generated_Source\PSoC5/Digital_PWM_PM.c **** *  None
 127:Generated_Source\PSoC5/Digital_PWM_PM.c **** *
 128:Generated_Source\PSoC5/Digital_PWM_PM.c **** * Return:
 129:Generated_Source\PSoC5/Digital_PWM_PM.c **** *  None
 130:Generated_Source\PSoC5/Digital_PWM_PM.c **** *
 131:Generated_Source\PSoC5/Digital_PWM_PM.c **** * Global variables:
 132:Generated_Source\PSoC5/Digital_PWM_PM.c **** *  Digital_PWM_backup.PWMEnableState:  Is modified depending on the enable
 133:Generated_Source\PSoC5/Digital_PWM_PM.c **** *  state of the block before entering sleep mode.
 134:Generated_Source\PSoC5/Digital_PWM_PM.c **** *
 135:Generated_Source\PSoC5/Digital_PWM_PM.c **** *******************************************************************************/
 136:Generated_Source\PSoC5/Digital_PWM_PM.c **** void Digital_PWM_Sleep(void) 
 137:Generated_Source\PSoC5/Digital_PWM_PM.c **** {
 131              		.loc 1 137 0
 132              		.cfi_startproc
 133              		@ args = 0, pretend = 0, frame = 0
 134              		@ frame_needed = 1, uses_anonymous_args = 0
 135 0000 80B5     		push	{r7, lr}
 136              		.cfi_def_cfa_offset 8
 137              		.cfi_offset 7, -8
 138              		.cfi_offset 14, -4
 139 0002 00AF     		add	r7, sp, #0
 140              		.cfi_def_cfa_register 7
 138:Generated_Source\PSoC5/Digital_PWM_PM.c ****     #if(Digital_PWM_UseControl)
 139:Generated_Source\PSoC5/Digital_PWM_PM.c ****         if(Digital_PWM_CTRL_ENABLE == (Digital_PWM_CONTROL & Digital_PWM_CTRL_ENABLE))
 141              		.loc 1 139 0
 142 0004 094B     		ldr	r3, .L10
 143 0006 1B78     		ldrb	r3, [r3]
 144 0008 DBB2     		uxtb	r3, r3
 145 000a DBB2     		uxtb	r3, r3
ARM GAS  C:\Users\Greg\AppData\Local\Temp\cciUC7S3.s 			page 6


 146 000c 5BB2     		sxtb	r3, r3
 147 000e 002B     		cmp	r3, #0
 148 0010 03DA     		bge	.L8
 140:Generated_Source\PSoC5/Digital_PWM_PM.c ****         {
 141:Generated_Source\PSoC5/Digital_PWM_PM.c ****             /*Component is enabled */
 142:Generated_Source\PSoC5/Digital_PWM_PM.c ****             Digital_PWM_backup.PWMEnableState = 1u;
 149              		.loc 1 142 0
 150 0012 074B     		ldr	r3, .L10+4
 151 0014 0122     		movs	r2, #1
 152 0016 1A70     		strb	r2, [r3]
 153 0018 02E0     		b	.L9
 154              	.L8:
 143:Generated_Source\PSoC5/Digital_PWM_PM.c ****         }
 144:Generated_Source\PSoC5/Digital_PWM_PM.c ****         else
 145:Generated_Source\PSoC5/Digital_PWM_PM.c ****         {
 146:Generated_Source\PSoC5/Digital_PWM_PM.c ****             /* Component is disabled */
 147:Generated_Source\PSoC5/Digital_PWM_PM.c ****             Digital_PWM_backup.PWMEnableState = 0u;
 155              		.loc 1 147 0
 156 001a 054B     		ldr	r3, .L10+4
 157 001c 0022     		movs	r2, #0
 158 001e 1A70     		strb	r2, [r3]
 159              	.L9:
 148:Generated_Source\PSoC5/Digital_PWM_PM.c ****         }
 149:Generated_Source\PSoC5/Digital_PWM_PM.c ****     #endif /* (Digital_PWM_UseControl) */
 150:Generated_Source\PSoC5/Digital_PWM_PM.c **** 
 151:Generated_Source\PSoC5/Digital_PWM_PM.c ****     /* Stop component */
 152:Generated_Source\PSoC5/Digital_PWM_PM.c ****     Digital_PWM_Stop();
 160              		.loc 1 152 0
 161 0020 FFF7FEFF 		bl	Digital_PWM_Stop
 153:Generated_Source\PSoC5/Digital_PWM_PM.c **** 
 154:Generated_Source\PSoC5/Digital_PWM_PM.c ****     /* Save registers configuration */
 155:Generated_Source\PSoC5/Digital_PWM_PM.c ****     Digital_PWM_SaveConfig();
 162              		.loc 1 155 0
 163 0024 FFF7FEFF 		bl	Digital_PWM_SaveConfig
 156:Generated_Source\PSoC5/Digital_PWM_PM.c **** }
 164              		.loc 1 156 0
 165 0028 80BD     		pop	{r7, pc}
 166              	.L11:
 167 002a 00BF     		.align	2
 168              	.L10:
 169 002c 73640040 		.word	1073767539
 170 0030 00000000 		.word	Digital_PWM_backup
 171              		.cfi_endproc
 172              	.LFE2:
 173              		.size	Digital_PWM_Sleep, .-Digital_PWM_Sleep
 174              		.section	.text.Digital_PWM_Wakeup,"ax",%progbits
 175              		.align	2
 176              		.global	Digital_PWM_Wakeup
 177              		.thumb
 178              		.thumb_func
 179              		.type	Digital_PWM_Wakeup, %function
 180              	Digital_PWM_Wakeup:
 181              	.LFB3:
 157:Generated_Source\PSoC5/Digital_PWM_PM.c **** 
 158:Generated_Source\PSoC5/Digital_PWM_PM.c **** 
 159:Generated_Source\PSoC5/Digital_PWM_PM.c **** /*******************************************************************************
 160:Generated_Source\PSoC5/Digital_PWM_PM.c **** * Function Name: Digital_PWM_Wakeup
ARM GAS  C:\Users\Greg\AppData\Local\Temp\cciUC7S3.s 			page 7


 161:Generated_Source\PSoC5/Digital_PWM_PM.c **** ********************************************************************************
 162:Generated_Source\PSoC5/Digital_PWM_PM.c **** *
 163:Generated_Source\PSoC5/Digital_PWM_PM.c **** * Summary:
 164:Generated_Source\PSoC5/Digital_PWM_PM.c **** *  Restores and enables the user configuration. Should be called just after
 165:Generated_Source\PSoC5/Digital_PWM_PM.c **** *  awaking from sleep.
 166:Generated_Source\PSoC5/Digital_PWM_PM.c **** *
 167:Generated_Source\PSoC5/Digital_PWM_PM.c **** * Parameters:
 168:Generated_Source\PSoC5/Digital_PWM_PM.c **** *  None
 169:Generated_Source\PSoC5/Digital_PWM_PM.c **** *
 170:Generated_Source\PSoC5/Digital_PWM_PM.c **** * Return:
 171:Generated_Source\PSoC5/Digital_PWM_PM.c **** *  None
 172:Generated_Source\PSoC5/Digital_PWM_PM.c **** *
 173:Generated_Source\PSoC5/Digital_PWM_PM.c **** * Global variables:
 174:Generated_Source\PSoC5/Digital_PWM_PM.c **** *  Digital_PWM_backup.pwmEnable:  Is used to restore the enable state of
 175:Generated_Source\PSoC5/Digital_PWM_PM.c **** *  block on wakeup from sleep mode.
 176:Generated_Source\PSoC5/Digital_PWM_PM.c **** *
 177:Generated_Source\PSoC5/Digital_PWM_PM.c **** *******************************************************************************/
 178:Generated_Source\PSoC5/Digital_PWM_PM.c **** void Digital_PWM_Wakeup(void) 
 179:Generated_Source\PSoC5/Digital_PWM_PM.c **** {
 182              		.loc 1 179 0
 183              		.cfi_startproc
 184              		@ args = 0, pretend = 0, frame = 0
 185              		@ frame_needed = 1, uses_anonymous_args = 0
 186 0000 80B5     		push	{r7, lr}
 187              		.cfi_def_cfa_offset 8
 188              		.cfi_offset 7, -8
 189              		.cfi_offset 14, -4
 190 0002 00AF     		add	r7, sp, #0
 191              		.cfi_def_cfa_register 7
 180:Generated_Source\PSoC5/Digital_PWM_PM.c ****      /* Restore registers values */
 181:Generated_Source\PSoC5/Digital_PWM_PM.c ****     Digital_PWM_RestoreConfig();
 192              		.loc 1 181 0
 193 0004 FFF7FEFF 		bl	Digital_PWM_RestoreConfig
 182:Generated_Source\PSoC5/Digital_PWM_PM.c **** 
 183:Generated_Source\PSoC5/Digital_PWM_PM.c ****     if(Digital_PWM_backup.PWMEnableState != 0u)
 194              		.loc 1 183 0
 195 0008 034B     		ldr	r3, .L14
 196 000a 1B78     		ldrb	r3, [r3]	@ zero_extendqisi2
 197 000c 002B     		cmp	r3, #0
 198 000e 01D0     		beq	.L12
 184:Generated_Source\PSoC5/Digital_PWM_PM.c ****     {
 185:Generated_Source\PSoC5/Digital_PWM_PM.c ****         /* Enable component's operation */
 186:Generated_Source\PSoC5/Digital_PWM_PM.c ****         Digital_PWM_Enable();
 199              		.loc 1 186 0
 200 0010 FFF7FEFF 		bl	Digital_PWM_Enable
 201              	.L12:
 187:Generated_Source\PSoC5/Digital_PWM_PM.c ****     } /* Do nothing if component's block was disabled before */
 188:Generated_Source\PSoC5/Digital_PWM_PM.c **** 
 189:Generated_Source\PSoC5/Digital_PWM_PM.c **** }
 202              		.loc 1 189 0
 203 0014 80BD     		pop	{r7, pc}
 204              	.L15:
 205 0016 00BF     		.align	2
 206              	.L14:
 207 0018 00000000 		.word	Digital_PWM_backup
 208              		.cfi_endproc
 209              	.LFE3:
ARM GAS  C:\Users\Greg\AppData\Local\Temp\cciUC7S3.s 			page 8


 210              		.size	Digital_PWM_Wakeup, .-Digital_PWM_Wakeup
 211              		.text
 212              	.Letext0:
 213              		.file 2 "Generated_Source\\PSoC5\\cytypes.h"
 214              		.file 3 "Generated_Source\\PSoC5\\Digital_PWM.h"