ARM GAS  C:\Users\Greg\AppData\Local\Temp\ccGuoxFO.s 			page 1


   1              		.syntax unified
   2              		.cpu cortex-m3
   3              		.fpu softvfp
   4              		.eabi_attribute 20, 1
   5              		.eabi_attribute 21, 1
   6              		.eabi_attribute 23, 3
   7              		.eabi_attribute 24, 1
   8              		.eabi_attribute 25, 1
   9              		.eabi_attribute 26, 1
  10              		.eabi_attribute 30, 6
  11              		.eabi_attribute 34, 1
  12              		.eabi_attribute 18, 4
  13              		.thumb
  14              		.file	"Digital_PWM.c"
  15              		.text
  16              	.Ltext0:
  17              		.cfi_sections	.debug_frame
  18              		.global	Digital_PWM_initVar
  19              		.bss
  20              		.type	Digital_PWM_initVar, %object
  21              		.size	Digital_PWM_initVar, 1
  22              	Digital_PWM_initVar:
  23 0000 00       		.space	1
  24              		.section	.text.Digital_PWM_Start,"ax",%progbits
  25              		.align	2
  26              		.global	Digital_PWM_Start
  27              		.thumb
  28              		.thumb_func
  29              		.type	Digital_PWM_Start, %function
  30              	Digital_PWM_Start:
  31              	.LFB0:
  32              		.file 1 "Generated_Source\\PSoC5\\Digital_PWM.c"
   1:Generated_Source\PSoC5/Digital_PWM.c **** /*******************************************************************************
   2:Generated_Source\PSoC5/Digital_PWM.c **** * File Name: Digital_PWM.c
   3:Generated_Source\PSoC5/Digital_PWM.c **** * Version 3.30
   4:Generated_Source\PSoC5/Digital_PWM.c **** *
   5:Generated_Source\PSoC5/Digital_PWM.c **** * Description:
   6:Generated_Source\PSoC5/Digital_PWM.c **** *  The PWM User Module consist of an 8 or 16-bit counter with two 8 or 16-bit
   7:Generated_Source\PSoC5/Digital_PWM.c **** *  comparitors. Each instance of this user module is capable of generating
   8:Generated_Source\PSoC5/Digital_PWM.c **** *  two PWM outputs with the same period. The pulse width is selectable between
   9:Generated_Source\PSoC5/Digital_PWM.c **** *  1 and 255/65535. The period is selectable between 2 and 255/65536 clocks.
  10:Generated_Source\PSoC5/Digital_PWM.c **** *  The compare value output may be configured to be active when the present
  11:Generated_Source\PSoC5/Digital_PWM.c **** *  counter is less than or less than/equal to the compare value.
  12:Generated_Source\PSoC5/Digital_PWM.c **** *  A terminal count output is also provided. It generates a pulse one clock
  13:Generated_Source\PSoC5/Digital_PWM.c **** *  width wide when the counter is equal to zero.
  14:Generated_Source\PSoC5/Digital_PWM.c **** *
  15:Generated_Source\PSoC5/Digital_PWM.c **** * Note:
  16:Generated_Source\PSoC5/Digital_PWM.c **** *
  17:Generated_Source\PSoC5/Digital_PWM.c **** *******************************************************************************
  18:Generated_Source\PSoC5/Digital_PWM.c **** * Copyright 2008-2014, Cypress Semiconductor Corporation.  All rights reserved.
  19:Generated_Source\PSoC5/Digital_PWM.c **** * You may use this file only in accordance with the license, terms, conditions,
  20:Generated_Source\PSoC5/Digital_PWM.c **** * disclaimers, and limitations in the end user license agreement accompanying
  21:Generated_Source\PSoC5/Digital_PWM.c **** * the software package with which this file was provided.
  22:Generated_Source\PSoC5/Digital_PWM.c **** ********************************************************************************/
  23:Generated_Source\PSoC5/Digital_PWM.c **** 
  24:Generated_Source\PSoC5/Digital_PWM.c **** #include "Digital_PWM.h"
  25:Generated_Source\PSoC5/Digital_PWM.c **** 
ARM GAS  C:\Users\Greg\AppData\Local\Temp\ccGuoxFO.s 			page 2


  26:Generated_Source\PSoC5/Digital_PWM.c **** /* Error message for removed <resource> through optimization */
  27:Generated_Source\PSoC5/Digital_PWM.c **** #ifdef Digital_PWM_PWMUDB_genblk1_ctrlreg__REMOVED
  28:Generated_Source\PSoC5/Digital_PWM.c ****     #error PWM_v3_30 detected with a constant 0 for the enable or \
  29:Generated_Source\PSoC5/Digital_PWM.c ****          constant 1 for reset. This will prevent the component from operating.
  30:Generated_Source\PSoC5/Digital_PWM.c **** #endif /* Digital_PWM_PWMUDB_genblk1_ctrlreg__REMOVED */
  31:Generated_Source\PSoC5/Digital_PWM.c **** 
  32:Generated_Source\PSoC5/Digital_PWM.c **** uint8 Digital_PWM_initVar = 0u;
  33:Generated_Source\PSoC5/Digital_PWM.c **** 
  34:Generated_Source\PSoC5/Digital_PWM.c **** 
  35:Generated_Source\PSoC5/Digital_PWM.c **** /*******************************************************************************
  36:Generated_Source\PSoC5/Digital_PWM.c **** * Function Name: Digital_PWM_Start
  37:Generated_Source\PSoC5/Digital_PWM.c **** ********************************************************************************
  38:Generated_Source\PSoC5/Digital_PWM.c **** *
  39:Generated_Source\PSoC5/Digital_PWM.c **** * Summary:
  40:Generated_Source\PSoC5/Digital_PWM.c **** *  The start function initializes the pwm with the default values, the
  41:Generated_Source\PSoC5/Digital_PWM.c **** *  enables the counter to begin counting.  It does not enable interrupts,
  42:Generated_Source\PSoC5/Digital_PWM.c **** *  the EnableInt command should be called if interrupt generation is required.
  43:Generated_Source\PSoC5/Digital_PWM.c **** *
  44:Generated_Source\PSoC5/Digital_PWM.c **** * Parameters:
  45:Generated_Source\PSoC5/Digital_PWM.c **** *  None
  46:Generated_Source\PSoC5/Digital_PWM.c **** *
  47:Generated_Source\PSoC5/Digital_PWM.c **** * Return:
  48:Generated_Source\PSoC5/Digital_PWM.c **** *  None
  49:Generated_Source\PSoC5/Digital_PWM.c **** *
  50:Generated_Source\PSoC5/Digital_PWM.c **** * Global variables:
  51:Generated_Source\PSoC5/Digital_PWM.c **** *  Digital_PWM_initVar: Is modified when this function is called for the
  52:Generated_Source\PSoC5/Digital_PWM.c **** *   first time. Is used to ensure that initialization happens only once.
  53:Generated_Source\PSoC5/Digital_PWM.c **** *
  54:Generated_Source\PSoC5/Digital_PWM.c **** *******************************************************************************/
  55:Generated_Source\PSoC5/Digital_PWM.c **** void Digital_PWM_Start(void) 
  56:Generated_Source\PSoC5/Digital_PWM.c **** {
  33              		.loc 1 56 0
  34              		.cfi_startproc
  35              		@ args = 0, pretend = 0, frame = 0
  36              		@ frame_needed = 1, uses_anonymous_args = 0
  37 0000 80B5     		push	{r7, lr}
  38              		.cfi_def_cfa_offset 8
  39              		.cfi_offset 7, -8
  40              		.cfi_offset 14, -4
  41 0002 00AF     		add	r7, sp, #0
  42              		.cfi_def_cfa_register 7
  57:Generated_Source\PSoC5/Digital_PWM.c ****     /* If not Initialized then initialize all required hardware and software */
  58:Generated_Source\PSoC5/Digital_PWM.c ****     if(Digital_PWM_initVar == 0u)
  43              		.loc 1 58 0
  44 0004 054B     		ldr	r3, .L3
  45 0006 1B78     		ldrb	r3, [r3]	@ zero_extendqisi2
  46 0008 002B     		cmp	r3, #0
  47 000a 04D1     		bne	.L2
  59:Generated_Source\PSoC5/Digital_PWM.c ****     {
  60:Generated_Source\PSoC5/Digital_PWM.c ****         Digital_PWM_Init();
  48              		.loc 1 60 0
  49 000c FFF7FEFF 		bl	Digital_PWM_Init
  61:Generated_Source\PSoC5/Digital_PWM.c ****         Digital_PWM_initVar = 1u;
  50              		.loc 1 61 0
  51 0010 024B     		ldr	r3, .L3
  52 0012 0122     		movs	r2, #1
  53 0014 1A70     		strb	r2, [r3]
ARM GAS  C:\Users\Greg\AppData\Local\Temp\ccGuoxFO.s 			page 3


  54              	.L2:
  62:Generated_Source\PSoC5/Digital_PWM.c ****     }
  63:Generated_Source\PSoC5/Digital_PWM.c ****     Digital_PWM_Enable();
  55              		.loc 1 63 0
  56 0016 FFF7FEFF 		bl	Digital_PWM_Enable
  64:Generated_Source\PSoC5/Digital_PWM.c **** 
  65:Generated_Source\PSoC5/Digital_PWM.c **** }
  57              		.loc 1 65 0
  58 001a 80BD     		pop	{r7, pc}
  59              	.L4:
  60              		.align	2
  61              	.L3:
  62 001c 00000000 		.word	Digital_PWM_initVar
  63              		.cfi_endproc
  64              	.LFE0:
  65              		.size	Digital_PWM_Start, .-Digital_PWM_Start
  66              		.section	.text.Digital_PWM_Init,"ax",%progbits
  67              		.align	2
  68              		.global	Digital_PWM_Init
  69              		.thumb
  70              		.thumb_func
  71              		.type	Digital_PWM_Init, %function
  72              	Digital_PWM_Init:
  73              	.LFB1:
  66:Generated_Source\PSoC5/Digital_PWM.c **** 
  67:Generated_Source\PSoC5/Digital_PWM.c **** 
  68:Generated_Source\PSoC5/Digital_PWM.c **** /*******************************************************************************
  69:Generated_Source\PSoC5/Digital_PWM.c **** * Function Name: Digital_PWM_Init
  70:Generated_Source\PSoC5/Digital_PWM.c **** ********************************************************************************
  71:Generated_Source\PSoC5/Digital_PWM.c **** *
  72:Generated_Source\PSoC5/Digital_PWM.c **** * Summary:
  73:Generated_Source\PSoC5/Digital_PWM.c **** *  Initialize component's parameters to the parameters set by user in the
  74:Generated_Source\PSoC5/Digital_PWM.c **** *  customizer of the component placed onto schematic. Usually called in
  75:Generated_Source\PSoC5/Digital_PWM.c **** *  Digital_PWM_Start().
  76:Generated_Source\PSoC5/Digital_PWM.c **** *
  77:Generated_Source\PSoC5/Digital_PWM.c **** * Parameters:
  78:Generated_Source\PSoC5/Digital_PWM.c **** *  None
  79:Generated_Source\PSoC5/Digital_PWM.c **** *
  80:Generated_Source\PSoC5/Digital_PWM.c **** * Return:
  81:Generated_Source\PSoC5/Digital_PWM.c **** *  None
  82:Generated_Source\PSoC5/Digital_PWM.c **** *
  83:Generated_Source\PSoC5/Digital_PWM.c **** *******************************************************************************/
  84:Generated_Source\PSoC5/Digital_PWM.c **** void Digital_PWM_Init(void) 
  85:Generated_Source\PSoC5/Digital_PWM.c **** {
  74              		.loc 1 85 0
  75              		.cfi_startproc
  76              		@ args = 0, pretend = 0, frame = 8
  77              		@ frame_needed = 1, uses_anonymous_args = 0
  78 0000 80B5     		push	{r7, lr}
  79              		.cfi_def_cfa_offset 8
  80              		.cfi_offset 7, -8
  81              		.cfi_offset 14, -4
  82 0002 82B0     		sub	sp, sp, #8
  83              		.cfi_def_cfa_offset 16
  84 0004 00AF     		add	r7, sp, #0
  85              		.cfi_def_cfa_register 7
  86:Generated_Source\PSoC5/Digital_PWM.c ****     #if (Digital_PWM_UsingFixedFunction || Digital_PWM_UseControl)
ARM GAS  C:\Users\Greg\AppData\Local\Temp\ccGuoxFO.s 			page 4


  87:Generated_Source\PSoC5/Digital_PWM.c ****         uint8 ctrl;
  88:Generated_Source\PSoC5/Digital_PWM.c ****     #endif /* (Digital_PWM_UsingFixedFunction || Digital_PWM_UseControl) */
  89:Generated_Source\PSoC5/Digital_PWM.c **** 
  90:Generated_Source\PSoC5/Digital_PWM.c ****     #if(!Digital_PWM_UsingFixedFunction)
  91:Generated_Source\PSoC5/Digital_PWM.c ****         #if(Digital_PWM_UseStatus)
  92:Generated_Source\PSoC5/Digital_PWM.c ****             /* Interrupt State Backup for Critical Region*/
  93:Generated_Source\PSoC5/Digital_PWM.c ****             uint8 Digital_PWM_interruptState;
  94:Generated_Source\PSoC5/Digital_PWM.c ****         #endif /* (Digital_PWM_UseStatus) */
  95:Generated_Source\PSoC5/Digital_PWM.c ****     #endif /* (!Digital_PWM_UsingFixedFunction) */
  96:Generated_Source\PSoC5/Digital_PWM.c **** 
  97:Generated_Source\PSoC5/Digital_PWM.c ****     #if (Digital_PWM_UsingFixedFunction)
  98:Generated_Source\PSoC5/Digital_PWM.c ****         /* You are allowed to write the compare value (FF only) */
  99:Generated_Source\PSoC5/Digital_PWM.c ****         Digital_PWM_CONTROL |= Digital_PWM_CFG0_MODE;
 100:Generated_Source\PSoC5/Digital_PWM.c ****         #if (Digital_PWM_DeadBand2_4)
 101:Generated_Source\PSoC5/Digital_PWM.c ****             Digital_PWM_CONTROL |= Digital_PWM_CFG0_DB;
 102:Generated_Source\PSoC5/Digital_PWM.c ****         #endif /* (Digital_PWM_DeadBand2_4) */
 103:Generated_Source\PSoC5/Digital_PWM.c **** 
 104:Generated_Source\PSoC5/Digital_PWM.c ****         ctrl = Digital_PWM_CONTROL3 & ((uint8 )(~Digital_PWM_CTRL_CMPMODE1_MASK));
 105:Generated_Source\PSoC5/Digital_PWM.c ****         Digital_PWM_CONTROL3 = ctrl | Digital_PWM_DEFAULT_COMPARE1_MODE;
 106:Generated_Source\PSoC5/Digital_PWM.c **** 
 107:Generated_Source\PSoC5/Digital_PWM.c ****          /* Clear and Set SYNCTC and SYNCCMP bits of RT1 register */
 108:Generated_Source\PSoC5/Digital_PWM.c ****         Digital_PWM_RT1 &= ((uint8)(~Digital_PWM_RT1_MASK));
 109:Generated_Source\PSoC5/Digital_PWM.c ****         Digital_PWM_RT1 |= Digital_PWM_SYNC;
 110:Generated_Source\PSoC5/Digital_PWM.c **** 
 111:Generated_Source\PSoC5/Digital_PWM.c ****         /*Enable DSI Sync all all inputs of the PWM*/
 112:Generated_Source\PSoC5/Digital_PWM.c ****         Digital_PWM_RT1 &= ((uint8)(~Digital_PWM_SYNCDSI_MASK));
 113:Generated_Source\PSoC5/Digital_PWM.c ****         Digital_PWM_RT1 |= Digital_PWM_SYNCDSI_EN;
 114:Generated_Source\PSoC5/Digital_PWM.c **** 
 115:Generated_Source\PSoC5/Digital_PWM.c ****     #elif (Digital_PWM_UseControl)
 116:Generated_Source\PSoC5/Digital_PWM.c ****         /* Set the default compare mode defined in the parameter */
 117:Generated_Source\PSoC5/Digital_PWM.c ****         ctrl = Digital_PWM_CONTROL & ((uint8)(~Digital_PWM_CTRL_CMPMODE2_MASK)) &
  86              		.loc 1 117 0
  87 0006 1C4B     		ldr	r3, .L6
  88 0008 1B78     		ldrb	r3, [r3]
  89 000a DBB2     		uxtb	r3, r3
  90 000c 23F03F03 		bic	r3, r3, #63
  91 0010 FB71     		strb	r3, [r7, #7]
 118:Generated_Source\PSoC5/Digital_PWM.c ****                 ((uint8)(~Digital_PWM_CTRL_CMPMODE1_MASK));
 119:Generated_Source\PSoC5/Digital_PWM.c ****         Digital_PWM_CONTROL = ctrl | Digital_PWM_DEFAULT_COMPARE2_MODE |
  92              		.loc 1 119 0
  93 0012 194A     		ldr	r2, .L6
  94 0014 FB79     		ldrb	r3, [r7, #7]
  95 0016 43F01903 		orr	r3, r3, #25
  96 001a DBB2     		uxtb	r3, r3
  97 001c 1370     		strb	r3, [r2]
 120:Generated_Source\PSoC5/Digital_PWM.c ****                                    Digital_PWM_DEFAULT_COMPARE1_MODE;
 121:Generated_Source\PSoC5/Digital_PWM.c ****     #endif /* (Digital_PWM_UsingFixedFunction) */
 122:Generated_Source\PSoC5/Digital_PWM.c **** 
 123:Generated_Source\PSoC5/Digital_PWM.c ****     #if (!Digital_PWM_UsingFixedFunction)
 124:Generated_Source\PSoC5/Digital_PWM.c ****         #if (Digital_PWM_Resolution == 8)
 125:Generated_Source\PSoC5/Digital_PWM.c ****             /* Set FIFO 0 to 1 byte register for period*/
 126:Generated_Source\PSoC5/Digital_PWM.c ****             Digital_PWM_AUX_CONTROLDP0 |= (Digital_PWM_AUX_CTRL_FIFO0_CLR);
  98              		.loc 1 126 0
  99 001e 174A     		ldr	r2, .L6+4
 100 0020 164B     		ldr	r3, .L6+4
 101 0022 1B78     		ldrb	r3, [r3]
 102 0024 DBB2     		uxtb	r3, r3
ARM GAS  C:\Users\Greg\AppData\Local\Temp\ccGuoxFO.s 			page 5


 103 0026 43F00103 		orr	r3, r3, #1
 104 002a DBB2     		uxtb	r3, r3
 105 002c 1370     		strb	r3, [r2]
 127:Generated_Source\PSoC5/Digital_PWM.c ****         #else /* (Digital_PWM_Resolution == 16)*/
 128:Generated_Source\PSoC5/Digital_PWM.c ****             /* Set FIFO 0 to 1 byte register for period */
 129:Generated_Source\PSoC5/Digital_PWM.c ****             Digital_PWM_AUX_CONTROLDP0 |= (Digital_PWM_AUX_CTRL_FIFO0_CLR);
 130:Generated_Source\PSoC5/Digital_PWM.c ****             Digital_PWM_AUX_CONTROLDP1 |= (Digital_PWM_AUX_CTRL_FIFO0_CLR);
 131:Generated_Source\PSoC5/Digital_PWM.c ****         #endif /* (Digital_PWM_Resolution == 8) */
 132:Generated_Source\PSoC5/Digital_PWM.c **** 
 133:Generated_Source\PSoC5/Digital_PWM.c ****         Digital_PWM_WriteCounter(Digital_PWM_INIT_PERIOD_VALUE);
 106              		.loc 1 133 0
 107 002e F920     		movs	r0, #249
 108 0030 FFF7FEFF 		bl	Digital_PWM_WriteCounter
 134:Generated_Source\PSoC5/Digital_PWM.c ****     #endif /* (!Digital_PWM_UsingFixedFunction) */
 135:Generated_Source\PSoC5/Digital_PWM.c **** 
 136:Generated_Source\PSoC5/Digital_PWM.c ****     Digital_PWM_WritePeriod(Digital_PWM_INIT_PERIOD_VALUE);
 109              		.loc 1 136 0
 110 0034 F920     		movs	r0, #249
 111 0036 FFF7FEFF 		bl	Digital_PWM_WritePeriod
 137:Generated_Source\PSoC5/Digital_PWM.c **** 
 138:Generated_Source\PSoC5/Digital_PWM.c ****         #if (Digital_PWM_UseOneCompareMode)
 139:Generated_Source\PSoC5/Digital_PWM.c ****             Digital_PWM_WriteCompare(Digital_PWM_INIT_COMPARE_VALUE1);
 140:Generated_Source\PSoC5/Digital_PWM.c ****         #else
 141:Generated_Source\PSoC5/Digital_PWM.c ****             Digital_PWM_WriteCompare1(Digital_PWM_INIT_COMPARE_VALUE1);
 112              		.loc 1 141 0
 113 003a 0020     		movs	r0, #0
 114 003c FFF7FEFF 		bl	Digital_PWM_WriteCompare1
 142:Generated_Source\PSoC5/Digital_PWM.c ****             Digital_PWM_WriteCompare2(Digital_PWM_INIT_COMPARE_VALUE2);
 115              		.loc 1 142 0
 116 0040 0020     		movs	r0, #0
 117 0042 FFF7FEFF 		bl	Digital_PWM_WriteCompare2
 143:Generated_Source\PSoC5/Digital_PWM.c ****         #endif /* (Digital_PWM_UseOneCompareMode) */
 144:Generated_Source\PSoC5/Digital_PWM.c **** 
 145:Generated_Source\PSoC5/Digital_PWM.c ****         #if (Digital_PWM_KillModeMinTime)
 146:Generated_Source\PSoC5/Digital_PWM.c ****             Digital_PWM_WriteKillTime(Digital_PWM_MinimumKillTime);
 147:Generated_Source\PSoC5/Digital_PWM.c ****         #endif /* (Digital_PWM_KillModeMinTime) */
 148:Generated_Source\PSoC5/Digital_PWM.c **** 
 149:Generated_Source\PSoC5/Digital_PWM.c ****         #if (Digital_PWM_DeadBandUsed)
 150:Generated_Source\PSoC5/Digital_PWM.c ****             Digital_PWM_WriteDeadTime(Digital_PWM_INIT_DEAD_TIME);
 151:Generated_Source\PSoC5/Digital_PWM.c ****         #endif /* (Digital_PWM_DeadBandUsed) */
 152:Generated_Source\PSoC5/Digital_PWM.c **** 
 153:Generated_Source\PSoC5/Digital_PWM.c ****     #if (Digital_PWM_UseStatus || Digital_PWM_UsingFixedFunction)
 154:Generated_Source\PSoC5/Digital_PWM.c ****         Digital_PWM_SetInterruptMode(Digital_PWM_INIT_INTERRUPTS_MODE);
 118              		.loc 1 154 0
 119 0046 0020     		movs	r0, #0
 120 0048 FFF7FEFF 		bl	Digital_PWM_SetInterruptMode
 155:Generated_Source\PSoC5/Digital_PWM.c ****     #endif /* (Digital_PWM_UseStatus || Digital_PWM_UsingFixedFunction) */
 156:Generated_Source\PSoC5/Digital_PWM.c **** 
 157:Generated_Source\PSoC5/Digital_PWM.c ****     #if (Digital_PWM_UsingFixedFunction)
 158:Generated_Source\PSoC5/Digital_PWM.c ****         /* Globally Enable the Fixed Function Block chosen */
 159:Generated_Source\PSoC5/Digital_PWM.c ****         Digital_PWM_GLOBAL_ENABLE |= Digital_PWM_BLOCK_EN_MASK;
 160:Generated_Source\PSoC5/Digital_PWM.c ****         /* Set the Interrupt source to come from the status register */
 161:Generated_Source\PSoC5/Digital_PWM.c ****         Digital_PWM_CONTROL2 |= Digital_PWM_CTRL2_IRQ_SEL;
 162:Generated_Source\PSoC5/Digital_PWM.c ****     #else
 163:Generated_Source\PSoC5/Digital_PWM.c ****         #if(Digital_PWM_UseStatus)
 164:Generated_Source\PSoC5/Digital_PWM.c **** 
 165:Generated_Source\PSoC5/Digital_PWM.c ****             /* CyEnterCriticalRegion and CyExitCriticalRegion are used to mark following region cri
ARM GAS  C:\Users\Greg\AppData\Local\Temp\ccGuoxFO.s 			page 6


 166:Generated_Source\PSoC5/Digital_PWM.c ****             /* Enter Critical Region*/
 167:Generated_Source\PSoC5/Digital_PWM.c ****             Digital_PWM_interruptState = CyEnterCriticalSection();
 121              		.loc 1 167 0
 122 004c FFF7FEFF 		bl	CyEnterCriticalSection
 123 0050 0346     		mov	r3, r0
 124 0052 BB71     		strb	r3, [r7, #6]
 168:Generated_Source\PSoC5/Digital_PWM.c ****             /* Use the interrupt output of the status register for IRQ output */
 169:Generated_Source\PSoC5/Digital_PWM.c ****             Digital_PWM_STATUS_AUX_CTRL |= Digital_PWM_STATUS_ACTL_INT_EN_MASK;
 125              		.loc 1 169 0
 126 0054 094A     		ldr	r2, .L6+4
 127 0056 094B     		ldr	r3, .L6+4
 128 0058 1B78     		ldrb	r3, [r3]
 129 005a DBB2     		uxtb	r3, r3
 130 005c 43F01003 		orr	r3, r3, #16
 131 0060 DBB2     		uxtb	r3, r3
 132 0062 1370     		strb	r3, [r2]
 170:Generated_Source\PSoC5/Digital_PWM.c **** 
 171:Generated_Source\PSoC5/Digital_PWM.c ****              /* Exit Critical Region*/
 172:Generated_Source\PSoC5/Digital_PWM.c ****             CyExitCriticalSection(Digital_PWM_interruptState);
 133              		.loc 1 172 0
 134 0064 BB79     		ldrb	r3, [r7, #6]	@ zero_extendqisi2
 135 0066 1846     		mov	r0, r3
 136 0068 FFF7FEFF 		bl	CyExitCriticalSection
 173:Generated_Source\PSoC5/Digital_PWM.c **** 
 174:Generated_Source\PSoC5/Digital_PWM.c ****             /* Clear the FIFO to enable the Digital_PWM_STATUS_FIFOFULL
 175:Generated_Source\PSoC5/Digital_PWM.c ****                    bit to be set on FIFO full. */
 176:Generated_Source\PSoC5/Digital_PWM.c ****             Digital_PWM_ClearFIFO();
 137              		.loc 1 176 0
 138 006c FFF7FEFF 		bl	Digital_PWM_ClearFIFO
 177:Generated_Source\PSoC5/Digital_PWM.c ****         #endif /* (Digital_PWM_UseStatus) */
 178:Generated_Source\PSoC5/Digital_PWM.c ****     #endif /* (Digital_PWM_UsingFixedFunction) */
 179:Generated_Source\PSoC5/Digital_PWM.c **** }
 139              		.loc 1 179 0
 140 0070 0837     		adds	r7, r7, #8
 141              		.cfi_def_cfa_offset 8
 142 0072 BD46     		mov	sp, r7
 143              		.cfi_def_cfa_register 13
 144              		@ sp needed
 145 0074 80BD     		pop	{r7, pc}
 146              	.L7:
 147 0076 00BF     		.align	2
 148              	.L6:
 149 0078 73640040 		.word	1073767539
 150 007c 93640040 		.word	1073767571
 151              		.cfi_endproc
 152              	.LFE1:
 153              		.size	Digital_PWM_Init, .-Digital_PWM_Init
 154              		.section	.text.Digital_PWM_Enable,"ax",%progbits
 155              		.align	2
 156              		.global	Digital_PWM_Enable
 157              		.thumb
 158              		.thumb_func
 159              		.type	Digital_PWM_Enable, %function
 160              	Digital_PWM_Enable:
 161              	.LFB2:
 180:Generated_Source\PSoC5/Digital_PWM.c **** 
 181:Generated_Source\PSoC5/Digital_PWM.c **** 
ARM GAS  C:\Users\Greg\AppData\Local\Temp\ccGuoxFO.s 			page 7


 182:Generated_Source\PSoC5/Digital_PWM.c **** /*******************************************************************************
 183:Generated_Source\PSoC5/Digital_PWM.c **** * Function Name: Digital_PWM_Enable
 184:Generated_Source\PSoC5/Digital_PWM.c **** ********************************************************************************
 185:Generated_Source\PSoC5/Digital_PWM.c **** *
 186:Generated_Source\PSoC5/Digital_PWM.c **** * Summary:
 187:Generated_Source\PSoC5/Digital_PWM.c **** *  Enables the PWM block operation
 188:Generated_Source\PSoC5/Digital_PWM.c **** *
 189:Generated_Source\PSoC5/Digital_PWM.c **** * Parameters:
 190:Generated_Source\PSoC5/Digital_PWM.c **** *  None
 191:Generated_Source\PSoC5/Digital_PWM.c **** *
 192:Generated_Source\PSoC5/Digital_PWM.c **** * Return:
 193:Generated_Source\PSoC5/Digital_PWM.c **** *  None
 194:Generated_Source\PSoC5/Digital_PWM.c **** *
 195:Generated_Source\PSoC5/Digital_PWM.c **** * Side Effects:
 196:Generated_Source\PSoC5/Digital_PWM.c **** *  This works only if software enable mode is chosen
 197:Generated_Source\PSoC5/Digital_PWM.c **** *
 198:Generated_Source\PSoC5/Digital_PWM.c **** *******************************************************************************/
 199:Generated_Source\PSoC5/Digital_PWM.c **** void Digital_PWM_Enable(void) 
 200:Generated_Source\PSoC5/Digital_PWM.c **** {
 162              		.loc 1 200 0
 163              		.cfi_startproc
 164              		@ args = 0, pretend = 0, frame = 0
 165              		@ frame_needed = 1, uses_anonymous_args = 0
 166              		@ link register save eliminated.
 167 0000 80B4     		push	{r7}
 168              		.cfi_def_cfa_offset 4
 169              		.cfi_offset 7, -4
 170 0002 00AF     		add	r7, sp, #0
 171              		.cfi_def_cfa_register 7
 201:Generated_Source\PSoC5/Digital_PWM.c ****     /* Globally Enable the Fixed Function Block chosen */
 202:Generated_Source\PSoC5/Digital_PWM.c ****     #if (Digital_PWM_UsingFixedFunction)
 203:Generated_Source\PSoC5/Digital_PWM.c ****         Digital_PWM_GLOBAL_ENABLE |= Digital_PWM_BLOCK_EN_MASK;
 204:Generated_Source\PSoC5/Digital_PWM.c ****         Digital_PWM_GLOBAL_STBY_ENABLE |= Digital_PWM_BLOCK_STBY_EN_MASK;
 205:Generated_Source\PSoC5/Digital_PWM.c ****     #endif /* (Digital_PWM_UsingFixedFunction) */
 206:Generated_Source\PSoC5/Digital_PWM.c **** 
 207:Generated_Source\PSoC5/Digital_PWM.c ****     /* Enable the PWM from the control register  */
 208:Generated_Source\PSoC5/Digital_PWM.c ****     #if (Digital_PWM_UseControl || Digital_PWM_UsingFixedFunction)
 209:Generated_Source\PSoC5/Digital_PWM.c ****         Digital_PWM_CONTROL |= Digital_PWM_CTRL_ENABLE;
 172              		.loc 1 209 0
 173 0004 054A     		ldr	r2, .L9
 174 0006 054B     		ldr	r3, .L9
 175 0008 1B78     		ldrb	r3, [r3]
 176 000a DBB2     		uxtb	r3, r3
 177 000c 63F07F03 		orn	r3, r3, #127
 178 0010 DBB2     		uxtb	r3, r3
 179 0012 1370     		strb	r3, [r2]
 210:Generated_Source\PSoC5/Digital_PWM.c ****     #endif /* (Digital_PWM_UseControl || Digital_PWM_UsingFixedFunction) */
 211:Generated_Source\PSoC5/Digital_PWM.c **** }
 180              		.loc 1 211 0
 181 0014 BD46     		mov	sp, r7
 182              		.cfi_def_cfa_register 13
 183              		@ sp needed
 184 0016 5DF8047B 		ldr	r7, [sp], #4
 185              		.cfi_restore 7
 186              		.cfi_def_cfa_offset 0
 187 001a 7047     		bx	lr
 188              	.L10:
ARM GAS  C:\Users\Greg\AppData\Local\Temp\ccGuoxFO.s 			page 8


 189              		.align	2
 190              	.L9:
 191 001c 73640040 		.word	1073767539
 192              		.cfi_endproc
 193              	.LFE2:
 194              		.size	Digital_PWM_Enable, .-Digital_PWM_Enable
 195              		.section	.text.Digital_PWM_Stop,"ax",%progbits
 196              		.align	2
 197              		.global	Digital_PWM_Stop
 198              		.thumb
 199              		.thumb_func
 200              		.type	Digital_PWM_Stop, %function
 201              	Digital_PWM_Stop:
 202              	.LFB3:
 212:Generated_Source\PSoC5/Digital_PWM.c **** 
 213:Generated_Source\PSoC5/Digital_PWM.c **** 
 214:Generated_Source\PSoC5/Digital_PWM.c **** /*******************************************************************************
 215:Generated_Source\PSoC5/Digital_PWM.c **** * Function Name: Digital_PWM_Stop
 216:Generated_Source\PSoC5/Digital_PWM.c **** ********************************************************************************
 217:Generated_Source\PSoC5/Digital_PWM.c **** *
 218:Generated_Source\PSoC5/Digital_PWM.c **** * Summary:
 219:Generated_Source\PSoC5/Digital_PWM.c **** *  The stop function halts the PWM, but does not change any modes or disable
 220:Generated_Source\PSoC5/Digital_PWM.c **** *  interrupts.
 221:Generated_Source\PSoC5/Digital_PWM.c **** *
 222:Generated_Source\PSoC5/Digital_PWM.c **** * Parameters:
 223:Generated_Source\PSoC5/Digital_PWM.c **** *  None
 224:Generated_Source\PSoC5/Digital_PWM.c **** *
 225:Generated_Source\PSoC5/Digital_PWM.c **** * Return:
 226:Generated_Source\PSoC5/Digital_PWM.c **** *  None
 227:Generated_Source\PSoC5/Digital_PWM.c **** *
 228:Generated_Source\PSoC5/Digital_PWM.c **** * Side Effects:
 229:Generated_Source\PSoC5/Digital_PWM.c **** *  If the Enable mode is set to Hardware only then this function
 230:Generated_Source\PSoC5/Digital_PWM.c **** *  has no effect on the operation of the PWM
 231:Generated_Source\PSoC5/Digital_PWM.c **** *
 232:Generated_Source\PSoC5/Digital_PWM.c **** *******************************************************************************/
 233:Generated_Source\PSoC5/Digital_PWM.c **** void Digital_PWM_Stop(void) 
 234:Generated_Source\PSoC5/Digital_PWM.c **** {
 203              		.loc 1 234 0
 204              		.cfi_startproc
 205              		@ args = 0, pretend = 0, frame = 0
 206              		@ frame_needed = 1, uses_anonymous_args = 0
 207              		@ link register save eliminated.
 208 0000 80B4     		push	{r7}
 209              		.cfi_def_cfa_offset 4
 210              		.cfi_offset 7, -4
 211 0002 00AF     		add	r7, sp, #0
 212              		.cfi_def_cfa_register 7
 235:Generated_Source\PSoC5/Digital_PWM.c ****     #if (Digital_PWM_UseControl || Digital_PWM_UsingFixedFunction)
 236:Generated_Source\PSoC5/Digital_PWM.c ****         Digital_PWM_CONTROL &= ((uint8)(~Digital_PWM_CTRL_ENABLE));
 213              		.loc 1 236 0
 214 0004 054A     		ldr	r2, .L12
 215 0006 054B     		ldr	r3, .L12
 216 0008 1B78     		ldrb	r3, [r3]
 217 000a DBB2     		uxtb	r3, r3
 218 000c 03F07F03 		and	r3, r3, #127
 219 0010 DBB2     		uxtb	r3, r3
 220 0012 1370     		strb	r3, [r2]
ARM GAS  C:\Users\Greg\AppData\Local\Temp\ccGuoxFO.s 			page 9


 237:Generated_Source\PSoC5/Digital_PWM.c ****     #endif /* (Digital_PWM_UseControl || Digital_PWM_UsingFixedFunction) */
 238:Generated_Source\PSoC5/Digital_PWM.c **** 
 239:Generated_Source\PSoC5/Digital_PWM.c ****     /* Globally disable the Fixed Function Block chosen */
 240:Generated_Source\PSoC5/Digital_PWM.c ****     #if (Digital_PWM_UsingFixedFunction)
 241:Generated_Source\PSoC5/Digital_PWM.c ****         Digital_PWM_GLOBAL_ENABLE &= ((uint8)(~Digital_PWM_BLOCK_EN_MASK));
 242:Generated_Source\PSoC5/Digital_PWM.c ****         Digital_PWM_GLOBAL_STBY_ENABLE &= ((uint8)(~Digital_PWM_BLOCK_STBY_EN_MASK));
 243:Generated_Source\PSoC5/Digital_PWM.c ****     #endif /* (Digital_PWM_UsingFixedFunction) */
 244:Generated_Source\PSoC5/Digital_PWM.c **** }
 221              		.loc 1 244 0
 222 0014 BD46     		mov	sp, r7
 223              		.cfi_def_cfa_register 13
 224              		@ sp needed
 225 0016 5DF8047B 		ldr	r7, [sp], #4
 226              		.cfi_restore 7
 227              		.cfi_def_cfa_offset 0
 228 001a 7047     		bx	lr
 229              	.L13:
 230              		.align	2
 231              	.L12:
 232 001c 73640040 		.word	1073767539
 233              		.cfi_endproc
 234              	.LFE3:
 235              		.size	Digital_PWM_Stop, .-Digital_PWM_Stop
 236              		.section	.text.Digital_PWM_WriteCounter,"ax",%progbits
 237              		.align	2
 238              		.global	Digital_PWM_WriteCounter
 239              		.thumb
 240              		.thumb_func
 241              		.type	Digital_PWM_WriteCounter, %function
 242              	Digital_PWM_WriteCounter:
 243              	.LFB4:
 245:Generated_Source\PSoC5/Digital_PWM.c **** 
 246:Generated_Source\PSoC5/Digital_PWM.c **** #if (Digital_PWM_UseOneCompareMode)
 247:Generated_Source\PSoC5/Digital_PWM.c ****     #if (Digital_PWM_CompareMode1SW)
 248:Generated_Source\PSoC5/Digital_PWM.c **** 
 249:Generated_Source\PSoC5/Digital_PWM.c **** 
 250:Generated_Source\PSoC5/Digital_PWM.c ****         /*******************************************************************************
 251:Generated_Source\PSoC5/Digital_PWM.c ****         * Function Name: Digital_PWM_SetCompareMode
 252:Generated_Source\PSoC5/Digital_PWM.c ****         ********************************************************************************
 253:Generated_Source\PSoC5/Digital_PWM.c ****         *
 254:Generated_Source\PSoC5/Digital_PWM.c ****         * Summary:
 255:Generated_Source\PSoC5/Digital_PWM.c ****         *  This function writes the Compare Mode for the pwm output when in Dither mode,
 256:Generated_Source\PSoC5/Digital_PWM.c ****         *  Center Align Mode or One Output Mode.
 257:Generated_Source\PSoC5/Digital_PWM.c ****         *
 258:Generated_Source\PSoC5/Digital_PWM.c ****         * Parameters:
 259:Generated_Source\PSoC5/Digital_PWM.c ****         *  comparemode:  The new compare mode for the PWM output. Use the compare types
 260:Generated_Source\PSoC5/Digital_PWM.c ****         *                defined in the H file as input arguments.
 261:Generated_Source\PSoC5/Digital_PWM.c ****         *
 262:Generated_Source\PSoC5/Digital_PWM.c ****         * Return:
 263:Generated_Source\PSoC5/Digital_PWM.c ****         *  None
 264:Generated_Source\PSoC5/Digital_PWM.c ****         *
 265:Generated_Source\PSoC5/Digital_PWM.c ****         *******************************************************************************/
 266:Generated_Source\PSoC5/Digital_PWM.c ****         void Digital_PWM_SetCompareMode(uint8 comparemode) 
 267:Generated_Source\PSoC5/Digital_PWM.c ****         {
 268:Generated_Source\PSoC5/Digital_PWM.c ****             #if(Digital_PWM_UsingFixedFunction)
 269:Generated_Source\PSoC5/Digital_PWM.c **** 
 270:Generated_Source\PSoC5/Digital_PWM.c ****                 #if(0 != Digital_PWM_CTRL_CMPMODE1_SHIFT)
ARM GAS  C:\Users\Greg\AppData\Local\Temp\ccGuoxFO.s 			page 10


 271:Generated_Source\PSoC5/Digital_PWM.c ****                     uint8 comparemodemasked = ((uint8)((uint8)comparemode << Digital_PWM_CTRL_CMPMO
 272:Generated_Source\PSoC5/Digital_PWM.c ****                 #else
 273:Generated_Source\PSoC5/Digital_PWM.c ****                     uint8 comparemodemasked = comparemode;
 274:Generated_Source\PSoC5/Digital_PWM.c ****                 #endif /* (0 != Digital_PWM_CTRL_CMPMODE1_SHIFT) */
 275:Generated_Source\PSoC5/Digital_PWM.c **** 
 276:Generated_Source\PSoC5/Digital_PWM.c ****                 Digital_PWM_CONTROL3 &= ((uint8)(~Digital_PWM_CTRL_CMPMODE1_MASK)); /*Clear Existin
 277:Generated_Source\PSoC5/Digital_PWM.c ****                 Digital_PWM_CONTROL3 |= comparemodemasked;
 278:Generated_Source\PSoC5/Digital_PWM.c **** 
 279:Generated_Source\PSoC5/Digital_PWM.c ****             #elif (Digital_PWM_UseControl)
 280:Generated_Source\PSoC5/Digital_PWM.c **** 
 281:Generated_Source\PSoC5/Digital_PWM.c ****                 #if(0 != Digital_PWM_CTRL_CMPMODE1_SHIFT)
 282:Generated_Source\PSoC5/Digital_PWM.c ****                     uint8 comparemode1masked = ((uint8)((uint8)comparemode << Digital_PWM_CTRL_CMPM
 283:Generated_Source\PSoC5/Digital_PWM.c ****                                                 Digital_PWM_CTRL_CMPMODE1_MASK;
 284:Generated_Source\PSoC5/Digital_PWM.c ****                 #else
 285:Generated_Source\PSoC5/Digital_PWM.c ****                     uint8 comparemode1masked = comparemode & Digital_PWM_CTRL_CMPMODE1_MASK;
 286:Generated_Source\PSoC5/Digital_PWM.c ****                 #endif /* (0 != Digital_PWM_CTRL_CMPMODE1_SHIFT) */
 287:Generated_Source\PSoC5/Digital_PWM.c **** 
 288:Generated_Source\PSoC5/Digital_PWM.c ****                 #if(0 != Digital_PWM_CTRL_CMPMODE2_SHIFT)
 289:Generated_Source\PSoC5/Digital_PWM.c ****                     uint8 comparemode2masked = ((uint8)((uint8)comparemode << Digital_PWM_CTRL_CMPM
 290:Generated_Source\PSoC5/Digital_PWM.c ****                                                Digital_PWM_CTRL_CMPMODE2_MASK;
 291:Generated_Source\PSoC5/Digital_PWM.c ****                 #else
 292:Generated_Source\PSoC5/Digital_PWM.c ****                     uint8 comparemode2masked = comparemode & Digital_PWM_CTRL_CMPMODE2_MASK;
 293:Generated_Source\PSoC5/Digital_PWM.c ****                 #endif /* (0 != Digital_PWM_CTRL_CMPMODE2_SHIFT) */
 294:Generated_Source\PSoC5/Digital_PWM.c **** 
 295:Generated_Source\PSoC5/Digital_PWM.c ****                 /*Clear existing mode */
 296:Generated_Source\PSoC5/Digital_PWM.c ****                 Digital_PWM_CONTROL &= ((uint8)(~(Digital_PWM_CTRL_CMPMODE1_MASK |
 297:Generated_Source\PSoC5/Digital_PWM.c ****                                             Digital_PWM_CTRL_CMPMODE2_MASK)));
 298:Generated_Source\PSoC5/Digital_PWM.c ****                 Digital_PWM_CONTROL |= (comparemode1masked | comparemode2masked);
 299:Generated_Source\PSoC5/Digital_PWM.c **** 
 300:Generated_Source\PSoC5/Digital_PWM.c ****             #else
 301:Generated_Source\PSoC5/Digital_PWM.c ****                 uint8 temp = comparemode;
 302:Generated_Source\PSoC5/Digital_PWM.c ****             #endif /* (Digital_PWM_UsingFixedFunction) */
 303:Generated_Source\PSoC5/Digital_PWM.c ****         }
 304:Generated_Source\PSoC5/Digital_PWM.c ****     #endif /* Digital_PWM_CompareMode1SW */
 305:Generated_Source\PSoC5/Digital_PWM.c **** 
 306:Generated_Source\PSoC5/Digital_PWM.c **** #else /* UseOneCompareMode */
 307:Generated_Source\PSoC5/Digital_PWM.c **** 
 308:Generated_Source\PSoC5/Digital_PWM.c ****     #if (Digital_PWM_CompareMode1SW)
 309:Generated_Source\PSoC5/Digital_PWM.c **** 
 310:Generated_Source\PSoC5/Digital_PWM.c **** 
 311:Generated_Source\PSoC5/Digital_PWM.c ****         /*******************************************************************************
 312:Generated_Source\PSoC5/Digital_PWM.c ****         * Function Name: Digital_PWM_SetCompareMode1
 313:Generated_Source\PSoC5/Digital_PWM.c ****         ********************************************************************************
 314:Generated_Source\PSoC5/Digital_PWM.c ****         *
 315:Generated_Source\PSoC5/Digital_PWM.c ****         * Summary:
 316:Generated_Source\PSoC5/Digital_PWM.c ****         *  This function writes the Compare Mode for the pwm or pwm1 output
 317:Generated_Source\PSoC5/Digital_PWM.c ****         *
 318:Generated_Source\PSoC5/Digital_PWM.c ****         * Parameters:
 319:Generated_Source\PSoC5/Digital_PWM.c ****         *  comparemode:  The new compare mode for the PWM output. Use the compare types
 320:Generated_Source\PSoC5/Digital_PWM.c ****         *                defined in the H file as input arguments.
 321:Generated_Source\PSoC5/Digital_PWM.c ****         *
 322:Generated_Source\PSoC5/Digital_PWM.c ****         * Return:
 323:Generated_Source\PSoC5/Digital_PWM.c ****         *  None
 324:Generated_Source\PSoC5/Digital_PWM.c ****         *
 325:Generated_Source\PSoC5/Digital_PWM.c ****         *******************************************************************************/
 326:Generated_Source\PSoC5/Digital_PWM.c ****         void Digital_PWM_SetCompareMode1(uint8 comparemode) 
 327:Generated_Source\PSoC5/Digital_PWM.c ****         {
ARM GAS  C:\Users\Greg\AppData\Local\Temp\ccGuoxFO.s 			page 11


 328:Generated_Source\PSoC5/Digital_PWM.c ****             #if(0 != Digital_PWM_CTRL_CMPMODE1_SHIFT)
 329:Generated_Source\PSoC5/Digital_PWM.c ****                 uint8 comparemodemasked = ((uint8)((uint8)comparemode << Digital_PWM_CTRL_CMPMODE1_
 330:Generated_Source\PSoC5/Digital_PWM.c ****                                            Digital_PWM_CTRL_CMPMODE1_MASK;
 331:Generated_Source\PSoC5/Digital_PWM.c ****             #else
 332:Generated_Source\PSoC5/Digital_PWM.c ****                 uint8 comparemodemasked = comparemode & Digital_PWM_CTRL_CMPMODE1_MASK;
 333:Generated_Source\PSoC5/Digital_PWM.c ****             #endif /* (0 != Digital_PWM_CTRL_CMPMODE1_SHIFT) */
 334:Generated_Source\PSoC5/Digital_PWM.c **** 
 335:Generated_Source\PSoC5/Digital_PWM.c ****             #if (Digital_PWM_UseControl)
 336:Generated_Source\PSoC5/Digital_PWM.c ****                 Digital_PWM_CONTROL &= ((uint8)(~Digital_PWM_CTRL_CMPMODE1_MASK)); /*Clear existing
 337:Generated_Source\PSoC5/Digital_PWM.c ****                 Digital_PWM_CONTROL |= comparemodemasked;
 338:Generated_Source\PSoC5/Digital_PWM.c ****             #endif /* (Digital_PWM_UseControl) */
 339:Generated_Source\PSoC5/Digital_PWM.c ****         }
 340:Generated_Source\PSoC5/Digital_PWM.c ****     #endif /* Digital_PWM_CompareMode1SW */
 341:Generated_Source\PSoC5/Digital_PWM.c **** 
 342:Generated_Source\PSoC5/Digital_PWM.c **** #if (Digital_PWM_CompareMode2SW)
 343:Generated_Source\PSoC5/Digital_PWM.c **** 
 344:Generated_Source\PSoC5/Digital_PWM.c **** 
 345:Generated_Source\PSoC5/Digital_PWM.c ****     /*******************************************************************************
 346:Generated_Source\PSoC5/Digital_PWM.c ****     * Function Name: Digital_PWM_SetCompareMode2
 347:Generated_Source\PSoC5/Digital_PWM.c ****     ********************************************************************************
 348:Generated_Source\PSoC5/Digital_PWM.c ****     *
 349:Generated_Source\PSoC5/Digital_PWM.c ****     * Summary:
 350:Generated_Source\PSoC5/Digital_PWM.c ****     *  This function writes the Compare Mode for the pwm or pwm2 output
 351:Generated_Source\PSoC5/Digital_PWM.c ****     *
 352:Generated_Source\PSoC5/Digital_PWM.c ****     * Parameters:
 353:Generated_Source\PSoC5/Digital_PWM.c ****     *  comparemode:  The new compare mode for the PWM output. Use the compare types
 354:Generated_Source\PSoC5/Digital_PWM.c ****     *                defined in the H file as input arguments.
 355:Generated_Source\PSoC5/Digital_PWM.c ****     *
 356:Generated_Source\PSoC5/Digital_PWM.c ****     * Return:
 357:Generated_Source\PSoC5/Digital_PWM.c ****     *  None
 358:Generated_Source\PSoC5/Digital_PWM.c ****     *
 359:Generated_Source\PSoC5/Digital_PWM.c ****     *******************************************************************************/
 360:Generated_Source\PSoC5/Digital_PWM.c ****     void Digital_PWM_SetCompareMode2(uint8 comparemode) 
 361:Generated_Source\PSoC5/Digital_PWM.c ****     {
 362:Generated_Source\PSoC5/Digital_PWM.c **** 
 363:Generated_Source\PSoC5/Digital_PWM.c ****         #if(0 != Digital_PWM_CTRL_CMPMODE2_SHIFT)
 364:Generated_Source\PSoC5/Digital_PWM.c ****             uint8 comparemodemasked = ((uint8)((uint8)comparemode << Digital_PWM_CTRL_CMPMODE2_SHIF
 365:Generated_Source\PSoC5/Digital_PWM.c ****                                                  Digital_PWM_CTRL_CMPMODE2_MASK;
 366:Generated_Source\PSoC5/Digital_PWM.c ****         #else
 367:Generated_Source\PSoC5/Digital_PWM.c ****             uint8 comparemodemasked = comparemode & Digital_PWM_CTRL_CMPMODE2_MASK;
 368:Generated_Source\PSoC5/Digital_PWM.c ****         #endif /* (0 != Digital_PWM_CTRL_CMPMODE2_SHIFT) */
 369:Generated_Source\PSoC5/Digital_PWM.c **** 
 370:Generated_Source\PSoC5/Digital_PWM.c ****         #if (Digital_PWM_UseControl)
 371:Generated_Source\PSoC5/Digital_PWM.c ****             Digital_PWM_CONTROL &= ((uint8)(~Digital_PWM_CTRL_CMPMODE2_MASK)); /*Clear existing mod
 372:Generated_Source\PSoC5/Digital_PWM.c ****             Digital_PWM_CONTROL |= comparemodemasked;
 373:Generated_Source\PSoC5/Digital_PWM.c ****         #endif /* (Digital_PWM_UseControl) */
 374:Generated_Source\PSoC5/Digital_PWM.c ****     }
 375:Generated_Source\PSoC5/Digital_PWM.c ****     #endif /*Digital_PWM_CompareMode2SW */
 376:Generated_Source\PSoC5/Digital_PWM.c **** 
 377:Generated_Source\PSoC5/Digital_PWM.c **** #endif /* UseOneCompareMode */
 378:Generated_Source\PSoC5/Digital_PWM.c **** 
 379:Generated_Source\PSoC5/Digital_PWM.c **** 
 380:Generated_Source\PSoC5/Digital_PWM.c **** #if (!Digital_PWM_UsingFixedFunction)
 381:Generated_Source\PSoC5/Digital_PWM.c **** 
 382:Generated_Source\PSoC5/Digital_PWM.c **** 
 383:Generated_Source\PSoC5/Digital_PWM.c ****     /*******************************************************************************
 384:Generated_Source\PSoC5/Digital_PWM.c ****     * Function Name: Digital_PWM_WriteCounter
ARM GAS  C:\Users\Greg\AppData\Local\Temp\ccGuoxFO.s 			page 12


 385:Generated_Source\PSoC5/Digital_PWM.c ****     ********************************************************************************
 386:Generated_Source\PSoC5/Digital_PWM.c ****     *
 387:Generated_Source\PSoC5/Digital_PWM.c ****     * Summary:
 388:Generated_Source\PSoC5/Digital_PWM.c ****     *  Writes a new counter value directly to the counter register. This will be
 389:Generated_Source\PSoC5/Digital_PWM.c ****     *  implemented for that currently running period and only that period. This API
 390:Generated_Source\PSoC5/Digital_PWM.c ****     *  is valid only for UDB implementation and not available for fixed function
 391:Generated_Source\PSoC5/Digital_PWM.c ****     *  PWM implementation.
 392:Generated_Source\PSoC5/Digital_PWM.c ****     *
 393:Generated_Source\PSoC5/Digital_PWM.c ****     * Parameters:
 394:Generated_Source\PSoC5/Digital_PWM.c ****     *  counter:  The period new period counter value.
 395:Generated_Source\PSoC5/Digital_PWM.c ****     *
 396:Generated_Source\PSoC5/Digital_PWM.c ****     * Return:
 397:Generated_Source\PSoC5/Digital_PWM.c ****     *  None
 398:Generated_Source\PSoC5/Digital_PWM.c ****     *
 399:Generated_Source\PSoC5/Digital_PWM.c ****     * Side Effects:
 400:Generated_Source\PSoC5/Digital_PWM.c ****     *  The PWM Period will be reloaded when a counter value will be a zero
 401:Generated_Source\PSoC5/Digital_PWM.c ****     *
 402:Generated_Source\PSoC5/Digital_PWM.c ****     *******************************************************************************/
 403:Generated_Source\PSoC5/Digital_PWM.c ****     void Digital_PWM_WriteCounter(uint8 counter) \
 404:Generated_Source\PSoC5/Digital_PWM.c ****                                        
 405:Generated_Source\PSoC5/Digital_PWM.c ****     {
 244              		.loc 1 405 0
 245              		.cfi_startproc
 246              		@ args = 0, pretend = 0, frame = 8
 247              		@ frame_needed = 1, uses_anonymous_args = 0
 248              		@ link register save eliminated.
 249 0000 80B4     		push	{r7}
 250              		.cfi_def_cfa_offset 4
 251              		.cfi_offset 7, -4
 252 0002 83B0     		sub	sp, sp, #12
 253              		.cfi_def_cfa_offset 16
 254 0004 00AF     		add	r7, sp, #0
 255              		.cfi_def_cfa_register 7
 256 0006 0346     		mov	r3, r0
 257 0008 FB71     		strb	r3, [r7, #7]
 406:Generated_Source\PSoC5/Digital_PWM.c ****         CY_SET_REG8(Digital_PWM_COUNTER_LSB_PTR, counter);
 258              		.loc 1 406 0
 259 000a 044A     		ldr	r2, .L15
 260 000c FB79     		ldrb	r3, [r7, #7]
 261 000e 1370     		strb	r3, [r2]
 407:Generated_Source\PSoC5/Digital_PWM.c ****     }
 262              		.loc 1 407 0
 263 0010 0C37     		adds	r7, r7, #12
 264              		.cfi_def_cfa_offset 4
 265 0012 BD46     		mov	sp, r7
 266              		.cfi_def_cfa_register 13
 267              		@ sp needed
 268 0014 5DF8047B 		ldr	r7, [sp], #4
 269              		.cfi_restore 7
 270              		.cfi_def_cfa_offset 0
 271 0018 7047     		bx	lr
 272              	.L16:
 273 001a 00BF     		.align	2
 274              	.L15:
 275 001c 03640040 		.word	1073767427
 276              		.cfi_endproc
 277              	.LFE4:
ARM GAS  C:\Users\Greg\AppData\Local\Temp\ccGuoxFO.s 			page 13


 278              		.size	Digital_PWM_WriteCounter, .-Digital_PWM_WriteCounter
 279              		.section	.text.Digital_PWM_ReadCounter,"ax",%progbits
 280              		.align	2
 281              		.global	Digital_PWM_ReadCounter
 282              		.thumb
 283              		.thumb_func
 284              		.type	Digital_PWM_ReadCounter, %function
 285              	Digital_PWM_ReadCounter:
 286              	.LFB5:
 408:Generated_Source\PSoC5/Digital_PWM.c **** 
 409:Generated_Source\PSoC5/Digital_PWM.c **** 
 410:Generated_Source\PSoC5/Digital_PWM.c ****     /*******************************************************************************
 411:Generated_Source\PSoC5/Digital_PWM.c ****     * Function Name: Digital_PWM_ReadCounter
 412:Generated_Source\PSoC5/Digital_PWM.c ****     ********************************************************************************
 413:Generated_Source\PSoC5/Digital_PWM.c ****     *
 414:Generated_Source\PSoC5/Digital_PWM.c ****     * Summary:
 415:Generated_Source\PSoC5/Digital_PWM.c ****     *  This function returns the current value of the counter.  It doesn't matter
 416:Generated_Source\PSoC5/Digital_PWM.c ****     *  if the counter is enabled or running.
 417:Generated_Source\PSoC5/Digital_PWM.c ****     *
 418:Generated_Source\PSoC5/Digital_PWM.c ****     * Parameters:
 419:Generated_Source\PSoC5/Digital_PWM.c ****     *  None
 420:Generated_Source\PSoC5/Digital_PWM.c ****     *
 421:Generated_Source\PSoC5/Digital_PWM.c ****     * Return:
 422:Generated_Source\PSoC5/Digital_PWM.c ****     *  The current value of the counter.
 423:Generated_Source\PSoC5/Digital_PWM.c ****     *
 424:Generated_Source\PSoC5/Digital_PWM.c ****     *******************************************************************************/
 425:Generated_Source\PSoC5/Digital_PWM.c ****     uint8 Digital_PWM_ReadCounter(void) 
 426:Generated_Source\PSoC5/Digital_PWM.c ****     {
 287              		.loc 1 426 0
 288              		.cfi_startproc
 289              		@ args = 0, pretend = 0, frame = 0
 290              		@ frame_needed = 1, uses_anonymous_args = 0
 291              		@ link register save eliminated.
 292 0000 80B4     		push	{r7}
 293              		.cfi_def_cfa_offset 4
 294              		.cfi_offset 7, -4
 295 0002 00AF     		add	r7, sp, #0
 296              		.cfi_def_cfa_register 7
 427:Generated_Source\PSoC5/Digital_PWM.c ****         /* Force capture by reading Accumulator */
 428:Generated_Source\PSoC5/Digital_PWM.c ****         /* Must first do a software capture to be able to read the counter */
 429:Generated_Source\PSoC5/Digital_PWM.c ****         /* It is up to the user code to make sure there isn't already captured data in the FIFO */
 430:Generated_Source\PSoC5/Digital_PWM.c ****           (void)CY_GET_REG8(Digital_PWM_COUNTERCAP_LSB_PTR_8BIT);
 297              		.loc 1 430 0
 298 0004 044B     		ldr	r3, .L19
 299 0006 1B78     		ldrb	r3, [r3]
 431:Generated_Source\PSoC5/Digital_PWM.c **** 
 432:Generated_Source\PSoC5/Digital_PWM.c ****         /* Read the data from the FIFO */
 433:Generated_Source\PSoC5/Digital_PWM.c ****         return (CY_GET_REG8(Digital_PWM_CAPTURE_LSB_PTR));
 300              		.loc 1 433 0
 301 0008 044B     		ldr	r3, .L19+4
 302 000a 1B78     		ldrb	r3, [r3]
 303 000c DBB2     		uxtb	r3, r3
 434:Generated_Source\PSoC5/Digital_PWM.c ****     }
 304              		.loc 1 434 0
 305 000e 1846     		mov	r0, r3
 306 0010 BD46     		mov	sp, r7
 307              		.cfi_def_cfa_register 13
ARM GAS  C:\Users\Greg\AppData\Local\Temp\ccGuoxFO.s 			page 14


 308              		@ sp needed
 309 0012 5DF8047B 		ldr	r7, [sp], #4
 310              		.cfi_restore 7
 311              		.cfi_def_cfa_offset 0
 312 0016 7047     		bx	lr
 313              	.L20:
 314              		.align	2
 315              	.L19:
 316 0018 13640040 		.word	1073767443
 317 001c 53640040 		.word	1073767507
 318              		.cfi_endproc
 319              	.LFE5:
 320              		.size	Digital_PWM_ReadCounter, .-Digital_PWM_ReadCounter
 321              		.section	.text.Digital_PWM_ClearFIFO,"ax",%progbits
 322              		.align	2
 323              		.global	Digital_PWM_ClearFIFO
 324              		.thumb
 325              		.thumb_func
 326              		.type	Digital_PWM_ClearFIFO, %function
 327              	Digital_PWM_ClearFIFO:
 328              	.LFB6:
 435:Generated_Source\PSoC5/Digital_PWM.c **** 
 436:Generated_Source\PSoC5/Digital_PWM.c ****     #if (Digital_PWM_UseStatus)
 437:Generated_Source\PSoC5/Digital_PWM.c **** 
 438:Generated_Source\PSoC5/Digital_PWM.c **** 
 439:Generated_Source\PSoC5/Digital_PWM.c ****         /*******************************************************************************
 440:Generated_Source\PSoC5/Digital_PWM.c ****         * Function Name: Digital_PWM_ClearFIFO
 441:Generated_Source\PSoC5/Digital_PWM.c ****         ********************************************************************************
 442:Generated_Source\PSoC5/Digital_PWM.c ****         *
 443:Generated_Source\PSoC5/Digital_PWM.c ****         * Summary:
 444:Generated_Source\PSoC5/Digital_PWM.c ****         *  This function clears all capture data from the capture FIFO
 445:Generated_Source\PSoC5/Digital_PWM.c ****         *
 446:Generated_Source\PSoC5/Digital_PWM.c ****         * Parameters:
 447:Generated_Source\PSoC5/Digital_PWM.c ****         *  None
 448:Generated_Source\PSoC5/Digital_PWM.c ****         *
 449:Generated_Source\PSoC5/Digital_PWM.c ****         * Return:
 450:Generated_Source\PSoC5/Digital_PWM.c ****         *  None
 451:Generated_Source\PSoC5/Digital_PWM.c ****         *
 452:Generated_Source\PSoC5/Digital_PWM.c ****         *******************************************************************************/
 453:Generated_Source\PSoC5/Digital_PWM.c ****         void Digital_PWM_ClearFIFO(void) 
 454:Generated_Source\PSoC5/Digital_PWM.c ****         {
 329              		.loc 1 454 0
 330              		.cfi_startproc
 331              		@ args = 0, pretend = 0, frame = 0
 332              		@ frame_needed = 1, uses_anonymous_args = 0
 333 0000 80B5     		push	{r7, lr}
 334              		.cfi_def_cfa_offset 8
 335              		.cfi_offset 7, -8
 336              		.cfi_offset 14, -4
 337 0002 00AF     		add	r7, sp, #0
 338              		.cfi_def_cfa_register 7
 455:Generated_Source\PSoC5/Digital_PWM.c ****             while(0u != (Digital_PWM_ReadStatusRegister() & Digital_PWM_STATUS_FIFONEMPTY))
 339              		.loc 1 455 0
 340 0004 01E0     		b	.L22
 341              	.L23:
 456:Generated_Source\PSoC5/Digital_PWM.c ****             {
 457:Generated_Source\PSoC5/Digital_PWM.c ****                 (void)Digital_PWM_ReadCapture();
ARM GAS  C:\Users\Greg\AppData\Local\Temp\ccGuoxFO.s 			page 15


 342              		.loc 1 457 0
 343 0006 FFF7FEFF 		bl	Digital_PWM_ReadCapture
 344              	.L22:
 455:Generated_Source\PSoC5/Digital_PWM.c ****             while(0u != (Digital_PWM_ReadStatusRegister() & Digital_PWM_STATUS_FIFONEMPTY))
 345              		.loc 1 455 0
 346 000a FFF7FEFF 		bl	Digital_PWM_ReadStatusRegister
 347 000e 0346     		mov	r3, r0
 348 0010 03F01003 		and	r3, r3, #16
 349 0014 002B     		cmp	r3, #0
 350 0016 F6D1     		bne	.L23
 458:Generated_Source\PSoC5/Digital_PWM.c ****             }
 459:Generated_Source\PSoC5/Digital_PWM.c ****         }
 351              		.loc 1 459 0
 352 0018 80BD     		pop	{r7, pc}
 353              		.cfi_endproc
 354              	.LFE6:
 355              		.size	Digital_PWM_ClearFIFO, .-Digital_PWM_ClearFIFO
 356 001a 00BF     		.section	.text.Digital_PWM_WritePeriod,"ax",%progbits
 357              		.align	2
 358              		.global	Digital_PWM_WritePeriod
 359              		.thumb
 360              		.thumb_func
 361              		.type	Digital_PWM_WritePeriod, %function
 362              	Digital_PWM_WritePeriod:
 363              	.LFB7:
 460:Generated_Source\PSoC5/Digital_PWM.c **** 
 461:Generated_Source\PSoC5/Digital_PWM.c ****     #endif /* Digital_PWM_UseStatus */
 462:Generated_Source\PSoC5/Digital_PWM.c **** 
 463:Generated_Source\PSoC5/Digital_PWM.c **** #endif /* !Digital_PWM_UsingFixedFunction */
 464:Generated_Source\PSoC5/Digital_PWM.c **** 
 465:Generated_Source\PSoC5/Digital_PWM.c **** 
 466:Generated_Source\PSoC5/Digital_PWM.c **** /*******************************************************************************
 467:Generated_Source\PSoC5/Digital_PWM.c **** * Function Name: Digital_PWM_WritePeriod
 468:Generated_Source\PSoC5/Digital_PWM.c **** ********************************************************************************
 469:Generated_Source\PSoC5/Digital_PWM.c **** *
 470:Generated_Source\PSoC5/Digital_PWM.c **** * Summary:
 471:Generated_Source\PSoC5/Digital_PWM.c **** *  This function is used to change the period of the counter.  The new period
 472:Generated_Source\PSoC5/Digital_PWM.c **** *  will be loaded the next time terminal count is detected.
 473:Generated_Source\PSoC5/Digital_PWM.c **** *
 474:Generated_Source\PSoC5/Digital_PWM.c **** * Parameters:
 475:Generated_Source\PSoC5/Digital_PWM.c **** *  period:  Period value. May be between 1 and (2^Resolution)-1.  A value of 0
 476:Generated_Source\PSoC5/Digital_PWM.c **** *           will result in the counter remaining at zero.
 477:Generated_Source\PSoC5/Digital_PWM.c **** *
 478:Generated_Source\PSoC5/Digital_PWM.c **** * Return:
 479:Generated_Source\PSoC5/Digital_PWM.c **** *  None
 480:Generated_Source\PSoC5/Digital_PWM.c **** *
 481:Generated_Source\PSoC5/Digital_PWM.c **** *******************************************************************************/
 482:Generated_Source\PSoC5/Digital_PWM.c **** void Digital_PWM_WritePeriod(uint8 period) 
 483:Generated_Source\PSoC5/Digital_PWM.c **** {
 364              		.loc 1 483 0
 365              		.cfi_startproc
 366              		@ args = 0, pretend = 0, frame = 8
 367              		@ frame_needed = 1, uses_anonymous_args = 0
 368              		@ link register save eliminated.
 369 0000 80B4     		push	{r7}
 370              		.cfi_def_cfa_offset 4
 371              		.cfi_offset 7, -4
ARM GAS  C:\Users\Greg\AppData\Local\Temp\ccGuoxFO.s 			page 16


 372 0002 83B0     		sub	sp, sp, #12
 373              		.cfi_def_cfa_offset 16
 374 0004 00AF     		add	r7, sp, #0
 375              		.cfi_def_cfa_register 7
 376 0006 0346     		mov	r3, r0
 377 0008 FB71     		strb	r3, [r7, #7]
 484:Generated_Source\PSoC5/Digital_PWM.c ****     #if(Digital_PWM_UsingFixedFunction)
 485:Generated_Source\PSoC5/Digital_PWM.c ****         CY_SET_REG16(Digital_PWM_PERIOD_LSB_PTR, (uint16)period);
 486:Generated_Source\PSoC5/Digital_PWM.c ****     #else
 487:Generated_Source\PSoC5/Digital_PWM.c ****         CY_SET_REG8(Digital_PWM_PERIOD_LSB_PTR, period);
 378              		.loc 1 487 0
 379 000a 044A     		ldr	r2, .L25
 380 000c FB79     		ldrb	r3, [r7, #7]
 381 000e 1370     		strb	r3, [r2]
 488:Generated_Source\PSoC5/Digital_PWM.c ****     #endif /* (Digital_PWM_UsingFixedFunction) */
 489:Generated_Source\PSoC5/Digital_PWM.c **** }
 382              		.loc 1 489 0
 383 0010 0C37     		adds	r7, r7, #12
 384              		.cfi_def_cfa_offset 4
 385 0012 BD46     		mov	sp, r7
 386              		.cfi_def_cfa_register 13
 387              		@ sp needed
 388 0014 5DF8047B 		ldr	r7, [sp], #4
 389              		.cfi_restore 7
 390              		.cfi_def_cfa_offset 0
 391 0018 7047     		bx	lr
 392              	.L26:
 393 001a 00BF     		.align	2
 394              	.L25:
 395 001c 43640040 		.word	1073767491
 396              		.cfi_endproc
 397              	.LFE7:
 398              		.size	Digital_PWM_WritePeriod, .-Digital_PWM_WritePeriod
 399              		.section	.text.Digital_PWM_WriteCompare1,"ax",%progbits
 400              		.align	2
 401              		.global	Digital_PWM_WriteCompare1
 402              		.thumb
 403              		.thumb_func
 404              		.type	Digital_PWM_WriteCompare1, %function
 405              	Digital_PWM_WriteCompare1:
 406              	.LFB8:
 490:Generated_Source\PSoC5/Digital_PWM.c **** 
 491:Generated_Source\PSoC5/Digital_PWM.c **** #if (Digital_PWM_UseOneCompareMode)
 492:Generated_Source\PSoC5/Digital_PWM.c **** 
 493:Generated_Source\PSoC5/Digital_PWM.c **** 
 494:Generated_Source\PSoC5/Digital_PWM.c ****     /*******************************************************************************
 495:Generated_Source\PSoC5/Digital_PWM.c ****     * Function Name: Digital_PWM_WriteCompare
 496:Generated_Source\PSoC5/Digital_PWM.c ****     ********************************************************************************
 497:Generated_Source\PSoC5/Digital_PWM.c ****     *
 498:Generated_Source\PSoC5/Digital_PWM.c ****     * Summary:
 499:Generated_Source\PSoC5/Digital_PWM.c ****     *  This funtion is used to change the compare1 value when the PWM is in Dither
 500:Generated_Source\PSoC5/Digital_PWM.c ****     *  mode. The compare output will reflect the new value on the next UDB clock.
 501:Generated_Source\PSoC5/Digital_PWM.c ****     *  The compare output will be driven high when the present counter value is
 502:Generated_Source\PSoC5/Digital_PWM.c ****     *  compared to the compare value based on the compare mode defined in
 503:Generated_Source\PSoC5/Digital_PWM.c ****     *  Dither Mode.
 504:Generated_Source\PSoC5/Digital_PWM.c ****     *
 505:Generated_Source\PSoC5/Digital_PWM.c ****     * Parameters:
ARM GAS  C:\Users\Greg\AppData\Local\Temp\ccGuoxFO.s 			page 17


 506:Generated_Source\PSoC5/Digital_PWM.c ****     *  compare:  New compare value.
 507:Generated_Source\PSoC5/Digital_PWM.c ****     *
 508:Generated_Source\PSoC5/Digital_PWM.c ****     * Return:
 509:Generated_Source\PSoC5/Digital_PWM.c ****     *  None
 510:Generated_Source\PSoC5/Digital_PWM.c ****     *
 511:Generated_Source\PSoC5/Digital_PWM.c ****     * Side Effects:
 512:Generated_Source\PSoC5/Digital_PWM.c ****     *  This function is only available if the PWM mode parameter is set to
 513:Generated_Source\PSoC5/Digital_PWM.c ****     *  Dither Mode, Center Aligned Mode or One Output Mode
 514:Generated_Source\PSoC5/Digital_PWM.c ****     *
 515:Generated_Source\PSoC5/Digital_PWM.c ****     *******************************************************************************/
 516:Generated_Source\PSoC5/Digital_PWM.c ****     void Digital_PWM_WriteCompare(uint8 compare) \
 517:Generated_Source\PSoC5/Digital_PWM.c ****                                        
 518:Generated_Source\PSoC5/Digital_PWM.c ****     {
 519:Generated_Source\PSoC5/Digital_PWM.c ****         #if(Digital_PWM_UsingFixedFunction)
 520:Generated_Source\PSoC5/Digital_PWM.c ****             CY_SET_REG16(Digital_PWM_COMPARE1_LSB_PTR, (uint16)compare);
 521:Generated_Source\PSoC5/Digital_PWM.c ****         #else
 522:Generated_Source\PSoC5/Digital_PWM.c ****             CY_SET_REG8(Digital_PWM_COMPARE1_LSB_PTR, compare);
 523:Generated_Source\PSoC5/Digital_PWM.c ****         #endif /* (Digital_PWM_UsingFixedFunction) */
 524:Generated_Source\PSoC5/Digital_PWM.c **** 
 525:Generated_Source\PSoC5/Digital_PWM.c ****         #if (Digital_PWM_PWMMode == Digital_PWM__B_PWM__DITHER)
 526:Generated_Source\PSoC5/Digital_PWM.c ****             #if(Digital_PWM_UsingFixedFunction)
 527:Generated_Source\PSoC5/Digital_PWM.c ****                 CY_SET_REG16(Digital_PWM_COMPARE2_LSB_PTR, (uint16)(compare + 1u));
 528:Generated_Source\PSoC5/Digital_PWM.c ****             #else
 529:Generated_Source\PSoC5/Digital_PWM.c ****                 CY_SET_REG8(Digital_PWM_COMPARE2_LSB_PTR, (compare + 1u));
 530:Generated_Source\PSoC5/Digital_PWM.c ****             #endif /* (Digital_PWM_UsingFixedFunction) */
 531:Generated_Source\PSoC5/Digital_PWM.c ****         #endif /* (Digital_PWM_PWMMode == Digital_PWM__B_PWM__DITHER) */
 532:Generated_Source\PSoC5/Digital_PWM.c ****     }
 533:Generated_Source\PSoC5/Digital_PWM.c **** 
 534:Generated_Source\PSoC5/Digital_PWM.c **** 
 535:Generated_Source\PSoC5/Digital_PWM.c **** #else
 536:Generated_Source\PSoC5/Digital_PWM.c **** 
 537:Generated_Source\PSoC5/Digital_PWM.c **** 
 538:Generated_Source\PSoC5/Digital_PWM.c ****     /*******************************************************************************
 539:Generated_Source\PSoC5/Digital_PWM.c ****     * Function Name: Digital_PWM_WriteCompare1
 540:Generated_Source\PSoC5/Digital_PWM.c ****     ********************************************************************************
 541:Generated_Source\PSoC5/Digital_PWM.c ****     *
 542:Generated_Source\PSoC5/Digital_PWM.c ****     * Summary:
 543:Generated_Source\PSoC5/Digital_PWM.c ****     *  This funtion is used to change the compare1 value.  The compare output will
 544:Generated_Source\PSoC5/Digital_PWM.c ****     *  reflect the new value on the next UDB clock.  The compare output will be
 545:Generated_Source\PSoC5/Digital_PWM.c ****     *  driven high when the present counter value is less than or less than or
 546:Generated_Source\PSoC5/Digital_PWM.c ****     *  equal to the compare register, depending on the mode.
 547:Generated_Source\PSoC5/Digital_PWM.c ****     *
 548:Generated_Source\PSoC5/Digital_PWM.c ****     * Parameters:
 549:Generated_Source\PSoC5/Digital_PWM.c ****     *  compare:  New compare value.
 550:Generated_Source\PSoC5/Digital_PWM.c ****     *
 551:Generated_Source\PSoC5/Digital_PWM.c ****     * Return:
 552:Generated_Source\PSoC5/Digital_PWM.c ****     *  None
 553:Generated_Source\PSoC5/Digital_PWM.c ****     *
 554:Generated_Source\PSoC5/Digital_PWM.c ****     *******************************************************************************/
 555:Generated_Source\PSoC5/Digital_PWM.c ****     void Digital_PWM_WriteCompare1(uint8 compare) \
 556:Generated_Source\PSoC5/Digital_PWM.c ****                                         
 557:Generated_Source\PSoC5/Digital_PWM.c ****     {
 407              		.loc 1 557 0
 408              		.cfi_startproc
 409              		@ args = 0, pretend = 0, frame = 8
 410              		@ frame_needed = 1, uses_anonymous_args = 0
 411              		@ link register save eliminated.
ARM GAS  C:\Users\Greg\AppData\Local\Temp\ccGuoxFO.s 			page 18


 412 0000 80B4     		push	{r7}
 413              		.cfi_def_cfa_offset 4
 414              		.cfi_offset 7, -4
 415 0002 83B0     		sub	sp, sp, #12
 416              		.cfi_def_cfa_offset 16
 417 0004 00AF     		add	r7, sp, #0
 418              		.cfi_def_cfa_register 7
 419 0006 0346     		mov	r3, r0
 420 0008 FB71     		strb	r3, [r7, #7]
 558:Generated_Source\PSoC5/Digital_PWM.c ****         #if(Digital_PWM_UsingFixedFunction)
 559:Generated_Source\PSoC5/Digital_PWM.c ****             CY_SET_REG16(Digital_PWM_COMPARE1_LSB_PTR, (uint16)compare);
 560:Generated_Source\PSoC5/Digital_PWM.c ****         #else
 561:Generated_Source\PSoC5/Digital_PWM.c ****             CY_SET_REG8(Digital_PWM_COMPARE1_LSB_PTR, compare);
 421              		.loc 1 561 0
 422 000a 044A     		ldr	r2, .L28
 423 000c FB79     		ldrb	r3, [r7, #7]
 424 000e 1370     		strb	r3, [r2]
 562:Generated_Source\PSoC5/Digital_PWM.c ****         #endif /* (Digital_PWM_UsingFixedFunction) */
 563:Generated_Source\PSoC5/Digital_PWM.c ****     }
 425              		.loc 1 563 0
 426 0010 0C37     		adds	r7, r7, #12
 427              		.cfi_def_cfa_offset 4
 428 0012 BD46     		mov	sp, r7
 429              		.cfi_def_cfa_register 13
 430              		@ sp needed
 431 0014 5DF8047B 		ldr	r7, [sp], #4
 432              		.cfi_restore 7
 433              		.cfi_def_cfa_offset 0
 434 0018 7047     		bx	lr
 435              	.L29:
 436 001a 00BF     		.align	2
 437              	.L28:
 438 001c 23640040 		.word	1073767459
 439              		.cfi_endproc
 440              	.LFE8:
 441              		.size	Digital_PWM_WriteCompare1, .-Digital_PWM_WriteCompare1
 442              		.section	.text.Digital_PWM_WriteCompare2,"ax",%progbits
 443              		.align	2
 444              		.global	Digital_PWM_WriteCompare2
 445              		.thumb
 446              		.thumb_func
 447              		.type	Digital_PWM_WriteCompare2, %function
 448              	Digital_PWM_WriteCompare2:
 449              	.LFB9:
 564:Generated_Source\PSoC5/Digital_PWM.c **** 
 565:Generated_Source\PSoC5/Digital_PWM.c **** 
 566:Generated_Source\PSoC5/Digital_PWM.c ****     /*******************************************************************************
 567:Generated_Source\PSoC5/Digital_PWM.c ****     * Function Name: Digital_PWM_WriteCompare2
 568:Generated_Source\PSoC5/Digital_PWM.c ****     ********************************************************************************
 569:Generated_Source\PSoC5/Digital_PWM.c ****     *
 570:Generated_Source\PSoC5/Digital_PWM.c ****     * Summary:
 571:Generated_Source\PSoC5/Digital_PWM.c ****     *  This funtion is used to change the compare value, for compare1 output.
 572:Generated_Source\PSoC5/Digital_PWM.c ****     *  The compare output will reflect the new value on the next UDB clock.
 573:Generated_Source\PSoC5/Digital_PWM.c ****     *  The compare output will be driven high when the present counter value is
 574:Generated_Source\PSoC5/Digital_PWM.c ****     *  less than or less than or equal to the compare register, depending on the
 575:Generated_Source\PSoC5/Digital_PWM.c ****     *  mode.
 576:Generated_Source\PSoC5/Digital_PWM.c ****     *
ARM GAS  C:\Users\Greg\AppData\Local\Temp\ccGuoxFO.s 			page 19


 577:Generated_Source\PSoC5/Digital_PWM.c ****     * Parameters:
 578:Generated_Source\PSoC5/Digital_PWM.c ****     *  compare:  New compare value.
 579:Generated_Source\PSoC5/Digital_PWM.c ****     *
 580:Generated_Source\PSoC5/Digital_PWM.c ****     * Return:
 581:Generated_Source\PSoC5/Digital_PWM.c ****     *  None
 582:Generated_Source\PSoC5/Digital_PWM.c ****     *
 583:Generated_Source\PSoC5/Digital_PWM.c ****     *******************************************************************************/
 584:Generated_Source\PSoC5/Digital_PWM.c ****     void Digital_PWM_WriteCompare2(uint8 compare) \
 585:Generated_Source\PSoC5/Digital_PWM.c ****                                         
 586:Generated_Source\PSoC5/Digital_PWM.c ****     {
 450              		.loc 1 586 0
 451              		.cfi_startproc
 452              		@ args = 0, pretend = 0, frame = 8
 453              		@ frame_needed = 1, uses_anonymous_args = 0
 454              		@ link register save eliminated.
 455 0000 80B4     		push	{r7}
 456              		.cfi_def_cfa_offset 4
 457              		.cfi_offset 7, -4
 458 0002 83B0     		sub	sp, sp, #12
 459              		.cfi_def_cfa_offset 16
 460 0004 00AF     		add	r7, sp, #0
 461              		.cfi_def_cfa_register 7
 462 0006 0346     		mov	r3, r0
 463 0008 FB71     		strb	r3, [r7, #7]
 587:Generated_Source\PSoC5/Digital_PWM.c ****         #if(Digital_PWM_UsingFixedFunction)
 588:Generated_Source\PSoC5/Digital_PWM.c ****             CY_SET_REG16(Digital_PWM_COMPARE2_LSB_PTR, compare);
 589:Generated_Source\PSoC5/Digital_PWM.c ****         #else
 590:Generated_Source\PSoC5/Digital_PWM.c ****             CY_SET_REG8(Digital_PWM_COMPARE2_LSB_PTR, compare);
 464              		.loc 1 590 0
 465 000a 044A     		ldr	r2, .L31
 466 000c FB79     		ldrb	r3, [r7, #7]
 467 000e 1370     		strb	r3, [r2]
 591:Generated_Source\PSoC5/Digital_PWM.c ****         #endif /* (Digital_PWM_UsingFixedFunction) */
 592:Generated_Source\PSoC5/Digital_PWM.c ****     }
 468              		.loc 1 592 0
 469 0010 0C37     		adds	r7, r7, #12
 470              		.cfi_def_cfa_offset 4
 471 0012 BD46     		mov	sp, r7
 472              		.cfi_def_cfa_register 13
 473              		@ sp needed
 474 0014 5DF8047B 		ldr	r7, [sp], #4
 475              		.cfi_restore 7
 476              		.cfi_def_cfa_offset 0
 477 0018 7047     		bx	lr
 478              	.L32:
 479 001a 00BF     		.align	2
 480              	.L31:
 481 001c 33640040 		.word	1073767475
 482              		.cfi_endproc
 483              	.LFE9:
 484              		.size	Digital_PWM_WriteCompare2, .-Digital_PWM_WriteCompare2
 485              		.section	.text.Digital_PWM_SetInterruptMode,"ax",%progbits
 486              		.align	2
 487              		.global	Digital_PWM_SetInterruptMode
 488              		.thumb
 489              		.thumb_func
 490              		.type	Digital_PWM_SetInterruptMode, %function
ARM GAS  C:\Users\Greg\AppData\Local\Temp\ccGuoxFO.s 			page 20


 491              	Digital_PWM_SetInterruptMode:
 492              	.LFB10:
 593:Generated_Source\PSoC5/Digital_PWM.c **** #endif /* UseOneCompareMode */
 594:Generated_Source\PSoC5/Digital_PWM.c **** 
 595:Generated_Source\PSoC5/Digital_PWM.c **** #if (Digital_PWM_DeadBandUsed)
 596:Generated_Source\PSoC5/Digital_PWM.c **** 
 597:Generated_Source\PSoC5/Digital_PWM.c **** 
 598:Generated_Source\PSoC5/Digital_PWM.c ****     /*******************************************************************************
 599:Generated_Source\PSoC5/Digital_PWM.c ****     * Function Name: Digital_PWM_WriteDeadTime
 600:Generated_Source\PSoC5/Digital_PWM.c ****     ********************************************************************************
 601:Generated_Source\PSoC5/Digital_PWM.c ****     *
 602:Generated_Source\PSoC5/Digital_PWM.c ****     * Summary:
 603:Generated_Source\PSoC5/Digital_PWM.c ****     *  This function writes the dead-band counts to the corresponding register
 604:Generated_Source\PSoC5/Digital_PWM.c ****     *
 605:Generated_Source\PSoC5/Digital_PWM.c ****     * Parameters:
 606:Generated_Source\PSoC5/Digital_PWM.c ****     *  deadtime:  Number of counts for dead time
 607:Generated_Source\PSoC5/Digital_PWM.c ****     *
 608:Generated_Source\PSoC5/Digital_PWM.c ****     * Return:
 609:Generated_Source\PSoC5/Digital_PWM.c ****     *  None
 610:Generated_Source\PSoC5/Digital_PWM.c ****     *
 611:Generated_Source\PSoC5/Digital_PWM.c ****     *******************************************************************************/
 612:Generated_Source\PSoC5/Digital_PWM.c ****     void Digital_PWM_WriteDeadTime(uint8 deadtime) 
 613:Generated_Source\PSoC5/Digital_PWM.c ****     {
 614:Generated_Source\PSoC5/Digital_PWM.c ****         /* If using the Dead Band 1-255 mode then just write the register */
 615:Generated_Source\PSoC5/Digital_PWM.c ****         #if(!Digital_PWM_DeadBand2_4)
 616:Generated_Source\PSoC5/Digital_PWM.c ****             CY_SET_REG8(Digital_PWM_DEADBAND_COUNT_PTR, deadtime);
 617:Generated_Source\PSoC5/Digital_PWM.c ****         #else
 618:Generated_Source\PSoC5/Digital_PWM.c ****             /* Otherwise the data has to be masked and offset */
 619:Generated_Source\PSoC5/Digital_PWM.c ****             /* Clear existing data */
 620:Generated_Source\PSoC5/Digital_PWM.c ****             Digital_PWM_DEADBAND_COUNT &= ((uint8)(~Digital_PWM_DEADBAND_COUNT_MASK));
 621:Generated_Source\PSoC5/Digital_PWM.c **** 
 622:Generated_Source\PSoC5/Digital_PWM.c ****             /* Set new dead time */
 623:Generated_Source\PSoC5/Digital_PWM.c ****             #if(Digital_PWM_DEADBAND_COUNT_SHIFT)
 624:Generated_Source\PSoC5/Digital_PWM.c ****                 Digital_PWM_DEADBAND_COUNT |= ((uint8)((uint8)deadtime << Digital_PWM_DEADBAND_COUN
 625:Generated_Source\PSoC5/Digital_PWM.c ****                                                     Digital_PWM_DEADBAND_COUNT_MASK;
 626:Generated_Source\PSoC5/Digital_PWM.c ****             #else
 627:Generated_Source\PSoC5/Digital_PWM.c ****                 Digital_PWM_DEADBAND_COUNT |= deadtime & Digital_PWM_DEADBAND_COUNT_MASK;
 628:Generated_Source\PSoC5/Digital_PWM.c ****             #endif /* (Digital_PWM_DEADBAND_COUNT_SHIFT) */
 629:Generated_Source\PSoC5/Digital_PWM.c **** 
 630:Generated_Source\PSoC5/Digital_PWM.c ****         #endif /* (!Digital_PWM_DeadBand2_4) */
 631:Generated_Source\PSoC5/Digital_PWM.c ****     }
 632:Generated_Source\PSoC5/Digital_PWM.c **** 
 633:Generated_Source\PSoC5/Digital_PWM.c **** 
 634:Generated_Source\PSoC5/Digital_PWM.c ****     /*******************************************************************************
 635:Generated_Source\PSoC5/Digital_PWM.c ****     * Function Name: Digital_PWM_ReadDeadTime
 636:Generated_Source\PSoC5/Digital_PWM.c ****     ********************************************************************************
 637:Generated_Source\PSoC5/Digital_PWM.c ****     *
 638:Generated_Source\PSoC5/Digital_PWM.c ****     * Summary:
 639:Generated_Source\PSoC5/Digital_PWM.c ****     *  This function reads the dead-band counts from the corresponding register
 640:Generated_Source\PSoC5/Digital_PWM.c ****     *
 641:Generated_Source\PSoC5/Digital_PWM.c ****     * Parameters:
 642:Generated_Source\PSoC5/Digital_PWM.c ****     *  None
 643:Generated_Source\PSoC5/Digital_PWM.c ****     *
 644:Generated_Source\PSoC5/Digital_PWM.c ****     * Return:
 645:Generated_Source\PSoC5/Digital_PWM.c ****     *  Dead Band Counts
 646:Generated_Source\PSoC5/Digital_PWM.c ****     *
 647:Generated_Source\PSoC5/Digital_PWM.c ****     *******************************************************************************/
ARM GAS  C:\Users\Greg\AppData\Local\Temp\ccGuoxFO.s 			page 21


 648:Generated_Source\PSoC5/Digital_PWM.c ****     uint8 Digital_PWM_ReadDeadTime(void) 
 649:Generated_Source\PSoC5/Digital_PWM.c ****     {
 650:Generated_Source\PSoC5/Digital_PWM.c ****         /* If using the Dead Band 1-255 mode then just read the register */
 651:Generated_Source\PSoC5/Digital_PWM.c ****         #if(!Digital_PWM_DeadBand2_4)
 652:Generated_Source\PSoC5/Digital_PWM.c ****             return (CY_GET_REG8(Digital_PWM_DEADBAND_COUNT_PTR));
 653:Generated_Source\PSoC5/Digital_PWM.c ****         #else
 654:Generated_Source\PSoC5/Digital_PWM.c **** 
 655:Generated_Source\PSoC5/Digital_PWM.c ****             /* Otherwise the data has to be masked and offset */
 656:Generated_Source\PSoC5/Digital_PWM.c ****             #if(Digital_PWM_DEADBAND_COUNT_SHIFT)
 657:Generated_Source\PSoC5/Digital_PWM.c ****                 return ((uint8)(((uint8)(Digital_PWM_DEADBAND_COUNT & Digital_PWM_DEADBAND_COUNT_MA
 658:Generated_Source\PSoC5/Digital_PWM.c ****                                                                            Digital_PWM_DEADBAND_COU
 659:Generated_Source\PSoC5/Digital_PWM.c ****             #else
 660:Generated_Source\PSoC5/Digital_PWM.c ****                 return (Digital_PWM_DEADBAND_COUNT & Digital_PWM_DEADBAND_COUNT_MASK);
 661:Generated_Source\PSoC5/Digital_PWM.c ****             #endif /* (Digital_PWM_DEADBAND_COUNT_SHIFT) */
 662:Generated_Source\PSoC5/Digital_PWM.c ****         #endif /* (!Digital_PWM_DeadBand2_4) */
 663:Generated_Source\PSoC5/Digital_PWM.c ****     }
 664:Generated_Source\PSoC5/Digital_PWM.c **** #endif /* DeadBandUsed */
 665:Generated_Source\PSoC5/Digital_PWM.c **** 
 666:Generated_Source\PSoC5/Digital_PWM.c **** #if (Digital_PWM_UseStatus || Digital_PWM_UsingFixedFunction)
 667:Generated_Source\PSoC5/Digital_PWM.c **** 
 668:Generated_Source\PSoC5/Digital_PWM.c **** 
 669:Generated_Source\PSoC5/Digital_PWM.c ****     /*******************************************************************************
 670:Generated_Source\PSoC5/Digital_PWM.c ****     * Function Name: Digital_PWM_SetInterruptMode
 671:Generated_Source\PSoC5/Digital_PWM.c ****     ********************************************************************************
 672:Generated_Source\PSoC5/Digital_PWM.c ****     *
 673:Generated_Source\PSoC5/Digital_PWM.c ****     * Summary:
 674:Generated_Source\PSoC5/Digital_PWM.c ****     *  This function configures the interrupts mask control of theinterrupt
 675:Generated_Source\PSoC5/Digital_PWM.c ****     *  source status register.
 676:Generated_Source\PSoC5/Digital_PWM.c ****     *
 677:Generated_Source\PSoC5/Digital_PWM.c ****     * Parameters:
 678:Generated_Source\PSoC5/Digital_PWM.c ****     *  uint8 interruptMode: Bit field containing the interrupt sources enabled
 679:Generated_Source\PSoC5/Digital_PWM.c ****     *
 680:Generated_Source\PSoC5/Digital_PWM.c ****     * Return:
 681:Generated_Source\PSoC5/Digital_PWM.c ****     *  None
 682:Generated_Source\PSoC5/Digital_PWM.c ****     *
 683:Generated_Source\PSoC5/Digital_PWM.c ****     *******************************************************************************/
 684:Generated_Source\PSoC5/Digital_PWM.c ****     void Digital_PWM_SetInterruptMode(uint8 interruptMode) 
 685:Generated_Source\PSoC5/Digital_PWM.c ****     {
 493              		.loc 1 685 0
 494              		.cfi_startproc
 495              		@ args = 0, pretend = 0, frame = 8
 496              		@ frame_needed = 1, uses_anonymous_args = 0
 497              		@ link register save eliminated.
 498 0000 80B4     		push	{r7}
 499              		.cfi_def_cfa_offset 4
 500              		.cfi_offset 7, -4
 501 0002 83B0     		sub	sp, sp, #12
 502              		.cfi_def_cfa_offset 16
 503 0004 00AF     		add	r7, sp, #0
 504              		.cfi_def_cfa_register 7
 505 0006 0346     		mov	r3, r0
 506 0008 FB71     		strb	r3, [r7, #7]
 686:Generated_Source\PSoC5/Digital_PWM.c ****         CY_SET_REG8(Digital_PWM_STATUS_MASK_PTR, interruptMode);
 507              		.loc 1 686 0
 508 000a 044A     		ldr	r2, .L34
 509 000c FB79     		ldrb	r3, [r7, #7]
 510 000e 1370     		strb	r3, [r2]
ARM GAS  C:\Users\Greg\AppData\Local\Temp\ccGuoxFO.s 			page 22


 687:Generated_Source\PSoC5/Digital_PWM.c ****     }
 511              		.loc 1 687 0
 512 0010 0C37     		adds	r7, r7, #12
 513              		.cfi_def_cfa_offset 4
 514 0012 BD46     		mov	sp, r7
 515              		.cfi_def_cfa_register 13
 516              		@ sp needed
 517 0014 5DF8047B 		ldr	r7, [sp], #4
 518              		.cfi_restore 7
 519              		.cfi_def_cfa_offset 0
 520 0018 7047     		bx	lr
 521              	.L35:
 522 001a 00BF     		.align	2
 523              	.L34:
 524 001c 83640040 		.word	1073767555
 525              		.cfi_endproc
 526              	.LFE10:
 527              		.size	Digital_PWM_SetInterruptMode, .-Digital_PWM_SetInterruptMode
 528              		.section	.text.Digital_PWM_ReadStatusRegister,"ax",%progbits
 529              		.align	2
 530              		.global	Digital_PWM_ReadStatusRegister
 531              		.thumb
 532              		.thumb_func
 533              		.type	Digital_PWM_ReadStatusRegister, %function
 534              	Digital_PWM_ReadStatusRegister:
 535              	.LFB11:
 688:Generated_Source\PSoC5/Digital_PWM.c **** 
 689:Generated_Source\PSoC5/Digital_PWM.c **** 
 690:Generated_Source\PSoC5/Digital_PWM.c ****     /*******************************************************************************
 691:Generated_Source\PSoC5/Digital_PWM.c ****     * Function Name: Digital_PWM_ReadStatusRegister
 692:Generated_Source\PSoC5/Digital_PWM.c ****     ********************************************************************************
 693:Generated_Source\PSoC5/Digital_PWM.c ****     *
 694:Generated_Source\PSoC5/Digital_PWM.c ****     * Summary:
 695:Generated_Source\PSoC5/Digital_PWM.c ****     *  This function returns the current state of the status register.
 696:Generated_Source\PSoC5/Digital_PWM.c ****     *
 697:Generated_Source\PSoC5/Digital_PWM.c ****     * Parameters:
 698:Generated_Source\PSoC5/Digital_PWM.c ****     *  None
 699:Generated_Source\PSoC5/Digital_PWM.c ****     *
 700:Generated_Source\PSoC5/Digital_PWM.c ****     * Return:
 701:Generated_Source\PSoC5/Digital_PWM.c ****     *  uint8 : Current status register value. The status register bits are:
 702:Generated_Source\PSoC5/Digital_PWM.c ****     *  [7:6] : Unused(0)
 703:Generated_Source\PSoC5/Digital_PWM.c ****     *  [5]   : Kill event output
 704:Generated_Source\PSoC5/Digital_PWM.c ****     *  [4]   : FIFO not empty
 705:Generated_Source\PSoC5/Digital_PWM.c ****     *  [3]   : FIFO full
 706:Generated_Source\PSoC5/Digital_PWM.c ****     *  [2]   : Terminal count
 707:Generated_Source\PSoC5/Digital_PWM.c ****     *  [1]   : Compare output 2
 708:Generated_Source\PSoC5/Digital_PWM.c ****     *  [0]   : Compare output 1
 709:Generated_Source\PSoC5/Digital_PWM.c ****     *
 710:Generated_Source\PSoC5/Digital_PWM.c ****     *******************************************************************************/
 711:Generated_Source\PSoC5/Digital_PWM.c ****     uint8 Digital_PWM_ReadStatusRegister(void) 
 712:Generated_Source\PSoC5/Digital_PWM.c ****     {
 536              		.loc 1 712 0
 537              		.cfi_startproc
 538              		@ args = 0, pretend = 0, frame = 0
 539              		@ frame_needed = 1, uses_anonymous_args = 0
 540              		@ link register save eliminated.
 541 0000 80B4     		push	{r7}
ARM GAS  C:\Users\Greg\AppData\Local\Temp\ccGuoxFO.s 			page 23


 542              		.cfi_def_cfa_offset 4
 543              		.cfi_offset 7, -4
 544 0002 00AF     		add	r7, sp, #0
 545              		.cfi_def_cfa_register 7
 713:Generated_Source\PSoC5/Digital_PWM.c ****         return (CY_GET_REG8(Digital_PWM_STATUS_PTR));
 546              		.loc 1 713 0
 547 0004 034B     		ldr	r3, .L38
 548 0006 1B78     		ldrb	r3, [r3]
 549 0008 DBB2     		uxtb	r3, r3
 714:Generated_Source\PSoC5/Digital_PWM.c ****     }
 550              		.loc 1 714 0
 551 000a 1846     		mov	r0, r3
 552 000c BD46     		mov	sp, r7
 553              		.cfi_def_cfa_register 13
 554              		@ sp needed
 555 000e 5DF8047B 		ldr	r7, [sp], #4
 556              		.cfi_restore 7
 557              		.cfi_def_cfa_offset 0
 558 0012 7047     		bx	lr
 559              	.L39:
 560              		.align	2
 561              	.L38:
 562 0014 63640040 		.word	1073767523
 563              		.cfi_endproc
 564              	.LFE11:
 565              		.size	Digital_PWM_ReadStatusRegister, .-Digital_PWM_ReadStatusRegister
 566              		.section	.text.Digital_PWM_ReadControlRegister,"ax",%progbits
 567              		.align	2
 568              		.global	Digital_PWM_ReadControlRegister
 569              		.thumb
 570              		.thumb_func
 571              		.type	Digital_PWM_ReadControlRegister, %function
 572              	Digital_PWM_ReadControlRegister:
 573              	.LFB12:
 715:Generated_Source\PSoC5/Digital_PWM.c **** 
 716:Generated_Source\PSoC5/Digital_PWM.c **** #endif /* (Digital_PWM_UseStatus || Digital_PWM_UsingFixedFunction) */
 717:Generated_Source\PSoC5/Digital_PWM.c **** 
 718:Generated_Source\PSoC5/Digital_PWM.c **** 
 719:Generated_Source\PSoC5/Digital_PWM.c **** #if (Digital_PWM_UseControl)
 720:Generated_Source\PSoC5/Digital_PWM.c **** 
 721:Generated_Source\PSoC5/Digital_PWM.c **** 
 722:Generated_Source\PSoC5/Digital_PWM.c ****     /*******************************************************************************
 723:Generated_Source\PSoC5/Digital_PWM.c ****     * Function Name: Digital_PWM_ReadControlRegister
 724:Generated_Source\PSoC5/Digital_PWM.c ****     ********************************************************************************
 725:Generated_Source\PSoC5/Digital_PWM.c ****     *
 726:Generated_Source\PSoC5/Digital_PWM.c ****     * Summary:
 727:Generated_Source\PSoC5/Digital_PWM.c ****     *  Returns the current state of the control register. This API is available
 728:Generated_Source\PSoC5/Digital_PWM.c ****     *  only if the control register is not removed.
 729:Generated_Source\PSoC5/Digital_PWM.c ****     *
 730:Generated_Source\PSoC5/Digital_PWM.c ****     * Parameters:
 731:Generated_Source\PSoC5/Digital_PWM.c ****     *  None
 732:Generated_Source\PSoC5/Digital_PWM.c ****     *
 733:Generated_Source\PSoC5/Digital_PWM.c ****     * Return:
 734:Generated_Source\PSoC5/Digital_PWM.c ****     *  uint8 : Current control register value
 735:Generated_Source\PSoC5/Digital_PWM.c ****     *
 736:Generated_Source\PSoC5/Digital_PWM.c ****     *******************************************************************************/
 737:Generated_Source\PSoC5/Digital_PWM.c ****     uint8 Digital_PWM_ReadControlRegister(void) 
ARM GAS  C:\Users\Greg\AppData\Local\Temp\ccGuoxFO.s 			page 24


 738:Generated_Source\PSoC5/Digital_PWM.c ****     {
 574              		.loc 1 738 0
 575              		.cfi_startproc
 576              		@ args = 0, pretend = 0, frame = 8
 577              		@ frame_needed = 1, uses_anonymous_args = 0
 578              		@ link register save eliminated.
 579 0000 80B4     		push	{r7}
 580              		.cfi_def_cfa_offset 4
 581              		.cfi_offset 7, -4
 582 0002 83B0     		sub	sp, sp, #12
 583              		.cfi_def_cfa_offset 16
 584 0004 00AF     		add	r7, sp, #0
 585              		.cfi_def_cfa_register 7
 739:Generated_Source\PSoC5/Digital_PWM.c ****         uint8 result;
 740:Generated_Source\PSoC5/Digital_PWM.c **** 
 741:Generated_Source\PSoC5/Digital_PWM.c ****         result = CY_GET_REG8(Digital_PWM_CONTROL_PTR);
 586              		.loc 1 741 0
 587 0006 054B     		ldr	r3, .L42
 588 0008 1B78     		ldrb	r3, [r3]
 589 000a FB71     		strb	r3, [r7, #7]
 742:Generated_Source\PSoC5/Digital_PWM.c ****         return (result);
 590              		.loc 1 742 0
 591 000c FB79     		ldrb	r3, [r7, #7]	@ zero_extendqisi2
 743:Generated_Source\PSoC5/Digital_PWM.c ****     }
 592              		.loc 1 743 0
 593 000e 1846     		mov	r0, r3
 594 0010 0C37     		adds	r7, r7, #12
 595              		.cfi_def_cfa_offset 4
 596 0012 BD46     		mov	sp, r7
 597              		.cfi_def_cfa_register 13
 598              		@ sp needed
 599 0014 5DF8047B 		ldr	r7, [sp], #4
 600              		.cfi_restore 7
 601              		.cfi_def_cfa_offset 0
 602 0018 7047     		bx	lr
 603              	.L43:
 604 001a 00BF     		.align	2
 605              	.L42:
 606 001c 73640040 		.word	1073767539
 607              		.cfi_endproc
 608              	.LFE12:
 609              		.size	Digital_PWM_ReadControlRegister, .-Digital_PWM_ReadControlRegister
 610              		.section	.text.Digital_PWM_WriteControlRegister,"ax",%progbits
 611              		.align	2
 612              		.global	Digital_PWM_WriteControlRegister
 613              		.thumb
 614              		.thumb_func
 615              		.type	Digital_PWM_WriteControlRegister, %function
 616              	Digital_PWM_WriteControlRegister:
 617              	.LFB13:
 744:Generated_Source\PSoC5/Digital_PWM.c **** 
 745:Generated_Source\PSoC5/Digital_PWM.c **** 
 746:Generated_Source\PSoC5/Digital_PWM.c ****     /*******************************************************************************
 747:Generated_Source\PSoC5/Digital_PWM.c ****     * Function Name: Digital_PWM_WriteControlRegister
 748:Generated_Source\PSoC5/Digital_PWM.c ****     ********************************************************************************
 749:Generated_Source\PSoC5/Digital_PWM.c ****     *
 750:Generated_Source\PSoC5/Digital_PWM.c ****     * Summary:
ARM GAS  C:\Users\Greg\AppData\Local\Temp\ccGuoxFO.s 			page 25


 751:Generated_Source\PSoC5/Digital_PWM.c ****     *  Sets the bit field of the control register. This API is available only if
 752:Generated_Source\PSoC5/Digital_PWM.c ****     *  the control register is not removed.
 753:Generated_Source\PSoC5/Digital_PWM.c ****     *
 754:Generated_Source\PSoC5/Digital_PWM.c ****     * Parameters:
 755:Generated_Source\PSoC5/Digital_PWM.c ****     *  uint8 control: Control register bit field, The status register bits are:
 756:Generated_Source\PSoC5/Digital_PWM.c ****     *  [7]   : PWM Enable
 757:Generated_Source\PSoC5/Digital_PWM.c ****     *  [6]   : Reset
 758:Generated_Source\PSoC5/Digital_PWM.c ****     *  [5:3] : Compare Mode2
 759:Generated_Source\PSoC5/Digital_PWM.c ****     *  [2:0] : Compare Mode2
 760:Generated_Source\PSoC5/Digital_PWM.c ****     *
 761:Generated_Source\PSoC5/Digital_PWM.c ****     * Return:
 762:Generated_Source\PSoC5/Digital_PWM.c ****     *  None
 763:Generated_Source\PSoC5/Digital_PWM.c ****     *
 764:Generated_Source\PSoC5/Digital_PWM.c ****     *******************************************************************************/
 765:Generated_Source\PSoC5/Digital_PWM.c ****     void Digital_PWM_WriteControlRegister(uint8 control) 
 766:Generated_Source\PSoC5/Digital_PWM.c ****     {
 618              		.loc 1 766 0
 619              		.cfi_startproc
 620              		@ args = 0, pretend = 0, frame = 8
 621              		@ frame_needed = 1, uses_anonymous_args = 0
 622              		@ link register save eliminated.
 623 0000 80B4     		push	{r7}
 624              		.cfi_def_cfa_offset 4
 625              		.cfi_offset 7, -4
 626 0002 83B0     		sub	sp, sp, #12
 627              		.cfi_def_cfa_offset 16
 628 0004 00AF     		add	r7, sp, #0
 629              		.cfi_def_cfa_register 7
 630 0006 0346     		mov	r3, r0
 631 0008 FB71     		strb	r3, [r7, #7]
 767:Generated_Source\PSoC5/Digital_PWM.c ****         CY_SET_REG8(Digital_PWM_CONTROL_PTR, control);
 632              		.loc 1 767 0
 633 000a 044A     		ldr	r2, .L45
 634 000c FB79     		ldrb	r3, [r7, #7]
 635 000e 1370     		strb	r3, [r2]
 768:Generated_Source\PSoC5/Digital_PWM.c ****     }
 636              		.loc 1 768 0
 637 0010 0C37     		adds	r7, r7, #12
 638              		.cfi_def_cfa_offset 4
 639 0012 BD46     		mov	sp, r7
 640              		.cfi_def_cfa_register 13
 641              		@ sp needed
 642 0014 5DF8047B 		ldr	r7, [sp], #4
 643              		.cfi_restore 7
 644              		.cfi_def_cfa_offset 0
 645 0018 7047     		bx	lr
 646              	.L46:
 647 001a 00BF     		.align	2
 648              	.L45:
 649 001c 73640040 		.word	1073767539
 650              		.cfi_endproc
 651              	.LFE13:
 652              		.size	Digital_PWM_WriteControlRegister, .-Digital_PWM_WriteControlRegister
 653              		.section	.text.Digital_PWM_ReadCapture,"ax",%progbits
 654              		.align	2
 655              		.global	Digital_PWM_ReadCapture
 656              		.thumb
ARM GAS  C:\Users\Greg\AppData\Local\Temp\ccGuoxFO.s 			page 26


 657              		.thumb_func
 658              		.type	Digital_PWM_ReadCapture, %function
 659              	Digital_PWM_ReadCapture:
 660              	.LFB14:
 769:Generated_Source\PSoC5/Digital_PWM.c **** 
 770:Generated_Source\PSoC5/Digital_PWM.c **** #endif /* (Digital_PWM_UseControl) */
 771:Generated_Source\PSoC5/Digital_PWM.c **** 
 772:Generated_Source\PSoC5/Digital_PWM.c **** 
 773:Generated_Source\PSoC5/Digital_PWM.c **** #if (!Digital_PWM_UsingFixedFunction)
 774:Generated_Source\PSoC5/Digital_PWM.c **** 
 775:Generated_Source\PSoC5/Digital_PWM.c **** 
 776:Generated_Source\PSoC5/Digital_PWM.c ****     /*******************************************************************************
 777:Generated_Source\PSoC5/Digital_PWM.c ****     * Function Name: Digital_PWM_ReadCapture
 778:Generated_Source\PSoC5/Digital_PWM.c ****     ********************************************************************************
 779:Generated_Source\PSoC5/Digital_PWM.c ****     *
 780:Generated_Source\PSoC5/Digital_PWM.c ****     * Summary:
 781:Generated_Source\PSoC5/Digital_PWM.c ****     *  Reads the capture value from the capture FIFO.
 782:Generated_Source\PSoC5/Digital_PWM.c ****     *
 783:Generated_Source\PSoC5/Digital_PWM.c ****     * Parameters:
 784:Generated_Source\PSoC5/Digital_PWM.c ****     *  None
 785:Generated_Source\PSoC5/Digital_PWM.c ****     *
 786:Generated_Source\PSoC5/Digital_PWM.c ****     * Return:
 787:Generated_Source\PSoC5/Digital_PWM.c ****     *  uint8/uint16: The current capture value
 788:Generated_Source\PSoC5/Digital_PWM.c ****     *
 789:Generated_Source\PSoC5/Digital_PWM.c ****     *******************************************************************************/
 790:Generated_Source\PSoC5/Digital_PWM.c ****     uint8 Digital_PWM_ReadCapture(void) 
 791:Generated_Source\PSoC5/Digital_PWM.c ****     {
 661              		.loc 1 791 0
 662              		.cfi_startproc
 663              		@ args = 0, pretend = 0, frame = 0
 664              		@ frame_needed = 1, uses_anonymous_args = 0
 665              		@ link register save eliminated.
 666 0000 80B4     		push	{r7}
 667              		.cfi_def_cfa_offset 4
 668              		.cfi_offset 7, -4
 669 0002 00AF     		add	r7, sp, #0
 670              		.cfi_def_cfa_register 7
 792:Generated_Source\PSoC5/Digital_PWM.c ****         return (CY_GET_REG8(Digital_PWM_CAPTURE_LSB_PTR));
 671              		.loc 1 792 0
 672 0004 034B     		ldr	r3, .L49
 673 0006 1B78     		ldrb	r3, [r3]
 674 0008 DBB2     		uxtb	r3, r3
 793:Generated_Source\PSoC5/Digital_PWM.c ****     }
 675              		.loc 1 793 0
 676 000a 1846     		mov	r0, r3
 677 000c BD46     		mov	sp, r7
 678              		.cfi_def_cfa_register 13
 679              		@ sp needed
 680 000e 5DF8047B 		ldr	r7, [sp], #4
 681              		.cfi_restore 7
 682              		.cfi_def_cfa_offset 0
 683 0012 7047     		bx	lr
 684              	.L50:
 685              		.align	2
 686              	.L49:
 687 0014 53640040 		.word	1073767507
 688              		.cfi_endproc
ARM GAS  C:\Users\Greg\AppData\Local\Temp\ccGuoxFO.s 			page 27


 689              	.LFE14:
 690              		.size	Digital_PWM_ReadCapture, .-Digital_PWM_ReadCapture
 691              		.section	.text.Digital_PWM_ReadCompare1,"ax",%progbits
 692              		.align	2
 693              		.global	Digital_PWM_ReadCompare1
 694              		.thumb
 695              		.thumb_func
 696              		.type	Digital_PWM_ReadCompare1, %function
 697              	Digital_PWM_ReadCompare1:
 698              	.LFB15:
 794:Generated_Source\PSoC5/Digital_PWM.c **** 
 795:Generated_Source\PSoC5/Digital_PWM.c **** #endif /* (!Digital_PWM_UsingFixedFunction) */
 796:Generated_Source\PSoC5/Digital_PWM.c **** 
 797:Generated_Source\PSoC5/Digital_PWM.c **** 
 798:Generated_Source\PSoC5/Digital_PWM.c **** #if (Digital_PWM_UseOneCompareMode)
 799:Generated_Source\PSoC5/Digital_PWM.c **** 
 800:Generated_Source\PSoC5/Digital_PWM.c **** 
 801:Generated_Source\PSoC5/Digital_PWM.c ****     /*******************************************************************************
 802:Generated_Source\PSoC5/Digital_PWM.c ****     * Function Name: Digital_PWM_ReadCompare
 803:Generated_Source\PSoC5/Digital_PWM.c ****     ********************************************************************************
 804:Generated_Source\PSoC5/Digital_PWM.c ****     *
 805:Generated_Source\PSoC5/Digital_PWM.c ****     * Summary:
 806:Generated_Source\PSoC5/Digital_PWM.c ****     *  Reads the compare value for the compare output when the PWM Mode parameter is
 807:Generated_Source\PSoC5/Digital_PWM.c ****     *  set to Dither mode, Center Aligned mode, or One Output mode.
 808:Generated_Source\PSoC5/Digital_PWM.c ****     *
 809:Generated_Source\PSoC5/Digital_PWM.c ****     * Parameters:
 810:Generated_Source\PSoC5/Digital_PWM.c ****     *  None
 811:Generated_Source\PSoC5/Digital_PWM.c ****     *
 812:Generated_Source\PSoC5/Digital_PWM.c ****     * Return:
 813:Generated_Source\PSoC5/Digital_PWM.c ****     *  uint8/uint16: Current compare value
 814:Generated_Source\PSoC5/Digital_PWM.c ****     *
 815:Generated_Source\PSoC5/Digital_PWM.c ****     *******************************************************************************/
 816:Generated_Source\PSoC5/Digital_PWM.c ****     uint8 Digital_PWM_ReadCompare(void) 
 817:Generated_Source\PSoC5/Digital_PWM.c ****     {
 818:Generated_Source\PSoC5/Digital_PWM.c ****         #if(Digital_PWM_UsingFixedFunction)
 819:Generated_Source\PSoC5/Digital_PWM.c ****             return ((uint8)CY_GET_REG16(Digital_PWM_COMPARE1_LSB_PTR));
 820:Generated_Source\PSoC5/Digital_PWM.c ****         #else
 821:Generated_Source\PSoC5/Digital_PWM.c ****             return (CY_GET_REG8(Digital_PWM_COMPARE1_LSB_PTR));
 822:Generated_Source\PSoC5/Digital_PWM.c ****         #endif /* (Digital_PWM_UsingFixedFunction) */
 823:Generated_Source\PSoC5/Digital_PWM.c ****     }
 824:Generated_Source\PSoC5/Digital_PWM.c **** 
 825:Generated_Source\PSoC5/Digital_PWM.c **** #else
 826:Generated_Source\PSoC5/Digital_PWM.c **** 
 827:Generated_Source\PSoC5/Digital_PWM.c **** 
 828:Generated_Source\PSoC5/Digital_PWM.c ****     /*******************************************************************************
 829:Generated_Source\PSoC5/Digital_PWM.c ****     * Function Name: Digital_PWM_ReadCompare1
 830:Generated_Source\PSoC5/Digital_PWM.c ****     ********************************************************************************
 831:Generated_Source\PSoC5/Digital_PWM.c ****     *
 832:Generated_Source\PSoC5/Digital_PWM.c ****     * Summary:
 833:Generated_Source\PSoC5/Digital_PWM.c ****     *  Reads the compare value for the compare1 output.
 834:Generated_Source\PSoC5/Digital_PWM.c ****     *
 835:Generated_Source\PSoC5/Digital_PWM.c ****     * Parameters:
 836:Generated_Source\PSoC5/Digital_PWM.c ****     *  None
 837:Generated_Source\PSoC5/Digital_PWM.c ****     *
 838:Generated_Source\PSoC5/Digital_PWM.c ****     * Return:
 839:Generated_Source\PSoC5/Digital_PWM.c ****     *  uint8/uint16: Current compare value.
 840:Generated_Source\PSoC5/Digital_PWM.c ****     *
ARM GAS  C:\Users\Greg\AppData\Local\Temp\ccGuoxFO.s 			page 28


 841:Generated_Source\PSoC5/Digital_PWM.c ****     *******************************************************************************/
 842:Generated_Source\PSoC5/Digital_PWM.c ****     uint8 Digital_PWM_ReadCompare1(void) 
 843:Generated_Source\PSoC5/Digital_PWM.c ****     {
 699              		.loc 1 843 0
 700              		.cfi_startproc
 701              		@ args = 0, pretend = 0, frame = 0
 702              		@ frame_needed = 1, uses_anonymous_args = 0
 703              		@ link register save eliminated.
 704 0000 80B4     		push	{r7}
 705              		.cfi_def_cfa_offset 4
 706              		.cfi_offset 7, -4
 707 0002 00AF     		add	r7, sp, #0
 708              		.cfi_def_cfa_register 7
 844:Generated_Source\PSoC5/Digital_PWM.c ****         return (CY_GET_REG8(Digital_PWM_COMPARE1_LSB_PTR));
 709              		.loc 1 844 0
 710 0004 034B     		ldr	r3, .L53
 711 0006 1B78     		ldrb	r3, [r3]
 712 0008 DBB2     		uxtb	r3, r3
 845:Generated_Source\PSoC5/Digital_PWM.c ****     }
 713              		.loc 1 845 0
 714 000a 1846     		mov	r0, r3
 715 000c BD46     		mov	sp, r7
 716              		.cfi_def_cfa_register 13
 717              		@ sp needed
 718 000e 5DF8047B 		ldr	r7, [sp], #4
 719              		.cfi_restore 7
 720              		.cfi_def_cfa_offset 0
 721 0012 7047     		bx	lr
 722              	.L54:
 723              		.align	2
 724              	.L53:
 725 0014 23640040 		.word	1073767459
 726              		.cfi_endproc
 727              	.LFE15:
 728              		.size	Digital_PWM_ReadCompare1, .-Digital_PWM_ReadCompare1
 729              		.section	.text.Digital_PWM_ReadCompare2,"ax",%progbits
 730              		.align	2
 731              		.global	Digital_PWM_ReadCompare2
 732              		.thumb
 733              		.thumb_func
 734              		.type	Digital_PWM_ReadCompare2, %function
 735              	Digital_PWM_ReadCompare2:
 736              	.LFB16:
 846:Generated_Source\PSoC5/Digital_PWM.c **** 
 847:Generated_Source\PSoC5/Digital_PWM.c **** 
 848:Generated_Source\PSoC5/Digital_PWM.c ****     /*******************************************************************************
 849:Generated_Source\PSoC5/Digital_PWM.c ****     * Function Name: Digital_PWM_ReadCompare2
 850:Generated_Source\PSoC5/Digital_PWM.c ****     ********************************************************************************
 851:Generated_Source\PSoC5/Digital_PWM.c ****     *
 852:Generated_Source\PSoC5/Digital_PWM.c ****     * Summary:
 853:Generated_Source\PSoC5/Digital_PWM.c ****     *  Reads the compare value for the compare2 output.
 854:Generated_Source\PSoC5/Digital_PWM.c ****     *
 855:Generated_Source\PSoC5/Digital_PWM.c ****     * Parameters:
 856:Generated_Source\PSoC5/Digital_PWM.c ****     *  None
 857:Generated_Source\PSoC5/Digital_PWM.c ****     *
 858:Generated_Source\PSoC5/Digital_PWM.c ****     * Return:
 859:Generated_Source\PSoC5/Digital_PWM.c ****     *  uint8/uint16: Current compare value.
ARM GAS  C:\Users\Greg\AppData\Local\Temp\ccGuoxFO.s 			page 29


 860:Generated_Source\PSoC5/Digital_PWM.c ****     *
 861:Generated_Source\PSoC5/Digital_PWM.c ****     *******************************************************************************/
 862:Generated_Source\PSoC5/Digital_PWM.c ****     uint8 Digital_PWM_ReadCompare2(void) 
 863:Generated_Source\PSoC5/Digital_PWM.c ****     {
 737              		.loc 1 863 0
 738              		.cfi_startproc
 739              		@ args = 0, pretend = 0, frame = 0
 740              		@ frame_needed = 1, uses_anonymous_args = 0
 741              		@ link register save eliminated.
 742 0000 80B4     		push	{r7}
 743              		.cfi_def_cfa_offset 4
 744              		.cfi_offset 7, -4
 745 0002 00AF     		add	r7, sp, #0
 746              		.cfi_def_cfa_register 7
 864:Generated_Source\PSoC5/Digital_PWM.c ****         return (CY_GET_REG8(Digital_PWM_COMPARE2_LSB_PTR));
 747              		.loc 1 864 0
 748 0004 034B     		ldr	r3, .L57
 749 0006 1B78     		ldrb	r3, [r3]
 750 0008 DBB2     		uxtb	r3, r3
 865:Generated_Source\PSoC5/Digital_PWM.c ****     }
 751              		.loc 1 865 0
 752 000a 1846     		mov	r0, r3
 753 000c BD46     		mov	sp, r7
 754              		.cfi_def_cfa_register 13
 755              		@ sp needed
 756 000e 5DF8047B 		ldr	r7, [sp], #4
 757              		.cfi_restore 7
 758              		.cfi_def_cfa_offset 0
 759 0012 7047     		bx	lr
 760              	.L58:
 761              		.align	2
 762              	.L57:
 763 0014 33640040 		.word	1073767475
 764              		.cfi_endproc
 765              	.LFE16:
 766              		.size	Digital_PWM_ReadCompare2, .-Digital_PWM_ReadCompare2
 767              		.section	.text.Digital_PWM_ReadPeriod,"ax",%progbits
 768              		.align	2
 769              		.global	Digital_PWM_ReadPeriod
 770              		.thumb
 771              		.thumb_func
 772              		.type	Digital_PWM_ReadPeriod, %function
 773              	Digital_PWM_ReadPeriod:
 774              	.LFB17:
 866:Generated_Source\PSoC5/Digital_PWM.c **** 
 867:Generated_Source\PSoC5/Digital_PWM.c **** #endif /* (Digital_PWM_UseOneCompareMode) */
 868:Generated_Source\PSoC5/Digital_PWM.c **** 
 869:Generated_Source\PSoC5/Digital_PWM.c **** 
 870:Generated_Source\PSoC5/Digital_PWM.c **** /*******************************************************************************
 871:Generated_Source\PSoC5/Digital_PWM.c **** * Function Name: Digital_PWM_ReadPeriod
 872:Generated_Source\PSoC5/Digital_PWM.c **** ********************************************************************************
 873:Generated_Source\PSoC5/Digital_PWM.c **** *
 874:Generated_Source\PSoC5/Digital_PWM.c **** * Summary:
 875:Generated_Source\PSoC5/Digital_PWM.c **** *  Reads the period value used by the PWM hardware.
 876:Generated_Source\PSoC5/Digital_PWM.c **** *
 877:Generated_Source\PSoC5/Digital_PWM.c **** * Parameters:
 878:Generated_Source\PSoC5/Digital_PWM.c **** *  None
ARM GAS  C:\Users\Greg\AppData\Local\Temp\ccGuoxFO.s 			page 30


 879:Generated_Source\PSoC5/Digital_PWM.c **** *
 880:Generated_Source\PSoC5/Digital_PWM.c **** * Return:
 881:Generated_Source\PSoC5/Digital_PWM.c **** *  uint8/16: Period value
 882:Generated_Source\PSoC5/Digital_PWM.c **** *
 883:Generated_Source\PSoC5/Digital_PWM.c **** *******************************************************************************/
 884:Generated_Source\PSoC5/Digital_PWM.c **** uint8 Digital_PWM_ReadPeriod(void) 
 885:Generated_Source\PSoC5/Digital_PWM.c **** {
 775              		.loc 1 885 0
 776              		.cfi_startproc
 777              		@ args = 0, pretend = 0, frame = 0
 778              		@ frame_needed = 1, uses_anonymous_args = 0
 779              		@ link register save eliminated.
 780 0000 80B4     		push	{r7}
 781              		.cfi_def_cfa_offset 4
 782              		.cfi_offset 7, -4
 783 0002 00AF     		add	r7, sp, #0
 784              		.cfi_def_cfa_register 7
 886:Generated_Source\PSoC5/Digital_PWM.c ****     #if(Digital_PWM_UsingFixedFunction)
 887:Generated_Source\PSoC5/Digital_PWM.c ****         return ((uint8)CY_GET_REG16(Digital_PWM_PERIOD_LSB_PTR));
 888:Generated_Source\PSoC5/Digital_PWM.c ****     #else
 889:Generated_Source\PSoC5/Digital_PWM.c ****         return (CY_GET_REG8(Digital_PWM_PERIOD_LSB_PTR));
 785              		.loc 1 889 0
 786 0004 034B     		ldr	r3, .L61
 787 0006 1B78     		ldrb	r3, [r3]
 788 0008 DBB2     		uxtb	r3, r3
 890:Generated_Source\PSoC5/Digital_PWM.c ****     #endif /* (Digital_PWM_UsingFixedFunction) */
 891:Generated_Source\PSoC5/Digital_PWM.c **** }
 789              		.loc 1 891 0
 790 000a 1846     		mov	r0, r3
 791 000c BD46     		mov	sp, r7
 792              		.cfi_def_cfa_register 13
 793              		@ sp needed
 794 000e 5DF8047B 		ldr	r7, [sp], #4
 795              		.cfi_restore 7
 796              		.cfi_def_cfa_offset 0
 797 0012 7047     		bx	lr
 798              	.L62:
 799              		.align	2
 800              	.L61:
 801 0014 43640040 		.word	1073767491
 802              		.cfi_endproc
 803              	.LFE17:
 804              		.size	Digital_PWM_ReadPeriod, .-Digital_PWM_ReadPeriod
 805              		.text
 806              	.Letext0:
 807              		.file 2 "Generated_Source\\PSoC5\\cytypes.h"