ARM GAS  C:\Users\Greg\AppData\Local\Temp\cc3dY8Mw.s 			page 1


   1              		.syntax unified
   2              		.cpu cortex-m3
   3              		.fpu softvfp
   4              		.eabi_attribute 20, 1
   5              		.eabi_attribute 21, 1
   6              		.eabi_attribute 23, 3
   7              		.eabi_attribute 24, 1
   8              		.eabi_attribute 25, 1
   9              		.eabi_attribute 26, 1
  10              		.eabi_attribute 30, 6
  11              		.eabi_attribute 34, 1
  12              		.eabi_attribute 18, 4
  13              		.thumb
  14              		.file	"Opamp_1_PM.c"
  15              		.text
  16              	.Ltext0:
  17              		.cfi_sections	.debug_frame
  18              		.bss
  19              		.align	2
  20              	Opamp_1_backup:
  21 0000 00       		.space	1
  22 0001 000000   		.section	.text.Opamp_1_SaveConfig,"ax",%progbits
  23              		.align	2
  24              		.global	Opamp_1_SaveConfig
  25              		.thumb
  26              		.thumb_func
  27              		.type	Opamp_1_SaveConfig, %function
  28              	Opamp_1_SaveConfig:
  29              	.LFB0:
  30              		.file 1 "Generated_Source\\PSoC5\\Opamp_1_PM.c"
   1:Generated_Source\PSoC5/Opamp_1_PM.c **** /*******************************************************************************
   2:Generated_Source\PSoC5/Opamp_1_PM.c **** * File Name: Opamp_1_PM.c
   3:Generated_Source\PSoC5/Opamp_1_PM.c **** * Version 1.90
   4:Generated_Source\PSoC5/Opamp_1_PM.c **** *
   5:Generated_Source\PSoC5/Opamp_1_PM.c **** * Description:
   6:Generated_Source\PSoC5/Opamp_1_PM.c **** *  This file provides the power management source code to the API for the 
   7:Generated_Source\PSoC5/Opamp_1_PM.c **** *  OpAmp (Analog Buffer) component.
   8:Generated_Source\PSoC5/Opamp_1_PM.c **** *
   9:Generated_Source\PSoC5/Opamp_1_PM.c **** * Note:
  10:Generated_Source\PSoC5/Opamp_1_PM.c **** *
  11:Generated_Source\PSoC5/Opamp_1_PM.c **** ********************************************************************************
  12:Generated_Source\PSoC5/Opamp_1_PM.c **** * Copyright 2008-2012, Cypress Semiconductor Corporation.  All rights reserved.
  13:Generated_Source\PSoC5/Opamp_1_PM.c **** * You may use this file only in accordance with the license, terms, conditions, 
  14:Generated_Source\PSoC5/Opamp_1_PM.c **** * disclaimers, and limitations in the end user license agreement accompanying 
  15:Generated_Source\PSoC5/Opamp_1_PM.c **** * the software package with which this file was provided.
  16:Generated_Source\PSoC5/Opamp_1_PM.c **** *******************************************************************************/
  17:Generated_Source\PSoC5/Opamp_1_PM.c **** 
  18:Generated_Source\PSoC5/Opamp_1_PM.c **** #include "Opamp_1.h"
  19:Generated_Source\PSoC5/Opamp_1_PM.c **** 
  20:Generated_Source\PSoC5/Opamp_1_PM.c **** static Opamp_1_BACKUP_STRUCT  Opamp_1_backup;
  21:Generated_Source\PSoC5/Opamp_1_PM.c **** 
  22:Generated_Source\PSoC5/Opamp_1_PM.c **** 
  23:Generated_Source\PSoC5/Opamp_1_PM.c **** /*******************************************************************************  
  24:Generated_Source\PSoC5/Opamp_1_PM.c **** * Function Name: Opamp_1_SaveConfig
  25:Generated_Source\PSoC5/Opamp_1_PM.c **** ********************************************************************************
  26:Generated_Source\PSoC5/Opamp_1_PM.c **** *
  27:Generated_Source\PSoC5/Opamp_1_PM.c **** * Summary:
ARM GAS  C:\Users\Greg\AppData\Local\Temp\cc3dY8Mw.s 			page 2


  28:Generated_Source\PSoC5/Opamp_1_PM.c **** *  Saves the current user configuration registers.
  29:Generated_Source\PSoC5/Opamp_1_PM.c **** * 
  30:Generated_Source\PSoC5/Opamp_1_PM.c **** * Parameters:
  31:Generated_Source\PSoC5/Opamp_1_PM.c **** *  void
  32:Generated_Source\PSoC5/Opamp_1_PM.c **** * 
  33:Generated_Source\PSoC5/Opamp_1_PM.c **** * Return:
  34:Generated_Source\PSoC5/Opamp_1_PM.c **** *  void
  35:Generated_Source\PSoC5/Opamp_1_PM.c **** *
  36:Generated_Source\PSoC5/Opamp_1_PM.c **** *******************************************************************************/
  37:Generated_Source\PSoC5/Opamp_1_PM.c **** void Opamp_1_SaveConfig(void) 
  38:Generated_Source\PSoC5/Opamp_1_PM.c **** {
  31              		.loc 1 38 0
  32              		.cfi_startproc
  33              		@ args = 0, pretend = 0, frame = 0
  34              		@ frame_needed = 1, uses_anonymous_args = 0
  35              		@ link register save eliminated.
  36 0000 80B4     		push	{r7}
  37              		.cfi_def_cfa_offset 4
  38              		.cfi_offset 7, -4
  39 0002 00AF     		add	r7, sp, #0
  40              		.cfi_def_cfa_register 7
  39:Generated_Source\PSoC5/Opamp_1_PM.c ****     /* Nothing to save as registers are System reset on retention flops */
  40:Generated_Source\PSoC5/Opamp_1_PM.c **** }
  41              		.loc 1 40 0
  42 0004 BD46     		mov	sp, r7
  43              		.cfi_def_cfa_register 13
  44              		@ sp needed
  45 0006 5DF8047B 		ldr	r7, [sp], #4
  46              		.cfi_restore 7
  47              		.cfi_def_cfa_offset 0
  48 000a 7047     		bx	lr
  49              		.cfi_endproc
  50              	.LFE0:
  51              		.size	Opamp_1_SaveConfig, .-Opamp_1_SaveConfig
  52              		.section	.text.Opamp_1_RestoreConfig,"ax",%progbits
  53              		.align	2
  54              		.global	Opamp_1_RestoreConfig
  55              		.thumb
  56              		.thumb_func
  57              		.type	Opamp_1_RestoreConfig, %function
  58              	Opamp_1_RestoreConfig:
  59              	.LFB1:
  41:Generated_Source\PSoC5/Opamp_1_PM.c **** 
  42:Generated_Source\PSoC5/Opamp_1_PM.c **** 
  43:Generated_Source\PSoC5/Opamp_1_PM.c **** /*******************************************************************************  
  44:Generated_Source\PSoC5/Opamp_1_PM.c **** * Function Name: Opamp_1_RestoreConfig
  45:Generated_Source\PSoC5/Opamp_1_PM.c **** ********************************************************************************
  46:Generated_Source\PSoC5/Opamp_1_PM.c **** *
  47:Generated_Source\PSoC5/Opamp_1_PM.c **** * Summary:
  48:Generated_Source\PSoC5/Opamp_1_PM.c **** *  Restores the current user configuration registers.
  49:Generated_Source\PSoC5/Opamp_1_PM.c **** *
  50:Generated_Source\PSoC5/Opamp_1_PM.c **** * Parameters:
  51:Generated_Source\PSoC5/Opamp_1_PM.c **** *  void
  52:Generated_Source\PSoC5/Opamp_1_PM.c **** *
  53:Generated_Source\PSoC5/Opamp_1_PM.c **** * Return:
  54:Generated_Source\PSoC5/Opamp_1_PM.c **** *  void
  55:Generated_Source\PSoC5/Opamp_1_PM.c **** *
ARM GAS  C:\Users\Greg\AppData\Local\Temp\cc3dY8Mw.s 			page 3


  56:Generated_Source\PSoC5/Opamp_1_PM.c **** *******************************************************************************/
  57:Generated_Source\PSoC5/Opamp_1_PM.c **** void Opamp_1_RestoreConfig(void) 
  58:Generated_Source\PSoC5/Opamp_1_PM.c **** {
  60              		.loc 1 58 0
  61              		.cfi_startproc
  62              		@ args = 0, pretend = 0, frame = 0
  63              		@ frame_needed = 1, uses_anonymous_args = 0
  64              		@ link register save eliminated.
  65 0000 80B4     		push	{r7}
  66              		.cfi_def_cfa_offset 4
  67              		.cfi_offset 7, -4
  68 0002 00AF     		add	r7, sp, #0
  69              		.cfi_def_cfa_register 7
  59:Generated_Source\PSoC5/Opamp_1_PM.c ****     /* Nothing to restore */
  60:Generated_Source\PSoC5/Opamp_1_PM.c **** }
  70              		.loc 1 60 0
  71 0004 BD46     		mov	sp, r7
  72              		.cfi_def_cfa_register 13
  73              		@ sp needed
  74 0006 5DF8047B 		ldr	r7, [sp], #4
  75              		.cfi_restore 7
  76              		.cfi_def_cfa_offset 0
  77 000a 7047     		bx	lr
  78              		.cfi_endproc
  79              	.LFE1:
  80              		.size	Opamp_1_RestoreConfig, .-Opamp_1_RestoreConfig
  81              		.section	.text.Opamp_1_Sleep,"ax",%progbits
  82              		.align	2
  83              		.global	Opamp_1_Sleep
  84              		.thumb
  85              		.thumb_func
  86              		.type	Opamp_1_Sleep, %function
  87              	Opamp_1_Sleep:
  88              	.LFB2:
  61:Generated_Source\PSoC5/Opamp_1_PM.c **** 
  62:Generated_Source\PSoC5/Opamp_1_PM.c **** 
  63:Generated_Source\PSoC5/Opamp_1_PM.c **** /*******************************************************************************   
  64:Generated_Source\PSoC5/Opamp_1_PM.c **** * Function Name: Opamp_1_Sleep
  65:Generated_Source\PSoC5/Opamp_1_PM.c **** ********************************************************************************
  66:Generated_Source\PSoC5/Opamp_1_PM.c **** *
  67:Generated_Source\PSoC5/Opamp_1_PM.c **** * Summary:
  68:Generated_Source\PSoC5/Opamp_1_PM.c **** *  Disables block's operation and saves its configuration. Should be called 
  69:Generated_Source\PSoC5/Opamp_1_PM.c **** *  just prior to entering sleep.
  70:Generated_Source\PSoC5/Opamp_1_PM.c **** *
  71:Generated_Source\PSoC5/Opamp_1_PM.c **** * Parameters:
  72:Generated_Source\PSoC5/Opamp_1_PM.c **** *  void
  73:Generated_Source\PSoC5/Opamp_1_PM.c **** *
  74:Generated_Source\PSoC5/Opamp_1_PM.c **** * Return:
  75:Generated_Source\PSoC5/Opamp_1_PM.c **** *  void
  76:Generated_Source\PSoC5/Opamp_1_PM.c **** *
  77:Generated_Source\PSoC5/Opamp_1_PM.c **** * Global variables:
  78:Generated_Source\PSoC5/Opamp_1_PM.c **** *  Opamp_1_backup: The structure field 'enableState' is modified 
  79:Generated_Source\PSoC5/Opamp_1_PM.c **** *  depending on the enable state of the block before entering to sleep mode.
  80:Generated_Source\PSoC5/Opamp_1_PM.c **** *
  81:Generated_Source\PSoC5/Opamp_1_PM.c **** *******************************************************************************/
  82:Generated_Source\PSoC5/Opamp_1_PM.c **** void Opamp_1_Sleep(void) 
  83:Generated_Source\PSoC5/Opamp_1_PM.c **** {
ARM GAS  C:\Users\Greg\AppData\Local\Temp\cc3dY8Mw.s 			page 4


  89              		.loc 1 83 0
  90              		.cfi_startproc
  91              		@ args = 0, pretend = 0, frame = 0
  92              		@ frame_needed = 1, uses_anonymous_args = 0
  93 0000 80B5     		push	{r7, lr}
  94              		.cfi_def_cfa_offset 8
  95              		.cfi_offset 7, -8
  96              		.cfi_offset 14, -4
  97 0002 00AF     		add	r7, sp, #0
  98              		.cfi_def_cfa_register 7
  84:Generated_Source\PSoC5/Opamp_1_PM.c ****     /* Save OpAmp enable state */
  85:Generated_Source\PSoC5/Opamp_1_PM.c ****     if((Opamp_1_PM_ACT_CFG_REG & Opamp_1_ACT_PWR_EN) != 0u)
  99              		.loc 1 85 0
 100 0004 094B     		ldr	r3, .L6
 101 0006 1B78     		ldrb	r3, [r3]
 102 0008 DBB2     		uxtb	r3, r3
 103 000a 03F00803 		and	r3, r3, #8
 104 000e 002B     		cmp	r3, #0
 105 0010 05D0     		beq	.L4
  86:Generated_Source\PSoC5/Opamp_1_PM.c ****     {
  87:Generated_Source\PSoC5/Opamp_1_PM.c ****         /* Component is enabled */
  88:Generated_Source\PSoC5/Opamp_1_PM.c ****         Opamp_1_backup.enableState = 1u;
 106              		.loc 1 88 0
 107 0012 074B     		ldr	r3, .L6+4
 108 0014 0122     		movs	r2, #1
 109 0016 1A70     		strb	r2, [r3]
  89:Generated_Source\PSoC5/Opamp_1_PM.c ****          /* Stops the component */
  90:Generated_Source\PSoC5/Opamp_1_PM.c ****          Opamp_1_Stop();
 110              		.loc 1 90 0
 111 0018 FFF7FEFF 		bl	Opamp_1_Stop
 112 001c 02E0     		b	.L5
 113              	.L4:
  91:Generated_Source\PSoC5/Opamp_1_PM.c ****     }
  92:Generated_Source\PSoC5/Opamp_1_PM.c ****     else
  93:Generated_Source\PSoC5/Opamp_1_PM.c ****     {
  94:Generated_Source\PSoC5/Opamp_1_PM.c ****         /* Component is disabled */
  95:Generated_Source\PSoC5/Opamp_1_PM.c ****         Opamp_1_backup.enableState = 0u;
 114              		.loc 1 95 0
 115 001e 044B     		ldr	r3, .L6+4
 116 0020 0022     		movs	r2, #0
 117 0022 1A70     		strb	r2, [r3]
 118              	.L5:
  96:Generated_Source\PSoC5/Opamp_1_PM.c ****     }
  97:Generated_Source\PSoC5/Opamp_1_PM.c ****     /* Saves the configuration */
  98:Generated_Source\PSoC5/Opamp_1_PM.c ****     Opamp_1_SaveConfig();
 119              		.loc 1 98 0
 120 0024 FFF7FEFF 		bl	Opamp_1_SaveConfig
  99:Generated_Source\PSoC5/Opamp_1_PM.c **** }
 121              		.loc 1 99 0
 122 0028 80BD     		pop	{r7, pc}
 123              	.L7:
 124 002a 00BF     		.align	2
 125              	.L6:
 126 002c A4430040 		.word	1073759140
 127 0030 00000000 		.word	Opamp_1_backup
 128              		.cfi_endproc
 129              	.LFE2:
ARM GAS  C:\Users\Greg\AppData\Local\Temp\cc3dY8Mw.s 			page 5


 130              		.size	Opamp_1_Sleep, .-Opamp_1_Sleep
 131              		.section	.text.Opamp_1_Wakeup,"ax",%progbits
 132              		.align	2
 133              		.global	Opamp_1_Wakeup
 134              		.thumb
 135              		.thumb_func
 136              		.type	Opamp_1_Wakeup, %function
 137              	Opamp_1_Wakeup:
 138              	.LFB3:
 100:Generated_Source\PSoC5/Opamp_1_PM.c **** 
 101:Generated_Source\PSoC5/Opamp_1_PM.c **** 
 102:Generated_Source\PSoC5/Opamp_1_PM.c **** /*******************************************************************************  
 103:Generated_Source\PSoC5/Opamp_1_PM.c **** * Function Name: Opamp_1_Wakeup
 104:Generated_Source\PSoC5/Opamp_1_PM.c **** ********************************************************************************
 105:Generated_Source\PSoC5/Opamp_1_PM.c **** *
 106:Generated_Source\PSoC5/Opamp_1_PM.c **** * Summary:
 107:Generated_Source\PSoC5/Opamp_1_PM.c **** *  Enables block's operation and restores its configuration. Should be called
 108:Generated_Source\PSoC5/Opamp_1_PM.c **** *  just after awaking from sleep.
 109:Generated_Source\PSoC5/Opamp_1_PM.c **** *
 110:Generated_Source\PSoC5/Opamp_1_PM.c **** * Parameters:
 111:Generated_Source\PSoC5/Opamp_1_PM.c **** *  void
 112:Generated_Source\PSoC5/Opamp_1_PM.c **** *
 113:Generated_Source\PSoC5/Opamp_1_PM.c **** * Return:
 114:Generated_Source\PSoC5/Opamp_1_PM.c **** *  void
 115:Generated_Source\PSoC5/Opamp_1_PM.c **** *
 116:Generated_Source\PSoC5/Opamp_1_PM.c **** * Global variables:
 117:Generated_Source\PSoC5/Opamp_1_PM.c **** *  Opamp_1_backup: The structure field 'enableState' is used to 
 118:Generated_Source\PSoC5/Opamp_1_PM.c **** *  restore the enable state of block after wakeup from sleep mode.
 119:Generated_Source\PSoC5/Opamp_1_PM.c **** *
 120:Generated_Source\PSoC5/Opamp_1_PM.c **** *******************************************************************************/
 121:Generated_Source\PSoC5/Opamp_1_PM.c **** void Opamp_1_Wakeup(void) 
 122:Generated_Source\PSoC5/Opamp_1_PM.c **** {
 139              		.loc 1 122 0
 140              		.cfi_startproc
 141              		@ args = 0, pretend = 0, frame = 0
 142              		@ frame_needed = 1, uses_anonymous_args = 0
 143 0000 80B5     		push	{r7, lr}
 144              		.cfi_def_cfa_offset 8
 145              		.cfi_offset 7, -8
 146              		.cfi_offset 14, -4
 147 0002 00AF     		add	r7, sp, #0
 148              		.cfi_def_cfa_register 7
 123:Generated_Source\PSoC5/Opamp_1_PM.c ****     /* Restore the user configuration */
 124:Generated_Source\PSoC5/Opamp_1_PM.c ****     Opamp_1_RestoreConfig();
 149              		.loc 1 124 0
 150 0004 FFF7FEFF 		bl	Opamp_1_RestoreConfig
 125:Generated_Source\PSoC5/Opamp_1_PM.c **** 
 126:Generated_Source\PSoC5/Opamp_1_PM.c ****     /* Enables the component operation */
 127:Generated_Source\PSoC5/Opamp_1_PM.c ****     if(Opamp_1_backup.enableState == 1u)
 151              		.loc 1 127 0
 152 0008 034B     		ldr	r3, .L10
 153 000a 1B78     		ldrb	r3, [r3]	@ zero_extendqisi2
 154 000c 012B     		cmp	r3, #1
 155 000e 01D1     		bne	.L8
 128:Generated_Source\PSoC5/Opamp_1_PM.c ****     {
 129:Generated_Source\PSoC5/Opamp_1_PM.c ****         Opamp_1_Enable();
 156              		.loc 1 129 0
ARM GAS  C:\Users\Greg\AppData\Local\Temp\cc3dY8Mw.s 			page 6


 157 0010 FFF7FEFF 		bl	Opamp_1_Enable
 158              	.L8:
 130:Generated_Source\PSoC5/Opamp_1_PM.c ****     } /* Do nothing if component was disable before */
 131:Generated_Source\PSoC5/Opamp_1_PM.c **** }
 159              		.loc 1 131 0
 160 0014 80BD     		pop	{r7, pc}
 161              	.L11:
 162 0016 00BF     		.align	2
 163              	.L10:
 164 0018 00000000 		.word	Opamp_1_backup
 165              		.cfi_endproc
 166              	.LFE3:
 167              		.size	Opamp_1_Wakeup, .-Opamp_1_Wakeup
 168              		.text
 169              	.Letext0:
 170              		.file 2 "Generated_Source\\PSoC5\\cytypes.h"
 171              		.file 3 "Generated_Source\\PSoC5\\Opamp_1.h"