ARM GAS  C:\Users\Greg\AppData\Local\Temp\cc1Ptq2h.s 			page 1


   1              		.syntax unified
   2              		.cpu cortex-m3
   3              		.fpu softvfp
   4              		.eabi_attribute 20, 1
   5              		.eabi_attribute 21, 1
   6              		.eabi_attribute 23, 3
   7              		.eabi_attribute 24, 1
   8              		.eabi_attribute 25, 1
   9              		.eabi_attribute 26, 1
  10              		.eabi_attribute 30, 6
  11              		.eabi_attribute 34, 1
  12              		.eabi_attribute 18, 4
  13              		.thumb
  14              		.file	"PRS_PM.c"
  15              		.text
  16              	.Ltext0:
  17              		.cfi_sections	.debug_frame
  18              		.section	.text.PRS_SaveConfig,"ax",%progbits
  19              		.align	2
  20              		.global	PRS_SaveConfig
  21              		.thumb
  22              		.thumb_func
  23              		.type	PRS_SaveConfig, %function
  24              	PRS_SaveConfig:
  25              	.LFB0:
  26              		.file 1 "Generated_Source\\PSoC5\\PRS_PM.c"
   1:Generated_Source\PSoC5/PRS_PM.c **** /*******************************************************************************
   2:Generated_Source\PSoC5/PRS_PM.c **** * File Name: PRS_PM.c
   3:Generated_Source\PSoC5/PRS_PM.c **** * Version 2.40
   4:Generated_Source\PSoC5/PRS_PM.c **** *
   5:Generated_Source\PSoC5/PRS_PM.c **** * Description:
   6:Generated_Source\PSoC5/PRS_PM.c **** *  This file provides Sleep APIs for PRS component.
   7:Generated_Source\PSoC5/PRS_PM.c **** *
   8:Generated_Source\PSoC5/PRS_PM.c **** * Note:
   9:Generated_Source\PSoC5/PRS_PM.c **** *  None
  10:Generated_Source\PSoC5/PRS_PM.c **** *
  11:Generated_Source\PSoC5/PRS_PM.c **** ********************************************************************************
  12:Generated_Source\PSoC5/PRS_PM.c **** * Copyright 2008-2013, Cypress Semiconductor Corporation.  All rights reserved.
  13:Generated_Source\PSoC5/PRS_PM.c **** * You may use this file only in accordance with the license, terms, conditions, 
  14:Generated_Source\PSoC5/PRS_PM.c **** * disclaimers, and limitations in the end user license agreement accompanying 
  15:Generated_Source\PSoC5/PRS_PM.c **** * the software package with which this file was provided.
  16:Generated_Source\PSoC5/PRS_PM.c **** *******************************************************************************/
  17:Generated_Source\PSoC5/PRS_PM.c **** 
  18:Generated_Source\PSoC5/PRS_PM.c **** #include "PRS.h"
  19:Generated_Source\PSoC5/PRS_PM.c **** 
  20:Generated_Source\PSoC5/PRS_PM.c **** #if ((PRS_TIME_MULTIPLEXING_ENABLE) && (PRS_WAKEUP_BEHAVIOUR == PRS__RESUMEWORK))
  21:Generated_Source\PSoC5/PRS_PM.c ****     uint8 PRS_sleepState = PRS_NORMAL_SEQUENCE;    
  22:Generated_Source\PSoC5/PRS_PM.c **** #endif  /* End ((PRS_TIME_MULTIPLEXING_ENABLE) && 
  23:Generated_Source\PSoC5/PRS_PM.c ****           (PRS_WAKEUP_BEHAVIOUR == PRS__RESUMEWORK)) */
  24:Generated_Source\PSoC5/PRS_PM.c **** 
  25:Generated_Source\PSoC5/PRS_PM.c **** 
  26:Generated_Source\PSoC5/PRS_PM.c **** /*******************************************************************************
  27:Generated_Source\PSoC5/PRS_PM.c **** * Function Name: PRS_SaveConfig
  28:Generated_Source\PSoC5/PRS_PM.c **** ********************************************************************************
  29:Generated_Source\PSoC5/PRS_PM.c **** *
  30:Generated_Source\PSoC5/PRS_PM.c **** * Summary:
  31:Generated_Source\PSoC5/PRS_PM.c **** *  Saves seed and polynomial registers.
ARM GAS  C:\Users\Greg\AppData\Local\Temp\cc1Ptq2h.s 			page 2


  32:Generated_Source\PSoC5/PRS_PM.c **** *
  33:Generated_Source\PSoC5/PRS_PM.c **** * Parameters:
  34:Generated_Source\PSoC5/PRS_PM.c **** *  void
  35:Generated_Source\PSoC5/PRS_PM.c **** *
  36:Generated_Source\PSoC5/PRS_PM.c **** * Return:
  37:Generated_Source\PSoC5/PRS_PM.c **** *  void
  38:Generated_Source\PSoC5/PRS_PM.c **** *
  39:Generated_Source\PSoC5/PRS_PM.c **** * Global Variables:
  40:Generated_Source\PSoC5/PRS_PM.c **** *  PRS_backup - modified when non-retention registers are saved.
  41:Generated_Source\PSoC5/PRS_PM.c **** *
  42:Generated_Source\PSoC5/PRS_PM.c **** *******************************************************************************/
  43:Generated_Source\PSoC5/PRS_PM.c **** void PRS_SaveConfig(void) 
  44:Generated_Source\PSoC5/PRS_PM.c **** {    
  27              		.loc 1 44 0
  28              		.cfi_startproc
  29              		@ args = 0, pretend = 0, frame = 0
  30              		@ frame_needed = 1, uses_anonymous_args = 0
  31 0000 80B5     		push	{r7, lr}
  32              		.cfi_def_cfa_offset 8
  33              		.cfi_offset 7, -8
  34              		.cfi_offset 14, -4
  35 0002 00AF     		add	r7, sp, #0
  36              		.cfi_def_cfa_register 7
  45:Generated_Source\PSoC5/PRS_PM.c ****     #if (PRS_WAKEUP_BEHAVIOUR == PRS__RESUMEWORK)
  46:Generated_Source\PSoC5/PRS_PM.c ****         /* Save dff register for time mult */
  47:Generated_Source\PSoC5/PRS_PM.c ****         #if (PRS_TIME_MULTIPLEXING_ENABLE)
  48:Generated_Source\PSoC5/PRS_PM.c ****             PRS_backup.dffStatus = PRS_STATUS;
  49:Generated_Source\PSoC5/PRS_PM.c ****             /* Clear normal dff sequence set */
  50:Generated_Source\PSoC5/PRS_PM.c ****             PRS_sleepState &= ((uint8)~PRS_NORMAL_SEQUENCE);
  51:Generated_Source\PSoC5/PRS_PM.c ****         #endif  /* End PRS_TIME_MULTIPLEXING_ENABLE */
  52:Generated_Source\PSoC5/PRS_PM.c ****         
  53:Generated_Source\PSoC5/PRS_PM.c ****         /* Save A0 and A1 registers */
  54:Generated_Source\PSoC5/PRS_PM.c ****         #if (PRS_PRS_SIZE <= 32u)
  55:Generated_Source\PSoC5/PRS_PM.c ****             PRS_backup.seed = PRS_Read();
  37              		.loc 1 55 0
  38 0004 FFF7FEFF 		bl	PRS_Read
  39 0008 0346     		mov	r3, r0
  40 000a 1A46     		mov	r2, r3
  41 000c 014B     		ldr	r3, .L2
  42 000e 5A80     		strh	r2, [r3, #2]	@ movhi
  56:Generated_Source\PSoC5/PRS_PM.c ****             
  57:Generated_Source\PSoC5/PRS_PM.c ****         #else
  58:Generated_Source\PSoC5/PRS_PM.c ****             PRS_backup.seedUpper = PRS_ReadUpper();
  59:Generated_Source\PSoC5/PRS_PM.c ****             PRS_backup.seedLower = PRS_ReadLower();
  60:Generated_Source\PSoC5/PRS_PM.c ****             
  61:Generated_Source\PSoC5/PRS_PM.c ****         #endif     /* End (PRS_PRS_SIZE <= 32u) */
  62:Generated_Source\PSoC5/PRS_PM.c ****         
  63:Generated_Source\PSoC5/PRS_PM.c ****     #endif  /* End (PRS_WAKEUP_BEHAVIOUR == PRS__RESUMEWORK) */
  64:Generated_Source\PSoC5/PRS_PM.c **** }
  43              		.loc 1 64 0
  44 0010 80BD     		pop	{r7, pc}
  45              	.L3:
  46 0012 00BF     		.align	2
  47              	.L2:
  48 0014 00000000 		.word	PRS_backup
  49              		.cfi_endproc
  50              	.LFE0:
ARM GAS  C:\Users\Greg\AppData\Local\Temp\cc1Ptq2h.s 			page 3


  51              		.size	PRS_SaveConfig, .-PRS_SaveConfig
  52              		.section	.text.PRS_Sleep,"ax",%progbits
  53              		.align	2
  54              		.global	PRS_Sleep
  55              		.thumb
  56              		.thumb_func
  57              		.type	PRS_Sleep, %function
  58              	PRS_Sleep:
  59              	.LFB1:
  65:Generated_Source\PSoC5/PRS_PM.c **** 
  66:Generated_Source\PSoC5/PRS_PM.c **** 
  67:Generated_Source\PSoC5/PRS_PM.c **** /*******************************************************************************
  68:Generated_Source\PSoC5/PRS_PM.c **** * Function Name: PRS_Sleep
  69:Generated_Source\PSoC5/PRS_PM.c **** ********************************************************************************
  70:Generated_Source\PSoC5/PRS_PM.c **** *
  71:Generated_Source\PSoC5/PRS_PM.c **** * Summary:
  72:Generated_Source\PSoC5/PRS_PM.c **** *  Stops PRS computation and saves PRS configuration.
  73:Generated_Source\PSoC5/PRS_PM.c **** *
  74:Generated_Source\PSoC5/PRS_PM.c **** * Parameters:
  75:Generated_Source\PSoC5/PRS_PM.c **** *  void
  76:Generated_Source\PSoC5/PRS_PM.c **** *
  77:Generated_Source\PSoC5/PRS_PM.c **** * Return:
  78:Generated_Source\PSoC5/PRS_PM.c **** *  void
  79:Generated_Source\PSoC5/PRS_PM.c **** *
  80:Generated_Source\PSoC5/PRS_PM.c **** * Global Variables:
  81:Generated_Source\PSoC5/PRS_PM.c **** *  PRS_backup - modified when non-retention registers are saved.
  82:Generated_Source\PSoC5/PRS_PM.c **** *
  83:Generated_Source\PSoC5/PRS_PM.c **** *******************************************************************************/
  84:Generated_Source\PSoC5/PRS_PM.c **** void PRS_Sleep(void) 
  85:Generated_Source\PSoC5/PRS_PM.c **** {
  60              		.loc 1 85 0
  61              		.cfi_startproc
  62              		@ args = 0, pretend = 0, frame = 0
  63              		@ frame_needed = 1, uses_anonymous_args = 0
  64 0000 80B5     		push	{r7, lr}
  65              		.cfi_def_cfa_offset 8
  66              		.cfi_offset 7, -8
  67              		.cfi_offset 14, -4
  68 0002 00AF     		add	r7, sp, #0
  69              		.cfi_def_cfa_register 7
  86:Generated_Source\PSoC5/PRS_PM.c ****     /* Store PRS enable state */
  87:Generated_Source\PSoC5/PRS_PM.c ****     if(PRS_IS_PRS_ENABLE(PRS_CONTROL_REG))
  70              		.loc 1 87 0
  71 0004 094B     		ldr	r3, .L7
  72 0006 1B78     		ldrb	r3, [r3]
  73 0008 DBB2     		uxtb	r3, r3
  74 000a 03F00103 		and	r3, r3, #1
  75 000e 002B     		cmp	r3, #0
  76 0010 05D0     		beq	.L5
  88:Generated_Source\PSoC5/PRS_PM.c ****     {
  89:Generated_Source\PSoC5/PRS_PM.c ****         PRS_backup.enableState = 1u;
  77              		.loc 1 89 0
  78 0012 074B     		ldr	r3, .L7+4
  79 0014 0122     		movs	r2, #1
  80 0016 1A70     		strb	r2, [r3]
  90:Generated_Source\PSoC5/PRS_PM.c ****         PRS_Stop();
  81              		.loc 1 90 0
ARM GAS  C:\Users\Greg\AppData\Local\Temp\cc1Ptq2h.s 			page 4


  82 0018 FFF7FEFF 		bl	PRS_Stop
  83 001c 02E0     		b	.L6
  84              	.L5:
  91:Generated_Source\PSoC5/PRS_PM.c ****     }
  92:Generated_Source\PSoC5/PRS_PM.c ****     else
  93:Generated_Source\PSoC5/PRS_PM.c ****     {
  94:Generated_Source\PSoC5/PRS_PM.c ****         PRS_backup.enableState = 0u;
  85              		.loc 1 94 0
  86 001e 044B     		ldr	r3, .L7+4
  87 0020 0022     		movs	r2, #0
  88 0022 1A70     		strb	r2, [r3]
  89              	.L6:
  95:Generated_Source\PSoC5/PRS_PM.c ****     }
  96:Generated_Source\PSoC5/PRS_PM.c ****     
  97:Generated_Source\PSoC5/PRS_PM.c ****     PRS_SaveConfig();
  90              		.loc 1 97 0
  91 0024 FFF7FEFF 		bl	PRS_SaveConfig
  98:Generated_Source\PSoC5/PRS_PM.c **** }
  92              		.loc 1 98 0
  93 0028 80BD     		pop	{r7, pc}
  94              	.L8:
  95 002a 00BF     		.align	2
  96              	.L7:
  97 002c 76640040 		.word	1073767542
  98 0030 00000000 		.word	PRS_backup
  99              		.cfi_endproc
 100              	.LFE1:
 101              		.size	PRS_Sleep, .-PRS_Sleep
 102              		.section	.text.PRS_RestoreConfig,"ax",%progbits
 103              		.align	2
 104              		.global	PRS_RestoreConfig
 105              		.thumb
 106              		.thumb_func
 107              		.type	PRS_RestoreConfig, %function
 108              	PRS_RestoreConfig:
 109              	.LFB2:
  99:Generated_Source\PSoC5/PRS_PM.c **** 
 100:Generated_Source\PSoC5/PRS_PM.c **** 
 101:Generated_Source\PSoC5/PRS_PM.c **** /*******************************************************************************
 102:Generated_Source\PSoC5/PRS_PM.c **** * Function Name: PRS_RestoreConfig
 103:Generated_Source\PSoC5/PRS_PM.c **** ********************************************************************************
 104:Generated_Source\PSoC5/PRS_PM.c **** *
 105:Generated_Source\PSoC5/PRS_PM.c **** * Summary:
 106:Generated_Source\PSoC5/PRS_PM.c **** *  Restores seed and polynomial registers.
 107:Generated_Source\PSoC5/PRS_PM.c **** *
 108:Generated_Source\PSoC5/PRS_PM.c **** * Parameters:
 109:Generated_Source\PSoC5/PRS_PM.c **** *  void
 110:Generated_Source\PSoC5/PRS_PM.c **** *
 111:Generated_Source\PSoC5/PRS_PM.c **** * Return:
 112:Generated_Source\PSoC5/PRS_PM.c **** *  void
 113:Generated_Source\PSoC5/PRS_PM.c **** *
 114:Generated_Source\PSoC5/PRS_PM.c **** *******************************************************************************/
 115:Generated_Source\PSoC5/PRS_PM.c **** #if (PRS_WAKEUP_BEHAVIOUR == PRS__RESUMEWORK)
 116:Generated_Source\PSoC5/PRS_PM.c ****     #if (PRS_TIME_MULTIPLEXING_ENABLE)
 117:Generated_Source\PSoC5/PRS_PM.c ****         void PRS_RestoreConfig(void) 
 118:Generated_Source\PSoC5/PRS_PM.c ****         {   
 119:Generated_Source\PSoC5/PRS_PM.c ****             /* Restore A0 and A1 registers */
ARM GAS  C:\Users\Greg\AppData\Local\Temp\cc1Ptq2h.s 			page 5


 120:Generated_Source\PSoC5/PRS_PM.c ****             #if (PRS_PRS_SIZE <= 32u)
 121:Generated_Source\PSoC5/PRS_PM.c ****                 PRS_WriteSeed(PRS_backup.seed);
 122:Generated_Source\PSoC5/PRS_PM.c ****             #else
 123:Generated_Source\PSoC5/PRS_PM.c ****                 PRS_WriteSeedUpper(PRS_backup.seedUpper);
 124:Generated_Source\PSoC5/PRS_PM.c ****                 PRS_WriteSeedLower(PRS_backup.seedLower);
 125:Generated_Source\PSoC5/PRS_PM.c ****             #endif  /* End (PRS_PRS_SIZE <= 32u) */
 126:Generated_Source\PSoC5/PRS_PM.c ****             
 127:Generated_Source\PSoC5/PRS_PM.c ****             #if (PRS_RUN_MODE == PRS__CLOCKED)
 128:Generated_Source\PSoC5/PRS_PM.c ****                 #if (PRS_PRS_SIZE <= 32u)
 129:Generated_Source\PSoC5/PRS_PM.c ****                     PRS_ResetSeedInit(PRS_DEFAULT_SEED);                        
 130:Generated_Source\PSoC5/PRS_PM.c ****                 #else
 131:Generated_Source\PSoC5/PRS_PM.c ****                     PRS_ResetSeedInitUpper(PRS_DEFAULT_SEED_UPPER);
 132:Generated_Source\PSoC5/PRS_PM.c ****                     PRS_ResetSeedInitLower(PRS_DEFAULT_SEED_LOWER); 
 133:Generated_Source\PSoC5/PRS_PM.c ****                 #endif  /* End (PRS_PRS_SIZE <= 32u) */ 
 134:Generated_Source\PSoC5/PRS_PM.c ****             #endif  /* End (PRS_RUN_MODE == PRS__CLOCKED) */
 135:Generated_Source\PSoC5/PRS_PM.c ****             
 136:Generated_Source\PSoC5/PRS_PM.c ****             /* Restore dff state for time mult: use async set/reest */
 137:Generated_Source\PSoC5/PRS_PM.c ****             /* Set CI, SI, SO, STATE0, STATE1 */
 138:Generated_Source\PSoC5/PRS_PM.c ****             PRS_CONTROL_REG = PRS_backup.dffStatus;
 139:Generated_Source\PSoC5/PRS_PM.c ****             
 140:Generated_Source\PSoC5/PRS_PM.c ****             /* Make pulse, to set trigger to defined state */
 141:Generated_Source\PSoC5/PRS_PM.c ****             PRS_EXECUTE_DFF_SET;
 142:Generated_Source\PSoC5/PRS_PM.c ****             
 143:Generated_Source\PSoC5/PRS_PM.c ****             /* Set normal dff sequence set */
 144:Generated_Source\PSoC5/PRS_PM.c ****             PRS_sleepState |= PRS_NORMAL_SEQUENCE;
 145:Generated_Source\PSoC5/PRS_PM.c ****         }
 146:Generated_Source\PSoC5/PRS_PM.c ****         
 147:Generated_Source\PSoC5/PRS_PM.c ****     #else
 148:Generated_Source\PSoC5/PRS_PM.c ****         void PRS_RestoreConfig(void) 
 149:Generated_Source\PSoC5/PRS_PM.c ****         {   
 110              		.loc 1 149 0
 111              		.cfi_startproc
 112              		@ args = 0, pretend = 0, frame = 0
 113              		@ frame_needed = 1, uses_anonymous_args = 0
 114 0000 80B5     		push	{r7, lr}
 115              		.cfi_def_cfa_offset 8
 116              		.cfi_offset 7, -8
 117              		.cfi_offset 14, -4
 118 0002 00AF     		add	r7, sp, #0
 119              		.cfi_def_cfa_register 7
 150:Generated_Source\PSoC5/PRS_PM.c ****             /* Restore A0 and A1 registers */
 151:Generated_Source\PSoC5/PRS_PM.c ****             #if (PRS_PRS_SIZE <= 32u)
 152:Generated_Source\PSoC5/PRS_PM.c ****                 PRS_WriteSeed(PRS_backup.seed);
 120              		.loc 1 152 0
 121 0004 044B     		ldr	r3, .L10
 122 0006 5B88     		ldrh	r3, [r3, #2]
 123 0008 1846     		mov	r0, r3
 124 000a FFF7FEFF 		bl	PRS_WriteSeed
 153:Generated_Source\PSoC5/PRS_PM.c ****             #else
 154:Generated_Source\PSoC5/PRS_PM.c ****                 PRS_WriteSeedUpper(PRS_backup.seedUpper);
 155:Generated_Source\PSoC5/PRS_PM.c ****                 PRS_WriteSeedLower(PRS_backup.seedLower);
 156:Generated_Source\PSoC5/PRS_PM.c ****             #endif  /* End (PRS_PRS_SIZE <= 32u) */
 157:Generated_Source\PSoC5/PRS_PM.c ****             
 158:Generated_Source\PSoC5/PRS_PM.c ****             #if (PRS_RUN_MODE == PRS__CLOCKED)
 159:Generated_Source\PSoC5/PRS_PM.c ****                 #if (PRS_PRS_SIZE <= 32u)
 160:Generated_Source\PSoC5/PRS_PM.c ****                     PRS_ResetSeedInit(PRS_DEFAULT_SEED);                        
 125              		.loc 1 160 0
ARM GAS  C:\Users\Greg\AppData\Local\Temp\cc1Ptq2h.s 			page 6


 126 000e 4FF6FF70 		movw	r0, #65535
 127 0012 FFF7FEFF 		bl	PRS_ResetSeedInit
 161:Generated_Source\PSoC5/PRS_PM.c ****                 #else
 162:Generated_Source\PSoC5/PRS_PM.c ****                     PRS_ResetSeedInitUpper(PRS_DEFAULT_SEED_UPPER);
 163:Generated_Source\PSoC5/PRS_PM.c ****                     PRS_ResetSeedInitLower(PRS_DEFAULT_SEED_LOWER); 
 164:Generated_Source\PSoC5/PRS_PM.c ****                 #endif  /* End (PRS_PRS_SIZE <= 32u) */ 
 165:Generated_Source\PSoC5/PRS_PM.c ****             #endif  /* End (PRS_RUN_MODE == PRS__CLOCKED) */
 166:Generated_Source\PSoC5/PRS_PM.c ****         }
 128              		.loc 1 166 0
 129 0016 80BD     		pop	{r7, pc}
 130              	.L11:
 131              		.align	2
 132              	.L10:
 133 0018 00000000 		.word	PRS_backup
 134              		.cfi_endproc
 135              	.LFE2:
 136              		.size	PRS_RestoreConfig, .-PRS_RestoreConfig
 137              		.section	.text.PRS_Wakeup,"ax",%progbits
 138              		.align	2
 139              		.global	PRS_Wakeup
 140              		.thumb
 141              		.thumb_func
 142              		.type	PRS_Wakeup, %function
 143              	PRS_Wakeup:
 144              	.LFB3:
 167:Generated_Source\PSoC5/PRS_PM.c ****         
 168:Generated_Source\PSoC5/PRS_PM.c ****     #endif  /* End (PRS_TIME_MULTIPLEXING_ENABLE) */
 169:Generated_Source\PSoC5/PRS_PM.c ****     
 170:Generated_Source\PSoC5/PRS_PM.c **** #else
 171:Generated_Source\PSoC5/PRS_PM.c ****     void PRS_RestoreConfig(void) 
 172:Generated_Source\PSoC5/PRS_PM.c ****     {
 173:Generated_Source\PSoC5/PRS_PM.c ****         PRS_Init();
 174:Generated_Source\PSoC5/PRS_PM.c ****     }
 175:Generated_Source\PSoC5/PRS_PM.c ****     
 176:Generated_Source\PSoC5/PRS_PM.c **** #endif  /* End (PRS_WAKEUP_BEHAVIOUR == PRS__RESUMEWORK) */
 177:Generated_Source\PSoC5/PRS_PM.c **** 
 178:Generated_Source\PSoC5/PRS_PM.c **** 
 179:Generated_Source\PSoC5/PRS_PM.c **** /*******************************************************************************
 180:Generated_Source\PSoC5/PRS_PM.c **** * Function Name: PRS_Wakeup
 181:Generated_Source\PSoC5/PRS_PM.c **** ********************************************************************************
 182:Generated_Source\PSoC5/PRS_PM.c **** *
 183:Generated_Source\PSoC5/PRS_PM.c **** * Summary:
 184:Generated_Source\PSoC5/PRS_PM.c **** *  Restores PRS configuration and starts PRS computation. 
 185:Generated_Source\PSoC5/PRS_PM.c **** *
 186:Generated_Source\PSoC5/PRS_PM.c **** * Parameters:
 187:Generated_Source\PSoC5/PRS_PM.c **** *  void
 188:Generated_Source\PSoC5/PRS_PM.c **** *
 189:Generated_Source\PSoC5/PRS_PM.c **** * Return:
 190:Generated_Source\PSoC5/PRS_PM.c **** *  void
 191:Generated_Source\PSoC5/PRS_PM.c **** *
 192:Generated_Source\PSoC5/PRS_PM.c **** *******************************************************************************/
 193:Generated_Source\PSoC5/PRS_PM.c **** #if ((PRS_WAKEUP_BEHAVIOUR == PRS__RESUMEWORK) && (PRS_TIME_MULTIPLEXING_ENABLE))
 194:Generated_Source\PSoC5/PRS_PM.c ****     void PRS_Wakeup(void) 
 195:Generated_Source\PSoC5/PRS_PM.c **** #else
 196:Generated_Source\PSoC5/PRS_PM.c ****     void PRS_Wakeup(void) 
 197:Generated_Source\PSoC5/PRS_PM.c **** #endif  /* End ((PRS_WAKEUP_BEHAVIOUR == PRS__RESUMEWORK) && 
 198:Generated_Source\PSoC5/PRS_PM.c ****                 (PRS_TIME_MULTIPLEXING_ENABLE)) */
ARM GAS  C:\Users\Greg\AppData\Local\Temp\cc1Ptq2h.s 			page 7


 199:Generated_Source\PSoC5/PRS_PM.c **** {
 145              		.loc 1 199 0
 146              		.cfi_startproc
 147              		@ args = 0, pretend = 0, frame = 0
 148              		@ frame_needed = 1, uses_anonymous_args = 0
 149 0000 80B5     		push	{r7, lr}
 150              		.cfi_def_cfa_offset 8
 151              		.cfi_offset 7, -8
 152              		.cfi_offset 14, -4
 153 0002 00AF     		add	r7, sp, #0
 154              		.cfi_def_cfa_register 7
 200:Generated_Source\PSoC5/PRS_PM.c ****     PRS_RestoreConfig();
 155              		.loc 1 200 0
 156 0004 FFF7FEFF 		bl	PRS_RestoreConfig
 201:Generated_Source\PSoC5/PRS_PM.c ****     
 202:Generated_Source\PSoC5/PRS_PM.c ****     /* Restore PRS enable state */
 203:Generated_Source\PSoC5/PRS_PM.c ****     if (PRS_backup.enableState != 0u)
 157              		.loc 1 203 0
 158 0008 034B     		ldr	r3, .L14
 159 000a 1B78     		ldrb	r3, [r3]	@ zero_extendqisi2
 160 000c 002B     		cmp	r3, #0
 161 000e 01D0     		beq	.L12
 204:Generated_Source\PSoC5/PRS_PM.c ****     {
 205:Generated_Source\PSoC5/PRS_PM.c ****         PRS_Enable();
 162              		.loc 1 205 0
 163 0010 FFF7FEFF 		bl	PRS_Enable
 164              	.L12:
 206:Generated_Source\PSoC5/PRS_PM.c ****     }
 207:Generated_Source\PSoC5/PRS_PM.c **** }
 165              		.loc 1 207 0
 166 0014 80BD     		pop	{r7, pc}
 167              	.L15:
 168 0016 00BF     		.align	2
 169              	.L14:
 170 0018 00000000 		.word	PRS_backup
 171              		.cfi_endproc
 172              	.LFE3:
 173              		.size	PRS_Wakeup, .-PRS_Wakeup
 174              		.text
 175              	.Letext0:
 176              		.file 2 "Generated_Source\\PSoC5\\cytypes.h"
 177              		.file 3 "Generated_Source\\PSoC5\\PRS.h"