ARM GAS  C:\Users\Greg\AppData\Local\Temp\ccFRpfhi.s 			page 1


   1              		.syntax unified
   2              		.cpu cortex-m3
   3              		.fpu softvfp
   4              		.eabi_attribute 20, 1
   5              		.eabi_attribute 21, 1
   6              		.eabi_attribute 23, 3
   7              		.eabi_attribute 24, 1
   8              		.eabi_attribute 25, 1
   9              		.eabi_attribute 26, 1
  10              		.eabi_attribute 30, 6
  11              		.eabi_attribute 34, 1
  12              		.eabi_attribute 18, 4
  13              		.thumb
  14              		.file	"Trig_Buf.c"
  15              		.text
  16              	.Ltext0:
  17              		.cfi_sections	.debug_frame
  18              		.global	Trig_Buf_initVar
  19              		.bss
  20              		.type	Trig_Buf_initVar, %object
  21              		.size	Trig_Buf_initVar, 1
  22              	Trig_Buf_initVar:
  23 0000 00       		.space	1
  24              		.section	.text.Trig_Buf_Init,"ax",%progbits
  25              		.align	2
  26              		.global	Trig_Buf_Init
  27              		.thumb
  28              		.thumb_func
  29              		.type	Trig_Buf_Init, %function
  30              	Trig_Buf_Init:
  31              	.LFB0:
  32              		.file 1 "Generated_Source\\PSoC5\\Trig_Buf.c"
   1:Generated_Source\PSoC5/Trig_Buf.c **** /*******************************************************************************
   2:Generated_Source\PSoC5/Trig_Buf.c **** * File Name: Trig_Buf.c
   3:Generated_Source\PSoC5/Trig_Buf.c **** * Version 1.90
   4:Generated_Source\PSoC5/Trig_Buf.c **** *
   5:Generated_Source\PSoC5/Trig_Buf.c **** * Description:
   6:Generated_Source\PSoC5/Trig_Buf.c **** *  This file provides the source code to the API for OpAmp (Analog Buffer) 
   7:Generated_Source\PSoC5/Trig_Buf.c **** *  Component.
   8:Generated_Source\PSoC5/Trig_Buf.c **** *
   9:Generated_Source\PSoC5/Trig_Buf.c **** * Note:
  10:Generated_Source\PSoC5/Trig_Buf.c **** *
  11:Generated_Source\PSoC5/Trig_Buf.c **** ********************************************************************************
  12:Generated_Source\PSoC5/Trig_Buf.c **** * Copyright 2008-2012, Cypress Semiconductor Corporation.  All rights reserved.
  13:Generated_Source\PSoC5/Trig_Buf.c **** * You may use this file only in accordance with the license, terms, conditions, 
  14:Generated_Source\PSoC5/Trig_Buf.c **** * disclaimers, and limitations in the end user license agreement accompanying 
  15:Generated_Source\PSoC5/Trig_Buf.c **** * the software package with which this file was provided.
  16:Generated_Source\PSoC5/Trig_Buf.c **** *******************************************************************************/
  17:Generated_Source\PSoC5/Trig_Buf.c **** 
  18:Generated_Source\PSoC5/Trig_Buf.c **** #include "Trig_Buf.h"
  19:Generated_Source\PSoC5/Trig_Buf.c **** 
  20:Generated_Source\PSoC5/Trig_Buf.c **** uint8 Trig_Buf_initVar = 0u;
  21:Generated_Source\PSoC5/Trig_Buf.c **** 
  22:Generated_Source\PSoC5/Trig_Buf.c **** 
  23:Generated_Source\PSoC5/Trig_Buf.c **** /*******************************************************************************   
  24:Generated_Source\PSoC5/Trig_Buf.c **** * Function Name: Trig_Buf_Init
  25:Generated_Source\PSoC5/Trig_Buf.c **** ********************************************************************************
ARM GAS  C:\Users\Greg\AppData\Local\Temp\ccFRpfhi.s 			page 2


  26:Generated_Source\PSoC5/Trig_Buf.c **** *
  27:Generated_Source\PSoC5/Trig_Buf.c **** * Summary:
  28:Generated_Source\PSoC5/Trig_Buf.c **** *  Initialize component's parameters to the parameters set by user in the 
  29:Generated_Source\PSoC5/Trig_Buf.c **** *  customizer of the component placed onto schematic. Usually called in 
  30:Generated_Source\PSoC5/Trig_Buf.c **** *  Trig_Buf_Start().
  31:Generated_Source\PSoC5/Trig_Buf.c **** *
  32:Generated_Source\PSoC5/Trig_Buf.c **** * Parameters:
  33:Generated_Source\PSoC5/Trig_Buf.c **** *  void
  34:Generated_Source\PSoC5/Trig_Buf.c **** *
  35:Generated_Source\PSoC5/Trig_Buf.c **** * Return:
  36:Generated_Source\PSoC5/Trig_Buf.c **** *  void
  37:Generated_Source\PSoC5/Trig_Buf.c **** *
  38:Generated_Source\PSoC5/Trig_Buf.c **** *******************************************************************************/
  39:Generated_Source\PSoC5/Trig_Buf.c **** void Trig_Buf_Init(void) 
  40:Generated_Source\PSoC5/Trig_Buf.c **** {
  33              		.loc 1 40 0
  34              		.cfi_startproc
  35              		@ args = 0, pretend = 0, frame = 0
  36              		@ frame_needed = 1, uses_anonymous_args = 0
  37 0000 80B5     		push	{r7, lr}
  38              		.cfi_def_cfa_offset 8
  39              		.cfi_offset 7, -8
  40              		.cfi_offset 14, -4
  41 0002 00AF     		add	r7, sp, #0
  42              		.cfi_def_cfa_register 7
  41:Generated_Source\PSoC5/Trig_Buf.c ****     Trig_Buf_SetPower(Trig_Buf_DEFAULT_POWER);
  43              		.loc 1 41 0
  44 0004 0320     		movs	r0, #3
  45 0006 FFF7FEFF 		bl	Trig_Buf_SetPower
  42:Generated_Source\PSoC5/Trig_Buf.c **** }
  46              		.loc 1 42 0
  47 000a 80BD     		pop	{r7, pc}
  48              		.cfi_endproc
  49              	.LFE0:
  50              		.size	Trig_Buf_Init, .-Trig_Buf_Init
  51              		.section	.text.Trig_Buf_Enable,"ax",%progbits
  52              		.align	2
  53              		.global	Trig_Buf_Enable
  54              		.thumb
  55              		.thumb_func
  56              		.type	Trig_Buf_Enable, %function
  57              	Trig_Buf_Enable:
  58              	.LFB1:
  43:Generated_Source\PSoC5/Trig_Buf.c **** 
  44:Generated_Source\PSoC5/Trig_Buf.c **** 
  45:Generated_Source\PSoC5/Trig_Buf.c **** /*******************************************************************************   
  46:Generated_Source\PSoC5/Trig_Buf.c **** * Function Name: Trig_Buf_Enable
  47:Generated_Source\PSoC5/Trig_Buf.c **** ********************************************************************************
  48:Generated_Source\PSoC5/Trig_Buf.c **** *
  49:Generated_Source\PSoC5/Trig_Buf.c **** * Summary:
  50:Generated_Source\PSoC5/Trig_Buf.c **** *  Enables the OpAmp block operation
  51:Generated_Source\PSoC5/Trig_Buf.c **** *
  52:Generated_Source\PSoC5/Trig_Buf.c **** * Parameters:
  53:Generated_Source\PSoC5/Trig_Buf.c **** *  void
  54:Generated_Source\PSoC5/Trig_Buf.c **** *
  55:Generated_Source\PSoC5/Trig_Buf.c **** * Return:
  56:Generated_Source\PSoC5/Trig_Buf.c **** *  void
ARM GAS  C:\Users\Greg\AppData\Local\Temp\ccFRpfhi.s 			page 3


  57:Generated_Source\PSoC5/Trig_Buf.c **** *
  58:Generated_Source\PSoC5/Trig_Buf.c **** *******************************************************************************/
  59:Generated_Source\PSoC5/Trig_Buf.c **** void Trig_Buf_Enable(void) 
  60:Generated_Source\PSoC5/Trig_Buf.c **** {
  59              		.loc 1 60 0
  60              		.cfi_startproc
  61              		@ args = 0, pretend = 0, frame = 0
  62              		@ frame_needed = 1, uses_anonymous_args = 0
  63              		@ link register save eliminated.
  64 0000 80B4     		push	{r7}
  65              		.cfi_def_cfa_offset 4
  66              		.cfi_offset 7, -4
  67 0002 00AF     		add	r7, sp, #0
  68              		.cfi_def_cfa_register 7
  61:Generated_Source\PSoC5/Trig_Buf.c ****     /* Enable negative charge pumps in ANIF */
  62:Generated_Source\PSoC5/Trig_Buf.c ****     Trig_Buf_PUMP_CR1_REG  |= (Trig_Buf_PUMP_CR1_CLKSEL | Trig_Buf_PUMP_CR1_FORCE);
  69              		.loc 1 62 0
  70 0004 0D4A     		ldr	r2, .L3
  71 0006 0D4B     		ldr	r3, .L3
  72 0008 1B78     		ldrb	r3, [r3]
  73 000a DBB2     		uxtb	r3, r3
  74 000c 43F06003 		orr	r3, r3, #96
  75 0010 DBB2     		uxtb	r3, r3
  76 0012 1370     		strb	r3, [r2]
  63:Generated_Source\PSoC5/Trig_Buf.c **** 
  64:Generated_Source\PSoC5/Trig_Buf.c ****     /* Enable power to buffer in active mode */
  65:Generated_Source\PSoC5/Trig_Buf.c ****     Trig_Buf_PM_ACT_CFG_REG |= Trig_Buf_ACT_PWR_EN;
  77              		.loc 1 65 0
  78 0014 0A4A     		ldr	r2, .L3+4
  79 0016 0A4B     		ldr	r3, .L3+4
  80 0018 1B78     		ldrb	r3, [r3]
  81 001a DBB2     		uxtb	r3, r3
  82 001c 43F00203 		orr	r3, r3, #2
  83 0020 DBB2     		uxtb	r3, r3
  84 0022 1370     		strb	r3, [r2]
  66:Generated_Source\PSoC5/Trig_Buf.c **** 
  67:Generated_Source\PSoC5/Trig_Buf.c ****     /* Enable power to buffer in alternative active mode */
  68:Generated_Source\PSoC5/Trig_Buf.c ****     Trig_Buf_PM_STBY_CFG_REG |= Trig_Buf_STBY_PWR_EN;
  85              		.loc 1 68 0
  86 0024 074A     		ldr	r2, .L3+8
  87 0026 074B     		ldr	r3, .L3+8
  88 0028 1B78     		ldrb	r3, [r3]
  89 002a DBB2     		uxtb	r3, r3
  90 002c 43F00203 		orr	r3, r3, #2
  91 0030 DBB2     		uxtb	r3, r3
  92 0032 1370     		strb	r3, [r2]
  69:Generated_Source\PSoC5/Trig_Buf.c **** }
  93              		.loc 1 69 0
  94 0034 BD46     		mov	sp, r7
  95              		.cfi_def_cfa_register 13
  96              		@ sp needed
  97 0036 5DF8047B 		ldr	r7, [sp], #4
  98              		.cfi_restore 7
  99              		.cfi_def_cfa_offset 0
 100 003a 7047     		bx	lr
 101              	.L4:
 102              		.align	2
ARM GAS  C:\Users\Greg\AppData\Local\Temp\ccFRpfhi.s 			page 4


 103              	.L3:
 104 003c 77580040 		.word	1073764471
 105 0040 A4430040 		.word	1073759140
 106 0044 B4430040 		.word	1073759156
 107              		.cfi_endproc
 108              	.LFE1:
 109              		.size	Trig_Buf_Enable, .-Trig_Buf_Enable
 110              		.section	.text.Trig_Buf_Start,"ax",%progbits
 111              		.align	2
 112              		.global	Trig_Buf_Start
 113              		.thumb
 114              		.thumb_func
 115              		.type	Trig_Buf_Start, %function
 116              	Trig_Buf_Start:
 117              	.LFB2:
  70:Generated_Source\PSoC5/Trig_Buf.c **** 
  71:Generated_Source\PSoC5/Trig_Buf.c **** 
  72:Generated_Source\PSoC5/Trig_Buf.c **** /*******************************************************************************
  73:Generated_Source\PSoC5/Trig_Buf.c **** * Function Name:   Trig_Buf_Start
  74:Generated_Source\PSoC5/Trig_Buf.c **** ********************************************************************************
  75:Generated_Source\PSoC5/Trig_Buf.c **** *
  76:Generated_Source\PSoC5/Trig_Buf.c **** * Summary:
  77:Generated_Source\PSoC5/Trig_Buf.c **** *  The start function initializes the Analog Buffer with the default values and 
  78:Generated_Source\PSoC5/Trig_Buf.c **** *  sets the power to the given level. A power level of 0, is same as 
  79:Generated_Source\PSoC5/Trig_Buf.c **** *  executing the stop function.
  80:Generated_Source\PSoC5/Trig_Buf.c **** *
  81:Generated_Source\PSoC5/Trig_Buf.c **** * Parameters:
  82:Generated_Source\PSoC5/Trig_Buf.c **** *  void
  83:Generated_Source\PSoC5/Trig_Buf.c **** *
  84:Generated_Source\PSoC5/Trig_Buf.c **** * Return:
  85:Generated_Source\PSoC5/Trig_Buf.c **** *  void
  86:Generated_Source\PSoC5/Trig_Buf.c **** *
  87:Generated_Source\PSoC5/Trig_Buf.c **** * Global variables:
  88:Generated_Source\PSoC5/Trig_Buf.c **** *  Trig_Buf_initVar: Used to check the initial configuration, modified 
  89:Generated_Source\PSoC5/Trig_Buf.c **** *  when this function is called for the first time.
  90:Generated_Source\PSoC5/Trig_Buf.c **** *
  91:Generated_Source\PSoC5/Trig_Buf.c **** *******************************************************************************/
  92:Generated_Source\PSoC5/Trig_Buf.c **** void Trig_Buf_Start(void) 
  93:Generated_Source\PSoC5/Trig_Buf.c **** {
 118              		.loc 1 93 0
 119              		.cfi_startproc
 120              		@ args = 0, pretend = 0, frame = 0
 121              		@ frame_needed = 1, uses_anonymous_args = 0
 122 0000 80B5     		push	{r7, lr}
 123              		.cfi_def_cfa_offset 8
 124              		.cfi_offset 7, -8
 125              		.cfi_offset 14, -4
 126 0002 00AF     		add	r7, sp, #0
 127              		.cfi_def_cfa_register 7
  94:Generated_Source\PSoC5/Trig_Buf.c ****     if(Trig_Buf_initVar == 0u)
 128              		.loc 1 94 0
 129 0004 054B     		ldr	r3, .L7
 130 0006 1B78     		ldrb	r3, [r3]	@ zero_extendqisi2
 131 0008 002B     		cmp	r3, #0
 132 000a 04D1     		bne	.L6
  95:Generated_Source\PSoC5/Trig_Buf.c ****     {
  96:Generated_Source\PSoC5/Trig_Buf.c ****         Trig_Buf_initVar = 1u;
ARM GAS  C:\Users\Greg\AppData\Local\Temp\ccFRpfhi.s 			page 5


 133              		.loc 1 96 0
 134 000c 034B     		ldr	r3, .L7
 135 000e 0122     		movs	r2, #1
 136 0010 1A70     		strb	r2, [r3]
  97:Generated_Source\PSoC5/Trig_Buf.c ****         Trig_Buf_Init();
 137              		.loc 1 97 0
 138 0012 FFF7FEFF 		bl	Trig_Buf_Init
 139              	.L6:
  98:Generated_Source\PSoC5/Trig_Buf.c ****     }
  99:Generated_Source\PSoC5/Trig_Buf.c **** 
 100:Generated_Source\PSoC5/Trig_Buf.c ****     Trig_Buf_Enable();
 140              		.loc 1 100 0
 141 0016 FFF7FEFF 		bl	Trig_Buf_Enable
 101:Generated_Source\PSoC5/Trig_Buf.c **** }
 142              		.loc 1 101 0
 143 001a 80BD     		pop	{r7, pc}
 144              	.L8:
 145              		.align	2
 146              	.L7:
 147 001c 00000000 		.word	Trig_Buf_initVar
 148              		.cfi_endproc
 149              	.LFE2:
 150              		.size	Trig_Buf_Start, .-Trig_Buf_Start
 151              		.section	.text.Trig_Buf_Stop,"ax",%progbits
 152              		.align	2
 153              		.global	Trig_Buf_Stop
 154              		.thumb
 155              		.thumb_func
 156              		.type	Trig_Buf_Stop, %function
 157              	Trig_Buf_Stop:
 158              	.LFB3:
 102:Generated_Source\PSoC5/Trig_Buf.c **** 
 103:Generated_Source\PSoC5/Trig_Buf.c **** 
 104:Generated_Source\PSoC5/Trig_Buf.c **** /*******************************************************************************
 105:Generated_Source\PSoC5/Trig_Buf.c **** * Function Name: Trig_Buf_Stop
 106:Generated_Source\PSoC5/Trig_Buf.c **** ********************************************************************************
 107:Generated_Source\PSoC5/Trig_Buf.c **** *
 108:Generated_Source\PSoC5/Trig_Buf.c **** * Summary:
 109:Generated_Source\PSoC5/Trig_Buf.c **** *  Powers down amplifier to lowest power state.
 110:Generated_Source\PSoC5/Trig_Buf.c **** *
 111:Generated_Source\PSoC5/Trig_Buf.c **** * Parameters:
 112:Generated_Source\PSoC5/Trig_Buf.c **** *  void
 113:Generated_Source\PSoC5/Trig_Buf.c **** *
 114:Generated_Source\PSoC5/Trig_Buf.c **** * Return:
 115:Generated_Source\PSoC5/Trig_Buf.c **** *  void
 116:Generated_Source\PSoC5/Trig_Buf.c **** *
 117:Generated_Source\PSoC5/Trig_Buf.c **** *******************************************************************************/
 118:Generated_Source\PSoC5/Trig_Buf.c **** void Trig_Buf_Stop(void) 
 119:Generated_Source\PSoC5/Trig_Buf.c **** {
 159              		.loc 1 119 0
 160              		.cfi_startproc
 161              		@ args = 0, pretend = 0, frame = 0
 162              		@ frame_needed = 1, uses_anonymous_args = 0
 163              		@ link register save eliminated.
 164 0000 80B4     		push	{r7}
 165              		.cfi_def_cfa_offset 4
 166              		.cfi_offset 7, -4
ARM GAS  C:\Users\Greg\AppData\Local\Temp\ccFRpfhi.s 			page 6


 167 0002 00AF     		add	r7, sp, #0
 168              		.cfi_def_cfa_register 7
 120:Generated_Source\PSoC5/Trig_Buf.c ****     /* Disable power to buffer in active mode template */
 121:Generated_Source\PSoC5/Trig_Buf.c ****     Trig_Buf_PM_ACT_CFG_REG &= (uint8)(~Trig_Buf_ACT_PWR_EN);
 169              		.loc 1 121 0
 170 0004 104A     		ldr	r2, .L11
 171 0006 104B     		ldr	r3, .L11
 172 0008 1B78     		ldrb	r3, [r3]
 173 000a DBB2     		uxtb	r3, r3
 174 000c 23F00203 		bic	r3, r3, #2
 175 0010 DBB2     		uxtb	r3, r3
 176 0012 1370     		strb	r3, [r2]
 122:Generated_Source\PSoC5/Trig_Buf.c **** 
 123:Generated_Source\PSoC5/Trig_Buf.c ****     /* Disable power to buffer in alternative active mode template */
 124:Generated_Source\PSoC5/Trig_Buf.c ****     Trig_Buf_PM_STBY_CFG_REG &= (uint8)(~Trig_Buf_STBY_PWR_EN);
 177              		.loc 1 124 0
 178 0014 0D4A     		ldr	r2, .L11+4
 179 0016 0D4B     		ldr	r3, .L11+4
 180 0018 1B78     		ldrb	r3, [r3]
 181 001a DBB2     		uxtb	r3, r3
 182 001c 23F00203 		bic	r3, r3, #2
 183 0020 DBB2     		uxtb	r3, r3
 184 0022 1370     		strb	r3, [r2]
 125:Generated_Source\PSoC5/Trig_Buf.c ****     
 126:Generated_Source\PSoC5/Trig_Buf.c ****     /* Disable negative charge pumps for ANIF only if all ABuf is turned OFF */
 127:Generated_Source\PSoC5/Trig_Buf.c ****     if(Trig_Buf_PM_ACT_CFG_REG == 0u)
 185              		.loc 1 127 0
 186 0024 084B     		ldr	r3, .L11
 187 0026 1B78     		ldrb	r3, [r3]
 188 0028 DBB2     		uxtb	r3, r3
 189 002a 002B     		cmp	r3, #0
 190 002c 07D1     		bne	.L9
 128:Generated_Source\PSoC5/Trig_Buf.c ****     {
 129:Generated_Source\PSoC5/Trig_Buf.c ****         Trig_Buf_PUMP_CR1_REG &= (uint8)(~(Trig_Buf_PUMP_CR1_CLKSEL | Trig_Buf_PUMP_CR1_FORCE));
 191              		.loc 1 129 0
 192 002e 084A     		ldr	r2, .L11+8
 193 0030 074B     		ldr	r3, .L11+8
 194 0032 1B78     		ldrb	r3, [r3]
 195 0034 DBB2     		uxtb	r3, r3
 196 0036 23F06003 		bic	r3, r3, #96
 197 003a DBB2     		uxtb	r3, r3
 198 003c 1370     		strb	r3, [r2]
 199              	.L9:
 130:Generated_Source\PSoC5/Trig_Buf.c ****     }
 131:Generated_Source\PSoC5/Trig_Buf.c **** }
 200              		.loc 1 131 0
 201 003e BD46     		mov	sp, r7
 202              		.cfi_def_cfa_register 13
 203              		@ sp needed
 204 0040 5DF8047B 		ldr	r7, [sp], #4
 205              		.cfi_restore 7
 206              		.cfi_def_cfa_offset 0
 207 0044 7047     		bx	lr
 208              	.L12:
 209 0046 00BF     		.align	2
 210              	.L11:
 211 0048 A4430040 		.word	1073759140
ARM GAS  C:\Users\Greg\AppData\Local\Temp\ccFRpfhi.s 			page 7


 212 004c B4430040 		.word	1073759156
 213 0050 77580040 		.word	1073764471
 214              		.cfi_endproc
 215              	.LFE3:
 216              		.size	Trig_Buf_Stop, .-Trig_Buf_Stop
 217              		.section	.text.Trig_Buf_SetPower,"ax",%progbits
 218              		.align	2
 219              		.global	Trig_Buf_SetPower
 220              		.thumb
 221              		.thumb_func
 222              		.type	Trig_Buf_SetPower, %function
 223              	Trig_Buf_SetPower:
 224              	.LFB4:
 132:Generated_Source\PSoC5/Trig_Buf.c **** 
 133:Generated_Source\PSoC5/Trig_Buf.c **** 
 134:Generated_Source\PSoC5/Trig_Buf.c **** /*******************************************************************************
 135:Generated_Source\PSoC5/Trig_Buf.c **** * Function Name: Trig_Buf_SetPower
 136:Generated_Source\PSoC5/Trig_Buf.c **** ********************************************************************************
 137:Generated_Source\PSoC5/Trig_Buf.c **** *
 138:Generated_Source\PSoC5/Trig_Buf.c **** * Summary:
 139:Generated_Source\PSoC5/Trig_Buf.c **** *  Sets power level of Analog buffer.
 140:Generated_Source\PSoC5/Trig_Buf.c **** *
 141:Generated_Source\PSoC5/Trig_Buf.c **** * Parameters: 
 142:Generated_Source\PSoC5/Trig_Buf.c **** *  power: PSoC3: Sets power level between low (1) and high power (3).
 143:Generated_Source\PSoC5/Trig_Buf.c **** *         PSoC5: Sets power level High (0)
 144:Generated_Source\PSoC5/Trig_Buf.c **** *
 145:Generated_Source\PSoC5/Trig_Buf.c **** * Return:
 146:Generated_Source\PSoC5/Trig_Buf.c **** *  void
 147:Generated_Source\PSoC5/Trig_Buf.c **** *
 148:Generated_Source\PSoC5/Trig_Buf.c **** **********************************************************************************/
 149:Generated_Source\PSoC5/Trig_Buf.c **** void Trig_Buf_SetPower(uint8 power) 
 150:Generated_Source\PSoC5/Trig_Buf.c **** {
 225              		.loc 1 150 0
 226              		.cfi_startproc
 227              		@ args = 0, pretend = 0, frame = 8
 228              		@ frame_needed = 1, uses_anonymous_args = 0
 229              		@ link register save eliminated.
 230 0000 80B4     		push	{r7}
 231              		.cfi_def_cfa_offset 4
 232              		.cfi_offset 7, -4
 233 0002 83B0     		sub	sp, sp, #12
 234              		.cfi_def_cfa_offset 16
 235 0004 00AF     		add	r7, sp, #0
 236              		.cfi_def_cfa_register 7
 237 0006 0346     		mov	r3, r0
 238 0008 FB71     		strb	r3, [r7, #7]
 151:Generated_Source\PSoC5/Trig_Buf.c ****     #if (CY_PSOC3 || CY_PSOC5LP)
 152:Generated_Source\PSoC5/Trig_Buf.c ****         Trig_Buf_CR_REG &= (uint8)(~Trig_Buf_PWR_MASK);
 239              		.loc 1 152 0
 240 000a 0C4A     		ldr	r2, .L14
 241 000c 0B4B     		ldr	r3, .L14
 242 000e 1B78     		ldrb	r3, [r3]
 243 0010 DBB2     		uxtb	r3, r3
 244 0012 23F00303 		bic	r3, r3, #3
 245 0016 DBB2     		uxtb	r3, r3
 246 0018 1370     		strb	r3, [r2]
 153:Generated_Source\PSoC5/Trig_Buf.c ****         Trig_Buf_CR_REG |= power & Trig_Buf_PWR_MASK;      /* Set device power */
ARM GAS  C:\Users\Greg\AppData\Local\Temp\ccFRpfhi.s 			page 8


 247              		.loc 1 153 0
 248 001a 0849     		ldr	r1, .L14
 249 001c 074B     		ldr	r3, .L14
 250 001e 1B78     		ldrb	r3, [r3]
 251 0020 DAB2     		uxtb	r2, r3
 252 0022 FB79     		ldrb	r3, [r7, #7]
 253 0024 03F00303 		and	r3, r3, #3
 254 0028 DBB2     		uxtb	r3, r3
 255 002a 1343     		orrs	r3, r3, r2
 256 002c DBB2     		uxtb	r3, r3
 257 002e 0B70     		strb	r3, [r1]
 154:Generated_Source\PSoC5/Trig_Buf.c ****     #else
 155:Generated_Source\PSoC5/Trig_Buf.c ****         CYASSERT(Trig_Buf_HIGHPOWER == power);
 156:Generated_Source\PSoC5/Trig_Buf.c ****     #endif /* CY_PSOC3 || CY_PSOC5LP */
 157:Generated_Source\PSoC5/Trig_Buf.c **** }
 258              		.loc 1 157 0
 259 0030 0C37     		adds	r7, r7, #12
 260              		.cfi_def_cfa_offset 4
 261 0032 BD46     		mov	sp, r7
 262              		.cfi_def_cfa_register 13
 263              		@ sp needed
 264 0034 5DF8047B 		ldr	r7, [sp], #4
 265              		.cfi_restore 7
 266              		.cfi_def_cfa_offset 0
 267 0038 7047     		bx	lr
 268              	.L15:
 269 003a 00BF     		.align	2
 270              	.L14:
 271 003c 5A580040 		.word	1073764442
 272              		.cfi_endproc
 273              	.LFE4:
 274              		.size	Trig_Buf_SetPower, .-Trig_Buf_SetPower
 275              		.text
 276              	.Letext0:
 277              		.file 2 "Generated_Source\\PSoC5\\cytypes.h"