ARM GAS  C:\Users\Greg\AppData\Local\Temp\ccDYSYHP.s 			page 1


   1              		.syntax unified
   2              		.cpu cortex-m3
   3              		.fpu softvfp
   4              		.eabi_attribute 20, 1
   5              		.eabi_attribute 21, 1
   6              		.eabi_attribute 23, 3
   7              		.eabi_attribute 24, 1
   8              		.eabi_attribute 25, 1
   9              		.eabi_attribute 26, 1
  10              		.eabi_attribute 30, 6
  11              		.eabi_attribute 34, 1
  12              		.eabi_attribute 18, 4
  13              		.thumb
  14              		.file	"USBUART_cdc.c"
  15              		.text
  16              	.Ltext0:
  17              		.cfi_sections	.debug_frame
  18              		.global	USBUART_linesCoding
  19              		.data
  20              		.align	2
  21              		.type	USBUART_linesCoding, %object
  22              		.size	USBUART_linesCoding, 14
  23              	USBUART_linesCoding:
  24 0000 00       		.byte	0
  25 0001 C2       		.byte	-62
  26 0002 01       		.byte	1
  27 0003 00       		.byte	0
  28 0004 00       		.byte	0
  29 0005 00       		.byte	0
  30 0006 08       		.byte	8
  31 0007 00       		.byte	0
  32 0008 C2       		.byte	-62
  33 0009 01       		.byte	1
  34 000a 00       		.byte	0
  35 000b 00       		.byte	0
  36 000c 00       		.byte	0
  37 000d 08       		.byte	8
  38              		.comm	USBUART_linesChanged,2,4
  39              		.comm	USBUART_linesControlBitmap,4,4
  40              		.comm	USBUART_serialStateBitmap,4,4
  41              		.comm	USBUART_cdcDataInEp,2,4
  42              		.comm	USBUART_cdcDataOutEp,2,4
  43              		.comm	USBUART_cdcCommInInterruptEp,2,4
  44 000e 0000     		.align	2
  45              		.type	USBUART_serialStateNotification, %object
  46              		.size	USBUART_serialStateNotification, 10
  47              	USBUART_serialStateNotification:
  48 0010 A1       		.byte	-95
  49 0011 20       		.byte	32
  50 0012 00       		.byte	0
  51 0013 00       		.byte	0
  52 0014 00       		.byte	0
  53 0015 00       		.byte	0
  54 0016 02       		.byte	2
  55 0017 00       		.byte	0
  56 0018 00       		.byte	0
  57 0019 00       		.byte	0
ARM GAS  C:\Users\Greg\AppData\Local\Temp\ccDYSYHP.s 			page 2


  58 001a 0000     		.bss
  59              	USBUART_activeCom:
  60 0000 00       		.space	1
  61              		.section	.text.USBUART_DispatchCDCClassRqst,"ax",%progbits
  62              		.align	2
  63              		.global	USBUART_DispatchCDCClassRqst
  64              		.thumb
  65              		.thumb_func
  66              		.type	USBUART_DispatchCDCClassRqst, %function
  67              	USBUART_DispatchCDCClassRqst:
  68              	.LFB0:
  69              		.file 1 "Generated_Source\\PSoC5\\USBUART_cdc.c"
   1:Generated_Source\PSoC5/USBUART_cdc.c **** /***************************************************************************//**
   2:Generated_Source\PSoC5/USBUART_cdc.c **** * \file USBUART_cdc.c
   3:Generated_Source\PSoC5/USBUART_cdc.c **** * \version 3.10
   4:Generated_Source\PSoC5/USBUART_cdc.c **** *
   5:Generated_Source\PSoC5/USBUART_cdc.c **** * \brief
   6:Generated_Source\PSoC5/USBUART_cdc.c **** *  This file contains the USB CDC class request handler.
   7:Generated_Source\PSoC5/USBUART_cdc.c **** *
   8:Generated_Source\PSoC5/USBUART_cdc.c **** * Related Document:
   9:Generated_Source\PSoC5/USBUART_cdc.c **** *  Universal Serial Bus Class Definitions for Communication Devices Version 1.1
  10:Generated_Source\PSoC5/USBUART_cdc.c **** *
  11:Generated_Source\PSoC5/USBUART_cdc.c **** ********************************************************************************
  12:Generated_Source\PSoC5/USBUART_cdc.c **** * \copyright
  13:Generated_Source\PSoC5/USBUART_cdc.c **** * Copyright 2012-2016, Cypress Semiconductor Corporation.  All rights reserved.
  14:Generated_Source\PSoC5/USBUART_cdc.c **** * You may use this file only in accordance with the license, terms, conditions,
  15:Generated_Source\PSoC5/USBUART_cdc.c **** * disclaimers, and limitations in the end user license agreement accompanying
  16:Generated_Source\PSoC5/USBUART_cdc.c **** * the software package with which this file was provided.
  17:Generated_Source\PSoC5/USBUART_cdc.c **** *******************************************************************************/
  18:Generated_Source\PSoC5/USBUART_cdc.c **** 
  19:Generated_Source\PSoC5/USBUART_cdc.c **** #include "USBUART_cdc.h"
  20:Generated_Source\PSoC5/USBUART_cdc.c **** #include "USBUART_pvt.h"
  21:Generated_Source\PSoC5/USBUART_cdc.c **** 
  22:Generated_Source\PSoC5/USBUART_cdc.c **** 
  23:Generated_Source\PSoC5/USBUART_cdc.c **** #if defined(USBUART_ENABLE_CDC_CLASS)
  24:Generated_Source\PSoC5/USBUART_cdc.c **** 
  25:Generated_Source\PSoC5/USBUART_cdc.c **** /*******************************************************************************
  26:Generated_Source\PSoC5/USBUART_cdc.c **** *    CDC Variables
  27:Generated_Source\PSoC5/USBUART_cdc.c **** *******************************************************************************/
  28:Generated_Source\PSoC5/USBUART_cdc.c **** 
  29:Generated_Source\PSoC5/USBUART_cdc.c **** /*PUBLIC*/
  30:Generated_Source\PSoC5/USBUART_cdc.c **** /** Contains the current line coding structure. The host sets it using a
  31:Generated_Source\PSoC5/USBUART_cdc.c ****  * SET_LINE_CODING request and returns it to the user code using the
  32:Generated_Source\PSoC5/USBUART_cdc.c ****  * USBUART_GetDTERate(), USBUART_GetCharFormat(),
  33:Generated_Source\PSoC5/USBUART_cdc.c ****  * USBUART_GetParityType(), and USBUART_GetDataBits() APIs.
  34:Generated_Source\PSoC5/USBUART_cdc.c ****  * It is an array of 2 elements for COM port 1 and COM port 2 for MultiCOM port
  35:Generated_Source\PSoC5/USBUART_cdc.c ****  * support. In case of 1 COM port, data is in 0 element.*/
  36:Generated_Source\PSoC5/USBUART_cdc.c **** volatile uint8 USBUART_linesCoding[USBUART_MAX_MULTI_COM_NUM][USBUART_LINE_CODING_SIZE] =
  37:Generated_Source\PSoC5/USBUART_cdc.c **** {
  38:Generated_Source\PSoC5/USBUART_cdc.c ****     /*COM Port 1*/
  39:Generated_Source\PSoC5/USBUART_cdc.c ****     {
  40:Generated_Source\PSoC5/USBUART_cdc.c ****     0x00u, 0xC2u, 0x01u, 0x00u,     /* Data terminal rate 115200 */
  41:Generated_Source\PSoC5/USBUART_cdc.c ****     0x00u,                          /* 1 Stop bit */
  42:Generated_Source\PSoC5/USBUART_cdc.c ****     0x00u,                          /* None parity */
  43:Generated_Source\PSoC5/USBUART_cdc.c ****     0x08u                           /* 8 data bits */
  44:Generated_Source\PSoC5/USBUART_cdc.c ****     },
  45:Generated_Source\PSoC5/USBUART_cdc.c ****     /*COM Port 2*/
ARM GAS  C:\Users\Greg\AppData\Local\Temp\ccDYSYHP.s 			page 3


  46:Generated_Source\PSoC5/USBUART_cdc.c ****     {
  47:Generated_Source\PSoC5/USBUART_cdc.c ****     0x00u, 0xC2u, 0x01u, 0x00u,     /* Data terminal rate 115200 */
  48:Generated_Source\PSoC5/USBUART_cdc.c ****     0x00u,                          /* 1 Stop bit */
  49:Generated_Source\PSoC5/USBUART_cdc.c ****     0x00u,                          /* None parity */
  50:Generated_Source\PSoC5/USBUART_cdc.c ****     0x08u                           /* 8 data bits */
  51:Generated_Source\PSoC5/USBUART_cdc.c ****     }
  52:Generated_Source\PSoC5/USBUART_cdc.c **** };
  53:Generated_Source\PSoC5/USBUART_cdc.c **** 
  54:Generated_Source\PSoC5/USBUART_cdc.c **** /**Used as a flag for the USBUART_IsLineChanged() API, to inform it that the
  55:Generated_Source\PSoC5/USBUART_cdc.c ****  * host has been sent a request to change line coding or control bitmap. It is 
  56:Generated_Source\PSoC5/USBUART_cdc.c ****  * an array of 2 elements for COM port 1 and COM port 2 for MultiCOM port 
  57:Generated_Source\PSoC5/USBUART_cdc.c ****  * support. In case of 1 COM port, data is in 0 element.*/
  58:Generated_Source\PSoC5/USBUART_cdc.c **** volatile uint8  USBUART_linesChanged[USBUART_MAX_MULTI_COM_NUM];
  59:Generated_Source\PSoC5/USBUART_cdc.c **** /** Contains the current control-signal bitmap. The host sets it using a
  60:Generated_Source\PSoC5/USBUART_cdc.c ****  * SET_CONTROL_LINE request and returns it to the user code using the 
  61:Generated_Source\PSoC5/USBUART_cdc.c ****  * USBUART_GetLineControl() API. It is an array of 2 elements for COM 
  62:Generated_Source\PSoC5/USBUART_cdc.c ****  * port 1 and COM port 2 for MultiCOM port support. In case of 1 COM port, data 
  63:Generated_Source\PSoC5/USBUART_cdc.c ****  * is in 0 element.*/
  64:Generated_Source\PSoC5/USBUART_cdc.c **** volatile uint16 USBUART_linesControlBitmap[USBUART_MAX_MULTI_COM_NUM];
  65:Generated_Source\PSoC5/USBUART_cdc.c **** /** Contains the 16-bit serial state value that was sent using the 
  66:Generated_Source\PSoC5/USBUART_cdc.c ****  * \ref USBUART_SendSerialState() API. . It is an array of 2 elements 
  67:Generated_Source\PSoC5/USBUART_cdc.c ****  * for COM port 1 and COM port 2 for MultiCOM port support. In case of 1 COM 
  68:Generated_Source\PSoC5/USBUART_cdc.c ****  * port, data is in 0 element.*/
  69:Generated_Source\PSoC5/USBUART_cdc.c **** volatile uint16 USBUART_serialStateBitmap[USBUART_MAX_MULTI_COM_NUM];
  70:Generated_Source\PSoC5/USBUART_cdc.c **** /** Contains the data IN endpoint number. It is initialized after a 
  71:Generated_Source\PSoC5/USBUART_cdc.c ****  * SET_CONFIGURATION request based on a user descriptor. It is used in CDC APIs 
  72:Generated_Source\PSoC5/USBUART_cdc.c ****  * to send data to the PC. It is an array of 2 elements for COM port 1 and COM 
  73:Generated_Source\PSoC5/USBUART_cdc.c ****  * port 2 for MultiCOM port support. In case of 1 COM port, data is in 0 element.*/
  74:Generated_Source\PSoC5/USBUART_cdc.c **** volatile uint8  USBUART_cdcDataInEp[USBUART_MAX_MULTI_COM_NUM];
  75:Generated_Source\PSoC5/USBUART_cdc.c **** /** Contains the data OUT endpoint number. It is initialized after a 
  76:Generated_Source\PSoC5/USBUART_cdc.c ****  * SET_CONFIGURATION request based on user descriptor. It is used in CDC APIs to 
  77:Generated_Source\PSoC5/USBUART_cdc.c ****  * receive data from the PC. It is an array of 2 elements for COM port 1 and COM  
  78:Generated_Source\PSoC5/USBUART_cdc.c ****  * port 2 for MultiCOM port support. In case of 1 COM port, data is in 0 element.*/
  79:Generated_Source\PSoC5/USBUART_cdc.c **** volatile uint8  USBUART_cdcDataOutEp[USBUART_MAX_MULTI_COM_NUM];
  80:Generated_Source\PSoC5/USBUART_cdc.c **** /** Contains the data IN endpoint number for COMMUNICATION interface. It is 
  81:Generated_Source\PSoC5/USBUART_cdc.c ****  * initialized after a SET_CONFIGURATION request based on a user descriptor. It 
  82:Generated_Source\PSoC5/USBUART_cdc.c ****  * is used in CDC APIs to send data to the PC. It is an array of 2 elements for 
  83:Generated_Source\PSoC5/USBUART_cdc.c ****  * COM port 1 and COM port 2 for MultiCOM port support. In case of 1 COM port, 
  84:Generated_Source\PSoC5/USBUART_cdc.c ****  * data is in 0 element.*/
  85:Generated_Source\PSoC5/USBUART_cdc.c **** volatile uint8  USBUART_cdcCommInInterruptEp[USBUART_MAX_MULTI_COM_NUM];
  86:Generated_Source\PSoC5/USBUART_cdc.c **** 
  87:Generated_Source\PSoC5/USBUART_cdc.c **** /*PRIVATE*/
  88:Generated_Source\PSoC5/USBUART_cdc.c **** 
  89:Generated_Source\PSoC5/USBUART_cdc.c **** #define USBUART_CDC_IN_EP      (0u)
  90:Generated_Source\PSoC5/USBUART_cdc.c **** #define USBUART_CDC_OUT_EP     (1u)
  91:Generated_Source\PSoC5/USBUART_cdc.c **** #define USBUART_CDC_NOTE_EP    (2u)
  92:Generated_Source\PSoC5/USBUART_cdc.c **** 
  93:Generated_Source\PSoC5/USBUART_cdc.c **** #define USBUART_CDC_EP_MASK    (0x01u)
  94:Generated_Source\PSoC5/USBUART_cdc.c **** 
  95:Generated_Source\PSoC5/USBUART_cdc.c **** #define USBUART_GET_EP_COM_NUM(cdcComNums, epType) (((cdcComNums) >> (epType)) & USBUART_CDC_EP_MAS
  96:Generated_Source\PSoC5/USBUART_cdc.c **** 
  97:Generated_Source\PSoC5/USBUART_cdc.c **** 
  98:Generated_Source\PSoC5/USBUART_cdc.c **** /***************************************
  99:Generated_Source\PSoC5/USBUART_cdc.c **** *     Static Function Prototypes
 100:Generated_Source\PSoC5/USBUART_cdc.c **** ***************************************/
 101:Generated_Source\PSoC5/USBUART_cdc.c **** #if (USBUART_ENABLE_CDC_CLASS_API != 0u)
 102:Generated_Source\PSoC5/USBUART_cdc.c ****     static uint16 USBUART_StrLen(const char8 string[]) ;
ARM GAS  C:\Users\Greg\AppData\Local\Temp\ccDYSYHP.s 			page 4


 103:Generated_Source\PSoC5/USBUART_cdc.c ****     static t_USBUART_cdc_notification USBUART_serialStateNotification =
 104:Generated_Source\PSoC5/USBUART_cdc.c ****     {
 105:Generated_Source\PSoC5/USBUART_cdc.c **** 
 106:Generated_Source\PSoC5/USBUART_cdc.c ****         USBUART_SERIAL_STATE_REQUEST_TYPE, /* bRequestType    */
 107:Generated_Source\PSoC5/USBUART_cdc.c ****         USBUART_SERIAL_STATE,              /* bNotification   */
 108:Generated_Source\PSoC5/USBUART_cdc.c ****         0u,                                         /* wValue          */
 109:Generated_Source\PSoC5/USBUART_cdc.c ****         0u,                                         /* wValueMSB       */
 110:Generated_Source\PSoC5/USBUART_cdc.c ****         0u,                                         /* wIndex          */
 111:Generated_Source\PSoC5/USBUART_cdc.c ****         0u,                                         /* wIndexMSB       */
 112:Generated_Source\PSoC5/USBUART_cdc.c ****         USBUART_SERIAL_STATE_LENGTH,       /* wLength         */
 113:Generated_Source\PSoC5/USBUART_cdc.c ****         0u,                                         /* wLengthMSB      */
 114:Generated_Source\PSoC5/USBUART_cdc.c ****         0u,                                         /* wSerialState    */
 115:Generated_Source\PSoC5/USBUART_cdc.c ****         0u,                                         /* wSerialStateMSB */
 116:Generated_Source\PSoC5/USBUART_cdc.c ****     };
 117:Generated_Source\PSoC5/USBUART_cdc.c ****     static uint8 USBUART_activeCom = 0u;
 118:Generated_Source\PSoC5/USBUART_cdc.c **** #endif /* (USBUART_ENABLE_CDC_CLASS_API != 0u) */
 119:Generated_Source\PSoC5/USBUART_cdc.c **** 
 120:Generated_Source\PSoC5/USBUART_cdc.c **** 
 121:Generated_Source\PSoC5/USBUART_cdc.c **** /***************************************
 122:Generated_Source\PSoC5/USBUART_cdc.c **** * Custom Declarations
 123:Generated_Source\PSoC5/USBUART_cdc.c **** ***************************************/
 124:Generated_Source\PSoC5/USBUART_cdc.c **** 
 125:Generated_Source\PSoC5/USBUART_cdc.c **** /* `#START CDC_CUSTOM_DECLARATIONS` Place your declaration here */
 126:Generated_Source\PSoC5/USBUART_cdc.c **** 
 127:Generated_Source\PSoC5/USBUART_cdc.c **** /* `#END` */
 128:Generated_Source\PSoC5/USBUART_cdc.c **** 
 129:Generated_Source\PSoC5/USBUART_cdc.c **** 
 130:Generated_Source\PSoC5/USBUART_cdc.c **** /*******************************************************************************
 131:Generated_Source\PSoC5/USBUART_cdc.c **** * Function Name: USBUART_DispatchCDCClassRqst
 132:Generated_Source\PSoC5/USBUART_cdc.c **** ****************************************************************************//**
 133:Generated_Source\PSoC5/USBUART_cdc.c **** *
 134:Generated_Source\PSoC5/USBUART_cdc.c **** *  This routine dispatches CDC class requests.
 135:Generated_Source\PSoC5/USBUART_cdc.c **** *
 136:Generated_Source\PSoC5/USBUART_cdc.c **** * \return
 137:Generated_Source\PSoC5/USBUART_cdc.c **** *  requestHandled
 138:Generated_Source\PSoC5/USBUART_cdc.c **** *
 139:Generated_Source\PSoC5/USBUART_cdc.c **** * \globalvars
 140:Generated_Source\PSoC5/USBUART_cdc.c **** *   USBUART_linesCoding: Contains the current line coding structure.
 141:Generated_Source\PSoC5/USBUART_cdc.c **** *     It is set by the Host using SET_LINE_CODING request and returned to the
 142:Generated_Source\PSoC5/USBUART_cdc.c **** *     user code by the USBFS_GetDTERate(), USBFS_GetCharFormat(),
 143:Generated_Source\PSoC5/USBUART_cdc.c **** *     USBFS_GetParityType(), USBFS_GetDataBits() APIs.
 144:Generated_Source\PSoC5/USBUART_cdc.c **** *   USBUART_linesControlBitmap: Contains the current control signal
 145:Generated_Source\PSoC5/USBUART_cdc.c **** *     bitmap. It is set by the Host using SET_CONTROL_LINE request and returned
 146:Generated_Source\PSoC5/USBUART_cdc.c **** *     to the user code by the USBFS_GetLineControl() API.
 147:Generated_Source\PSoC5/USBUART_cdc.c **** *   USBUART_linesChanged: This variable is used as a flag for the
 148:Generated_Source\PSoC5/USBUART_cdc.c **** *     USBFS_IsLineChanged() API, to be aware that Host has been sent request
 149:Generated_Source\PSoC5/USBUART_cdc.c **** *     for changing Line Coding or Control Bitmap.
 150:Generated_Source\PSoC5/USBUART_cdc.c **** *
 151:Generated_Source\PSoC5/USBUART_cdc.c **** * \reentrant
 152:Generated_Source\PSoC5/USBUART_cdc.c **** *  No.
 153:Generated_Source\PSoC5/USBUART_cdc.c **** *
 154:Generated_Source\PSoC5/USBUART_cdc.c **** *******************************************************************************/
 155:Generated_Source\PSoC5/USBUART_cdc.c **** uint8 USBUART_DispatchCDCClassRqst(void) 
 156:Generated_Source\PSoC5/USBUART_cdc.c **** {
  70              		.loc 1 156 0
  71              		.cfi_startproc
  72              		@ args = 0, pretend = 0, frame = 8
ARM GAS  C:\Users\Greg\AppData\Local\Temp\ccDYSYHP.s 			page 5


  73              		@ frame_needed = 1, uses_anonymous_args = 0
  74 0000 80B5     		push	{r7, lr}
  75              		.cfi_def_cfa_offset 8
  76              		.cfi_offset 7, -8
  77              		.cfi_offset 14, -4
  78 0002 82B0     		sub	sp, sp, #8
  79              		.cfi_def_cfa_offset 16
  80 0004 00AF     		add	r7, sp, #0
  81              		.cfi_def_cfa_register 7
 157:Generated_Source\PSoC5/USBUART_cdc.c ****     uint8 requestHandled = USBUART_FALSE;
  82              		.loc 1 157 0
  83 0006 0023     		movs	r3, #0
  84 0008 FB71     		strb	r3, [r7, #7]
 158:Generated_Source\PSoC5/USBUART_cdc.c ****     uint8 comPort;
 159:Generated_Source\PSoC5/USBUART_cdc.c **** 
 160:Generated_Source\PSoC5/USBUART_cdc.c ****     comPort = USBUART_GetInterfaceComPort((uint8)USBUART_wIndexLoReg);
  85              		.loc 1 160 0
  86 000a 324B     		ldr	r3, .L11
  87 000c 1B79     		ldrb	r3, [r3, #4]
  88 000e DBB2     		uxtb	r3, r3
  89 0010 1846     		mov	r0, r3
  90 0012 FFF7FEFF 		bl	USBUART_GetInterfaceComPort
  91 0016 0346     		mov	r3, r0
  92 0018 BB71     		strb	r3, [r7, #6]
 161:Generated_Source\PSoC5/USBUART_cdc.c **** 
 162:Generated_Source\PSoC5/USBUART_cdc.c ****     /* Check request direction: D2H or H2D. */
 163:Generated_Source\PSoC5/USBUART_cdc.c ****     if (0u != (USBUART_bmRequestTypeReg & USBUART_RQST_DIR_D2H))
  93              		.loc 1 163 0
  94 001a 2E4B     		ldr	r3, .L11
  95 001c 1B78     		ldrb	r3, [r3]
  96 001e DBB2     		uxtb	r3, r3
  97 0020 DBB2     		uxtb	r3, r3
  98 0022 5BB2     		sxtb	r3, r3
  99 0024 002B     		cmp	r3, #0
 100 0026 16DA     		bge	.L2
 164:Generated_Source\PSoC5/USBUART_cdc.c ****     {
 165:Generated_Source\PSoC5/USBUART_cdc.c ****         /* Handle direction from device to host. */
 166:Generated_Source\PSoC5/USBUART_cdc.c **** 
 167:Generated_Source\PSoC5/USBUART_cdc.c ****         switch (USBUART_bRequestReg)
 101              		.loc 1 167 0
 102 0028 2A4B     		ldr	r3, .L11
 103 002a 5B78     		ldrb	r3, [r3, #1]
 104 002c DBB2     		uxtb	r3, r3
 105 002e 212B     		cmp	r3, #33
 106 0030 00D0     		beq	.L4
 168:Generated_Source\PSoC5/USBUART_cdc.c ****         {
 169:Generated_Source\PSoC5/USBUART_cdc.c ****             case USBUART_CDC_GET_LINE_CODING:
 170:Generated_Source\PSoC5/USBUART_cdc.c ****                 USBUART_currentTD.count = USBUART_LINE_CODING_SIZE;
 171:Generated_Source\PSoC5/USBUART_cdc.c ****                 USBUART_currentTD.pData = USBUART_linesCoding[comPort];
 172:Generated_Source\PSoC5/USBUART_cdc.c ****                 requestHandled  = USBUART_InitControlRead();
 173:Generated_Source\PSoC5/USBUART_cdc.c ****                 break;
 174:Generated_Source\PSoC5/USBUART_cdc.c **** 
 175:Generated_Source\PSoC5/USBUART_cdc.c ****             /* `#START CDC_READ_REQUESTS` Place other request handler here */
 176:Generated_Source\PSoC5/USBUART_cdc.c **** 
 177:Generated_Source\PSoC5/USBUART_cdc.c ****             /* `#END` */
 178:Generated_Source\PSoC5/USBUART_cdc.c **** 
 179:Generated_Source\PSoC5/USBUART_cdc.c ****             default:
ARM GAS  C:\Users\Greg\AppData\Local\Temp\ccDYSYHP.s 			page 6


 180:Generated_Source\PSoC5/USBUART_cdc.c ****             /* Do not handle this request unless callback is defined. */
 181:Generated_Source\PSoC5/USBUART_cdc.c ****             #ifdef USBUART_DISPATCH_CDC_CLASS_CDC_READ_REQUESTS_CALLBACK
 182:Generated_Source\PSoC5/USBUART_cdc.c ****                 requestHandled = USBUART_DispatchCDCClass_CDC_READ_REQUESTS_Callback();
 183:Generated_Source\PSoC5/USBUART_cdc.c ****             #endif /* (USBUART_DISPATCH_CDC_CLASS_CDC_READ_REQUESTS_CALLBACK) */
 184:Generated_Source\PSoC5/USBUART_cdc.c ****                 break;
 107              		.loc 1 184 0
 108 0032 0FE0     		b	.L5
 109              	.L4:
 170:Generated_Source\PSoC5/USBUART_cdc.c ****                 USBUART_currentTD.pData = USBUART_linesCoding[comPort];
 110              		.loc 1 170 0
 111 0034 284B     		ldr	r3, .L11+4
 112 0036 0722     		movs	r2, #7
 113 0038 1A80     		strh	r2, [r3]	@ movhi
 171:Generated_Source\PSoC5/USBUART_cdc.c ****                 requestHandled  = USBUART_InitControlRead();
 114              		.loc 1 171 0
 115 003a BA79     		ldrb	r2, [r7, #6]	@ zero_extendqisi2
 116 003c 1346     		mov	r3, r2
 117 003e DB00     		lsls	r3, r3, #3
 118 0040 9B1A     		subs	r3, r3, r2
 119 0042 264A     		ldr	r2, .L11+8
 120 0044 1344     		add	r3, r3, r2
 121 0046 244A     		ldr	r2, .L11+4
 122 0048 5360     		str	r3, [r2, #4]
 172:Generated_Source\PSoC5/USBUART_cdc.c ****                 break;
 123              		.loc 1 172 0
 124 004a FFF7FEFF 		bl	USBUART_InitControlRead
 125 004e 0346     		mov	r3, r0
 126 0050 FB71     		strb	r3, [r7, #7]
 173:Generated_Source\PSoC5/USBUART_cdc.c **** 
 127              		.loc 1 173 0
 128 0052 00BF     		nop
 129              	.L5:
 130 0054 38E0     		b	.L6
 131              	.L2:
 185:Generated_Source\PSoC5/USBUART_cdc.c ****         }
 186:Generated_Source\PSoC5/USBUART_cdc.c ****     }
 187:Generated_Source\PSoC5/USBUART_cdc.c ****     else
 188:Generated_Source\PSoC5/USBUART_cdc.c ****     {
 189:Generated_Source\PSoC5/USBUART_cdc.c ****         /* Handle direction from host to device. */
 190:Generated_Source\PSoC5/USBUART_cdc.c **** 
 191:Generated_Source\PSoC5/USBUART_cdc.c ****         switch (USBUART_bRequestReg)
 132              		.loc 1 191 0
 133 0056 1F4B     		ldr	r3, .L11
 134 0058 5B78     		ldrb	r3, [r3, #1]
 135 005a DBB2     		uxtb	r3, r3
 136 005c 202B     		cmp	r3, #32
 137 005e 02D0     		beq	.L8
 138 0060 222B     		cmp	r3, #34
 139 0062 1AD0     		beq	.L9
 192:Generated_Source\PSoC5/USBUART_cdc.c ****         {
 193:Generated_Source\PSoC5/USBUART_cdc.c ****             case USBUART_CDC_SET_LINE_CODING:
 194:Generated_Source\PSoC5/USBUART_cdc.c ****                 USBUART_currentTD.count  = USBUART_LINE_CODING_SIZE;
 195:Generated_Source\PSoC5/USBUART_cdc.c ****                 USBUART_currentTD.pData  = USBUART_linesCoding[comPort];
 196:Generated_Source\PSoC5/USBUART_cdc.c ****                 USBUART_linesChanged[comPort] |= USBUART_LINE_CODING_CHANGED;
 197:Generated_Source\PSoC5/USBUART_cdc.c **** 
 198:Generated_Source\PSoC5/USBUART_cdc.c ****                 requestHandled = USBUART_InitControlWrite();
 199:Generated_Source\PSoC5/USBUART_cdc.c ****                 break;
ARM GAS  C:\Users\Greg\AppData\Local\Temp\ccDYSYHP.s 			page 7


 200:Generated_Source\PSoC5/USBUART_cdc.c **** 
 201:Generated_Source\PSoC5/USBUART_cdc.c ****             case USBUART_CDC_SET_CONTROL_LINE_STATE:
 202:Generated_Source\PSoC5/USBUART_cdc.c ****                 USBUART_linesControlBitmap[comPort] = (uint8) USBUART_wValueLoReg;
 203:Generated_Source\PSoC5/USBUART_cdc.c ****                 USBUART_linesChanged[comPort]      |= USBUART_LINE_CONTROL_CHANGED;
 204:Generated_Source\PSoC5/USBUART_cdc.c **** 
 205:Generated_Source\PSoC5/USBUART_cdc.c ****                 requestHandled = USBUART_InitNoDataControlTransfer();
 206:Generated_Source\PSoC5/USBUART_cdc.c ****                 break;
 207:Generated_Source\PSoC5/USBUART_cdc.c **** 
 208:Generated_Source\PSoC5/USBUART_cdc.c ****             /* `#START CDC_WRITE_REQUESTS` Place other request handler here */
 209:Generated_Source\PSoC5/USBUART_cdc.c **** 
 210:Generated_Source\PSoC5/USBUART_cdc.c ****             /* `#END` */
 211:Generated_Source\PSoC5/USBUART_cdc.c **** 
 212:Generated_Source\PSoC5/USBUART_cdc.c ****             default:
 213:Generated_Source\PSoC5/USBUART_cdc.c ****                 /* Do not handle this request unless callback is defined. */
 214:Generated_Source\PSoC5/USBUART_cdc.c ****             #ifdef USBUART_DISPATCH_CDC_CLASS_CDC_WRITE_REQUESTS_CALLBACK
 215:Generated_Source\PSoC5/USBUART_cdc.c ****                 requestHandled = USBUART_DispatchCDCClass_CDC_WRITE_REQUESTS_Callback();
 216:Generated_Source\PSoC5/USBUART_cdc.c ****             #endif /* (USBUART_DISPATCH_CDC_CLASS_CDC_WRITE_REQUESTS_CALLBACK) */
 217:Generated_Source\PSoC5/USBUART_cdc.c ****                 break;
 140              		.loc 1 217 0
 141 0064 30E0     		b	.L6
 142              	.L8:
 194:Generated_Source\PSoC5/USBUART_cdc.c ****                 USBUART_currentTD.pData  = USBUART_linesCoding[comPort];
 143              		.loc 1 194 0
 144 0066 1C4B     		ldr	r3, .L11+4
 145 0068 0722     		movs	r2, #7
 146 006a 1A80     		strh	r2, [r3]	@ movhi
 195:Generated_Source\PSoC5/USBUART_cdc.c ****                 USBUART_linesChanged[comPort] |= USBUART_LINE_CODING_CHANGED;
 147              		.loc 1 195 0
 148 006c BA79     		ldrb	r2, [r7, #6]	@ zero_extendqisi2
 149 006e 1346     		mov	r3, r2
 150 0070 DB00     		lsls	r3, r3, #3
 151 0072 9B1A     		subs	r3, r3, r2
 152 0074 194A     		ldr	r2, .L11+8
 153 0076 1344     		add	r3, r3, r2
 154 0078 174A     		ldr	r2, .L11+4
 155 007a 5360     		str	r3, [r2, #4]
 196:Generated_Source\PSoC5/USBUART_cdc.c **** 
 156              		.loc 1 196 0
 157 007c BB79     		ldrb	r3, [r7, #6]	@ zero_extendqisi2
 158 007e BA79     		ldrb	r2, [r7, #6]	@ zero_extendqisi2
 159 0080 1749     		ldr	r1, .L11+12
 160 0082 8A5C     		ldrb	r2, [r1, r2]
 161 0084 D2B2     		uxtb	r2, r2
 162 0086 42F00102 		orr	r2, r2, #1
 163 008a D1B2     		uxtb	r1, r2
 164 008c 144A     		ldr	r2, .L11+12
 165 008e D154     		strb	r1, [r2, r3]
 198:Generated_Source\PSoC5/USBUART_cdc.c ****                 break;
 166              		.loc 1 198 0
 167 0090 FFF7FEFF 		bl	USBUART_InitControlWrite
 168 0094 0346     		mov	r3, r0
 169 0096 FB71     		strb	r3, [r7, #7]
 199:Generated_Source\PSoC5/USBUART_cdc.c **** 
 170              		.loc 1 199 0
 171 0098 16E0     		b	.L6
 172              	.L9:
 202:Generated_Source\PSoC5/USBUART_cdc.c ****                 USBUART_linesChanged[comPort]      |= USBUART_LINE_CONTROL_CHANGED;
ARM GAS  C:\Users\Greg\AppData\Local\Temp\ccDYSYHP.s 			page 8


 173              		.loc 1 202 0
 174 009a BB79     		ldrb	r3, [r7, #6]	@ zero_extendqisi2
 175 009c 0D4A     		ldr	r2, .L11
 176 009e 9278     		ldrb	r2, [r2, #2]
 177 00a0 D2B2     		uxtb	r2, r2
 178 00a2 91B2     		uxth	r1, r2
 179 00a4 0F4A     		ldr	r2, .L11+16
 180 00a6 22F81310 		strh	r1, [r2, r3, lsl #1]	@ movhi
 203:Generated_Source\PSoC5/USBUART_cdc.c **** 
 181              		.loc 1 203 0
 182 00aa BB79     		ldrb	r3, [r7, #6]	@ zero_extendqisi2
 183 00ac BA79     		ldrb	r2, [r7, #6]	@ zero_extendqisi2
 184 00ae 0C49     		ldr	r1, .L11+12
 185 00b0 8A5C     		ldrb	r2, [r1, r2]
 186 00b2 D2B2     		uxtb	r2, r2
 187 00b4 42F00202 		orr	r2, r2, #2
 188 00b8 D1B2     		uxtb	r1, r2
 189 00ba 094A     		ldr	r2, .L11+12
 190 00bc D154     		strb	r1, [r2, r3]
 205:Generated_Source\PSoC5/USBUART_cdc.c ****                 break;
 191              		.loc 1 205 0
 192 00be FFF7FEFF 		bl	USBUART_InitNoDataControlTransfer
 193 00c2 0346     		mov	r3, r0
 194 00c4 FB71     		strb	r3, [r7, #7]
 206:Generated_Source\PSoC5/USBUART_cdc.c **** 
 195              		.loc 1 206 0
 196 00c6 00BF     		nop
 197              	.L6:
 218:Generated_Source\PSoC5/USBUART_cdc.c ****         }
 219:Generated_Source\PSoC5/USBUART_cdc.c ****     }
 220:Generated_Source\PSoC5/USBUART_cdc.c **** 
 221:Generated_Source\PSoC5/USBUART_cdc.c ****     return(requestHandled);
 198              		.loc 1 221 0
 199 00c8 FB79     		ldrb	r3, [r7, #7]	@ zero_extendqisi2
 222:Generated_Source\PSoC5/USBUART_cdc.c **** }
 200              		.loc 1 222 0
 201 00ca 1846     		mov	r0, r3
 202 00cc 0837     		adds	r7, r7, #8
 203              		.cfi_def_cfa_offset 8
 204 00ce BD46     		mov	sp, r7
 205              		.cfi_def_cfa_register 13
 206              		@ sp needed
 207 00d0 80BD     		pop	{r7, pc}
 208              	.L12:
 209 00d2 00BF     		.align	2
 210              	.L11:
 211 00d4 00600040 		.word	1073766400
 212 00d8 00000000 		.word	USBUART_currentTD
 213 00dc 00000000 		.word	USBUART_linesCoding
 214 00e0 00000000 		.word	USBUART_linesChanged
 215 00e4 00000000 		.word	USBUART_linesControlBitmap
 216              		.cfi_endproc
 217              	.LFE0:
 218              		.size	USBUART_DispatchCDCClassRqst, .-USBUART_DispatchCDCClassRqst
 219              		.section	.text.USBUART_GetInterfaceComPort,"ax",%progbits
 220              		.align	2
 221              		.global	USBUART_GetInterfaceComPort
ARM GAS  C:\Users\Greg\AppData\Local\Temp\ccDYSYHP.s 			page 9


 222              		.thumb
 223              		.thumb_func
 224              		.type	USBUART_GetInterfaceComPort, %function
 225              	USBUART_GetInterfaceComPort:
 226              	.LFB1:
 223:Generated_Source\PSoC5/USBUART_cdc.c **** 
 224:Generated_Source\PSoC5/USBUART_cdc.c **** 
 225:Generated_Source\PSoC5/USBUART_cdc.c **** /***************************************************************************
 226:Generated_Source\PSoC5/USBUART_cdc.c **** * Function Name: USBUART_GetInterfaceComPort
 227:Generated_Source\PSoC5/USBUART_cdc.c **** ************************************************************************//**
 228:Generated_Source\PSoC5/USBUART_cdc.c **** *   \internal
 229:Generated_Source\PSoC5/USBUART_cdc.c **** *  Internal function which gets number of COM port by specified interface
 230:Generated_Source\PSoC5/USBUART_cdc.c **** *   number.
 231:Generated_Source\PSoC5/USBUART_cdc.c **** *
 232:Generated_Source\PSoC5/USBUART_cdc.c **** * \param uint8 interface
 233:Generated_Source\PSoC5/USBUART_cdc.c **** *  Interface number
 234:Generated_Source\PSoC5/USBUART_cdc.c **** *
 235:Generated_Source\PSoC5/USBUART_cdc.c **** * \return
 236:Generated_Source\PSoC5/USBUART_cdc.c **** *  COM port number (0 or 1) or error 0xFF
 237:Generated_Source\PSoC5/USBUART_cdc.c **** *
 238:Generated_Source\PSoC5/USBUART_cdc.c **** ***************************************************************************/
 239:Generated_Source\PSoC5/USBUART_cdc.c **** uint8 USBUART_GetInterfaceComPort(uint8 interface) 
 240:Generated_Source\PSoC5/USBUART_cdc.c **** {
 227              		.loc 1 240 0
 228              		.cfi_startproc
 229              		@ args = 0, pretend = 0, frame = 16
 230              		@ frame_needed = 1, uses_anonymous_args = 0
 231              		@ link register save eliminated.
 232 0000 80B4     		push	{r7}
 233              		.cfi_def_cfa_offset 4
 234              		.cfi_offset 7, -4
 235 0002 85B0     		sub	sp, sp, #20
 236              		.cfi_def_cfa_offset 24
 237 0004 00AF     		add	r7, sp, #0
 238              		.cfi_def_cfa_register 7
 239 0006 0346     		mov	r3, r0
 240 0008 FB71     		strb	r3, [r7, #7]
 241:Generated_Source\PSoC5/USBUART_cdc.c ****     uint8 comPort = 0u;
 241              		.loc 1 241 0
 242 000a 0023     		movs	r3, #0
 243 000c FB73     		strb	r3, [r7, #15]
 242:Generated_Source\PSoC5/USBUART_cdc.c ****     uint8 res = 0xFFu;
 244              		.loc 1 242 0
 245 000e FF23     		movs	r3, #255
 246 0010 BB73     		strb	r3, [r7, #14]
 243:Generated_Source\PSoC5/USBUART_cdc.c ****     uint8 notEp;
 244:Generated_Source\PSoC5/USBUART_cdc.c **** 
 245:Generated_Source\PSoC5/USBUART_cdc.c ****     while (comPort < USBUART_MAX_MULTI_COM_NUM)
 247              		.loc 1 245 0
 248 0012 17E0     		b	.L14
 249              	.L16:
 246:Generated_Source\PSoC5/USBUART_cdc.c ****     {
 247:Generated_Source\PSoC5/USBUART_cdc.c ****         notEp = USBUART_cdcCommInInterruptEp[comPort];
 250              		.loc 1 247 0
 251 0014 FB7B     		ldrb	r3, [r7, #15]	@ zero_extendqisi2
 252 0016 104A     		ldr	r2, .L18
 253 0018 D35C     		ldrb	r3, [r2, r3]
ARM GAS  C:\Users\Greg\AppData\Local\Temp\ccDYSYHP.s 			page 10


 254 001a 7B73     		strb	r3, [r7, #13]
 248:Generated_Source\PSoC5/USBUART_cdc.c **** 
 249:Generated_Source\PSoC5/USBUART_cdc.c ****         if (USBUART_EP[notEp].interface == interface)
 255              		.loc 1 249 0
 256 001c 7A7B     		ldrb	r2, [r7, #13]	@ zero_extendqisi2
 257 001e 0F49     		ldr	r1, .L18+4
 258 0020 1346     		mov	r3, r2
 259 0022 5B00     		lsls	r3, r3, #1
 260 0024 1344     		add	r3, r3, r2
 261 0026 9B00     		lsls	r3, r3, #2
 262 0028 0B44     		add	r3, r3, r1
 263 002a 0833     		adds	r3, r3, #8
 264 002c 9B78     		ldrb	r3, [r3, #2]
 265 002e DBB2     		uxtb	r3, r3
 266 0030 FA79     		ldrb	r2, [r7, #7]	@ zero_extendqisi2
 267 0032 9A42     		cmp	r2, r3
 268 0034 03D1     		bne	.L15
 250:Generated_Source\PSoC5/USBUART_cdc.c ****         {
 251:Generated_Source\PSoC5/USBUART_cdc.c ****             res = comPort;
 269              		.loc 1 251 0
 270 0036 FB7B     		ldrb	r3, [r7, #15]
 271 0038 BB73     		strb	r3, [r7, #14]
 252:Generated_Source\PSoC5/USBUART_cdc.c ****             comPort = USBUART_MAX_MULTI_COM_NUM;
 272              		.loc 1 252 0
 273 003a 0223     		movs	r3, #2
 274 003c FB73     		strb	r3, [r7, #15]
 275              	.L15:
 253:Generated_Source\PSoC5/USBUART_cdc.c ****         }
 254:Generated_Source\PSoC5/USBUART_cdc.c **** 
 255:Generated_Source\PSoC5/USBUART_cdc.c ****         comPort++;
 276              		.loc 1 255 0
 277 003e FB7B     		ldrb	r3, [r7, #15]	@ zero_extendqisi2
 278 0040 0133     		adds	r3, r3, #1
 279 0042 FB73     		strb	r3, [r7, #15]
 280              	.L14:
 245:Generated_Source\PSoC5/USBUART_cdc.c ****     {
 281              		.loc 1 245 0
 282 0044 FB7B     		ldrb	r3, [r7, #15]	@ zero_extendqisi2
 283 0046 012B     		cmp	r3, #1
 284 0048 E4D9     		bls	.L16
 256:Generated_Source\PSoC5/USBUART_cdc.c ****     }
 257:Generated_Source\PSoC5/USBUART_cdc.c ****     return (res);
 285              		.loc 1 257 0
 286 004a BB7B     		ldrb	r3, [r7, #14]	@ zero_extendqisi2
 258:Generated_Source\PSoC5/USBUART_cdc.c **** }
 287              		.loc 1 258 0
 288 004c 1846     		mov	r0, r3
 289 004e 1437     		adds	r7, r7, #20
 290              		.cfi_def_cfa_offset 4
 291 0050 BD46     		mov	sp, r7
 292              		.cfi_def_cfa_register 13
 293              		@ sp needed
 294 0052 5DF8047B 		ldr	r7, [sp], #4
 295              		.cfi_restore 7
 296              		.cfi_def_cfa_offset 0
 297 0056 7047     		bx	lr
 298              	.L19:
ARM GAS  C:\Users\Greg\AppData\Local\Temp\ccDYSYHP.s 			page 11


 299              		.align	2
 300              	.L18:
 301 0058 00000000 		.word	USBUART_cdcCommInInterruptEp
 302 005c 00000000 		.word	USBUART_EP
 303              		.cfi_endproc
 304              	.LFE1:
 305              		.size	USBUART_GetInterfaceComPort, .-USBUART_GetInterfaceComPort
 306              		.section	.text.USBUART_CDC_Init,"ax",%progbits
 307              		.align	2
 308              		.global	USBUART_CDC_Init
 309              		.thumb
 310              		.thumb_func
 311              		.type	USBUART_CDC_Init, %function
 312              	USBUART_CDC_Init:
 313              	.LFB2:
 259:Generated_Source\PSoC5/USBUART_cdc.c **** 
 260:Generated_Source\PSoC5/USBUART_cdc.c **** 
 261:Generated_Source\PSoC5/USBUART_cdc.c **** /***************************************
 262:Generated_Source\PSoC5/USBUART_cdc.c **** * Optional CDC APIs
 263:Generated_Source\PSoC5/USBUART_cdc.c **** ***************************************/
 264:Generated_Source\PSoC5/USBUART_cdc.c **** #if (USBUART_ENABLE_CDC_CLASS_API != 0u)
 265:Generated_Source\PSoC5/USBUART_cdc.c **** /***************************************************************************
 266:Generated_Source\PSoC5/USBUART_cdc.c **** * Function Name: USBUART_CDC_Init
 267:Generated_Source\PSoC5/USBUART_cdc.c **** ************************************************************************//**
 268:Generated_Source\PSoC5/USBUART_cdc.c **** *
 269:Generated_Source\PSoC5/USBUART_cdc.c **** *  This function initializes the CDC interface to be ready to receive data
 270:Generated_Source\PSoC5/USBUART_cdc.c **** *  from the PC. The API set active communication port to 0 in the case of 
 271:Generated_Source\PSoC5/USBUART_cdc.c **** *  multiple communication port support.This API should be called after the 
 272:Generated_Source\PSoC5/USBUART_cdc.c **** *  device has been started and configured using USBUART_Start() API to 
 273:Generated_Source\PSoC5/USBUART_cdc.c **** *  initialize and start the USBFS component operation. Then call the 
 274:Generated_Source\PSoC5/USBUART_cdc.c **** *  USBUART_GetConfiguration() API to wait until the host has enumerated and 
 275:Generated_Source\PSoC5/USBUART_cdc.c **** *  configured the device. For example:
 276:Generated_Source\PSoC5/USBUART_cdc.c **** *
 277:Generated_Source\PSoC5/USBUART_cdc.c **** *  \snippet /USBFS_sut_02.cydsn/main.c wait for enumeration
 278:Generated_Source\PSoC5/USBUART_cdc.c **** *
 279:Generated_Source\PSoC5/USBUART_cdc.c **** * \return
 280:Generated_Source\PSoC5/USBUART_cdc.c **** *  cystatus:
 281:Generated_Source\PSoC5/USBUART_cdc.c **** *   Return Value    Description
 282:Generated_Source\PSoC5/USBUART_cdc.c **** *   USBUART_SUCCESS   CDC interface was initialized correctly
 283:Generated_Source\PSoC5/USBUART_cdc.c **** *   USBUART_FAILURE   CDC interface was not initialized
 284:Generated_Source\PSoC5/USBUART_cdc.c **** *
 285:Generated_Source\PSoC5/USBUART_cdc.c **** * \globalvars
 286:Generated_Source\PSoC5/USBUART_cdc.c **** *   USBUART_linesChanged: Initialized to zero.
 287:Generated_Source\PSoC5/USBUART_cdc.c **** *   USBUART_cdcDataOutEp: Used as an OUT endpoint number.
 288:Generated_Source\PSoC5/USBUART_cdc.c **** *
 289:Generated_Source\PSoC5/USBUART_cdc.c **** * \reentrant
 290:Generated_Source\PSoC5/USBUART_cdc.c **** *  No.
 291:Generated_Source\PSoC5/USBUART_cdc.c **** *
 292:Generated_Source\PSoC5/USBUART_cdc.c **** *******************************************************************************/
 293:Generated_Source\PSoC5/USBUART_cdc.c **** uint8 USBUART_CDC_Init(void) 
 294:Generated_Source\PSoC5/USBUART_cdc.c **** {
 314              		.loc 1 294 0
 315              		.cfi_startproc
 316              		@ args = 0, pretend = 0, frame = 8
 317              		@ frame_needed = 1, uses_anonymous_args = 0
 318 0000 80B5     		push	{r7, lr}
 319              		.cfi_def_cfa_offset 8
ARM GAS  C:\Users\Greg\AppData\Local\Temp\ccDYSYHP.s 			page 12


 320              		.cfi_offset 7, -8
 321              		.cfi_offset 14, -4
 322 0002 82B0     		sub	sp, sp, #8
 323              		.cfi_def_cfa_offset 16
 324 0004 00AF     		add	r7, sp, #0
 325              		.cfi_def_cfa_register 7
 295:Generated_Source\PSoC5/USBUART_cdc.c ****     uint8 comPort;
 296:Generated_Source\PSoC5/USBUART_cdc.c ****     uint8 outEp;
 297:Generated_Source\PSoC5/USBUART_cdc.c ****     uint8 ret = USBUART_SUCCESS;
 326              		.loc 1 297 0
 327 0006 0023     		movs	r3, #0
 328 0008 BB71     		strb	r3, [r7, #6]
 298:Generated_Source\PSoC5/USBUART_cdc.c **** 
 299:Generated_Source\PSoC5/USBUART_cdc.c ****     USBUART_activeCom = 0u;
 329              		.loc 1 299 0
 330 000a 224B     		ldr	r3, .L27
 331 000c 0022     		movs	r2, #0
 332 000e 1A70     		strb	r2, [r3]
 300:Generated_Source\PSoC5/USBUART_cdc.c ****     USBUART_linesChanged[USBUART_COM_PORT1] = 0u;
 333              		.loc 1 300 0
 334 0010 214B     		ldr	r3, .L27+4
 335 0012 0022     		movs	r2, #0
 336 0014 1A70     		strb	r2, [r3]
 301:Generated_Source\PSoC5/USBUART_cdc.c ****     USBUART_linesChanged[USBUART_COM_PORT2] = 0u;
 337              		.loc 1 301 0
 338 0016 204B     		ldr	r3, .L27+4
 339 0018 0022     		movs	r2, #0
 340 001a 5A70     		strb	r2, [r3, #1]
 302:Generated_Source\PSoC5/USBUART_cdc.c **** 
 303:Generated_Source\PSoC5/USBUART_cdc.c ****     for(comPort = 0u; comPort<USBUART_MAX_MULTI_COM_NUM; comPort++)
 341              		.loc 1 303 0
 342 001c 0023     		movs	r3, #0
 343 001e FB71     		strb	r3, [r7, #7]
 344 0020 10E0     		b	.L21
 345              	.L23:
 304:Generated_Source\PSoC5/USBUART_cdc.c ****     {
 305:Generated_Source\PSoC5/USBUART_cdc.c ****         outEp = USBUART_cdcDataOutEp[comPort];
 346              		.loc 1 305 0
 347 0022 FB79     		ldrb	r3, [r7, #7]	@ zero_extendqisi2
 348 0024 1D4A     		ldr	r2, .L27+8
 349 0026 D35C     		ldrb	r3, [r2, r3]
 350 0028 7B71     		strb	r3, [r7, #5]
 306:Generated_Source\PSoC5/USBUART_cdc.c ****         if((0u != outEp) && (USBUART_MAX_EP > outEp))
 351              		.loc 1 306 0
 352 002a 7B79     		ldrb	r3, [r7, #5]	@ zero_extendqisi2
 353 002c 002B     		cmp	r3, #0
 354 002e 06D0     		beq	.L22
 355              		.loc 1 306 0 is_stmt 0 discriminator 1
 356 0030 7B79     		ldrb	r3, [r7, #5]	@ zero_extendqisi2
 357 0032 082B     		cmp	r3, #8
 358 0034 03D8     		bhi	.L22
 307:Generated_Source\PSoC5/USBUART_cdc.c ****         {
 308:Generated_Source\PSoC5/USBUART_cdc.c ****             USBUART_EnableOutEP(outEp);
 359              		.loc 1 308 0 is_stmt 1
 360 0036 7B79     		ldrb	r3, [r7, #5]	@ zero_extendqisi2
 361 0038 1846     		mov	r0, r3
 362 003a FFF7FEFF 		bl	USBUART_EnableOutEP
ARM GAS  C:\Users\Greg\AppData\Local\Temp\ccDYSYHP.s 			page 13


 363              	.L22:
 303:Generated_Source\PSoC5/USBUART_cdc.c ****     {
 364              		.loc 1 303 0 discriminator 2
 365 003e FB79     		ldrb	r3, [r7, #7]	@ zero_extendqisi2
 366 0040 0133     		adds	r3, r3, #1
 367 0042 FB71     		strb	r3, [r7, #7]
 368              	.L21:
 303:Generated_Source\PSoC5/USBUART_cdc.c ****     {
 369              		.loc 1 303 0 is_stmt 0 discriminator 1
 370 0044 FB79     		ldrb	r3, [r7, #7]	@ zero_extendqisi2
 371 0046 012B     		cmp	r3, #1
 372 0048 EBD9     		bls	.L23
 309:Generated_Source\PSoC5/USBUART_cdc.c ****         }
 310:Generated_Source\PSoC5/USBUART_cdc.c **** 
 311:Generated_Source\PSoC5/USBUART_cdc.c ****     }
 312:Generated_Source\PSoC5/USBUART_cdc.c **** 
 313:Generated_Source\PSoC5/USBUART_cdc.c ****     /* COM Port 1 should be correct to proceed. */
 314:Generated_Source\PSoC5/USBUART_cdc.c ****     if ((0u == USBUART_cdcDataInEp[USBUART_COM_PORT1]) \
 373              		.loc 1 314 0 is_stmt 1
 374 004a 154B     		ldr	r3, .L27+12
 375 004c 1B78     		ldrb	r3, [r3]
 376 004e DBB2     		uxtb	r3, r3
 377 0050 002B     		cmp	r3, #0
 378 0052 18D0     		beq	.L24
 315:Generated_Source\PSoC5/USBUART_cdc.c ****             || (0u == USBUART_cdcDataOutEp[USBUART_COM_PORT1]) \
 379              		.loc 1 315 0
 380 0054 114B     		ldr	r3, .L27+8
 381 0056 1B78     		ldrb	r3, [r3]
 382 0058 DBB2     		uxtb	r3, r3
 383 005a 002B     		cmp	r3, #0
 384 005c 13D0     		beq	.L24
 316:Generated_Source\PSoC5/USBUART_cdc.c ****             || (0u ==  USBUART_cdcCommInInterruptEp[USBUART_COM_PORT1])
 385              		.loc 1 316 0
 386 005e 114B     		ldr	r3, .L27+16
 387 0060 1B78     		ldrb	r3, [r3]
 388 0062 DBB2     		uxtb	r3, r3
 389 0064 002B     		cmp	r3, #0
 390 0066 0ED0     		beq	.L24
 317:Generated_Source\PSoC5/USBUART_cdc.c ****             || (USBUART_cdcDataInEp[USBUART_COM_PORT1] >= USBUART_MAX_EP)
 391              		.loc 1 317 0
 392 0068 0D4B     		ldr	r3, .L27+12
 393 006a 1B78     		ldrb	r3, [r3]
 394 006c DBB2     		uxtb	r3, r3
 395 006e 082B     		cmp	r3, #8
 396 0070 09D8     		bhi	.L24
 318:Generated_Source\PSoC5/USBUART_cdc.c ****             || (USBUART_cdcDataOutEp[USBUART_COM_PORT1] >= USBUART_MAX_EP)
 397              		.loc 1 318 0
 398 0072 0A4B     		ldr	r3, .L27+8
 399 0074 1B78     		ldrb	r3, [r3]
 400 0076 DBB2     		uxtb	r3, r3
 401 0078 082B     		cmp	r3, #8
 402 007a 04D8     		bhi	.L24
 319:Generated_Source\PSoC5/USBUART_cdc.c ****             || (USBUART_cdcCommInInterruptEp[USBUART_COM_PORT1] >= USBUART_MAX_EP))
 403              		.loc 1 319 0
 404 007c 094B     		ldr	r3, .L27+16
 405 007e 1B78     		ldrb	r3, [r3]
 406 0080 DBB2     		uxtb	r3, r3
ARM GAS  C:\Users\Greg\AppData\Local\Temp\ccDYSYHP.s 			page 14


 407 0082 082B     		cmp	r3, #8
 408 0084 01D9     		bls	.L25
 409              	.L24:
 320:Generated_Source\PSoC5/USBUART_cdc.c ****     {
 321:Generated_Source\PSoC5/USBUART_cdc.c ****         ret = USBUART_FAILURE;
 410              		.loc 1 321 0
 411 0086 0123     		movs	r3, #1
 412 0088 BB71     		strb	r3, [r7, #6]
 413              	.L25:
 322:Generated_Source\PSoC5/USBUART_cdc.c ****     }
 323:Generated_Source\PSoC5/USBUART_cdc.c **** 
 324:Generated_Source\PSoC5/USBUART_cdc.c ****     return (ret);
 414              		.loc 1 324 0
 415 008a BB79     		ldrb	r3, [r7, #6]	@ zero_extendqisi2
 325:Generated_Source\PSoC5/USBUART_cdc.c **** }
 416              		.loc 1 325 0
 417 008c 1846     		mov	r0, r3
 418 008e 0837     		adds	r7, r7, #8
 419              		.cfi_def_cfa_offset 8
 420 0090 BD46     		mov	sp, r7
 421              		.cfi_def_cfa_register 13
 422              		@ sp needed
 423 0092 80BD     		pop	{r7, pc}
 424              	.L28:
 425              		.align	2
 426              	.L27:
 427 0094 00000000 		.word	USBUART_activeCom
 428 0098 00000000 		.word	USBUART_linesChanged
 429 009c 00000000 		.word	USBUART_cdcDataOutEp
 430 00a0 00000000 		.word	USBUART_cdcDataInEp
 431 00a4 00000000 		.word	USBUART_cdcCommInInterruptEp
 432              		.cfi_endproc
 433              	.LFE2:
 434              		.size	USBUART_CDC_Init, .-USBUART_CDC_Init
 435              		.section	.text.USBUART_PutData,"ax",%progbits
 436              		.align	2
 437              		.global	USBUART_PutData
 438              		.thumb
 439              		.thumb_func
 440              		.type	USBUART_PutData, %function
 441              	USBUART_PutData:
 442              	.LFB3:
 326:Generated_Source\PSoC5/USBUART_cdc.c **** 
 327:Generated_Source\PSoC5/USBUART_cdc.c **** 
 328:Generated_Source\PSoC5/USBUART_cdc.c **** /*******************************************************************************
 329:Generated_Source\PSoC5/USBUART_cdc.c **** * Function Name: USBUART_PutData
 330:Generated_Source\PSoC5/USBUART_cdc.c **** ****************************************************************************//**
 331:Generated_Source\PSoC5/USBUART_cdc.c **** *
 332:Generated_Source\PSoC5/USBUART_cdc.c **** *  This function sends a specified number of bytes from the location specified
 333:Generated_Source\PSoC5/USBUART_cdc.c **** *  by a pointer to the PC. The USBUART_CDCIsReady() function should be
 334:Generated_Source\PSoC5/USBUART_cdc.c **** *  called before sending new data, to be sure that the previous data has
 335:Generated_Source\PSoC5/USBUART_cdc.c **** *  finished sending.
 336:Generated_Source\PSoC5/USBUART_cdc.c **** *  If the last sent packet is less than maximum packet size the USB transfer
 337:Generated_Source\PSoC5/USBUART_cdc.c **** *  of this short packet will identify the end of the segment. If the last sent
 338:Generated_Source\PSoC5/USBUART_cdc.c **** *  packet is exactly maximum packet size, it shall be followed by a zero-length
 339:Generated_Source\PSoC5/USBUART_cdc.c **** *  packet (which is a short packet) to assure the end of segment is properly
 340:Generated_Source\PSoC5/USBUART_cdc.c **** *  identified. To send zero-length packet, use USBUART_PutData() API
ARM GAS  C:\Users\Greg\AppData\Local\Temp\ccDYSYHP.s 			page 15


 341:Generated_Source\PSoC5/USBUART_cdc.c **** *  with length parameter set to zero.
 342:Generated_Source\PSoC5/USBUART_cdc.c **** *
 343:Generated_Source\PSoC5/USBUART_cdc.c **** *  \param pData: pointer to the buffer containing data to be sent.
 344:Generated_Source\PSoC5/USBUART_cdc.c **** *  \param length: Specifies the number of bytes to send from the pData
 345:Generated_Source\PSoC5/USBUART_cdc.c **** *  buffer. Maximum length will be limited by the maximum packet
 346:Generated_Source\PSoC5/USBUART_cdc.c **** *  size for the endpoint. Data will be lost if length is greater than Max
 347:Generated_Source\PSoC5/USBUART_cdc.c **** *  Packet Size.
 348:Generated_Source\PSoC5/USBUART_cdc.c **** *
 349:Generated_Source\PSoC5/USBUART_cdc.c **** * \globalvars
 350:Generated_Source\PSoC5/USBUART_cdc.c **** *
 351:Generated_Source\PSoC5/USBUART_cdc.c **** *   USBUART_cdcDataInEp: CDC IN endpoint number used for sending
 352:Generated_Source\PSoC5/USBUART_cdc.c **** *     data.
 353:Generated_Source\PSoC5/USBUART_cdc.c **** *
 354:Generated_Source\PSoC5/USBUART_cdc.c **** * \reentrant
 355:Generated_Source\PSoC5/USBUART_cdc.c **** *  No.
 356:Generated_Source\PSoC5/USBUART_cdc.c **** *
 357:Generated_Source\PSoC5/USBUART_cdc.c **** *******************************************************************************/
 358:Generated_Source\PSoC5/USBUART_cdc.c **** void USBUART_PutData(const uint8* pData, uint16 length) 
 359:Generated_Source\PSoC5/USBUART_cdc.c **** {
 443              		.loc 1 359 0
 444              		.cfi_startproc
 445              		@ args = 0, pretend = 0, frame = 16
 446              		@ frame_needed = 1, uses_anonymous_args = 0
 447 0000 80B5     		push	{r7, lr}
 448              		.cfi_def_cfa_offset 8
 449              		.cfi_offset 7, -8
 450              		.cfi_offset 14, -4
 451 0002 84B0     		sub	sp, sp, #16
 452              		.cfi_def_cfa_offset 24
 453 0004 00AF     		add	r7, sp, #0
 454              		.cfi_def_cfa_register 7
 455 0006 7860     		str	r0, [r7, #4]
 456 0008 0B46     		mov	r3, r1
 457 000a 7B80     		strh	r3, [r7, #2]	@ movhi
 360:Generated_Source\PSoC5/USBUART_cdc.c ****     uint8 epNumber = USBUART_cdcDataInEp[USBUART_activeCom];
 458              		.loc 1 360 0
 459 000c 144B     		ldr	r3, .L31
 460 000e 1B78     		ldrb	r3, [r3]	@ zero_extendqisi2
 461 0010 1A46     		mov	r2, r3
 462 0012 144B     		ldr	r3, .L31+4
 463 0014 9B5C     		ldrb	r3, [r3, r2]
 464 0016 FB73     		strb	r3, [r7, #15]
 361:Generated_Source\PSoC5/USBUART_cdc.c **** 
 362:Generated_Source\PSoC5/USBUART_cdc.c ****     /* Limit length to maximum packet size for endpoint. */
 363:Generated_Source\PSoC5/USBUART_cdc.c ****     if (length > USBUART_EP[epNumber].bufferSize)
 465              		.loc 1 363 0
 466 0018 FA7B     		ldrb	r2, [r7, #15]	@ zero_extendqisi2
 467 001a 1349     		ldr	r1, .L31+8
 468 001c 1346     		mov	r3, r2
 469 001e 5B00     		lsls	r3, r3, #1
 470 0020 1344     		add	r3, r3, r2
 471 0022 9B00     		lsls	r3, r3, #2
 472 0024 0B44     		add	r3, r3, r1
 473 0026 0833     		adds	r3, r3, #8
 474 0028 1B88     		ldrh	r3, [r3]	@ movhi
 475 002a 9BB2     		uxth	r3, r3
 476 002c 7A88     		ldrh	r2, [r7, #2]
ARM GAS  C:\Users\Greg\AppData\Local\Temp\ccDYSYHP.s 			page 16


 477 002e 9A42     		cmp	r2, r3
 478 0030 0CD9     		bls	.L30
 364:Generated_Source\PSoC5/USBUART_cdc.c ****     {
 365:Generated_Source\PSoC5/USBUART_cdc.c ****         /* Caution: Data will be lost if length is greater than Max Packet Size. */
 366:Generated_Source\PSoC5/USBUART_cdc.c ****         length = USBUART_EP[epNumber].bufferSize;
 479              		.loc 1 366 0
 480 0032 FA7B     		ldrb	r2, [r7, #15]	@ zero_extendqisi2
 481 0034 0C49     		ldr	r1, .L31+8
 482 0036 1346     		mov	r3, r2
 483 0038 5B00     		lsls	r3, r3, #1
 484 003a 1344     		add	r3, r3, r2
 485 003c 9B00     		lsls	r3, r3, #2
 486 003e 0B44     		add	r3, r3, r1
 487 0040 0833     		adds	r3, r3, #8
 488 0042 1B88     		ldrh	r3, [r3]	@ movhi
 489 0044 7B80     		strh	r3, [r7, #2]	@ movhi
 367:Generated_Source\PSoC5/USBUART_cdc.c **** 
 368:Generated_Source\PSoC5/USBUART_cdc.c ****         /* Halt CPU in debug mode */
 369:Generated_Source\PSoC5/USBUART_cdc.c ****         CYASSERT(0u != 0u);
 490              		.loc 1 369 0
 491 0046 0020     		movs	r0, #0
 492 0048 FFF7FEFF 		bl	CyHalt
 493              	.L30:
 370:Generated_Source\PSoC5/USBUART_cdc.c ****     }
 371:Generated_Source\PSoC5/USBUART_cdc.c **** 
 372:Generated_Source\PSoC5/USBUART_cdc.c ****     USBUART_LoadInEP(epNumber, pData, length);
 494              		.loc 1 372 0
 495 004c FA7B     		ldrb	r2, [r7, #15]	@ zero_extendqisi2
 496 004e 7B88     		ldrh	r3, [r7, #2]
 497 0050 1046     		mov	r0, r2
 498 0052 7968     		ldr	r1, [r7, #4]
 499 0054 1A46     		mov	r2, r3
 500 0056 FFF7FEFF 		bl	USBUART_LoadInEP
 373:Generated_Source\PSoC5/USBUART_cdc.c **** }
 501              		.loc 1 373 0
 502 005a 1037     		adds	r7, r7, #16
 503              		.cfi_def_cfa_offset 8
 504 005c BD46     		mov	sp, r7
 505              		.cfi_def_cfa_register 13
 506              		@ sp needed
 507 005e 80BD     		pop	{r7, pc}
 508              	.L32:
 509              		.align	2
 510              	.L31:
 511 0060 00000000 		.word	USBUART_activeCom
 512 0064 00000000 		.word	USBUART_cdcDataInEp
 513 0068 00000000 		.word	USBUART_EP
 514              		.cfi_endproc
 515              	.LFE3:
 516              		.size	USBUART_PutData, .-USBUART_PutData
 517              		.section	.text.USBUART_StrLen,"ax",%progbits
 518              		.align	2
 519              		.thumb
 520              		.thumb_func
 521              		.type	USBUART_StrLen, %function
 522              	USBUART_StrLen:
 523              	.LFB4:
ARM GAS  C:\Users\Greg\AppData\Local\Temp\ccDYSYHP.s 			page 17


 374:Generated_Source\PSoC5/USBUART_cdc.c **** 
 375:Generated_Source\PSoC5/USBUART_cdc.c **** 
 376:Generated_Source\PSoC5/USBUART_cdc.c **** /*******************************************************************************
 377:Generated_Source\PSoC5/USBUART_cdc.c **** * Function Name: USBUART_StrLen
 378:Generated_Source\PSoC5/USBUART_cdc.c **** ****************************************************************************//**
 379:Generated_Source\PSoC5/USBUART_cdc.c **** *
 380:Generated_Source\PSoC5/USBUART_cdc.c **** *  Calculates length of a null terminated string.
 381:Generated_Source\PSoC5/USBUART_cdc.c **** *
 382:Generated_Source\PSoC5/USBUART_cdc.c **** *  \param string: pointer to the string.
 383:Generated_Source\PSoC5/USBUART_cdc.c **** *
 384:Generated_Source\PSoC5/USBUART_cdc.c **** * \return
 385:Generated_Source\PSoC5/USBUART_cdc.c **** *  Length of the string
 386:Generated_Source\PSoC5/USBUART_cdc.c **** *
 387:Generated_Source\PSoC5/USBUART_cdc.c **** *******************************************************************************/
 388:Generated_Source\PSoC5/USBUART_cdc.c **** static uint16 USBUART_StrLen(const char8 string[]) 
 389:Generated_Source\PSoC5/USBUART_cdc.c **** {
 524              		.loc 1 389 0
 525              		.cfi_startproc
 526              		@ args = 0, pretend = 0, frame = 16
 527              		@ frame_needed = 1, uses_anonymous_args = 0
 528              		@ link register save eliminated.
 529 0000 80B4     		push	{r7}
 530              		.cfi_def_cfa_offset 4
 531              		.cfi_offset 7, -4
 532 0002 85B0     		sub	sp, sp, #20
 533              		.cfi_def_cfa_offset 24
 534 0004 00AF     		add	r7, sp, #0
 535              		.cfi_def_cfa_register 7
 536 0006 7860     		str	r0, [r7, #4]
 390:Generated_Source\PSoC5/USBUART_cdc.c ****     uint16 len = 0u;
 537              		.loc 1 390 0
 538 0008 0023     		movs	r3, #0
 539 000a FB81     		strh	r3, [r7, #14]	@ movhi
 391:Generated_Source\PSoC5/USBUART_cdc.c **** 
 392:Generated_Source\PSoC5/USBUART_cdc.c ****     while (string[len] != (char8)0)
 540              		.loc 1 392 0
 541 000c 02E0     		b	.L34
 542              	.L35:
 393:Generated_Source\PSoC5/USBUART_cdc.c ****     {
 394:Generated_Source\PSoC5/USBUART_cdc.c ****         len++;
 543              		.loc 1 394 0
 544 000e FB89     		ldrh	r3, [r7, #14]
 545 0010 0133     		adds	r3, r3, #1
 546 0012 FB81     		strh	r3, [r7, #14]	@ movhi
 547              	.L34:
 392:Generated_Source\PSoC5/USBUART_cdc.c ****     {
 548              		.loc 1 392 0
 549 0014 FB89     		ldrh	r3, [r7, #14]
 550 0016 7A68     		ldr	r2, [r7, #4]
 551 0018 1344     		add	r3, r3, r2
 552 001a 1B78     		ldrb	r3, [r3]	@ zero_extendqisi2
 553 001c 002B     		cmp	r3, #0
 554 001e F6D1     		bne	.L35
 395:Generated_Source\PSoC5/USBUART_cdc.c ****     }
 396:Generated_Source\PSoC5/USBUART_cdc.c **** 
 397:Generated_Source\PSoC5/USBUART_cdc.c ****     return ((uint16) len);
 555              		.loc 1 397 0
ARM GAS  C:\Users\Greg\AppData\Local\Temp\ccDYSYHP.s 			page 18


 556 0020 FB89     		ldrh	r3, [r7, #14]
 398:Generated_Source\PSoC5/USBUART_cdc.c **** }
 557              		.loc 1 398 0
 558 0022 1846     		mov	r0, r3
 559 0024 1437     		adds	r7, r7, #20
 560              		.cfi_def_cfa_offset 4
 561 0026 BD46     		mov	sp, r7
 562              		.cfi_def_cfa_register 13
 563              		@ sp needed
 564 0028 5DF8047B 		ldr	r7, [sp], #4
 565              		.cfi_restore 7
 566              		.cfi_def_cfa_offset 0
 567 002c 7047     		bx	lr
 568              		.cfi_endproc
 569              	.LFE4:
 570              		.size	USBUART_StrLen, .-USBUART_StrLen
 571 002e 00BF     		.section	.text.USBUART_PutString,"ax",%progbits
 572              		.align	2
 573              		.global	USBUART_PutString
 574              		.thumb
 575              		.thumb_func
 576              		.type	USBUART_PutString, %function
 577              	USBUART_PutString:
 578              	.LFB5:
 399:Generated_Source\PSoC5/USBUART_cdc.c **** 
 400:Generated_Source\PSoC5/USBUART_cdc.c **** 
 401:Generated_Source\PSoC5/USBUART_cdc.c **** /***************************************************************************
 402:Generated_Source\PSoC5/USBUART_cdc.c **** * Function Name: USBUART_PutString
 403:Generated_Source\PSoC5/USBUART_cdc.c **** ************************************************************************//**
 404:Generated_Source\PSoC5/USBUART_cdc.c **** *
 405:Generated_Source\PSoC5/USBUART_cdc.c **** *  This function sends a null terminated string to the PC. This function will
 406:Generated_Source\PSoC5/USBUART_cdc.c **** *  block if there is not enough memory to place the whole string. It will block
 407:Generated_Source\PSoC5/USBUART_cdc.c **** *  until the entire string has been written to the transmit buffer.
 408:Generated_Source\PSoC5/USBUART_cdc.c **** *  The USBUART_CDCIsReady() function should be called before
 409:Generated_Source\PSoC5/USBUART_cdc.c **** *  sending data with a new call to USBUART_PutString(), to be sure
 410:Generated_Source\PSoC5/USBUART_cdc.c **** *  that the previous data has finished sending. This function sends
 411:Generated_Source\PSoC5/USBUART_cdc.c **** *  zero-length packet automatically, if the length of the last packet, sent
 412:Generated_Source\PSoC5/USBUART_cdc.c **** *  by this API, is equal to Max Packet Size
 413:Generated_Source\PSoC5/USBUART_cdc.c **** *
 414:Generated_Source\PSoC5/USBUART_cdc.c **** *  \param string: pointer to the string to be sent to the PC.
 415:Generated_Source\PSoC5/USBUART_cdc.c **** *
 416:Generated_Source\PSoC5/USBUART_cdc.c **** * \globalvars
 417:Generated_Source\PSoC5/USBUART_cdc.c **** *
 418:Generated_Source\PSoC5/USBUART_cdc.c **** *   USBUART_cdcDataInEp: CDC IN endpoint number used for sending
 419:Generated_Source\PSoC5/USBUART_cdc.c **** *     data.
 420:Generated_Source\PSoC5/USBUART_cdc.c **** *
 421:Generated_Source\PSoC5/USBUART_cdc.c **** * \reentrant
 422:Generated_Source\PSoC5/USBUART_cdc.c **** *  No.
 423:Generated_Source\PSoC5/USBUART_cdc.c **** *
 424:Generated_Source\PSoC5/USBUART_cdc.c **** ***************************************************************************/
 425:Generated_Source\PSoC5/USBUART_cdc.c **** void USBUART_PutString(const char8 string[]) 
 426:Generated_Source\PSoC5/USBUART_cdc.c **** {
 579              		.loc 1 426 0
 580              		.cfi_startproc
 581              		@ args = 0, pretend = 0, frame = 16
 582              		@ frame_needed = 1, uses_anonymous_args = 0
 583 0000 80B5     		push	{r7, lr}
ARM GAS  C:\Users\Greg\AppData\Local\Temp\ccDYSYHP.s 			page 19


 584              		.cfi_def_cfa_offset 8
 585              		.cfi_offset 7, -8
 586              		.cfi_offset 14, -4
 587 0002 84B0     		sub	sp, sp, #16
 588              		.cfi_def_cfa_offset 24
 589 0004 00AF     		add	r7, sp, #0
 590              		.cfi_def_cfa_register 7
 591 0006 7860     		str	r0, [r7, #4]
 427:Generated_Source\PSoC5/USBUART_cdc.c ****     uint16 strLength;
 428:Generated_Source\PSoC5/USBUART_cdc.c ****     uint16 sendLength;
 429:Generated_Source\PSoC5/USBUART_cdc.c ****     uint16 bufIndex = 0u;
 592              		.loc 1 429 0
 593 0008 0023     		movs	r3, #0
 594 000a BB81     		strh	r3, [r7, #12]	@ movhi
 430:Generated_Source\PSoC5/USBUART_cdc.c **** 
 431:Generated_Source\PSoC5/USBUART_cdc.c ****     uint8  epNumber = USBUART_cdcDataInEp[USBUART_activeCom];
 595              		.loc 1 431 0
 596 000c 304B     		ldr	r3, .L44
 597 000e 1B78     		ldrb	r3, [r3]	@ zero_extendqisi2
 598 0010 1A46     		mov	r2, r3
 599 0012 304B     		ldr	r3, .L44+4
 600 0014 9B5C     		ldrb	r3, [r3, r2]
 601 0016 FB72     		strb	r3, [r7, #11]
 432:Generated_Source\PSoC5/USBUART_cdc.c **** 
 433:Generated_Source\PSoC5/USBUART_cdc.c ****     /* Get length string length (it is terminated with zero). */
 434:Generated_Source\PSoC5/USBUART_cdc.c ****     strLength = USBUART_StrLen(string);
 602              		.loc 1 434 0
 603 0018 7868     		ldr	r0, [r7, #4]
 604 001a FFF7FEFF 		bl	USBUART_StrLen
 605 001e 0346     		mov	r3, r0
 606 0020 FB81     		strh	r3, [r7, #14]	@ movhi
 607              	.L43:
 435:Generated_Source\PSoC5/USBUART_cdc.c **** 
 436:Generated_Source\PSoC5/USBUART_cdc.c ****     do
 437:Generated_Source\PSoC5/USBUART_cdc.c ****     {
 438:Generated_Source\PSoC5/USBUART_cdc.c ****         /* Limit length to maximum packet size of endpoint. */
 439:Generated_Source\PSoC5/USBUART_cdc.c ****         sendLength = (strLength > USBUART_EP[epNumber].bufferSize) ?
 608              		.loc 1 439 0
 609 0022 FA7A     		ldrb	r2, [r7, #11]	@ zero_extendqisi2
 610 0024 2C49     		ldr	r1, .L44+8
 611 0026 1346     		mov	r3, r2
 612 0028 5B00     		lsls	r3, r3, #1
 613 002a 1344     		add	r3, r3, r2
 614 002c 9B00     		lsls	r3, r3, #2
 615 002e 0B44     		add	r3, r3, r1
 616 0030 0833     		adds	r3, r3, #8
 617 0032 1B88     		ldrh	r3, [r3]	@ movhi
 618 0034 9BB2     		uxth	r3, r3
 619 0036 FA89     		ldrh	r2, [r7, #14]
 620 0038 9A42     		cmp	r2, r3
 621 003a 0AD9     		bls	.L38
 440:Generated_Source\PSoC5/USBUART_cdc.c ****                                   USBUART_EP[epNumber].bufferSize : strLength;
 622              		.loc 1 440 0 discriminator 1
 623 003c FA7A     		ldrb	r2, [r7, #11]	@ zero_extendqisi2
 439:Generated_Source\PSoC5/USBUART_cdc.c ****                                   USBUART_EP[epNumber].bufferSize : strLength;
 624              		.loc 1 439 0 discriminator 1
 625 003e 2649     		ldr	r1, .L44+8
ARM GAS  C:\Users\Greg\AppData\Local\Temp\ccDYSYHP.s 			page 20


 626 0040 1346     		mov	r3, r2
 627 0042 5B00     		lsls	r3, r3, #1
 628 0044 1344     		add	r3, r3, r2
 629 0046 9B00     		lsls	r3, r3, #2
 630 0048 0B44     		add	r3, r3, r1
 631 004a 0833     		adds	r3, r3, #8
 632 004c 1B88     		ldrh	r3, [r3]	@ movhi
 633 004e 9BB2     		uxth	r3, r3
 634 0050 00E0     		b	.L39
 635              	.L38:
 439:Generated_Source\PSoC5/USBUART_cdc.c ****                                   USBUART_EP[epNumber].bufferSize : strLength;
 636              		.loc 1 439 0 is_stmt 0 discriminator 2
 637 0052 FB89     		ldrh	r3, [r7, #14]
 638              	.L39:
 439:Generated_Source\PSoC5/USBUART_cdc.c ****                                   USBUART_EP[epNumber].bufferSize : strLength;
 639              		.loc 1 439 0 discriminator 4
 640 0054 3B81     		strh	r3, [r7, #8]	@ movhi
 441:Generated_Source\PSoC5/USBUART_cdc.c **** 
 442:Generated_Source\PSoC5/USBUART_cdc.c ****         /* Load IN endpoint and expose it to host. */
 443:Generated_Source\PSoC5/USBUART_cdc.c ****         USBUART_LoadInEP(epNumber, (const uint8 *)&string[bufIndex], sendLength);
 641              		.loc 1 443 0 is_stmt 1 discriminator 4
 642 0056 BB89     		ldrh	r3, [r7, #12]
 643 0058 7A68     		ldr	r2, [r7, #4]
 644 005a 1A44     		add	r2, r2, r3
 645 005c F97A     		ldrb	r1, [r7, #11]	@ zero_extendqisi2
 646 005e 3B89     		ldrh	r3, [r7, #8]
 647 0060 0846     		mov	r0, r1
 648 0062 1146     		mov	r1, r2
 649 0064 1A46     		mov	r2, r3
 650 0066 FFF7FEFF 		bl	USBUART_LoadInEP
 444:Generated_Source\PSoC5/USBUART_cdc.c ****         strLength -= sendLength;
 651              		.loc 1 444 0 discriminator 4
 652 006a FA89     		ldrh	r2, [r7, #14]	@ movhi
 653 006c 3B89     		ldrh	r3, [r7, #8]	@ movhi
 654 006e D31A     		subs	r3, r2, r3
 655 0070 FB81     		strh	r3, [r7, #14]	@ movhi
 445:Generated_Source\PSoC5/USBUART_cdc.c **** 
 446:Generated_Source\PSoC5/USBUART_cdc.c ****         /* If more data are present to send or full packet was sent */
 447:Generated_Source\PSoC5/USBUART_cdc.c ****         if ((strLength > 0u) || (sendLength == USBUART_EP[epNumber].bufferSize))
 656              		.loc 1 447 0 discriminator 4
 657 0072 FB89     		ldrh	r3, [r7, #14]
 658 0074 002B     		cmp	r3, #0
 659 0076 0CD1     		bne	.L40
 660              		.loc 1 447 0 is_stmt 0 discriminator 1
 661 0078 FA7A     		ldrb	r2, [r7, #11]	@ zero_extendqisi2
 662 007a 1749     		ldr	r1, .L44+8
 663 007c 1346     		mov	r3, r2
 664 007e 5B00     		lsls	r3, r3, #1
 665 0080 1344     		add	r3, r3, r2
 666 0082 9B00     		lsls	r3, r3, #2
 667 0084 0B44     		add	r3, r3, r1
 668 0086 0833     		adds	r3, r3, #8
 669 0088 1B88     		ldrh	r3, [r3]	@ movhi
 670 008a 9BB2     		uxth	r3, r3
 671 008c 3A89     		ldrh	r2, [r7, #8]
 672 008e 9A42     		cmp	r2, r3
 673 0090 18D1     		bne	.L41
ARM GAS  C:\Users\Greg\AppData\Local\Temp\ccDYSYHP.s 			page 21


 674              	.L40:
 448:Generated_Source\PSoC5/USBUART_cdc.c ****         {
 449:Generated_Source\PSoC5/USBUART_cdc.c ****             bufIndex += sendLength;
 675              		.loc 1 449 0 is_stmt 1
 676 0092 BA89     		ldrh	r2, [r7, #12]	@ movhi
 677 0094 3B89     		ldrh	r3, [r7, #8]	@ movhi
 678 0096 1344     		add	r3, r3, r2
 679 0098 BB81     		strh	r3, [r7, #12]	@ movhi
 450:Generated_Source\PSoC5/USBUART_cdc.c **** 
 451:Generated_Source\PSoC5/USBUART_cdc.c ****             /* Wait until host read data from IN endpoint buffer. */
 452:Generated_Source\PSoC5/USBUART_cdc.c ****             while (USBUART_IN_BUFFER_FULL == USBUART_EP[epNumber].apiEpState)
 680              		.loc 1 452 0
 681 009a 00BF     		nop
 682              	.L42:
 683              		.loc 1 452 0 is_stmt 0 discriminator 1
 684 009c FA7A     		ldrb	r2, [r7, #11]	@ zero_extendqisi2
 685 009e 0E49     		ldr	r1, .L44+8
 686 00a0 1346     		mov	r3, r2
 687 00a2 5B00     		lsls	r3, r3, #1
 688 00a4 1344     		add	r3, r3, r2
 689 00a6 9B00     		lsls	r3, r3, #2
 690 00a8 0B44     		add	r3, r3, r1
 691 00aa 5B78     		ldrb	r3, [r3, #1]
 692 00ac DBB2     		uxtb	r3, r3
 693 00ae 002B     		cmp	r3, #0
 694 00b0 F4D0     		beq	.L42
 453:Generated_Source\PSoC5/USBUART_cdc.c ****             {
 454:Generated_Source\PSoC5/USBUART_cdc.c ****             }
 455:Generated_Source\PSoC5/USBUART_cdc.c **** 
 456:Generated_Source\PSoC5/USBUART_cdc.c ****             /* If last packet is exactly maximum packet size, it shall be followed
 457:Generated_Source\PSoC5/USBUART_cdc.c ****             * by a zero-length packet to assure the end of segment is properly
 458:Generated_Source\PSoC5/USBUART_cdc.c ****             * identified by the terminal.
 459:Generated_Source\PSoC5/USBUART_cdc.c ****             */
 460:Generated_Source\PSoC5/USBUART_cdc.c ****             if (0u == strLength)
 695              		.loc 1 460 0 is_stmt 1
 696 00b2 FB89     		ldrh	r3, [r7, #14]
 697 00b4 002B     		cmp	r3, #0
 698 00b6 05D1     		bne	.L41
 461:Generated_Source\PSoC5/USBUART_cdc.c ****             {
 462:Generated_Source\PSoC5/USBUART_cdc.c ****                 USBUART_LoadInEP(epNumber, NULL, 0u);
 699              		.loc 1 462 0
 700 00b8 FB7A     		ldrb	r3, [r7, #11]	@ zero_extendqisi2
 701 00ba 1846     		mov	r0, r3
 702 00bc 0021     		movs	r1, #0
 703 00be 0022     		movs	r2, #0
 704 00c0 FFF7FEFF 		bl	USBUART_LoadInEP
 705              	.L41:
 463:Generated_Source\PSoC5/USBUART_cdc.c ****             }
 464:Generated_Source\PSoC5/USBUART_cdc.c ****         }
 465:Generated_Source\PSoC5/USBUART_cdc.c ****     }
 466:Generated_Source\PSoC5/USBUART_cdc.c ****     while (strLength > 0u);
 706              		.loc 1 466 0
 707 00c4 FB89     		ldrh	r3, [r7, #14]
 708 00c6 002B     		cmp	r3, #0
 709 00c8 ABD1     		bne	.L43
 467:Generated_Source\PSoC5/USBUART_cdc.c **** }
 710              		.loc 1 467 0
ARM GAS  C:\Users\Greg\AppData\Local\Temp\ccDYSYHP.s 			page 22


 711 00ca 1037     		adds	r7, r7, #16
 712              		.cfi_def_cfa_offset 8
 713 00cc BD46     		mov	sp, r7
 714              		.cfi_def_cfa_register 13
 715              		@ sp needed
 716 00ce 80BD     		pop	{r7, pc}
 717              	.L45:
 718              		.align	2
 719              	.L44:
 720 00d0 00000000 		.word	USBUART_activeCom
 721 00d4 00000000 		.word	USBUART_cdcDataInEp
 722 00d8 00000000 		.word	USBUART_EP
 723              		.cfi_endproc
 724              	.LFE5:
 725              		.size	USBUART_PutString, .-USBUART_PutString
 726              		.section	.text.USBUART_PutChar,"ax",%progbits
 727              		.align	2
 728              		.global	USBUART_PutChar
 729              		.thumb
 730              		.thumb_func
 731              		.type	USBUART_PutChar, %function
 732              	USBUART_PutChar:
 733              	.LFB6:
 468:Generated_Source\PSoC5/USBUART_cdc.c **** 
 469:Generated_Source\PSoC5/USBUART_cdc.c **** 
 470:Generated_Source\PSoC5/USBUART_cdc.c **** /***************************************************************************
 471:Generated_Source\PSoC5/USBUART_cdc.c **** * Function Name: USBUART_PutChar
 472:Generated_Source\PSoC5/USBUART_cdc.c **** ************************************************************************//**
 473:Generated_Source\PSoC5/USBUART_cdc.c **** *
 474:Generated_Source\PSoC5/USBUART_cdc.c **** *  This function writes a single character to the PC at a time. This is an
 475:Generated_Source\PSoC5/USBUART_cdc.c **** *  inefficient way to send large amounts of data.
 476:Generated_Source\PSoC5/USBUART_cdc.c **** *
 477:Generated_Source\PSoC5/USBUART_cdc.c **** *  \param txDataByte: Character to be sent to the PC.
 478:Generated_Source\PSoC5/USBUART_cdc.c **** *
 479:Generated_Source\PSoC5/USBUART_cdc.c **** *  \globalvars
 480:Generated_Source\PSoC5/USBUART_cdc.c **** *
 481:Generated_Source\PSoC5/USBUART_cdc.c **** *   USBUART_cdcDataInEp: CDC IN endpoint number used for sending
 482:Generated_Source\PSoC5/USBUART_cdc.c **** *     data.
 483:Generated_Source\PSoC5/USBUART_cdc.c **** *
 484:Generated_Source\PSoC5/USBUART_cdc.c **** *  \reentrant
 485:Generated_Source\PSoC5/USBUART_cdc.c **** *  No.
 486:Generated_Source\PSoC5/USBUART_cdc.c **** *
 487:Generated_Source\PSoC5/USBUART_cdc.c **** ***************************************************************************/
 488:Generated_Source\PSoC5/USBUART_cdc.c **** void USBUART_PutChar(char8 txDataByte) 
 489:Generated_Source\PSoC5/USBUART_cdc.c **** {
 734              		.loc 1 489 0
 735              		.cfi_startproc
 736              		@ args = 0, pretend = 0, frame = 16
 737              		@ frame_needed = 1, uses_anonymous_args = 0
 738 0000 80B5     		push	{r7, lr}
 739              		.cfi_def_cfa_offset 8
 740              		.cfi_offset 7, -8
 741              		.cfi_offset 14, -4
 742 0002 84B0     		sub	sp, sp, #16
 743              		.cfi_def_cfa_offset 24
 744 0004 00AF     		add	r7, sp, #0
 745              		.cfi_def_cfa_register 7
ARM GAS  C:\Users\Greg\AppData\Local\Temp\ccDYSYHP.s 			page 23


 746 0006 0346     		mov	r3, r0
 747 0008 FB71     		strb	r3, [r7, #7]
 490:Generated_Source\PSoC5/USBUART_cdc.c ****     uint8 dataByte;
 491:Generated_Source\PSoC5/USBUART_cdc.c ****     dataByte = (uint8) txDataByte;
 748              		.loc 1 491 0
 749 000a FB79     		ldrb	r3, [r7, #7]
 750 000c FB73     		strb	r3, [r7, #15]
 492:Generated_Source\PSoC5/USBUART_cdc.c **** 
 493:Generated_Source\PSoC5/USBUART_cdc.c ****     USBUART_LoadInEP(USBUART_cdcDataInEp[USBUART_activeCom], &dataByte, 1u);
 751              		.loc 1 493 0
 752 000e 084B     		ldr	r3, .L47
 753 0010 1B78     		ldrb	r3, [r3]	@ zero_extendqisi2
 754 0012 1A46     		mov	r2, r3
 755 0014 074B     		ldr	r3, .L47+4
 756 0016 9B5C     		ldrb	r3, [r3, r2]
 757 0018 DAB2     		uxtb	r2, r3
 758 001a 07F10F03 		add	r3, r7, #15
 759 001e 1046     		mov	r0, r2
 760 0020 1946     		mov	r1, r3
 761 0022 0122     		movs	r2, #1
 762 0024 FFF7FEFF 		bl	USBUART_LoadInEP
 494:Generated_Source\PSoC5/USBUART_cdc.c **** }
 763              		.loc 1 494 0
 764 0028 1037     		adds	r7, r7, #16
 765              		.cfi_def_cfa_offset 8
 766 002a BD46     		mov	sp, r7
 767              		.cfi_def_cfa_register 13
 768              		@ sp needed
 769 002c 80BD     		pop	{r7, pc}
 770              	.L48:
 771 002e 00BF     		.align	2
 772              	.L47:
 773 0030 00000000 		.word	USBUART_activeCom
 774 0034 00000000 		.word	USBUART_cdcDataInEp
 775              		.cfi_endproc
 776              	.LFE6:
 777              		.size	USBUART_PutChar, .-USBUART_PutChar
 778              		.section	.rodata
 779              		.align	2
 780              	.LC0:
 781 0000 0D       		.byte	13
 782 0001 0A       		.byte	10
 783 0002 0000     		.section	.text.USBUART_PutCRLF,"ax",%progbits
 784              		.align	2
 785              		.global	USBUART_PutCRLF
 786              		.thumb
 787              		.thumb_func
 788              		.type	USBUART_PutCRLF, %function
 789              	USBUART_PutCRLF:
 790              	.LFB7:
 495:Generated_Source\PSoC5/USBUART_cdc.c **** 
 496:Generated_Source\PSoC5/USBUART_cdc.c **** 
 497:Generated_Source\PSoC5/USBUART_cdc.c **** /*******************************************************************************
 498:Generated_Source\PSoC5/USBUART_cdc.c **** * Function Name: USBUART_PutCRLF
 499:Generated_Source\PSoC5/USBUART_cdc.c **** ****************************************************************************//**
 500:Generated_Source\PSoC5/USBUART_cdc.c **** *
 501:Generated_Source\PSoC5/USBUART_cdc.c **** *  This function sends a carriage return (0x0D) and line feed (0x0A) to the
ARM GAS  C:\Users\Greg\AppData\Local\Temp\ccDYSYHP.s 			page 24


 502:Generated_Source\PSoC5/USBUART_cdc.c **** *  PC. This APIis provided to mimic API provided by our other UART components
 503:Generated_Source\PSoC5/USBUART_cdc.c **** *
 504:Generated_Source\PSoC5/USBUART_cdc.c **** * \globalvars
 505:Generated_Source\PSoC5/USBUART_cdc.c **** *
 506:Generated_Source\PSoC5/USBUART_cdc.c **** *   USBUART_cdcDataInEp: CDC IN endpoint number used for sending
 507:Generated_Source\PSoC5/USBUART_cdc.c **** *     data.
 508:Generated_Source\PSoC5/USBUART_cdc.c **** *
 509:Generated_Source\PSoC5/USBUART_cdc.c **** * \reentrant
 510:Generated_Source\PSoC5/USBUART_cdc.c **** *  No.
 511:Generated_Source\PSoC5/USBUART_cdc.c **** *
 512:Generated_Source\PSoC5/USBUART_cdc.c **** *******************************************************************************/
 513:Generated_Source\PSoC5/USBUART_cdc.c **** void USBUART_PutCRLF(void) 
 514:Generated_Source\PSoC5/USBUART_cdc.c **** {
 791              		.loc 1 514 0
 792              		.cfi_startproc
 793              		@ args = 0, pretend = 0, frame = 8
 794              		@ frame_needed = 1, uses_anonymous_args = 0
 795 0000 80B5     		push	{r7, lr}
 796              		.cfi_def_cfa_offset 8
 797              		.cfi_offset 7, -8
 798              		.cfi_offset 14, -4
 799 0002 82B0     		sub	sp, sp, #8
 800              		.cfi_def_cfa_offset 16
 801 0004 00AF     		add	r7, sp, #0
 802              		.cfi_def_cfa_register 7
 515:Generated_Source\PSoC5/USBUART_cdc.c ****     const uint8 CYCODE txData[] = {0x0Du, 0x0Au};
 803              		.loc 1 515 0
 804 0006 094A     		ldr	r2, .L50
 805 0008 3B1D     		adds	r3, r7, #4
 806 000a 1288     		ldrh	r2, [r2]	@ unaligned
 807 000c 1A80     		strh	r2, [r3]	@ unaligned
 516:Generated_Source\PSoC5/USBUART_cdc.c **** 
 517:Generated_Source\PSoC5/USBUART_cdc.c ****     USBUART_LoadInEP(USBUART_cdcDataInEp[USBUART_activeCom], (const uint8 *)txData, 2u);
 808              		.loc 1 517 0
 809 000e 084B     		ldr	r3, .L50+4
 810 0010 1B78     		ldrb	r3, [r3]	@ zero_extendqisi2
 811 0012 1A46     		mov	r2, r3
 812 0014 074B     		ldr	r3, .L50+8
 813 0016 9B5C     		ldrb	r3, [r3, r2]
 814 0018 DAB2     		uxtb	r2, r3
 815 001a 3B1D     		adds	r3, r7, #4
 816 001c 1046     		mov	r0, r2
 817 001e 1946     		mov	r1, r3
 818 0020 0222     		movs	r2, #2
 819 0022 FFF7FEFF 		bl	USBUART_LoadInEP
 518:Generated_Source\PSoC5/USBUART_cdc.c **** }
 820              		.loc 1 518 0
 821 0026 0837     		adds	r7, r7, #8
 822              		.cfi_def_cfa_offset 8
 823 0028 BD46     		mov	sp, r7
 824              		.cfi_def_cfa_register 13
 825              		@ sp needed
 826 002a 80BD     		pop	{r7, pc}
 827              	.L51:
 828              		.align	2
 829              	.L50:
 830 002c 00000000 		.word	.LC0
ARM GAS  C:\Users\Greg\AppData\Local\Temp\ccDYSYHP.s 			page 25


 831 0030 00000000 		.word	USBUART_activeCom
 832 0034 00000000 		.word	USBUART_cdcDataInEp
 833              		.cfi_endproc
 834              	.LFE7:
 835              		.size	USBUART_PutCRLF, .-USBUART_PutCRLF
 836              		.section	.text.USBUART_GetCount,"ax",%progbits
 837              		.align	2
 838              		.global	USBUART_GetCount
 839              		.thumb
 840              		.thumb_func
 841              		.type	USBUART_GetCount, %function
 842              	USBUART_GetCount:
 843              	.LFB8:
 519:Generated_Source\PSoC5/USBUART_cdc.c **** 
 520:Generated_Source\PSoC5/USBUART_cdc.c **** 
 521:Generated_Source\PSoC5/USBUART_cdc.c **** /*******************************************************************************
 522:Generated_Source\PSoC5/USBUART_cdc.c **** * Function Name: USBUART_GetCount
 523:Generated_Source\PSoC5/USBUART_cdc.c **** ****************************************************************************//**
 524:Generated_Source\PSoC5/USBUART_cdc.c **** *
 525:Generated_Source\PSoC5/USBUART_cdc.c **** *  This function returns the number of bytes that were received from the PC.
 526:Generated_Source\PSoC5/USBUART_cdc.c **** *  The returned length value should be passed to USBUART_GetData() as
 527:Generated_Source\PSoC5/USBUART_cdc.c **** *  a parameter to read all received data. If all of the received data is not
 528:Generated_Source\PSoC5/USBUART_cdc.c **** *  read at one time by the USBUART_GetData() API, the unread data will
 529:Generated_Source\PSoC5/USBUART_cdc.c **** *  be lost.
 530:Generated_Source\PSoC5/USBUART_cdc.c **** *
 531:Generated_Source\PSoC5/USBUART_cdc.c **** * \return
 532:Generated_Source\PSoC5/USBUART_cdc.c **** *  Returns the number of received bytes. The maximum amount of received data at
 533:Generated_Source\PSoC5/USBUART_cdc.c **** *  a time is limited by the maximum packet size for the endpoint.
 534:Generated_Source\PSoC5/USBUART_cdc.c **** *
 535:Generated_Source\PSoC5/USBUART_cdc.c **** * \globalvars
 536:Generated_Source\PSoC5/USBUART_cdc.c **** *   USBUART_cdcDataOutEp: CDC OUT endpoint number used.
 537:Generated_Source\PSoC5/USBUART_cdc.c **** *
 538:Generated_Source\PSoC5/USBUART_cdc.c **** *******************************************************************************/
 539:Generated_Source\PSoC5/USBUART_cdc.c **** uint16 USBUART_GetCount(void) 
 540:Generated_Source\PSoC5/USBUART_cdc.c **** {
 844              		.loc 1 540 0
 845              		.cfi_startproc
 846              		@ args = 0, pretend = 0, frame = 8
 847              		@ frame_needed = 1, uses_anonymous_args = 0
 848 0000 80B5     		push	{r7, lr}
 849              		.cfi_def_cfa_offset 8
 850              		.cfi_offset 7, -8
 851              		.cfi_offset 14, -4
 852 0002 82B0     		sub	sp, sp, #8
 853              		.cfi_def_cfa_offset 16
 854 0004 00AF     		add	r7, sp, #0
 855              		.cfi_def_cfa_register 7
 541:Generated_Source\PSoC5/USBUART_cdc.c ****     uint16 bytesCount;
 542:Generated_Source\PSoC5/USBUART_cdc.c **** 
 543:Generated_Source\PSoC5/USBUART_cdc.c ****     uint8  epNumber = USBUART_cdcDataOutEp[USBUART_activeCom];
 856              		.loc 1 543 0
 857 0006 0F4B     		ldr	r3, .L56
 858 0008 1B78     		ldrb	r3, [r3]	@ zero_extendqisi2
 859 000a 1A46     		mov	r2, r3
 860 000c 0E4B     		ldr	r3, .L56+4
 861 000e 9B5C     		ldrb	r3, [r3, r2]
 862 0010 7B71     		strb	r3, [r7, #5]
ARM GAS  C:\Users\Greg\AppData\Local\Temp\ccDYSYHP.s 			page 26


 544:Generated_Source\PSoC5/USBUART_cdc.c **** 
 545:Generated_Source\PSoC5/USBUART_cdc.c ****     if (USBUART_OUT_BUFFER_FULL == USBUART_EP[epNumber].apiEpState)
 863              		.loc 1 545 0
 864 0012 7A79     		ldrb	r2, [r7, #5]	@ zero_extendqisi2
 865 0014 0D49     		ldr	r1, .L56+8
 866 0016 1346     		mov	r3, r2
 867 0018 5B00     		lsls	r3, r3, #1
 868 001a 1344     		add	r3, r3, r2
 869 001c 9B00     		lsls	r3, r3, #2
 870 001e 0B44     		add	r3, r3, r1
 871 0020 5B78     		ldrb	r3, [r3, #1]
 872 0022 DBB2     		uxtb	r3, r3
 873 0024 012B     		cmp	r3, #1
 874 0026 06D1     		bne	.L53
 546:Generated_Source\PSoC5/USBUART_cdc.c ****     {
 547:Generated_Source\PSoC5/USBUART_cdc.c ****         bytesCount = USBUART_GetEPCount(epNumber);
 875              		.loc 1 547 0
 876 0028 7B79     		ldrb	r3, [r7, #5]	@ zero_extendqisi2
 877 002a 1846     		mov	r0, r3
 878 002c FFF7FEFF 		bl	USBUART_GetEPCount
 879 0030 0346     		mov	r3, r0
 880 0032 FB80     		strh	r3, [r7, #6]	@ movhi
 881 0034 01E0     		b	.L54
 882              	.L53:
 548:Generated_Source\PSoC5/USBUART_cdc.c ****     }
 549:Generated_Source\PSoC5/USBUART_cdc.c ****     else
 550:Generated_Source\PSoC5/USBUART_cdc.c ****     {
 551:Generated_Source\PSoC5/USBUART_cdc.c ****         bytesCount = 0u;
 883              		.loc 1 551 0
 884 0036 0023     		movs	r3, #0
 885 0038 FB80     		strh	r3, [r7, #6]	@ movhi
 886              	.L54:
 552:Generated_Source\PSoC5/USBUART_cdc.c ****     }
 553:Generated_Source\PSoC5/USBUART_cdc.c **** 
 554:Generated_Source\PSoC5/USBUART_cdc.c ****     return (bytesCount);
 887              		.loc 1 554 0
 888 003a FB88     		ldrh	r3, [r7, #6]
 555:Generated_Source\PSoC5/USBUART_cdc.c **** }
 889              		.loc 1 555 0
 890 003c 1846     		mov	r0, r3
 891 003e 0837     		adds	r7, r7, #8
 892              		.cfi_def_cfa_offset 8
 893 0040 BD46     		mov	sp, r7
 894              		.cfi_def_cfa_register 13
 895              		@ sp needed
 896 0042 80BD     		pop	{r7, pc}
 897              	.L57:
 898              		.align	2
 899              	.L56:
 900 0044 00000000 		.word	USBUART_activeCom
 901 0048 00000000 		.word	USBUART_cdcDataOutEp
 902 004c 00000000 		.word	USBUART_EP
 903              		.cfi_endproc
 904              	.LFE8:
 905              		.size	USBUART_GetCount, .-USBUART_GetCount
 906              		.section	.text.USBUART_DataIsReady,"ax",%progbits
 907              		.align	2
ARM GAS  C:\Users\Greg\AppData\Local\Temp\ccDYSYHP.s 			page 27


 908              		.global	USBUART_DataIsReady
 909              		.thumb
 910              		.thumb_func
 911              		.type	USBUART_DataIsReady, %function
 912              	USBUART_DataIsReady:
 913              	.LFB9:
 556:Generated_Source\PSoC5/USBUART_cdc.c **** 
 557:Generated_Source\PSoC5/USBUART_cdc.c **** 
 558:Generated_Source\PSoC5/USBUART_cdc.c **** /*******************************************************************************
 559:Generated_Source\PSoC5/USBUART_cdc.c **** * Function Name: USBUART_DataIsReady
 560:Generated_Source\PSoC5/USBUART_cdc.c **** ****************************************************************************//**
 561:Generated_Source\PSoC5/USBUART_cdc.c **** *
 562:Generated_Source\PSoC5/USBUART_cdc.c **** *  This function returns a non-zero value if the component received data or
 563:Generated_Source\PSoC5/USBUART_cdc.c **** *  received zero-length packet. The USBUART_GetAll() or
 564:Generated_Source\PSoC5/USBUART_cdc.c **** *  USBUART_GetData() API should be called to read data from the buffer
 565:Generated_Source\PSoC5/USBUART_cdc.c **** *  and reinitialize the OUT endpoint even when a zero-length packet is
 566:Generated_Source\PSoC5/USBUART_cdc.c **** *  received. These APIs will return zero value when zero-length packet is
 567:Generated_Source\PSoC5/USBUART_cdc.c **** *  received.
 568:Generated_Source\PSoC5/USBUART_cdc.c **** *
 569:Generated_Source\PSoC5/USBUART_cdc.c **** * \return
 570:Generated_Source\PSoC5/USBUART_cdc.c **** *  If the OUT packet is received, this function returns a non-zero value.
 571:Generated_Source\PSoC5/USBUART_cdc.c **** *  Otherwise, it returns zero.
 572:Generated_Source\PSoC5/USBUART_cdc.c **** *
 573:Generated_Source\PSoC5/USBUART_cdc.c **** * \globalvars
 574:Generated_Source\PSoC5/USBUART_cdc.c **** *   USBUART_cdcDataOutEp: CDC OUT endpoint number used.
 575:Generated_Source\PSoC5/USBUART_cdc.c **** *
 576:Generated_Source\PSoC5/USBUART_cdc.c **** *******************************************************************************/
 577:Generated_Source\PSoC5/USBUART_cdc.c **** uint8 USBUART_DataIsReady(void) 
 578:Generated_Source\PSoC5/USBUART_cdc.c **** {
 914              		.loc 1 578 0
 915              		.cfi_startproc
 916              		@ args = 0, pretend = 0, frame = 0
 917              		@ frame_needed = 1, uses_anonymous_args = 0
 918 0000 80B5     		push	{r7, lr}
 919              		.cfi_def_cfa_offset 8
 920              		.cfi_offset 7, -8
 921              		.cfi_offset 14, -4
 922 0002 00AF     		add	r7, sp, #0
 923              		.cfi_def_cfa_register 7
 579:Generated_Source\PSoC5/USBUART_cdc.c ****     return (USBUART_GetEPState(USBUART_cdcDataOutEp[USBUART_activeCom]));
 924              		.loc 1 579 0
 925 0004 054B     		ldr	r3, .L60
 926 0006 1B78     		ldrb	r3, [r3]	@ zero_extendqisi2
 927 0008 1A46     		mov	r2, r3
 928 000a 054B     		ldr	r3, .L60+4
 929 000c 9B5C     		ldrb	r3, [r3, r2]
 930 000e DBB2     		uxtb	r3, r3
 931 0010 1846     		mov	r0, r3
 932 0012 FFF7FEFF 		bl	USBUART_GetEPState
 933 0016 0346     		mov	r3, r0
 580:Generated_Source\PSoC5/USBUART_cdc.c **** }
 934              		.loc 1 580 0
 935 0018 1846     		mov	r0, r3
 936 001a 80BD     		pop	{r7, pc}
 937              	.L61:
 938              		.align	2
 939              	.L60:
ARM GAS  C:\Users\Greg\AppData\Local\Temp\ccDYSYHP.s 			page 28


 940 001c 00000000 		.word	USBUART_activeCom
 941 0020 00000000 		.word	USBUART_cdcDataOutEp
 942              		.cfi_endproc
 943              	.LFE9:
 944              		.size	USBUART_DataIsReady, .-USBUART_DataIsReady
 945              		.section	.text.USBUART_CDCIsReady,"ax",%progbits
 946              		.align	2
 947              		.global	USBUART_CDCIsReady
 948              		.thumb
 949              		.thumb_func
 950              		.type	USBUART_CDCIsReady, %function
 951              	USBUART_CDCIsReady:
 952              	.LFB10:
 581:Generated_Source\PSoC5/USBUART_cdc.c **** 
 582:Generated_Source\PSoC5/USBUART_cdc.c **** 
 583:Generated_Source\PSoC5/USBUART_cdc.c **** /*******************************************************************************
 584:Generated_Source\PSoC5/USBUART_cdc.c **** * Function Name: USBUART_CDCIsReady
 585:Generated_Source\PSoC5/USBUART_cdc.c **** ****************************************************************************//**
 586:Generated_Source\PSoC5/USBUART_cdc.c **** *
 587:Generated_Source\PSoC5/USBUART_cdc.c **** *  This function returns a non-zero value if the component is ready to send more
 588:Generated_Source\PSoC5/USBUART_cdc.c **** *  data to the PC; otherwise, it returns zero. The function should be called
 589:Generated_Source\PSoC5/USBUART_cdc.c **** *  before sending new data when using any of the following APIs:
 590:Generated_Source\PSoC5/USBUART_cdc.c **** *  USBUART_PutData(),USBUART_PutString(),
 591:Generated_Source\PSoC5/USBUART_cdc.c **** *  USBUART_PutChar or USBUART_PutCRLF(),
 592:Generated_Source\PSoC5/USBUART_cdc.c **** *  to be sure that the previous data has finished sending.
 593:Generated_Source\PSoC5/USBUART_cdc.c **** *
 594:Generated_Source\PSoC5/USBUART_cdc.c **** * \return
 595:Generated_Source\PSoC5/USBUART_cdc.c **** *  If the buffer can accept new data, this function returns a non-zero value.
 596:Generated_Source\PSoC5/USBUART_cdc.c **** *  Otherwise, it returns zero.
 597:Generated_Source\PSoC5/USBUART_cdc.c **** *
 598:Generated_Source\PSoC5/USBUART_cdc.c **** * \globalvars
 599:Generated_Source\PSoC5/USBUART_cdc.c **** *   USBUART_cdcDataInEp: CDC IN endpoint number used.
 600:Generated_Source\PSoC5/USBUART_cdc.c **** *
 601:Generated_Source\PSoC5/USBUART_cdc.c **** *******************************************************************************/
 602:Generated_Source\PSoC5/USBUART_cdc.c **** uint8 USBUART_CDCIsReady(void) 
 603:Generated_Source\PSoC5/USBUART_cdc.c **** {
 953              		.loc 1 603 0
 954              		.cfi_startproc
 955              		@ args = 0, pretend = 0, frame = 0
 956              		@ frame_needed = 1, uses_anonymous_args = 0
 957 0000 80B5     		push	{r7, lr}
 958              		.cfi_def_cfa_offset 8
 959              		.cfi_offset 7, -8
 960              		.cfi_offset 14, -4
 961 0002 00AF     		add	r7, sp, #0
 962              		.cfi_def_cfa_register 7
 604:Generated_Source\PSoC5/USBUART_cdc.c ****     return (USBUART_GetEPState(USBUART_cdcDataInEp[USBUART_activeCom]));
 963              		.loc 1 604 0
 964 0004 054B     		ldr	r3, .L64
 965 0006 1B78     		ldrb	r3, [r3]	@ zero_extendqisi2
 966 0008 1A46     		mov	r2, r3
 967 000a 054B     		ldr	r3, .L64+4
 968 000c 9B5C     		ldrb	r3, [r3, r2]
 969 000e DBB2     		uxtb	r3, r3
 970 0010 1846     		mov	r0, r3
 971 0012 FFF7FEFF 		bl	USBUART_GetEPState
 972 0016 0346     		mov	r3, r0
ARM GAS  C:\Users\Greg\AppData\Local\Temp\ccDYSYHP.s 			page 29


 605:Generated_Source\PSoC5/USBUART_cdc.c **** }
 973              		.loc 1 605 0
 974 0018 1846     		mov	r0, r3
 975 001a 80BD     		pop	{r7, pc}
 976              	.L65:
 977              		.align	2
 978              	.L64:
 979 001c 00000000 		.word	USBUART_activeCom
 980 0020 00000000 		.word	USBUART_cdcDataInEp
 981              		.cfi_endproc
 982              	.LFE10:
 983              		.size	USBUART_CDCIsReady, .-USBUART_CDCIsReady
 984              		.section	.text.USBUART_GetData,"ax",%progbits
 985              		.align	2
 986              		.global	USBUART_GetData
 987              		.thumb
 988              		.thumb_func
 989              		.type	USBUART_GetData, %function
 990              	USBUART_GetData:
 991              	.LFB11:
 606:Generated_Source\PSoC5/USBUART_cdc.c **** 
 607:Generated_Source\PSoC5/USBUART_cdc.c **** 
 608:Generated_Source\PSoC5/USBUART_cdc.c **** /***************************************************************************
 609:Generated_Source\PSoC5/USBUART_cdc.c **** * Function Name: USBUART_GetData
 610:Generated_Source\PSoC5/USBUART_cdc.c **** ************************************************************************//**
 611:Generated_Source\PSoC5/USBUART_cdc.c **** *
 612:Generated_Source\PSoC5/USBUART_cdc.c **** *  This function gets a specified number of bytes from the input buffer and
 613:Generated_Source\PSoC5/USBUART_cdc.c **** *  places them in a data array specified by the passed pointer.
 614:Generated_Source\PSoC5/USBUART_cdc.c **** *  The USBUART_DataIsReady() API should be called first, to be sure
 615:Generated_Source\PSoC5/USBUART_cdc.c **** *  that data is received from the host. If all received data will not be read at
 616:Generated_Source\PSoC5/USBUART_cdc.c **** *  once, the unread data will be lost. The USBUART_GetData() API should
 617:Generated_Source\PSoC5/USBUART_cdc.c **** *  be called to get the number of bytes that were received.
 618:Generated_Source\PSoC5/USBUART_cdc.c **** *
 619:Generated_Source\PSoC5/USBUART_cdc.c **** *  \param pData: Pointer to the data array where data will be placed.
 620:Generated_Source\PSoC5/USBUART_cdc.c **** *  \param Length: Number of bytes to read into the data array from the RX buffer.
 621:Generated_Source\PSoC5/USBUART_cdc.c **** *          Maximum length is limited by the the number of received bytes
 622:Generated_Source\PSoC5/USBUART_cdc.c **** *          or 64 bytes.
 623:Generated_Source\PSoC5/USBUART_cdc.c **** *
 624:Generated_Source\PSoC5/USBUART_cdc.c **** * \return
 625:Generated_Source\PSoC5/USBUART_cdc.c **** *         Number of bytes which function moves from endpoint RAM into the
 626:Generated_Source\PSoC5/USBUART_cdc.c **** *         data array. The function moves fewer than the requested number
 627:Generated_Source\PSoC5/USBUART_cdc.c **** *         of bytes if the host sends fewer bytes than requested or sends
 628:Generated_Source\PSoC5/USBUART_cdc.c **** *         zero-length packet.
 629:Generated_Source\PSoC5/USBUART_cdc.c **** *
 630:Generated_Source\PSoC5/USBUART_cdc.c **** * \globalvars
 631:Generated_Source\PSoC5/USBUART_cdc.c **** *   USBUART_cdcDataOutEp: CDC OUT endpoint number used.
 632:Generated_Source\PSoC5/USBUART_cdc.c **** *
 633:Generated_Source\PSoC5/USBUART_cdc.c **** * \reentrant
 634:Generated_Source\PSoC5/USBUART_cdc.c **** *  No.
 635:Generated_Source\PSoC5/USBUART_cdc.c **** *
 636:Generated_Source\PSoC5/USBUART_cdc.c **** ***************************************************************************/
 637:Generated_Source\PSoC5/USBUART_cdc.c **** uint16 USBUART_GetData(uint8* pData, uint16 length) 
 638:Generated_Source\PSoC5/USBUART_cdc.c **** {
 992              		.loc 1 638 0
 993              		.cfi_startproc
 994              		@ args = 0, pretend = 0, frame = 16
 995              		@ frame_needed = 1, uses_anonymous_args = 0
ARM GAS  C:\Users\Greg\AppData\Local\Temp\ccDYSYHP.s 			page 30


 996 0000 80B5     		push	{r7, lr}
 997              		.cfi_def_cfa_offset 8
 998              		.cfi_offset 7, -8
 999              		.cfi_offset 14, -4
 1000 0002 84B0     		sub	sp, sp, #16
 1001              		.cfi_def_cfa_offset 24
 1002 0004 00AF     		add	r7, sp, #0
 1003              		.cfi_def_cfa_register 7
 1004 0006 7860     		str	r0, [r7, #4]
 1005 0008 0B46     		mov	r3, r1
 1006 000a 7B80     		strh	r3, [r7, #2]	@ movhi
 639:Generated_Source\PSoC5/USBUART_cdc.c ****     uint8 epNumber = USBUART_cdcDataOutEp[USBUART_activeCom];
 1007              		.loc 1 639 0
 1008 000c 094B     		ldr	r3, .L68
 1009 000e 1B78     		ldrb	r3, [r3]	@ zero_extendqisi2
 1010 0010 1A46     		mov	r2, r3
 1011 0012 094B     		ldr	r3, .L68+4
 1012 0014 9B5C     		ldrb	r3, [r3, r2]
 1013 0016 FB73     		strb	r3, [r7, #15]
 640:Generated_Source\PSoC5/USBUART_cdc.c **** 
 641:Generated_Source\PSoC5/USBUART_cdc.c ****     /* Read data from OUT endpoint buffer. */
 642:Generated_Source\PSoC5/USBUART_cdc.c ****     length = USBUART_ReadOutEP(epNumber, pData, length);
 1014              		.loc 1 642 0
 1015 0018 FA7B     		ldrb	r2, [r7, #15]	@ zero_extendqisi2
 1016 001a 7B88     		ldrh	r3, [r7, #2]
 1017 001c 1046     		mov	r0, r2
 1018 001e 7968     		ldr	r1, [r7, #4]
 1019 0020 1A46     		mov	r2, r3
 1020 0022 FFF7FEFF 		bl	USBUART_ReadOutEP
 1021 0026 0346     		mov	r3, r0
 1022 0028 7B80     		strh	r3, [r7, #2]	@ movhi
 643:Generated_Source\PSoC5/USBUART_cdc.c **** 
 644:Generated_Source\PSoC5/USBUART_cdc.c **** #if (USBUART_EP_MANAGEMENT_DMA_MANUAL)
 645:Generated_Source\PSoC5/USBUART_cdc.c ****     /* Wait until DMA complete transferring data from OUT endpoint buffer. */
 646:Generated_Source\PSoC5/USBUART_cdc.c ****     while (USBUART_OUT_BUFFER_FULL == USBUART_GetEPState(epNumber))
 647:Generated_Source\PSoC5/USBUART_cdc.c ****     {
 648:Generated_Source\PSoC5/USBUART_cdc.c ****     }
 649:Generated_Source\PSoC5/USBUART_cdc.c **** 
 650:Generated_Source\PSoC5/USBUART_cdc.c ****     /* Enable OUT endpoint to communicate with host. */
 651:Generated_Source\PSoC5/USBUART_cdc.c ****     USBUART_EnableOutEP(epNumber);
 652:Generated_Source\PSoC5/USBUART_cdc.c **** #endif /* (USBUART_EP_MANAGEMENT_DMA_MANUAL) */
 653:Generated_Source\PSoC5/USBUART_cdc.c **** 
 654:Generated_Source\PSoC5/USBUART_cdc.c ****     return (length);
 1023              		.loc 1 654 0
 1024 002a 7B88     		ldrh	r3, [r7, #2]
 655:Generated_Source\PSoC5/USBUART_cdc.c **** }
 1025              		.loc 1 655 0
 1026 002c 1846     		mov	r0, r3
 1027 002e 1037     		adds	r7, r7, #16
 1028              		.cfi_def_cfa_offset 8
 1029 0030 BD46     		mov	sp, r7
 1030              		.cfi_def_cfa_register 13
 1031              		@ sp needed
 1032 0032 80BD     		pop	{r7, pc}
 1033              	.L69:
 1034              		.align	2
 1035              	.L68:
ARM GAS  C:\Users\Greg\AppData\Local\Temp\ccDYSYHP.s 			page 31


 1036 0034 00000000 		.word	USBUART_activeCom
 1037 0038 00000000 		.word	USBUART_cdcDataOutEp
 1038              		.cfi_endproc
 1039              	.LFE11:
 1040              		.size	USBUART_GetData, .-USBUART_GetData
 1041              		.section	.text.USBUART_GetAll,"ax",%progbits
 1042              		.align	2
 1043              		.global	USBUART_GetAll
 1044              		.thumb
 1045              		.thumb_func
 1046              		.type	USBUART_GetAll, %function
 1047              	USBUART_GetAll:
 1048              	.LFB12:
 656:Generated_Source\PSoC5/USBUART_cdc.c **** 
 657:Generated_Source\PSoC5/USBUART_cdc.c **** 
 658:Generated_Source\PSoC5/USBUART_cdc.c **** /*******************************************************************************
 659:Generated_Source\PSoC5/USBUART_cdc.c **** * Function Name: USBUART_GetAll
 660:Generated_Source\PSoC5/USBUART_cdc.c **** ****************************************************************************//**
 661:Generated_Source\PSoC5/USBUART_cdc.c **** *
 662:Generated_Source\PSoC5/USBUART_cdc.c **** *  This function gets all bytes of received data from the input buffer and
 663:Generated_Source\PSoC5/USBUART_cdc.c **** *  places them into a specified data array. The
 664:Generated_Source\PSoC5/USBUART_cdc.c **** *  USBUART_DataIsReady() API should be called first, to be sure
 665:Generated_Source\PSoC5/USBUART_cdc.c **** *  that data is received from the host.
 666:Generated_Source\PSoC5/USBUART_cdc.c **** *
 667:Generated_Source\PSoC5/USBUART_cdc.c **** *  \param pData: Pointer to the data array where data will be placed.
 668:Generated_Source\PSoC5/USBUART_cdc.c **** *
 669:Generated_Source\PSoC5/USBUART_cdc.c **** * \return
 670:Generated_Source\PSoC5/USBUART_cdc.c **** *  Number of bytes received. The maximum amount of the received at a time
 671:Generated_Source\PSoC5/USBUART_cdc.c **** *  data is 64 bytes.
 672:Generated_Source\PSoC5/USBUART_cdc.c **** *
 673:Generated_Source\PSoC5/USBUART_cdc.c **** * \globalvars
 674:Generated_Source\PSoC5/USBUART_cdc.c **** *   - \ref USBUART_cdcDataOutEp: CDC OUT endpoint number used.
 675:Generated_Source\PSoC5/USBUART_cdc.c **** *   - \ref USBUART_EP[].bufferSize: EP max packet size is used as a
 676:Generated_Source\PSoC5/USBUART_cdc.c **** *     length to read all data from the EP buffer.
 677:Generated_Source\PSoC5/USBUART_cdc.c **** *
 678:Generated_Source\PSoC5/USBUART_cdc.c **** * \reentrant
 679:Generated_Source\PSoC5/USBUART_cdc.c **** *  No.
 680:Generated_Source\PSoC5/USBUART_cdc.c **** *
 681:Generated_Source\PSoC5/USBUART_cdc.c **** *******************************************************************************/
 682:Generated_Source\PSoC5/USBUART_cdc.c **** uint16 USBUART_GetAll(uint8* pData) 
 683:Generated_Source\PSoC5/USBUART_cdc.c **** {
 1049              		.loc 1 683 0
 1050              		.cfi_startproc
 1051              		@ args = 0, pretend = 0, frame = 16
 1052              		@ frame_needed = 1, uses_anonymous_args = 0
 1053 0000 80B5     		push	{r7, lr}
 1054              		.cfi_def_cfa_offset 8
 1055              		.cfi_offset 7, -8
 1056              		.cfi_offset 14, -4
 1057 0002 84B0     		sub	sp, sp, #16
 1058              		.cfi_def_cfa_offset 24
 1059 0004 00AF     		add	r7, sp, #0
 1060              		.cfi_def_cfa_register 7
 1061 0006 7860     		str	r0, [r7, #4]
 684:Generated_Source\PSoC5/USBUART_cdc.c ****     uint8 epNumber = USBUART_cdcDataOutEp[USBUART_activeCom];
 1062              		.loc 1 684 0
 1063 0008 0E4B     		ldr	r3, .L72
ARM GAS  C:\Users\Greg\AppData\Local\Temp\ccDYSYHP.s 			page 32


 1064 000a 1B78     		ldrb	r3, [r3]	@ zero_extendqisi2
 1065 000c 1A46     		mov	r2, r3
 1066 000e 0E4B     		ldr	r3, .L72+4
 1067 0010 9B5C     		ldrb	r3, [r3, r2]
 1068 0012 FB73     		strb	r3, [r7, #15]
 685:Generated_Source\PSoC5/USBUART_cdc.c ****     uint16 dataLength;
 686:Generated_Source\PSoC5/USBUART_cdc.c **** 
 687:Generated_Source\PSoC5/USBUART_cdc.c ****     /* Read data from OUT endpoint buffer. */
 688:Generated_Source\PSoC5/USBUART_cdc.c ****     dataLength = USBUART_ReadOutEP(epNumber, pData, USBUART_EP[epNumber].bufferSize);
 1069              		.loc 1 688 0
 1070 0014 FA7B     		ldrb	r2, [r7, #15]	@ zero_extendqisi2
 1071 0016 0D49     		ldr	r1, .L72+8
 1072 0018 1346     		mov	r3, r2
 1073 001a 5B00     		lsls	r3, r3, #1
 1074 001c 1344     		add	r3, r3, r2
 1075 001e 9B00     		lsls	r3, r3, #2
 1076 0020 0B44     		add	r3, r3, r1
 1077 0022 0833     		adds	r3, r3, #8
 1078 0024 1B88     		ldrh	r3, [r3]	@ movhi
 1079 0026 9BB2     		uxth	r3, r3
 1080 0028 FA7B     		ldrb	r2, [r7, #15]	@ zero_extendqisi2
 1081 002a 1046     		mov	r0, r2
 1082 002c 7968     		ldr	r1, [r7, #4]
 1083 002e 1A46     		mov	r2, r3
 1084 0030 FFF7FEFF 		bl	USBUART_ReadOutEP
 1085 0034 0346     		mov	r3, r0
 1086 0036 BB81     		strh	r3, [r7, #12]	@ movhi
 689:Generated_Source\PSoC5/USBUART_cdc.c **** 
 690:Generated_Source\PSoC5/USBUART_cdc.c **** #if (USBUART_EP_MANAGEMENT_DMA_MANUAL)
 691:Generated_Source\PSoC5/USBUART_cdc.c ****     /* Wait until DMA complete transferring data from OUT endpoint buffer. */
 692:Generated_Source\PSoC5/USBUART_cdc.c ****     while (USBUART_OUT_BUFFER_FULL == USBUART_GetEPState(epNumber))
 693:Generated_Source\PSoC5/USBUART_cdc.c ****     {
 694:Generated_Source\PSoC5/USBUART_cdc.c ****     }
 695:Generated_Source\PSoC5/USBUART_cdc.c **** 
 696:Generated_Source\PSoC5/USBUART_cdc.c ****     /* Enable OUT endpoint to communicate with host. */
 697:Generated_Source\PSoC5/USBUART_cdc.c ****     USBUART_EnableOutEP(epNumber);
 698:Generated_Source\PSoC5/USBUART_cdc.c **** #endif /* (USBUART_EP_MANAGEMENT_DMA_MANUAL) */
 699:Generated_Source\PSoC5/USBUART_cdc.c **** 
 700:Generated_Source\PSoC5/USBUART_cdc.c ****     return (dataLength);
 1087              		.loc 1 700 0
 1088 0038 BB89     		ldrh	r3, [r7, #12]
 701:Generated_Source\PSoC5/USBUART_cdc.c **** }
 1089              		.loc 1 701 0
 1090 003a 1846     		mov	r0, r3
 1091 003c 1037     		adds	r7, r7, #16
 1092              		.cfi_def_cfa_offset 8
 1093 003e BD46     		mov	sp, r7
 1094              		.cfi_def_cfa_register 13
 1095              		@ sp needed
 1096 0040 80BD     		pop	{r7, pc}
 1097              	.L73:
 1098 0042 00BF     		.align	2
 1099              	.L72:
 1100 0044 00000000 		.word	USBUART_activeCom
 1101 0048 00000000 		.word	USBUART_cdcDataOutEp
 1102 004c 00000000 		.word	USBUART_EP
 1103              		.cfi_endproc
ARM GAS  C:\Users\Greg\AppData\Local\Temp\ccDYSYHP.s 			page 33


 1104              	.LFE12:
 1105              		.size	USBUART_GetAll, .-USBUART_GetAll
 1106              		.section	.text.USBUART_GetChar,"ax",%progbits
 1107              		.align	2
 1108              		.global	USBUART_GetChar
 1109              		.thumb
 1110              		.thumb_func
 1111              		.type	USBUART_GetChar, %function
 1112              	USBUART_GetChar:
 1113              	.LFB13:
 702:Generated_Source\PSoC5/USBUART_cdc.c **** 
 703:Generated_Source\PSoC5/USBUART_cdc.c **** 
 704:Generated_Source\PSoC5/USBUART_cdc.c **** /***************************************************************************
 705:Generated_Source\PSoC5/USBUART_cdc.c **** * Function Name: USBUART_GetChar
 706:Generated_Source\PSoC5/USBUART_cdc.c **** ************************************************************************//**
 707:Generated_Source\PSoC5/USBUART_cdc.c **** *
 708:Generated_Source\PSoC5/USBUART_cdc.c **** *  This function reads one byte of received data from the buffer. If more than
 709:Generated_Source\PSoC5/USBUART_cdc.c **** *  one byte has been received from the host, the rest of the data will be lost.
 710:Generated_Source\PSoC5/USBUART_cdc.c **** *
 711:Generated_Source\PSoC5/USBUART_cdc.c **** * \return
 712:Generated_Source\PSoC5/USBUART_cdc.c **** *  Received one character.
 713:Generated_Source\PSoC5/USBUART_cdc.c **** *
 714:Generated_Source\PSoC5/USBUART_cdc.c **** * \globalvars
 715:Generated_Source\PSoC5/USBUART_cdc.c **** *   USBUART_cdcDataOutEp: CDC OUT endpoint number used.
 716:Generated_Source\PSoC5/USBUART_cdc.c **** *
 717:Generated_Source\PSoC5/USBUART_cdc.c **** * \reentrant
 718:Generated_Source\PSoC5/USBUART_cdc.c **** *  No.
 719:Generated_Source\PSoC5/USBUART_cdc.c **** *
 720:Generated_Source\PSoC5/USBUART_cdc.c **** ***************************************************************************/
 721:Generated_Source\PSoC5/USBUART_cdc.c **** uint8 USBUART_GetChar(void) 
 722:Generated_Source\PSoC5/USBUART_cdc.c **** {
 1114              		.loc 1 722 0
 1115              		.cfi_startproc
 1116              		@ args = 0, pretend = 0, frame = 8
 1117              		@ frame_needed = 1, uses_anonymous_args = 0
 1118 0000 80B5     		push	{r7, lr}
 1119              		.cfi_def_cfa_offset 8
 1120              		.cfi_offset 7, -8
 1121              		.cfi_offset 14, -4
 1122 0002 82B0     		sub	sp, sp, #8
 1123              		.cfi_def_cfa_offset 16
 1124 0004 00AF     		add	r7, sp, #0
 1125              		.cfi_def_cfa_register 7
 723:Generated_Source\PSoC5/USBUART_cdc.c ****      uint8 rxData;
 724:Generated_Source\PSoC5/USBUART_cdc.c ****      uint8 epNumber = USBUART_cdcDataOutEp[USBUART_activeCom];
 1126              		.loc 1 724 0
 1127 0006 094B     		ldr	r3, .L76
 1128 0008 1B78     		ldrb	r3, [r3]	@ zero_extendqisi2
 1129 000a 1A46     		mov	r2, r3
 1130 000c 084B     		ldr	r3, .L76+4
 1131 000e 9B5C     		ldrb	r3, [r3, r2]
 1132 0010 FB71     		strb	r3, [r7, #7]
 725:Generated_Source\PSoC5/USBUART_cdc.c **** 
 726:Generated_Source\PSoC5/USBUART_cdc.c ****     (void) USBUART_ReadOutEP(epNumber, &rxData, 1u);
 1133              		.loc 1 726 0
 1134 0012 FA79     		ldrb	r2, [r7, #7]	@ zero_extendqisi2
 1135 0014 BB1D     		adds	r3, r7, #6
ARM GAS  C:\Users\Greg\AppData\Local\Temp\ccDYSYHP.s 			page 34


 1136 0016 1046     		mov	r0, r2
 1137 0018 1946     		mov	r1, r3
 1138 001a 0122     		movs	r2, #1
 1139 001c FFF7FEFF 		bl	USBUART_ReadOutEP
 727:Generated_Source\PSoC5/USBUART_cdc.c **** 
 728:Generated_Source\PSoC5/USBUART_cdc.c **** #if (USBUART_EP_MANAGEMENT_DMA_MANUAL)
 729:Generated_Source\PSoC5/USBUART_cdc.c ****     /* Wait until DMA complete transferring data from OUT endpoint buffer. */
 730:Generated_Source\PSoC5/USBUART_cdc.c ****     while (USBUART_OUT_BUFFER_FULL == USBUART_GetEPState(epNumber))
 731:Generated_Source\PSoC5/USBUART_cdc.c ****     {
 732:Generated_Source\PSoC5/USBUART_cdc.c ****     }
 733:Generated_Source\PSoC5/USBUART_cdc.c **** 
 734:Generated_Source\PSoC5/USBUART_cdc.c ****     /* Enable OUT endpoint to communicate with host. */
 735:Generated_Source\PSoC5/USBUART_cdc.c ****     USBUART_EnableOutEP(epNumber);
 736:Generated_Source\PSoC5/USBUART_cdc.c **** #endif /* (USBUART_EP_MANAGEMENT_DMA_MANUAL) */
 737:Generated_Source\PSoC5/USBUART_cdc.c **** 
 738:Generated_Source\PSoC5/USBUART_cdc.c ****     return (rxData);
 1140              		.loc 1 738 0
 1141 0020 BB79     		ldrb	r3, [r7, #6]	@ zero_extendqisi2
 739:Generated_Source\PSoC5/USBUART_cdc.c **** }
 1142              		.loc 1 739 0
 1143 0022 1846     		mov	r0, r3
 1144 0024 0837     		adds	r7, r7, #8
 1145              		.cfi_def_cfa_offset 8
 1146 0026 BD46     		mov	sp, r7
 1147              		.cfi_def_cfa_register 13
 1148              		@ sp needed
 1149 0028 80BD     		pop	{r7, pc}
 1150              	.L77:
 1151 002a 00BF     		.align	2
 1152              	.L76:
 1153 002c 00000000 		.word	USBUART_activeCom
 1154 0030 00000000 		.word	USBUART_cdcDataOutEp
 1155              		.cfi_endproc
 1156              	.LFE13:
 1157              		.size	USBUART_GetChar, .-USBUART_GetChar
 1158              		.section	.text.USBUART_IsLineChanged,"ax",%progbits
 1159              		.align	2
 1160              		.global	USBUART_IsLineChanged
 1161              		.thumb
 1162              		.thumb_func
 1163              		.type	USBUART_IsLineChanged, %function
 1164              	USBUART_IsLineChanged:
 1165              	.LFB14:
 740:Generated_Source\PSoC5/USBUART_cdc.c **** 
 741:Generated_Source\PSoC5/USBUART_cdc.c **** 
 742:Generated_Source\PSoC5/USBUART_cdc.c **** /*******************************************************************************
 743:Generated_Source\PSoC5/USBUART_cdc.c **** * Function Name: USBUART_IsLineChanged
 744:Generated_Source\PSoC5/USBUART_cdc.c **** ****************************************************************************//**
 745:Generated_Source\PSoC5/USBUART_cdc.c **** *
 746:Generated_Source\PSoC5/USBUART_cdc.c **** *  This function returns clear on read status of the line. It returns not zero
 747:Generated_Source\PSoC5/USBUART_cdc.c **** *  value when the host sends updated coding or control information to the
 748:Generated_Source\PSoC5/USBUART_cdc.c **** *  device. The USBUART_GetDTERate(), USBUART_GetCharFormat()
 749:Generated_Source\PSoC5/USBUART_cdc.c **** *  or USBUART_GetParityType() or USBUART_GetDataBits() API
 750:Generated_Source\PSoC5/USBUART_cdc.c **** *  should be called to read data coding information.
 751:Generated_Source\PSoC5/USBUART_cdc.c **** *  The USBUART_GetLineControl() API should be called to read line
 752:Generated_Source\PSoC5/USBUART_cdc.c **** *  control information.
 753:Generated_Source\PSoC5/USBUART_cdc.c **** *
ARM GAS  C:\Users\Greg\AppData\Local\Temp\ccDYSYHP.s 			page 35


 754:Generated_Source\PSoC5/USBUART_cdc.c **** * \return
 755:Generated_Source\PSoC5/USBUART_cdc.c **** *  If SET_LINE_CODING or CDC_SET_CONTROL_LINE_STATE requests are received, it
 756:Generated_Source\PSoC5/USBUART_cdc.c **** *  returns a non-zero value. Otherwise, it returns zero.
 757:Generated_Source\PSoC5/USBUART_cdc.c **** *  Return Value                 | Description
 758:Generated_Source\PSoC5/USBUART_cdc.c **** *  -----------------------------|--------------------------
 759:Generated_Source\PSoC5/USBUART_cdc.c **** *  USBUART_LINE_CODING_CHANGED  | Line coding changed
 760:Generated_Source\PSoC5/USBUART_cdc.c **** *  USBUART_LINE_CONTROL_CHANGED |   Line control changed
 761:Generated_Source\PSoC5/USBUART_cdc.c **** *
 762:Generated_Source\PSoC5/USBUART_cdc.c **** * \globalvars
 763:Generated_Source\PSoC5/USBUART_cdc.c **** *  - \ref USBUART_transferState: it is checked to be sure then OUT
 764:Generated_Source\PSoC5/USBUART_cdc.c **** *    data phase has been complete, and data written to the lineCoding or
 765:Generated_Source\PSoC5/USBUART_cdc.c **** *    Control Bitmap buffer.
 766:Generated_Source\PSoC5/USBUART_cdc.c **** *  - \ref USBUART_linesChanged: used as a flag to be aware that
 767:Generated_Source\PSoC5/USBUART_cdc.c **** *    Host has been sent request for changing Line Coding or Control Bitmap.
 768:Generated_Source\PSoC5/USBUART_cdc.c **** *
 769:Generated_Source\PSoC5/USBUART_cdc.c **** *******************************************************************************/
 770:Generated_Source\PSoC5/USBUART_cdc.c **** uint8 USBUART_IsLineChanged(void) 
 771:Generated_Source\PSoC5/USBUART_cdc.c **** {
 1166              		.loc 1 771 0
 1167              		.cfi_startproc
 1168              		@ args = 0, pretend = 0, frame = 8
 1169              		@ frame_needed = 1, uses_anonymous_args = 0
 1170              		@ link register save eliminated.
 1171 0000 80B4     		push	{r7}
 1172              		.cfi_def_cfa_offset 4
 1173              		.cfi_offset 7, -4
 1174 0002 83B0     		sub	sp, sp, #12
 1175              		.cfi_def_cfa_offset 16
 1176 0004 00AF     		add	r7, sp, #0
 1177              		.cfi_def_cfa_register 7
 772:Generated_Source\PSoC5/USBUART_cdc.c ****     uint8 state = 0u;
 1178              		.loc 1 772 0
 1179 0006 0023     		movs	r3, #0
 1180 0008 FB71     		strb	r3, [r7, #7]
 773:Generated_Source\PSoC5/USBUART_cdc.c **** 
 774:Generated_Source\PSoC5/USBUART_cdc.c ****     /* transferState is checked to be sure then OUT data phase has been complete */
 775:Generated_Source\PSoC5/USBUART_cdc.c ****     if (USBUART_transferState == USBUART_TRANS_STATE_IDLE)
 1181              		.loc 1 775 0
 1182 000a 104B     		ldr	r3, .L81
 1183 000c 1B78     		ldrb	r3, [r3]
 1184 000e DBB2     		uxtb	r3, r3
 1185 0010 002B     		cmp	r3, #0
 1186 0012 13D1     		bne	.L79
 776:Generated_Source\PSoC5/USBUART_cdc.c ****     {
 777:Generated_Source\PSoC5/USBUART_cdc.c ****         if (USBUART_linesChanged[USBUART_activeCom] != 0u)
 1187              		.loc 1 777 0
 1188 0014 0E4B     		ldr	r3, .L81+4
 1189 0016 1B78     		ldrb	r3, [r3]	@ zero_extendqisi2
 1190 0018 1A46     		mov	r2, r3
 1191 001a 0E4B     		ldr	r3, .L81+8
 1192 001c 9B5C     		ldrb	r3, [r3, r2]
 1193 001e DBB2     		uxtb	r3, r3
 1194 0020 002B     		cmp	r3, #0
 1195 0022 0BD0     		beq	.L79
 778:Generated_Source\PSoC5/USBUART_cdc.c ****         {
 779:Generated_Source\PSoC5/USBUART_cdc.c ****             state = USBUART_linesChanged[USBUART_activeCom];
 1196              		.loc 1 779 0
ARM GAS  C:\Users\Greg\AppData\Local\Temp\ccDYSYHP.s 			page 36


 1197 0024 0A4B     		ldr	r3, .L81+4
 1198 0026 1B78     		ldrb	r3, [r3]	@ zero_extendqisi2
 1199 0028 1A46     		mov	r2, r3
 1200 002a 0A4B     		ldr	r3, .L81+8
 1201 002c 9B5C     		ldrb	r3, [r3, r2]
 1202 002e FB71     		strb	r3, [r7, #7]
 780:Generated_Source\PSoC5/USBUART_cdc.c ****             USBUART_linesChanged[USBUART_activeCom] = 0u;
 1203              		.loc 1 780 0
 1204 0030 074B     		ldr	r3, .L81+4
 1205 0032 1B78     		ldrb	r3, [r3]	@ zero_extendqisi2
 1206 0034 1A46     		mov	r2, r3
 1207 0036 074B     		ldr	r3, .L81+8
 1208 0038 0021     		movs	r1, #0
 1209 003a 9954     		strb	r1, [r3, r2]
 1210              	.L79:
 781:Generated_Source\PSoC5/USBUART_cdc.c ****         }
 782:Generated_Source\PSoC5/USBUART_cdc.c ****     }
 783:Generated_Source\PSoC5/USBUART_cdc.c **** 
 784:Generated_Source\PSoC5/USBUART_cdc.c ****     return (state);
 1211              		.loc 1 784 0
 1212 003c FB79     		ldrb	r3, [r7, #7]	@ zero_extendqisi2
 785:Generated_Source\PSoC5/USBUART_cdc.c **** }
 1213              		.loc 1 785 0
 1214 003e 1846     		mov	r0, r3
 1215 0040 0C37     		adds	r7, r7, #12
 1216              		.cfi_def_cfa_offset 4
 1217 0042 BD46     		mov	sp, r7
 1218              		.cfi_def_cfa_register 13
 1219              		@ sp needed
 1220 0044 5DF8047B 		ldr	r7, [sp], #4
 1221              		.cfi_restore 7
 1222              		.cfi_def_cfa_offset 0
 1223 0048 7047     		bx	lr
 1224              	.L82:
 1225 004a 00BF     		.align	2
 1226              	.L81:
 1227 004c 00000000 		.word	USBUART_transferState
 1228 0050 00000000 		.word	USBUART_activeCom
 1229 0054 00000000 		.word	USBUART_linesChanged
 1230              		.cfi_endproc
 1231              	.LFE14:
 1232              		.size	USBUART_IsLineChanged, .-USBUART_IsLineChanged
 1233              		.section	.text.USBUART_GetDTERate,"ax",%progbits
 1234              		.align	2
 1235              		.global	USBUART_GetDTERate
 1236              		.thumb
 1237              		.thumb_func
 1238              		.type	USBUART_GetDTERate, %function
 1239              	USBUART_GetDTERate:
 1240              	.LFB15:
 786:Generated_Source\PSoC5/USBUART_cdc.c **** 
 787:Generated_Source\PSoC5/USBUART_cdc.c **** 
 788:Generated_Source\PSoC5/USBUART_cdc.c **** /***************************************************************************
 789:Generated_Source\PSoC5/USBUART_cdc.c **** * Function Name: USBUART_GetDTERate
 790:Generated_Source\PSoC5/USBUART_cdc.c **** ************************************************************************//**
 791:Generated_Source\PSoC5/USBUART_cdc.c **** *
 792:Generated_Source\PSoC5/USBUART_cdc.c **** *  This function returns the data terminal rate set for this port in bits
ARM GAS  C:\Users\Greg\AppData\Local\Temp\ccDYSYHP.s 			page 37


 793:Generated_Source\PSoC5/USBUART_cdc.c **** *  per second.
 794:Generated_Source\PSoC5/USBUART_cdc.c **** *
 795:Generated_Source\PSoC5/USBUART_cdc.c **** * \return
 796:Generated_Source\PSoC5/USBUART_cdc.c **** *  Returns a uint32 value of the data rate in bits per second.
 797:Generated_Source\PSoC5/USBUART_cdc.c **** *
 798:Generated_Source\PSoC5/USBUART_cdc.c **** * \globalvars
 799:Generated_Source\PSoC5/USBUART_cdc.c **** *  USBUART_linesCoding: First four bytes converted to uint32
 800:Generated_Source\PSoC5/USBUART_cdc.c **** *    depend on compiler, and returned as a data rate.
 801:Generated_Source\PSoC5/USBUART_cdc.c **** *
 802:Generated_Source\PSoC5/USBUART_cdc.c **** *******************************************************************************/
 803:Generated_Source\PSoC5/USBUART_cdc.c **** uint32 USBUART_GetDTERate(void) 
 804:Generated_Source\PSoC5/USBUART_cdc.c **** {
 1241              		.loc 1 804 0
 1242              		.cfi_startproc
 1243              		@ args = 0, pretend = 0, frame = 8
 1244              		@ frame_needed = 1, uses_anonymous_args = 0
 1245              		@ link register save eliminated.
 1246 0000 80B4     		push	{r7}
 1247              		.cfi_def_cfa_offset 4
 1248              		.cfi_offset 7, -4
 1249 0002 83B0     		sub	sp, sp, #12
 1250              		.cfi_def_cfa_offset 16
 1251 0004 00AF     		add	r7, sp, #0
 1252              		.cfi_def_cfa_register 7
 805:Generated_Source\PSoC5/USBUART_cdc.c ****     uint32 rate;
 806:Generated_Source\PSoC5/USBUART_cdc.c **** 
 807:Generated_Source\PSoC5/USBUART_cdc.c ****     rate = USBUART_linesCoding[USBUART_activeCom][USBUART_LINE_CODING_RATE + 3u];
 1253              		.loc 1 807 0
 1254 0006 1F4B     		ldr	r3, .L85
 1255 0008 1B78     		ldrb	r3, [r3]	@ zero_extendqisi2
 1256 000a 1946     		mov	r1, r3
 1257 000c 1E4A     		ldr	r2, .L85+4
 1258 000e 0B46     		mov	r3, r1
 1259 0010 DB00     		lsls	r3, r3, #3
 1260 0012 5B1A     		subs	r3, r3, r1
 1261 0014 1344     		add	r3, r3, r2
 1262 0016 0333     		adds	r3, r3, #3
 1263 0018 1B78     		ldrb	r3, [r3]
 1264 001a DBB2     		uxtb	r3, r3
 1265 001c 7B60     		str	r3, [r7, #4]
 808:Generated_Source\PSoC5/USBUART_cdc.c ****     rate = (rate << 8u) | USBUART_linesCoding[USBUART_activeCom][USBUART_LINE_CODING_RATE + 2u];
 1266              		.loc 1 808 0
 1267 001e 7B68     		ldr	r3, [r7, #4]
 1268 0020 1A02     		lsls	r2, r3, #8
 1269 0022 184B     		ldr	r3, .L85
 1270 0024 1B78     		ldrb	r3, [r3]	@ zero_extendqisi2
 1271 0026 1846     		mov	r0, r3
 1272 0028 1749     		ldr	r1, .L85+4
 1273 002a 0346     		mov	r3, r0
 1274 002c DB00     		lsls	r3, r3, #3
 1275 002e 1B1A     		subs	r3, r3, r0
 1276 0030 0B44     		add	r3, r3, r1
 1277 0032 0233     		adds	r3, r3, #2
 1278 0034 1B78     		ldrb	r3, [r3]
 1279 0036 DBB2     		uxtb	r3, r3
 1280 0038 1343     		orrs	r3, r3, r2
 1281 003a 7B60     		str	r3, [r7, #4]
ARM GAS  C:\Users\Greg\AppData\Local\Temp\ccDYSYHP.s 			page 38


 809:Generated_Source\PSoC5/USBUART_cdc.c ****     rate = (rate << 8u) | USBUART_linesCoding[USBUART_activeCom][USBUART_LINE_CODING_RATE + 1u];
 1282              		.loc 1 809 0
 1283 003c 7B68     		ldr	r3, [r7, #4]
 1284 003e 1A02     		lsls	r2, r3, #8
 1285 0040 104B     		ldr	r3, .L85
 1286 0042 1B78     		ldrb	r3, [r3]	@ zero_extendqisi2
 1287 0044 1846     		mov	r0, r3
 1288 0046 1049     		ldr	r1, .L85+4
 1289 0048 0346     		mov	r3, r0
 1290 004a DB00     		lsls	r3, r3, #3
 1291 004c 1B1A     		subs	r3, r3, r0
 1292 004e 0B44     		add	r3, r3, r1
 1293 0050 0133     		adds	r3, r3, #1
 1294 0052 1B78     		ldrb	r3, [r3]
 1295 0054 DBB2     		uxtb	r3, r3
 1296 0056 1343     		orrs	r3, r3, r2
 1297 0058 7B60     		str	r3, [r7, #4]
 810:Generated_Source\PSoC5/USBUART_cdc.c ****     rate = (rate << 8u) | USBUART_linesCoding[USBUART_activeCom][USBUART_LINE_CODING_RATE];
 1298              		.loc 1 810 0
 1299 005a 7B68     		ldr	r3, [r7, #4]
 1300 005c 1A02     		lsls	r2, r3, #8
 1301 005e 094B     		ldr	r3, .L85
 1302 0060 1B78     		ldrb	r3, [r3]	@ zero_extendqisi2
 1303 0062 1846     		mov	r0, r3
 1304 0064 0849     		ldr	r1, .L85+4
 1305 0066 0346     		mov	r3, r0
 1306 0068 DB00     		lsls	r3, r3, #3
 1307 006a 1B1A     		subs	r3, r3, r0
 1308 006c 0B44     		add	r3, r3, r1
 1309 006e 1B78     		ldrb	r3, [r3]
 1310 0070 DBB2     		uxtb	r3, r3
 1311 0072 1343     		orrs	r3, r3, r2
 1312 0074 7B60     		str	r3, [r7, #4]
 811:Generated_Source\PSoC5/USBUART_cdc.c **** 
 812:Generated_Source\PSoC5/USBUART_cdc.c ****     return (rate);
 1313              		.loc 1 812 0
 1314 0076 7B68     		ldr	r3, [r7, #4]
 813:Generated_Source\PSoC5/USBUART_cdc.c **** }
 1315              		.loc 1 813 0
 1316 0078 1846     		mov	r0, r3
 1317 007a 0C37     		adds	r7, r7, #12
 1318              		.cfi_def_cfa_offset 4
 1319 007c BD46     		mov	sp, r7
 1320              		.cfi_def_cfa_register 13
 1321              		@ sp needed
 1322 007e 5DF8047B 		ldr	r7, [sp], #4
 1323              		.cfi_restore 7
 1324              		.cfi_def_cfa_offset 0
 1325 0082 7047     		bx	lr
 1326              	.L86:
 1327              		.align	2
 1328              	.L85:
 1329 0084 00000000 		.word	USBUART_activeCom
 1330 0088 00000000 		.word	USBUART_linesCoding
 1331              		.cfi_endproc
 1332              	.LFE15:
 1333              		.size	USBUART_GetDTERate, .-USBUART_GetDTERate
ARM GAS  C:\Users\Greg\AppData\Local\Temp\ccDYSYHP.s 			page 39


 1334              		.section	.text.USBUART_GetCharFormat,"ax",%progbits
 1335              		.align	2
 1336              		.global	USBUART_GetCharFormat
 1337              		.thumb
 1338              		.thumb_func
 1339              		.type	USBUART_GetCharFormat, %function
 1340              	USBUART_GetCharFormat:
 1341              	.LFB16:
 814:Generated_Source\PSoC5/USBUART_cdc.c **** 
 815:Generated_Source\PSoC5/USBUART_cdc.c **** 
 816:Generated_Source\PSoC5/USBUART_cdc.c **** /*******************************************************************************
 817:Generated_Source\PSoC5/USBUART_cdc.c **** * Function Name: USBUART_GetCharFormat
 818:Generated_Source\PSoC5/USBUART_cdc.c **** ****************************************************************************//**
 819:Generated_Source\PSoC5/USBUART_cdc.c **** *
 820:Generated_Source\PSoC5/USBUART_cdc.c **** *  Returns the number of stop bits.
 821:Generated_Source\PSoC5/USBUART_cdc.c **** *
 822:Generated_Source\PSoC5/USBUART_cdc.c **** * \return
 823:Generated_Source\PSoC5/USBUART_cdc.c **** *  Returns the number of stop bits.
 824:Generated_Source\PSoC5/USBUART_cdc.c **** *  Return               |Value Description
 825:Generated_Source\PSoC5/USBUART_cdc.c **** *  ---------------------|-------------------
 826:Generated_Source\PSoC5/USBUART_cdc.c **** *  USBUART_1_STOPBIT    | 1 stop bit
 827:Generated_Source\PSoC5/USBUART_cdc.c **** *  USBUART_1_5_STOPBITS | 1,5 stop bits
 828:Generated_Source\PSoC5/USBUART_cdc.c **** *  USBUART_2_STOPBITS   | 2 stop bits
 829:Generated_Source\PSoC5/USBUART_cdc.c **** *
 830:Generated_Source\PSoC5/USBUART_cdc.c **** *
 831:Generated_Source\PSoC5/USBUART_cdc.c **** * \globalvars
 832:Generated_Source\PSoC5/USBUART_cdc.c **** *  USBUART_linesCoding: used to get a parameter.
 833:Generated_Source\PSoC5/USBUART_cdc.c **** *
 834:Generated_Source\PSoC5/USBUART_cdc.c **** *******************************************************************************/
 835:Generated_Source\PSoC5/USBUART_cdc.c **** uint8 USBUART_GetCharFormat(void) 
 836:Generated_Source\PSoC5/USBUART_cdc.c **** {
 1342              		.loc 1 836 0
 1343              		.cfi_startproc
 1344              		@ args = 0, pretend = 0, frame = 0
 1345              		@ frame_needed = 1, uses_anonymous_args = 0
 1346              		@ link register save eliminated.
 1347 0000 80B4     		push	{r7}
 1348              		.cfi_def_cfa_offset 4
 1349              		.cfi_offset 7, -4
 1350 0002 00AF     		add	r7, sp, #0
 1351              		.cfi_def_cfa_register 7
 837:Generated_Source\PSoC5/USBUART_cdc.c ****     return (USBUART_linesCoding[USBUART_activeCom][USBUART_LINE_CODING_STOP_BITS]);
 1352              		.loc 1 837 0
 1353 0004 074B     		ldr	r3, .L89
 1354 0006 1B78     		ldrb	r3, [r3]	@ zero_extendqisi2
 1355 0008 1946     		mov	r1, r3
 1356 000a 074A     		ldr	r2, .L89+4
 1357 000c 0B46     		mov	r3, r1
 1358 000e DB00     		lsls	r3, r3, #3
 1359 0010 5B1A     		subs	r3, r3, r1
 1360 0012 1344     		add	r3, r3, r2
 1361 0014 0433     		adds	r3, r3, #4
 1362 0016 1B78     		ldrb	r3, [r3]
 1363 0018 DBB2     		uxtb	r3, r3
 838:Generated_Source\PSoC5/USBUART_cdc.c **** }
 1364              		.loc 1 838 0
 1365 001a 1846     		mov	r0, r3
ARM GAS  C:\Users\Greg\AppData\Local\Temp\ccDYSYHP.s 			page 40


 1366 001c BD46     		mov	sp, r7
 1367              		.cfi_def_cfa_register 13
 1368              		@ sp needed
 1369 001e 5DF8047B 		ldr	r7, [sp], #4
 1370              		.cfi_restore 7
 1371              		.cfi_def_cfa_offset 0
 1372 0022 7047     		bx	lr
 1373              	.L90:
 1374              		.align	2
 1375              	.L89:
 1376 0024 00000000 		.word	USBUART_activeCom
 1377 0028 00000000 		.word	USBUART_linesCoding
 1378              		.cfi_endproc
 1379              	.LFE16:
 1380              		.size	USBUART_GetCharFormat, .-USBUART_GetCharFormat
 1381              		.section	.text.USBUART_GetParityType,"ax",%progbits
 1382              		.align	2
 1383              		.global	USBUART_GetParityType
 1384              		.thumb
 1385              		.thumb_func
 1386              		.type	USBUART_GetParityType, %function
 1387              	USBUART_GetParityType:
 1388              	.LFB17:
 839:Generated_Source\PSoC5/USBUART_cdc.c **** 
 840:Generated_Source\PSoC5/USBUART_cdc.c **** 
 841:Generated_Source\PSoC5/USBUART_cdc.c **** /*******************************************************************************
 842:Generated_Source\PSoC5/USBUART_cdc.c **** * Function Name: USBUART_GetParityType
 843:Generated_Source\PSoC5/USBUART_cdc.c **** ****************************************************************************//**
 844:Generated_Source\PSoC5/USBUART_cdc.c **** *
 845:Generated_Source\PSoC5/USBUART_cdc.c **** *  This function returns the parity type for the CDC port.
 846:Generated_Source\PSoC5/USBUART_cdc.c **** *
 847:Generated_Source\PSoC5/USBUART_cdc.c **** * \return
 848:Generated_Source\PSoC5/USBUART_cdc.c **** *  Returns the parity type.
 849:Generated_Source\PSoC5/USBUART_cdc.c **** *   Return               | Value Description
 850:Generated_Source\PSoC5/USBUART_cdc.c **** *  ----------------------|-------------------
 851:Generated_Source\PSoC5/USBUART_cdc.c **** *  USBUART_PARITY_NONE   | 1 stop bit
 852:Generated_Source\PSoC5/USBUART_cdc.c **** *  USBUART_PARITY_ODD    | 1,5 stop bits
 853:Generated_Source\PSoC5/USBUART_cdc.c **** *  USBUART_PARITY_EVEN   | 2 stop bits
 854:Generated_Source\PSoC5/USBUART_cdc.c **** *  USBUART_PARITY_MARK   | Mark
 855:Generated_Source\PSoC5/USBUART_cdc.c **** *  USBUART_PARITY_SPACE  | Space
 856:Generated_Source\PSoC5/USBUART_cdc.c **** *
 857:Generated_Source\PSoC5/USBUART_cdc.c **** * \globalvars
 858:Generated_Source\PSoC5/USBUART_cdc.c **** *  USBUART_linesCoding: used to get a parameter.
 859:Generated_Source\PSoC5/USBUART_cdc.c **** *
 860:Generated_Source\PSoC5/USBUART_cdc.c **** *******************************************************************************/
 861:Generated_Source\PSoC5/USBUART_cdc.c **** uint8 USBUART_GetParityType(void) 
 862:Generated_Source\PSoC5/USBUART_cdc.c **** {
 1389              		.loc 1 862 0
 1390              		.cfi_startproc
 1391              		@ args = 0, pretend = 0, frame = 0
 1392              		@ frame_needed = 1, uses_anonymous_args = 0
 1393              		@ link register save eliminated.
 1394 0000 80B4     		push	{r7}
 1395              		.cfi_def_cfa_offset 4
 1396              		.cfi_offset 7, -4
 1397 0002 00AF     		add	r7, sp, #0
 1398              		.cfi_def_cfa_register 7
ARM GAS  C:\Users\Greg\AppData\Local\Temp\ccDYSYHP.s 			page 41


 863:Generated_Source\PSoC5/USBUART_cdc.c ****     return (USBUART_linesCoding[USBUART_activeCom][USBUART_LINE_CODING_PARITY]);
 1399              		.loc 1 863 0
 1400 0004 074B     		ldr	r3, .L93
 1401 0006 1B78     		ldrb	r3, [r3]	@ zero_extendqisi2
 1402 0008 1946     		mov	r1, r3
 1403 000a 074A     		ldr	r2, .L93+4
 1404 000c 0B46     		mov	r3, r1
 1405 000e DB00     		lsls	r3, r3, #3
 1406 0010 5B1A     		subs	r3, r3, r1
 1407 0012 1344     		add	r3, r3, r2
 1408 0014 0533     		adds	r3, r3, #5
 1409 0016 1B78     		ldrb	r3, [r3]
 1410 0018 DBB2     		uxtb	r3, r3
 864:Generated_Source\PSoC5/USBUART_cdc.c **** }
 1411              		.loc 1 864 0
 1412 001a 1846     		mov	r0, r3
 1413 001c BD46     		mov	sp, r7
 1414              		.cfi_def_cfa_register 13
 1415              		@ sp needed
 1416 001e 5DF8047B 		ldr	r7, [sp], #4
 1417              		.cfi_restore 7
 1418              		.cfi_def_cfa_offset 0
 1419 0022 7047     		bx	lr
 1420              	.L94:
 1421              		.align	2
 1422              	.L93:
 1423 0024 00000000 		.word	USBUART_activeCom
 1424 0028 00000000 		.word	USBUART_linesCoding
 1425              		.cfi_endproc
 1426              	.LFE17:
 1427              		.size	USBUART_GetParityType, .-USBUART_GetParityType
 1428              		.section	.text.USBUART_GetDataBits,"ax",%progbits
 1429              		.align	2
 1430              		.global	USBUART_GetDataBits
 1431              		.thumb
 1432              		.thumb_func
 1433              		.type	USBUART_GetDataBits, %function
 1434              	USBUART_GetDataBits:
 1435              	.LFB18:
 865:Generated_Source\PSoC5/USBUART_cdc.c **** 
 866:Generated_Source\PSoC5/USBUART_cdc.c **** 
 867:Generated_Source\PSoC5/USBUART_cdc.c **** /***************************************************************************
 868:Generated_Source\PSoC5/USBUART_cdc.c **** * Function Name: USBUART_GetDataBits
 869:Generated_Source\PSoC5/USBUART_cdc.c **** ************************************************************************//**
 870:Generated_Source\PSoC5/USBUART_cdc.c **** *
 871:Generated_Source\PSoC5/USBUART_cdc.c **** *  This function returns the number of data bits for the CDC port.
 872:Generated_Source\PSoC5/USBUART_cdc.c **** *
 873:Generated_Source\PSoC5/USBUART_cdc.c **** * \return
 874:Generated_Source\PSoC5/USBUART_cdc.c **** *  Returns the number of data bits.
 875:Generated_Source\PSoC5/USBUART_cdc.c **** *  The number of data bits can be 5, 6, 7, 8 or 16.
 876:Generated_Source\PSoC5/USBUART_cdc.c **** *
 877:Generated_Source\PSoC5/USBUART_cdc.c **** * \globalvars
 878:Generated_Source\PSoC5/USBUART_cdc.c **** *  USBUART_linesCoding: used to get a parameter.
 879:Generated_Source\PSoC5/USBUART_cdc.c **** *
 880:Generated_Source\PSoC5/USBUART_cdc.c **** *******************************************************************************/
 881:Generated_Source\PSoC5/USBUART_cdc.c **** uint8 USBUART_GetDataBits(void) 
 882:Generated_Source\PSoC5/USBUART_cdc.c **** {
ARM GAS  C:\Users\Greg\AppData\Local\Temp\ccDYSYHP.s 			page 42


 1436              		.loc 1 882 0
 1437              		.cfi_startproc
 1438              		@ args = 0, pretend = 0, frame = 0
 1439              		@ frame_needed = 1, uses_anonymous_args = 0
 1440              		@ link register save eliminated.
 1441 0000 80B4     		push	{r7}
 1442              		.cfi_def_cfa_offset 4
 1443              		.cfi_offset 7, -4
 1444 0002 00AF     		add	r7, sp, #0
 1445              		.cfi_def_cfa_register 7
 883:Generated_Source\PSoC5/USBUART_cdc.c ****     return (USBUART_linesCoding[USBUART_activeCom][USBUART_LINE_CODING_DATA_BITS]);
 1446              		.loc 1 883 0
 1447 0004 074B     		ldr	r3, .L97
 1448 0006 1B78     		ldrb	r3, [r3]	@ zero_extendqisi2
 1449 0008 1946     		mov	r1, r3
 1450 000a 074A     		ldr	r2, .L97+4
 1451 000c 0B46     		mov	r3, r1
 1452 000e DB00     		lsls	r3, r3, #3
 1453 0010 5B1A     		subs	r3, r3, r1
 1454 0012 1344     		add	r3, r3, r2
 1455 0014 0633     		adds	r3, r3, #6
 1456 0016 1B78     		ldrb	r3, [r3]
 1457 0018 DBB2     		uxtb	r3, r3
 884:Generated_Source\PSoC5/USBUART_cdc.c **** }
 1458              		.loc 1 884 0
 1459 001a 1846     		mov	r0, r3
 1460 001c BD46     		mov	sp, r7
 1461              		.cfi_def_cfa_register 13
 1462              		@ sp needed
 1463 001e 5DF8047B 		ldr	r7, [sp], #4
 1464              		.cfi_restore 7
 1465              		.cfi_def_cfa_offset 0
 1466 0022 7047     		bx	lr
 1467              	.L98:
 1468              		.align	2
 1469              	.L97:
 1470 0024 00000000 		.word	USBUART_activeCom
 1471 0028 00000000 		.word	USBUART_linesCoding
 1472              		.cfi_endproc
 1473              	.LFE18:
 1474              		.size	USBUART_GetDataBits, .-USBUART_GetDataBits
 1475              		.section	.text.USBUART_GetLineControl,"ax",%progbits
 1476              		.align	2
 1477              		.global	USBUART_GetLineControl
 1478              		.thumb
 1479              		.thumb_func
 1480              		.type	USBUART_GetLineControl, %function
 1481              	USBUART_GetLineControl:
 1482              	.LFB19:
 885:Generated_Source\PSoC5/USBUART_cdc.c **** 
 886:Generated_Source\PSoC5/USBUART_cdc.c **** 
 887:Generated_Source\PSoC5/USBUART_cdc.c **** /***************************************************************************
 888:Generated_Source\PSoC5/USBUART_cdc.c **** * Function Name: USBUART_GetLineControl
 889:Generated_Source\PSoC5/USBUART_cdc.c **** ************************************************************************//**
 890:Generated_Source\PSoC5/USBUART_cdc.c **** *
 891:Generated_Source\PSoC5/USBUART_cdc.c **** *  This function returns Line control bitmap that the host sends to the
 892:Generated_Source\PSoC5/USBUART_cdc.c **** *  device.
ARM GAS  C:\Users\Greg\AppData\Local\Temp\ccDYSYHP.s 			page 43


 893:Generated_Source\PSoC5/USBUART_cdc.c **** *
 894:Generated_Source\PSoC5/USBUART_cdc.c **** * \return
 895:Generated_Source\PSoC5/USBUART_cdc.c **** *  Returns Line control bitmap.
 896:Generated_Source\PSoC5/USBUART_cdc.c **** *  Return                   |Value Notes
 897:Generated_Source\PSoC5/USBUART_cdc.c **** *  -------------------------|-----------------------------------------------
 898:Generated_Source\PSoC5/USBUART_cdc.c **** *  USBUART_LINE_CONTROL_DTR |Indicates that a DTR signal is present. This signal corresponds to V.2
 899:Generated_Source\PSoC5/USBUART_cdc.c **** *  USBUART_LINE_CONTROL_RTS |Carrier control for half-duplex modems. This signal corresponds to V.2
 900:Generated_Source\PSoC5/USBUART_cdc.c **** *  RESERVED                 |The rest of the bits are reserved.
 901:Generated_Source\PSoC5/USBUART_cdc.c **** *
 902:Generated_Source\PSoC5/USBUART_cdc.c **** *  *Note* Some terminal emulation programs do not properly handle these
 903:Generated_Source\PSoC5/USBUART_cdc.c **** *  control signals. They update information about DTR and RTS state only
 904:Generated_Source\PSoC5/USBUART_cdc.c **** *  when the RTS signal changes the state.
 905:Generated_Source\PSoC5/USBUART_cdc.c **** *
 906:Generated_Source\PSoC5/USBUART_cdc.c **** * \globalvars
 907:Generated_Source\PSoC5/USBUART_cdc.c **** *  USBUART_linesControlBitmap: used to get a parameter.
 908:Generated_Source\PSoC5/USBUART_cdc.c **** *
 909:Generated_Source\PSoC5/USBUART_cdc.c **** *******************************************************************************/
 910:Generated_Source\PSoC5/USBUART_cdc.c **** uint16 USBUART_GetLineControl(void) 
 911:Generated_Source\PSoC5/USBUART_cdc.c **** {
 1483              		.loc 1 911 0
 1484              		.cfi_startproc
 1485              		@ args = 0, pretend = 0, frame = 0
 1486              		@ frame_needed = 1, uses_anonymous_args = 0
 1487              		@ link register save eliminated.
 1488 0000 80B4     		push	{r7}
 1489              		.cfi_def_cfa_offset 4
 1490              		.cfi_offset 7, -4
 1491 0002 00AF     		add	r7, sp, #0
 1492              		.cfi_def_cfa_register 7
 912:Generated_Source\PSoC5/USBUART_cdc.c ****     return (USBUART_linesControlBitmap[USBUART_activeCom]);
 1493              		.loc 1 912 0
 1494 0004 054B     		ldr	r3, .L101
 1495 0006 1B78     		ldrb	r3, [r3]	@ zero_extendqisi2
 1496 0008 1A46     		mov	r2, r3
 1497 000a 054B     		ldr	r3, .L101+4
 1498 000c 33F81230 		ldrh	r3, [r3, r2, lsl #1]	@ movhi
 1499 0010 9BB2     		uxth	r3, r3
 913:Generated_Source\PSoC5/USBUART_cdc.c **** }
 1500              		.loc 1 913 0
 1501 0012 1846     		mov	r0, r3
 1502 0014 BD46     		mov	sp, r7
 1503              		.cfi_def_cfa_register 13
 1504              		@ sp needed
 1505 0016 5DF8047B 		ldr	r7, [sp], #4
 1506              		.cfi_restore 7
 1507              		.cfi_def_cfa_offset 0
 1508 001a 7047     		bx	lr
 1509              	.L102:
 1510              		.align	2
 1511              	.L101:
 1512 001c 00000000 		.word	USBUART_activeCom
 1513 0020 00000000 		.word	USBUART_linesControlBitmap
 1514              		.cfi_endproc
 1515              	.LFE19:
 1516              		.size	USBUART_GetLineControl, .-USBUART_GetLineControl
 1517              		.section	.text.USBUART_SendSerialState,"ax",%progbits
 1518              		.align	2
ARM GAS  C:\Users\Greg\AppData\Local\Temp\ccDYSYHP.s 			page 44


 1519              		.global	USBUART_SendSerialState
 1520              		.thumb
 1521              		.thumb_func
 1522              		.type	USBUART_SendSerialState, %function
 1523              	USBUART_SendSerialState:
 1524              	.LFB20:
 914:Generated_Source\PSoC5/USBUART_cdc.c **** 
 915:Generated_Source\PSoC5/USBUART_cdc.c **** 
 916:Generated_Source\PSoC5/USBUART_cdc.c **** /*******************************************************************************
 917:Generated_Source\PSoC5/USBUART_cdc.c **** * Function Name: USBUART_SendSerialState
 918:Generated_Source\PSoC5/USBUART_cdc.c **** ****************************************************************************//**
 919:Generated_Source\PSoC5/USBUART_cdc.c **** *
 920:Generated_Source\PSoC5/USBUART_cdc.c **** *  Sends the serial state notification to the host using the interrupt
 921:Generated_Source\PSoC5/USBUART_cdc.c **** *  endpoint for the COM port selected using the API SetComPort().The
 922:Generated_Source\PSoC5/USBUART_cdc.c **** *  USBUART_NotificationIsReady() API must be called to check if the
 923:Generated_Source\PSoC5/USBUART_cdc.c **** *  Component is ready to send more serial state to the host. The API will
 924:Generated_Source\PSoC5/USBUART_cdc.c **** *  not send the notification data if the interrupt endpoint Max Packet Size
 925:Generated_Source\PSoC5/USBUART_cdc.c **** *  is less than the required 10 bytes.
 926:Generated_Source\PSoC5/USBUART_cdc.c **** *
 927:Generated_Source\PSoC5/USBUART_cdc.c **** * \param uint16 serialState
 928:Generated_Source\PSoC5/USBUART_cdc.c **** *  16-bit value that will be sent from the device to the
 929:Generated_Source\PSoC5/USBUART_cdc.c **** *  host as SERIAL_STATE notification using the IN interrupt endpoint. Refer
 930:Generated_Source\PSoC5/USBUART_cdc.c **** *  to revision 1.2 of the CDC PSTN Subclass specification for bit field
 931:Generated_Source\PSoC5/USBUART_cdc.c **** *  definitions of the 16-bit serial state value.
 932:Generated_Source\PSoC5/USBUART_cdc.c **** *
 933:Generated_Source\PSoC5/USBUART_cdc.c **** *******************************************************************************/
 934:Generated_Source\PSoC5/USBUART_cdc.c **** void USBUART_SendSerialState (uint16 serialState) 
 935:Generated_Source\PSoC5/USBUART_cdc.c **** {
 1525              		.loc 1 935 0
 1526              		.cfi_startproc
 1527              		@ args = 0, pretend = 0, frame = 16
 1528              		@ frame_needed = 1, uses_anonymous_args = 0
 1529 0000 80B5     		push	{r7, lr}
 1530              		.cfi_def_cfa_offset 8
 1531              		.cfi_offset 7, -8
 1532              		.cfi_offset 14, -4
 1533 0002 84B0     		sub	sp, sp, #16
 1534              		.cfi_def_cfa_offset 24
 1535 0004 00AF     		add	r7, sp, #0
 1536              		.cfi_def_cfa_register 7
 1537 0006 0346     		mov	r3, r0
 1538 0008 FB80     		strh	r3, [r7, #6]	@ movhi
 936:Generated_Source\PSoC5/USBUART_cdc.c ****     uint8 epNumber = USBUART_cdcCommInInterruptEp[USBUART_activeCom];
 1539              		.loc 1 936 0
 1540 000a 224B     		ldr	r3, .L105
 1541 000c 1B78     		ldrb	r3, [r3]	@ zero_extendqisi2
 1542 000e 1A46     		mov	r2, r3
 1543 0010 214B     		ldr	r3, .L105+4
 1544 0012 9B5C     		ldrb	r3, [r3, r2]
 1545 0014 FB73     		strb	r3, [r7, #15]
 937:Generated_Source\PSoC5/USBUART_cdc.c **** 
 938:Generated_Source\PSoC5/USBUART_cdc.c ****     if(USBUART_SERIAL_STATE_SIZE <= USBUART_EP[epNumber].bufferSize)
 1546              		.loc 1 938 0
 1547 0016 FA7B     		ldrb	r2, [r7, #15]	@ zero_extendqisi2
 1548 0018 2049     		ldr	r1, .L105+8
 1549 001a 1346     		mov	r3, r2
 1550 001c 5B00     		lsls	r3, r3, #1
ARM GAS  C:\Users\Greg\AppData\Local\Temp\ccDYSYHP.s 			page 45


 1551 001e 1344     		add	r3, r3, r2
 1552 0020 9B00     		lsls	r3, r3, #2
 1553 0022 0B44     		add	r3, r3, r1
 1554 0024 0833     		adds	r3, r3, #8
 1555 0026 1B88     		ldrh	r3, [r3]	@ movhi
 1556 0028 9BB2     		uxth	r3, r3
 1557 002a 092B     		cmp	r3, #9
 1558 002c 2ED9     		bls	.L103
 939:Generated_Source\PSoC5/USBUART_cdc.c ****     {
 940:Generated_Source\PSoC5/USBUART_cdc.c ****         /* Save current SERIAL_STATE bitmap. */
 941:Generated_Source\PSoC5/USBUART_cdc.c ****         USBUART_serialStateBitmap[USBUART_activeCom] = serialState;
 1559              		.loc 1 941 0
 1560 002e 194B     		ldr	r3, .L105
 1561 0030 1B78     		ldrb	r3, [r3]	@ zero_extendqisi2
 1562 0032 1946     		mov	r1, r3
 1563 0034 1A4A     		ldr	r2, .L105+12
 1564 0036 FB88     		ldrh	r3, [r7, #6]	@ movhi
 1565 0038 22F81130 		strh	r3, [r2, r1, lsl #1]	@ movhi
 942:Generated_Source\PSoC5/USBUART_cdc.c **** 
 943:Generated_Source\PSoC5/USBUART_cdc.c ****         /* Add interface number */
 944:Generated_Source\PSoC5/USBUART_cdc.c ****         USBUART_serialStateNotification.wIndex = USBUART_EP[epNumber].interface;
 1566              		.loc 1 944 0
 1567 003c FA7B     		ldrb	r2, [r7, #15]	@ zero_extendqisi2
 1568 003e 1749     		ldr	r1, .L105+8
 1569 0040 1346     		mov	r3, r2
 1570 0042 5B00     		lsls	r3, r3, #1
 1571 0044 1344     		add	r3, r3, r2
 1572 0046 9B00     		lsls	r3, r3, #2
 1573 0048 0B44     		add	r3, r3, r1
 1574 004a 0833     		adds	r3, r3, #8
 1575 004c 9B78     		ldrb	r3, [r3, #2]
 1576 004e DAB2     		uxtb	r2, r3
 1577 0050 144B     		ldr	r3, .L105+16
 1578 0052 1A71     		strb	r2, [r3, #4]
 945:Generated_Source\PSoC5/USBUART_cdc.c **** 
 946:Generated_Source\PSoC5/USBUART_cdc.c ****         /*Form SERIAL_STATE data*/
 947:Generated_Source\PSoC5/USBUART_cdc.c ****         USBUART_serialStateNotification.wSerialState =    LO8(USBUART_serialStateBitmap[USBUART_act
 1579              		.loc 1 947 0
 1580 0054 0F4B     		ldr	r3, .L105
 1581 0056 1B78     		ldrb	r3, [r3]	@ zero_extendqisi2
 1582 0058 1A46     		mov	r2, r3
 1583 005a 114B     		ldr	r3, .L105+12
 1584 005c 33F81230 		ldrh	r3, [r3, r2, lsl #1]	@ movhi
 1585 0060 9BB2     		uxth	r3, r3
 1586 0062 DAB2     		uxtb	r2, r3
 1587 0064 0F4B     		ldr	r3, .L105+16
 1588 0066 1A72     		strb	r2, [r3, #8]
 948:Generated_Source\PSoC5/USBUART_cdc.c ****         USBUART_serialStateNotification.wSerialStateMSB = HI8(USBUART_serialStateBitmap[USBUART_act
 1589              		.loc 1 948 0
 1590 0068 0A4B     		ldr	r3, .L105
 1591 006a 1B78     		ldrb	r3, [r3]	@ zero_extendqisi2
 1592 006c 1A46     		mov	r2, r3
 1593 006e 0C4B     		ldr	r3, .L105+12
 1594 0070 33F81230 		ldrh	r3, [r3, r2, lsl #1]	@ movhi
 1595 0074 9BB2     		uxth	r3, r3
 1596 0076 1B0A     		lsrs	r3, r3, #8
 1597 0078 9BB2     		uxth	r3, r3
ARM GAS  C:\Users\Greg\AppData\Local\Temp\ccDYSYHP.s 			page 46


 1598 007a DAB2     		uxtb	r2, r3
 1599 007c 094B     		ldr	r3, .L105+16
 1600 007e 5A72     		strb	r2, [r3, #9]
 949:Generated_Source\PSoC5/USBUART_cdc.c **** 
 950:Generated_Source\PSoC5/USBUART_cdc.c ****         USBUART_LoadInEP(epNumber, (uint8 *) &USBUART_serialStateNotification, sizeof(USBUART_seria
 1601              		.loc 1 950 0
 1602 0080 FB7B     		ldrb	r3, [r7, #15]	@ zero_extendqisi2
 1603 0082 1846     		mov	r0, r3
 1604 0084 0749     		ldr	r1, .L105+16
 1605 0086 0A22     		movs	r2, #10
 1606 0088 FFF7FEFF 		bl	USBUART_LoadInEP
 1607              	.L103:
 951:Generated_Source\PSoC5/USBUART_cdc.c ****     }
 952:Generated_Source\PSoC5/USBUART_cdc.c **** }
 1608              		.loc 1 952 0
 1609 008c 1037     		adds	r7, r7, #16
 1610              		.cfi_def_cfa_offset 8
 1611 008e BD46     		mov	sp, r7
 1612              		.cfi_def_cfa_register 13
 1613              		@ sp needed
 1614 0090 80BD     		pop	{r7, pc}
 1615              	.L106:
 1616 0092 00BF     		.align	2
 1617              	.L105:
 1618 0094 00000000 		.word	USBUART_activeCom
 1619 0098 00000000 		.word	USBUART_cdcCommInInterruptEp
 1620 009c 00000000 		.word	USBUART_EP
 1621 00a0 00000000 		.word	USBUART_serialStateBitmap
 1622 00a4 10000000 		.word	USBUART_serialStateNotification
 1623              		.cfi_endproc
 1624              	.LFE20:
 1625              		.size	USBUART_SendSerialState, .-USBUART_SendSerialState
 1626              		.section	.text.USBUART_GetSerialState,"ax",%progbits
 1627              		.align	2
 1628              		.global	USBUART_GetSerialState
 1629              		.thumb
 1630              		.thumb_func
 1631              		.type	USBUART_GetSerialState, %function
 1632              	USBUART_GetSerialState:
 1633              	.LFB21:
 953:Generated_Source\PSoC5/USBUART_cdc.c **** 
 954:Generated_Source\PSoC5/USBUART_cdc.c **** 
 955:Generated_Source\PSoC5/USBUART_cdc.c **** /*******************************************************************************
 956:Generated_Source\PSoC5/USBUART_cdc.c **** * Function Name: USBUART_GetSerialState
 957:Generated_Source\PSoC5/USBUART_cdc.c **** ****************************************************************************//**
 958:Generated_Source\PSoC5/USBUART_cdc.c **** *
 959:Generated_Source\PSoC5/USBUART_cdc.c **** *  This function returns the current serial state value for the COM port
 960:Generated_Source\PSoC5/USBUART_cdc.c **** *  selected using the API SetComPort().
 961:Generated_Source\PSoC5/USBUART_cdc.c **** *
 962:Generated_Source\PSoC5/USBUART_cdc.c **** * \return
 963:Generated_Source\PSoC5/USBUART_cdc.c **** *  16-bit serial state value. Refer to revision 1.2 of the CDC PSTN Subclass
 964:Generated_Source\PSoC5/USBUART_cdc.c **** *  specification for bit field definitions of the 16-bit serial state value.
 965:Generated_Source\PSoC5/USBUART_cdc.c **** *
 966:Generated_Source\PSoC5/USBUART_cdc.c **** *******************************************************************************/
 967:Generated_Source\PSoC5/USBUART_cdc.c **** uint16 USBUART_GetSerialState(void) 
 968:Generated_Source\PSoC5/USBUART_cdc.c **** {
 1634              		.loc 1 968 0
ARM GAS  C:\Users\Greg\AppData\Local\Temp\ccDYSYHP.s 			page 47


 1635              		.cfi_startproc
 1636              		@ args = 0, pretend = 0, frame = 0
 1637              		@ frame_needed = 1, uses_anonymous_args = 0
 1638              		@ link register save eliminated.
 1639 0000 80B4     		push	{r7}
 1640              		.cfi_def_cfa_offset 4
 1641              		.cfi_offset 7, -4
 1642 0002 00AF     		add	r7, sp, #0
 1643              		.cfi_def_cfa_register 7
 969:Generated_Source\PSoC5/USBUART_cdc.c ****     return USBUART_serialStateBitmap[USBUART_activeCom];
 1644              		.loc 1 969 0
 1645 0004 054B     		ldr	r3, .L109
 1646 0006 1B78     		ldrb	r3, [r3]	@ zero_extendqisi2
 1647 0008 1A46     		mov	r2, r3
 1648 000a 054B     		ldr	r3, .L109+4
 1649 000c 33F81230 		ldrh	r3, [r3, r2, lsl #1]	@ movhi
 1650 0010 9BB2     		uxth	r3, r3
 970:Generated_Source\PSoC5/USBUART_cdc.c **** }
 1651              		.loc 1 970 0
 1652 0012 1846     		mov	r0, r3
 1653 0014 BD46     		mov	sp, r7
 1654              		.cfi_def_cfa_register 13
 1655              		@ sp needed
 1656 0016 5DF8047B 		ldr	r7, [sp], #4
 1657              		.cfi_restore 7
 1658              		.cfi_def_cfa_offset 0
 1659 001a 7047     		bx	lr
 1660              	.L110:
 1661              		.align	2
 1662              	.L109:
 1663 001c 00000000 		.word	USBUART_activeCom
 1664 0020 00000000 		.word	USBUART_serialStateBitmap
 1665              		.cfi_endproc
 1666              	.LFE21:
 1667              		.size	USBUART_GetSerialState, .-USBUART_GetSerialState
 1668              		.section	.text.USBUART_NotificationIsReady,"ax",%progbits
 1669              		.align	2
 1670              		.global	USBUART_NotificationIsReady
 1671              		.thumb
 1672              		.thumb_func
 1673              		.type	USBUART_NotificationIsReady, %function
 1674              	USBUART_NotificationIsReady:
 1675              	.LFB22:
 971:Generated_Source\PSoC5/USBUART_cdc.c **** 
 972:Generated_Source\PSoC5/USBUART_cdc.c **** 
 973:Generated_Source\PSoC5/USBUART_cdc.c **** /*******************************************************************************
 974:Generated_Source\PSoC5/USBUART_cdc.c **** * Function Name: USBUART_NotificationIsReady
 975:Generated_Source\PSoC5/USBUART_cdc.c **** ****************************************************************************//**
 976:Generated_Source\PSoC5/USBUART_cdc.c **** *
 977:Generated_Source\PSoC5/USBUART_cdc.c **** *  This function returns a non-zero value if the Component is ready to send
 978:Generated_Source\PSoC5/USBUART_cdc.c **** *  more notifications to the host; otherwise, it returns zero. The function
 979:Generated_Source\PSoC5/USBUART_cdc.c **** *  should be called before sending new notifications when using
 980:Generated_Source\PSoC5/USBUART_cdc.c **** *  USBUART_SendSerialState() to ensure that any previous
 981:Generated_Source\PSoC5/USBUART_cdc.c **** *  notification data has been already sent to the host.
 982:Generated_Source\PSoC5/USBUART_cdc.c **** *
 983:Generated_Source\PSoC5/USBUART_cdc.c **** * \return
 984:Generated_Source\PSoC5/USBUART_cdc.c **** *  If the buffer can accept new data(endpoint buffer not full), this
ARM GAS  C:\Users\Greg\AppData\Local\Temp\ccDYSYHP.s 			page 48


 985:Generated_Source\PSoC5/USBUART_cdc.c **** *  function returns a non-zero value. Otherwise, it returns zero.
 986:Generated_Source\PSoC5/USBUART_cdc.c **** *
 987:Generated_Source\PSoC5/USBUART_cdc.c **** * \globalvars
 988:Generated_Source\PSoC5/USBUART_cdc.c **** *   USBUART_cdcDataInEp: CDC IN endpoint number used.
 989:Generated_Source\PSoC5/USBUART_cdc.c **** *
 990:Generated_Source\PSoC5/USBUART_cdc.c **** *******************************************************************************/
 991:Generated_Source\PSoC5/USBUART_cdc.c **** uint8 USBUART_NotificationIsReady(void) 
 992:Generated_Source\PSoC5/USBUART_cdc.c **** {
 1676              		.loc 1 992 0
 1677              		.cfi_startproc
 1678              		@ args = 0, pretend = 0, frame = 0
 1679              		@ frame_needed = 1, uses_anonymous_args = 0
 1680              		@ link register save eliminated.
 1681 0000 80B4     		push	{r7}
 1682              		.cfi_def_cfa_offset 4
 1683              		.cfi_offset 7, -4
 1684 0002 00AF     		add	r7, sp, #0
 1685              		.cfi_def_cfa_register 7
 993:Generated_Source\PSoC5/USBUART_cdc.c ****     return (USBUART_EP[USBUART_cdcCommInInterruptEp[USBUART_activeCom]].apiEpState);
 1686              		.loc 1 993 0
 1687 0004 094B     		ldr	r3, .L113
 1688 0006 1B78     		ldrb	r3, [r3]	@ zero_extendqisi2
 1689 0008 1A46     		mov	r2, r3
 1690 000a 094B     		ldr	r3, .L113+4
 1691 000c 9B5C     		ldrb	r3, [r3, r2]
 1692 000e DBB2     		uxtb	r3, r3
 1693 0010 1946     		mov	r1, r3
 1694 0012 084A     		ldr	r2, .L113+8
 1695 0014 0B46     		mov	r3, r1
 1696 0016 5B00     		lsls	r3, r3, #1
 1697 0018 0B44     		add	r3, r3, r1
 1698 001a 9B00     		lsls	r3, r3, #2
 1699 001c 1344     		add	r3, r3, r2
 1700 001e 5B78     		ldrb	r3, [r3, #1]
 1701 0020 DBB2     		uxtb	r3, r3
 994:Generated_Source\PSoC5/USBUART_cdc.c **** }
 1702              		.loc 1 994 0
 1703 0022 1846     		mov	r0, r3
 1704 0024 BD46     		mov	sp, r7
 1705              		.cfi_def_cfa_register 13
 1706              		@ sp needed
 1707 0026 5DF8047B 		ldr	r7, [sp], #4
 1708              		.cfi_restore 7
 1709              		.cfi_def_cfa_offset 0
 1710 002a 7047     		bx	lr
 1711              	.L114:
 1712              		.align	2
 1713              	.L113:
 1714 002c 00000000 		.word	USBUART_activeCom
 1715 0030 00000000 		.word	USBUART_cdcCommInInterruptEp
 1716 0034 00000000 		.word	USBUART_EP
 1717              		.cfi_endproc
 1718              	.LFE22:
 1719              		.size	USBUART_NotificationIsReady, .-USBUART_NotificationIsReady
 1720              		.section	.text.USBUART_SetComPort,"ax",%progbits
 1721              		.align	2
 1722              		.global	USBUART_SetComPort
ARM GAS  C:\Users\Greg\AppData\Local\Temp\ccDYSYHP.s 			page 49


 1723              		.thumb
 1724              		.thumb_func
 1725              		.type	USBUART_SetComPort, %function
 1726              	USBUART_SetComPort:
 1727              	.LFB23:
 995:Generated_Source\PSoC5/USBUART_cdc.c **** 
 996:Generated_Source\PSoC5/USBUART_cdc.c **** 
 997:Generated_Source\PSoC5/USBUART_cdc.c **** /*******************************************************************************
 998:Generated_Source\PSoC5/USBUART_cdc.c **** * Function Name: USBUART_SetComPort
 999:Generated_Source\PSoC5/USBUART_cdc.c **** ****************************************************************************//**
1000:Generated_Source\PSoC5/USBUART_cdc.c **** *
1001:Generated_Source\PSoC5/USBUART_cdc.c **** *  This function allows the user to select from one of the two COM ports
1002:Generated_Source\PSoC5/USBUART_cdc.c **** *  they wish to address in the instance of having multiple COM ports
1003:Generated_Source\PSoC5/USBUART_cdc.c **** *  instantiated though the use of a composite device. Once set, all future
1004:Generated_Source\PSoC5/USBUART_cdc.c **** *  function calls related to the USBUART will be affected. This addressed
1005:Generated_Source\PSoC5/USBUART_cdc.c **** *  COM port can be changed during run time.
1006:Generated_Source\PSoC5/USBUART_cdc.c **** *
1007:Generated_Source\PSoC5/USBUART_cdc.c **** * \param comNumber
1008:Generated_Source\PSoC5/USBUART_cdc.c **** *  Contains the COM interface the user wishes to address. Value can either
1009:Generated_Source\PSoC5/USBUART_cdc.c **** *  be 0 or 1 since a maximum of only 2 COM ports can be supported. Note that
1010:Generated_Source\PSoC5/USBUART_cdc.c **** *  this COM port number is not the COM port number assigned on the PC side
1011:Generated_Source\PSoC5/USBUART_cdc.c **** *  for the UART communication. If a value greater than 1 is passed, the
1012:Generated_Source\PSoC5/USBUART_cdc.c **** *  function returns without performing any action.
1013:Generated_Source\PSoC5/USBUART_cdc.c **** *
1014:Generated_Source\PSoC5/USBUART_cdc.c **** *******************************************************************************/
1015:Generated_Source\PSoC5/USBUART_cdc.c **** void USBUART_SetComPort(uint8 comNumber) 
1016:Generated_Source\PSoC5/USBUART_cdc.c **** {
 1728              		.loc 1 1016 0
 1729              		.cfi_startproc
 1730              		@ args = 0, pretend = 0, frame = 8
 1731              		@ frame_needed = 1, uses_anonymous_args = 0
 1732              		@ link register save eliminated.
 1733 0000 80B4     		push	{r7}
 1734              		.cfi_def_cfa_offset 4
 1735              		.cfi_offset 7, -4
 1736 0002 83B0     		sub	sp, sp, #12
 1737              		.cfi_def_cfa_offset 16
 1738 0004 00AF     		add	r7, sp, #0
 1739              		.cfi_def_cfa_register 7
 1740 0006 0346     		mov	r3, r0
 1741 0008 FB71     		strb	r3, [r7, #7]
1017:Generated_Source\PSoC5/USBUART_cdc.c ****     if ((USBUART_activeCom != comNumber) && \
 1742              		.loc 1 1017 0
 1743 000a 084B     		ldr	r3, .L117
 1744 000c 1B78     		ldrb	r3, [r3]	@ zero_extendqisi2
 1745 000e FA79     		ldrb	r2, [r7, #7]	@ zero_extendqisi2
 1746 0010 9A42     		cmp	r2, r3
 1747 0012 05D0     		beq	.L115
 1748              		.loc 1 1017 0 is_stmt 0 discriminator 1
 1749 0014 FB79     		ldrb	r3, [r7, #7]	@ zero_extendqisi2
 1750 0016 012B     		cmp	r3, #1
 1751 0018 02D8     		bhi	.L115
1018:Generated_Source\PSoC5/USBUART_cdc.c ****             (comNumber < USBUART_MAX_MULTI_COM_NUM ))
1019:Generated_Source\PSoC5/USBUART_cdc.c ****     {
1020:Generated_Source\PSoC5/USBUART_cdc.c ****         USBUART_activeCom = comNumber;
 1752              		.loc 1 1020 0 is_stmt 1
 1753 001a 044A     		ldr	r2, .L117
ARM GAS  C:\Users\Greg\AppData\Local\Temp\ccDYSYHP.s 			page 50


 1754 001c FB79     		ldrb	r3, [r7, #7]
 1755 001e 1370     		strb	r3, [r2]
 1756              	.L115:
1021:Generated_Source\PSoC5/USBUART_cdc.c ****     }
1022:Generated_Source\PSoC5/USBUART_cdc.c **** }
 1757              		.loc 1 1022 0
 1758 0020 0C37     		adds	r7, r7, #12
 1759              		.cfi_def_cfa_offset 4
 1760 0022 BD46     		mov	sp, r7
 1761              		.cfi_def_cfa_register 13
 1762              		@ sp needed
 1763 0024 5DF8047B 		ldr	r7, [sp], #4
 1764              		.cfi_restore 7
 1765              		.cfi_def_cfa_offset 0
 1766 0028 7047     		bx	lr
 1767              	.L118:
 1768 002a 00BF     		.align	2
 1769              	.L117:
 1770 002c 00000000 		.word	USBUART_activeCom
 1771              		.cfi_endproc
 1772              	.LFE23:
 1773              		.size	USBUART_SetComPort, .-USBUART_SetComPort
 1774              		.section	.text.USBUART_GetComPort,"ax",%progbits
 1775              		.align	2
 1776              		.global	USBUART_GetComPort
 1777              		.thumb
 1778              		.thumb_func
 1779              		.type	USBUART_GetComPort, %function
 1780              	USBUART_GetComPort:
 1781              	.LFB24:
1023:Generated_Source\PSoC5/USBUART_cdc.c **** 
1024:Generated_Source\PSoC5/USBUART_cdc.c **** 
1025:Generated_Source\PSoC5/USBUART_cdc.c **** /*******************************************************************************
1026:Generated_Source\PSoC5/USBUART_cdc.c **** * Function Name: USBUART_GetComPort
1027:Generated_Source\PSoC5/USBUART_cdc.c **** ****************************************************************************//**
1028:Generated_Source\PSoC5/USBUART_cdc.c **** *
1029:Generated_Source\PSoC5/USBUART_cdc.c **** *  This function returns the current selected COM port that the user is
1030:Generated_Source\PSoC5/USBUART_cdc.c **** *  currently addressing in the instance of having multiple COM ports
1031:Generated_Source\PSoC5/USBUART_cdc.c **** *  instantiated though the use of a composite device.
1032:Generated_Source\PSoC5/USBUART_cdc.c **** *
1033:Generated_Source\PSoC5/USBUART_cdc.c **** * \return
1034:Generated_Source\PSoC5/USBUART_cdc.c **** *  Returns the currently selected COM port. Value can either be 0 or 1 since
1035:Generated_Source\PSoC5/USBUART_cdc.c **** *  a maximum of only 2 COM ports can be supported. . Note that this COM port
1036:Generated_Source\PSoC5/USBUART_cdc.c **** *  number is not the COM port number assigned on the PC side for the UART
1037:Generated_Source\PSoC5/USBUART_cdc.c **** *  communication.
1038:Generated_Source\PSoC5/USBUART_cdc.c **** *
1039:Generated_Source\PSoC5/USBUART_cdc.c **** *******************************************************************************/
1040:Generated_Source\PSoC5/USBUART_cdc.c **** uint8 USBUART_GetComPort(void) 
1041:Generated_Source\PSoC5/USBUART_cdc.c **** {
 1782              		.loc 1 1041 0
 1783              		.cfi_startproc
 1784              		@ args = 0, pretend = 0, frame = 0
 1785              		@ frame_needed = 1, uses_anonymous_args = 0
 1786              		@ link register save eliminated.
 1787 0000 80B4     		push	{r7}
 1788              		.cfi_def_cfa_offset 4
 1789              		.cfi_offset 7, -4
ARM GAS  C:\Users\Greg\AppData\Local\Temp\ccDYSYHP.s 			page 51


 1790 0002 00AF     		add	r7, sp, #0
 1791              		.cfi_def_cfa_register 7
1042:Generated_Source\PSoC5/USBUART_cdc.c ****     return (USBUART_activeCom);
 1792              		.loc 1 1042 0
 1793 0004 034B     		ldr	r3, .L121
 1794 0006 1B78     		ldrb	r3, [r3]	@ zero_extendqisi2
1043:Generated_Source\PSoC5/USBUART_cdc.c **** }
 1795              		.loc 1 1043 0
 1796 0008 1846     		mov	r0, r3
 1797 000a BD46     		mov	sp, r7
 1798              		.cfi_def_cfa_register 13
 1799              		@ sp needed
 1800 000c 5DF8047B 		ldr	r7, [sp], #4
 1801              		.cfi_restore 7
 1802              		.cfi_def_cfa_offset 0
 1803 0010 7047     		bx	lr
 1804              	.L122:
 1805 0012 00BF     		.align	2
 1806              	.L121:
 1807 0014 00000000 		.word	USBUART_activeCom
 1808              		.cfi_endproc
 1809              	.LFE24:
 1810              		.size	USBUART_GetComPort, .-USBUART_GetComPort
 1811              		.section	.text.USBUART_Cdc_EpInit,"ax",%progbits
 1812              		.align	2
 1813              		.global	USBUART_Cdc_EpInit
 1814              		.thumb
 1815              		.thumb_func
 1816              		.type	USBUART_Cdc_EpInit, %function
 1817              	USBUART_Cdc_EpInit:
 1818              	.LFB25:
1044:Generated_Source\PSoC5/USBUART_cdc.c **** 
1045:Generated_Source\PSoC5/USBUART_cdc.c **** 
1046:Generated_Source\PSoC5/USBUART_cdc.c **** #endif  /* (USBUART_ENABLE_CDC_CLASS_API) */
1047:Generated_Source\PSoC5/USBUART_cdc.c **** 
1048:Generated_Source\PSoC5/USBUART_cdc.c **** 
1049:Generated_Source\PSoC5/USBUART_cdc.c **** /***************************************************************************
1050:Generated_Source\PSoC5/USBUART_cdc.c **** * Function Name: USBUART_Cdc_EpInit
1051:Generated_Source\PSoC5/USBUART_cdc.c **** ************************************************************************//**
1052:Generated_Source\PSoC5/USBUART_cdc.c **** *
1053:Generated_Source\PSoC5/USBUART_cdc.c **** *  \internal
1054:Generated_Source\PSoC5/USBUART_cdc.c **** *  This routine decide type of endpoint (IN, OUT, Notification) and same to
1055:Generated_Source\PSoC5/USBUART_cdc.c **** *   appropriate global variables  according to COM port number.
1056:Generated_Source\PSoC5/USBUART_cdc.c **** *   USBUART_cdcDataInEp[], USBUART_cdcCommInInterruptEp[],
1057:Generated_Source\PSoC5/USBUART_cdc.c **** *   USBUART_cdcDataOutEp[]
1058:Generated_Source\PSoC5/USBUART_cdc.c **** *
1059:Generated_Source\PSoC5/USBUART_cdc.c **** * \param pEP: Pointer to structure with current EP description.
1060:Generated_Source\PSoC5/USBUART_cdc.c **** * \param epNum: EP number
1061:Generated_Source\PSoC5/USBUART_cdc.c **** * \param cdcComNums: Bit array of current COM ports for CDC IN, OUT,
1062:Generated_Source\PSoC5/USBUART_cdc.c **** *        and notification EPs(0 - COM port 1, 1- COM port 2)
1063:Generated_Source\PSoC5/USBUART_cdc.c **** *
1064:Generated_Source\PSoC5/USBUART_cdc.c **** * \return
1065:Generated_Source\PSoC5/USBUART_cdc.c **** *  Updated cdcComNums
1066:Generated_Source\PSoC5/USBUART_cdc.c **** *
1067:Generated_Source\PSoC5/USBUART_cdc.c **** * \reentrant
1068:Generated_Source\PSoC5/USBUART_cdc.c **** *  No.
1069:Generated_Source\PSoC5/USBUART_cdc.c **** *
ARM GAS  C:\Users\Greg\AppData\Local\Temp\ccDYSYHP.s 			page 52


1070:Generated_Source\PSoC5/USBUART_cdc.c **** ***************************************************************************/
1071:Generated_Source\PSoC5/USBUART_cdc.c **** uint8 USBUART_Cdc_EpInit(const T_USBUART_EP_SETTINGS_BLOCK CYCODE *pEP, uint8 epNum, uint8 cdcComNu
1072:Generated_Source\PSoC5/USBUART_cdc.c **** {
 1819              		.loc 1 1072 0
 1820              		.cfi_startproc
 1821              		@ args = 0, pretend = 0, frame = 16
 1822              		@ frame_needed = 1, uses_anonymous_args = 0
 1823              		@ link register save eliminated.
 1824 0000 80B4     		push	{r7}
 1825              		.cfi_def_cfa_offset 4
 1826              		.cfi_offset 7, -4
 1827 0002 85B0     		sub	sp, sp, #20
 1828              		.cfi_def_cfa_offset 24
 1829 0004 00AF     		add	r7, sp, #0
 1830              		.cfi_def_cfa_register 7
 1831 0006 7860     		str	r0, [r7, #4]
 1832 0008 0B46     		mov	r3, r1
 1833 000a FB70     		strb	r3, [r7, #3]
 1834 000c 1346     		mov	r3, r2
 1835 000e BB70     		strb	r3, [r7, #2]
1073:Generated_Source\PSoC5/USBUART_cdc.c ****     uint8 epType;
1074:Generated_Source\PSoC5/USBUART_cdc.c **** 
1075:Generated_Source\PSoC5/USBUART_cdc.c ****     epType = pEP->attributes & USBUART_EP_TYPE_MASK;
 1836              		.loc 1 1075 0
 1837 0010 7B68     		ldr	r3, [r7, #4]
 1838 0012 DB78     		ldrb	r3, [r3, #3]	@ zero_extendqisi2
 1839 0014 03F00303 		and	r3, r3, #3
 1840 0018 FB73     		strb	r3, [r7, #15]
1076:Generated_Source\PSoC5/USBUART_cdc.c **** 
1077:Generated_Source\PSoC5/USBUART_cdc.c ****     if (0u != (pEP->addr & USBUART_DIR_IN))
 1841              		.loc 1 1077 0
 1842 001a 7B68     		ldr	r3, [r7, #4]
 1843 001c 9B78     		ldrb	r3, [r3, #2]	@ zero_extendqisi2
 1844 001e DBB2     		uxtb	r3, r3
 1845 0020 5BB2     		sxtb	r3, r3
 1846 0022 002B     		cmp	r3, #0
 1847 0024 1ADA     		bge	.L124
1078:Generated_Source\PSoC5/USBUART_cdc.c ****     {
1079:Generated_Source\PSoC5/USBUART_cdc.c ****         if (epType != USBUART_EP_TYPE_INT)
 1848              		.loc 1 1079 0
 1849 0026 FB7B     		ldrb	r3, [r7, #15]	@ zero_extendqisi2
 1850 0028 032B     		cmp	r3, #3
 1851 002a 0AD0     		beq	.L125
1080:Generated_Source\PSoC5/USBUART_cdc.c ****         {
1081:Generated_Source\PSoC5/USBUART_cdc.c ****             USBUART_cdcDataInEp[USBUART_GET_EP_COM_NUM(cdcComNums, USBUART_CDC_IN_EP)] = epNum;
 1852              		.loc 1 1081 0
 1853 002c BB78     		ldrb	r3, [r7, #2]	@ zero_extendqisi2
 1854 002e 03F00103 		and	r3, r3, #1
 1855 0032 1549     		ldr	r1, .L129
 1856 0034 FA78     		ldrb	r2, [r7, #3]
 1857 0036 CA54     		strb	r2, [r1, r3]
1082:Generated_Source\PSoC5/USBUART_cdc.c ****             cdcComNums |= (uint8)(USBUART_COM_PORT2 << USBUART_CDC_IN_EP);
 1858              		.loc 1 1082 0
 1859 0038 BB78     		ldrb	r3, [r7, #2]
 1860 003a 43F00103 		orr	r3, r3, #1
 1861 003e BB70     		strb	r3, [r7, #2]
 1862 0040 1BE0     		b	.L127
ARM GAS  C:\Users\Greg\AppData\Local\Temp\ccDYSYHP.s 			page 53


 1863              	.L125:
1083:Generated_Source\PSoC5/USBUART_cdc.c ****         }
1084:Generated_Source\PSoC5/USBUART_cdc.c ****         else
1085:Generated_Source\PSoC5/USBUART_cdc.c ****         {
1086:Generated_Source\PSoC5/USBUART_cdc.c **** 
1087:Generated_Source\PSoC5/USBUART_cdc.c ****             USBUART_cdcCommInInterruptEp[USBUART_GET_EP_COM_NUM(cdcComNums, USBUART_CDC_NOTE_EP)] =
 1864              		.loc 1 1087 0
 1865 0042 BB78     		ldrb	r3, [r7, #2]	@ zero_extendqisi2
 1866 0044 9B08     		lsrs	r3, r3, #2
 1867 0046 DBB2     		uxtb	r3, r3
 1868 0048 03F00103 		and	r3, r3, #1
 1869 004c 0F49     		ldr	r1, .L129+4
 1870 004e FA78     		ldrb	r2, [r7, #3]
 1871 0050 CA54     		strb	r2, [r1, r3]
1088:Generated_Source\PSoC5/USBUART_cdc.c ****             cdcComNums |= (uint8)(USBUART_COM_PORT2 << USBUART_CDC_NOTE_EP);
 1872              		.loc 1 1088 0
 1873 0052 BB78     		ldrb	r3, [r7, #2]
 1874 0054 43F00403 		orr	r3, r3, #4
 1875 0058 BB70     		strb	r3, [r7, #2]
 1876 005a 0EE0     		b	.L127
 1877              	.L124:
1089:Generated_Source\PSoC5/USBUART_cdc.c ****         }
1090:Generated_Source\PSoC5/USBUART_cdc.c ****     }
1091:Generated_Source\PSoC5/USBUART_cdc.c ****     else
1092:Generated_Source\PSoC5/USBUART_cdc.c ****     {
1093:Generated_Source\PSoC5/USBUART_cdc.c ****         if (epType != USBUART_EP_TYPE_INT)
 1878              		.loc 1 1093 0
 1879 005c FB7B     		ldrb	r3, [r7, #15]	@ zero_extendqisi2
 1880 005e 032B     		cmp	r3, #3
 1881 0060 0BD0     		beq	.L127
1094:Generated_Source\PSoC5/USBUART_cdc.c ****         {
1095:Generated_Source\PSoC5/USBUART_cdc.c ****             USBUART_cdcDataOutEp[USBUART_GET_EP_COM_NUM(cdcComNums, USBUART_CDC_OUT_EP)] = epNum;
 1882              		.loc 1 1095 0
 1883 0062 BB78     		ldrb	r3, [r7, #2]	@ zero_extendqisi2
 1884 0064 5B08     		lsrs	r3, r3, #1
 1885 0066 DBB2     		uxtb	r3, r3
 1886 0068 03F00103 		and	r3, r3, #1
 1887 006c 0849     		ldr	r1, .L129+8
 1888 006e FA78     		ldrb	r2, [r7, #3]
 1889 0070 CA54     		strb	r2, [r1, r3]
1096:Generated_Source\PSoC5/USBUART_cdc.c ****             cdcComNums |= (uint8)(USBUART_COM_PORT2 << USBUART_CDC_OUT_EP);
 1890              		.loc 1 1096 0
 1891 0072 BB78     		ldrb	r3, [r7, #2]
 1892 0074 43F00203 		orr	r3, r3, #2
 1893 0078 BB70     		strb	r3, [r7, #2]
 1894              	.L127:
1097:Generated_Source\PSoC5/USBUART_cdc.c ****         }
1098:Generated_Source\PSoC5/USBUART_cdc.c ****     }
1099:Generated_Source\PSoC5/USBUART_cdc.c ****     return (cdcComNums);
 1895              		.loc 1 1099 0
 1896 007a BB78     		ldrb	r3, [r7, #2]	@ zero_extendqisi2
1100:Generated_Source\PSoC5/USBUART_cdc.c **** }
 1897              		.loc 1 1100 0
 1898 007c 1846     		mov	r0, r3
 1899 007e 1437     		adds	r7, r7, #20
 1900              		.cfi_def_cfa_offset 4
 1901 0080 BD46     		mov	sp, r7
ARM GAS  C:\Users\Greg\AppData\Local\Temp\ccDYSYHP.s 			page 54


 1902              		.cfi_def_cfa_register 13
 1903              		@ sp needed
 1904 0082 5DF8047B 		ldr	r7, [sp], #4
 1905              		.cfi_restore 7
 1906              		.cfi_def_cfa_offset 0
 1907 0086 7047     		bx	lr
 1908              	.L130:
 1909              		.align	2
 1910              	.L129:
 1911 0088 00000000 		.word	USBUART_cdcDataInEp
 1912 008c 00000000 		.word	USBUART_cdcCommInInterruptEp
 1913 0090 00000000 		.word	USBUART_cdcDataOutEp
 1914              		.cfi_endproc
 1915              	.LFE25:
 1916              		.size	USBUART_Cdc_EpInit, .-USBUART_Cdc_EpInit
 1917              		.text
 1918              	.Letext0:
 1919              		.file 2 "Generated_Source\\PSoC5\\cytypes.h"
 1920              		.file 3 "Generated_Source\\PSoC5\\USBUART.h"
 1921              		.file 4 "Generated_Source\\PSoC5\\USBUART_pvt.h"