ARM GAS  C:\Users\Greg\AppData\Local\Temp\ccWhExNe.s 			page 1


   1              		.syntax unified
   2              		.cpu cortex-m3
   3              		.fpu softvfp
   4              		.eabi_attribute 20, 1
   5              		.eabi_attribute 21, 1
   6              		.eabi_attribute 23, 3
   7              		.eabi_attribute 24, 1
   8              		.eabi_attribute 25, 1
   9              		.eabi_attribute 26, 1
  10              		.eabi_attribute 30, 6
  11              		.eabi_attribute 34, 1
  12              		.eabi_attribute 18, 4
  13              		.thumb
  14              		.file	"USBUART_drv.c"
  15              		.text
  16              	.Ltext0:
  17              		.cfi_sections	.debug_frame
  18              		.comm	USBUART_EP,108,4
  19              		.comm	USBUART_configuration,1,1
  20              		.comm	USBUART_interfaceNumber,1,1
  21              		.comm	USBUART_configurationChanged,1,1
  22              		.comm	USBUART_deviceAddress,1,1
  23              		.comm	USBUART_deviceStatus,1,1
  24              		.comm	USBUART_interfaceSetting,2,4
  25              		.comm	USBUART_interfaceSettingLast,2,4
  26              		.comm	USBUART_interfaceStatus,2,4
  27              		.comm	USBUART_device,1,1
  28              		.comm	USBUART_interfaceClass,4,4
  29              		.comm	USBUART_ep0Toggle,1,1
  30              		.comm	USBUART_lastPacketSize,1,1
  31              		.comm	USBUART_transferState,1,1
  32              		.comm	USBUART_currentTD,12,4
  33              		.comm	USBUART_ep0Mode,1,1
  34              		.comm	USBUART_ep0Count,1,1
  35              		.comm	USBUART_transferByteCount,2,2
  36              		.section	.text.USBUART_EP_0_ISR,"ax",%progbits
  37              		.align	2
  38              		.global	USBUART_EP_0_ISR
  39              		.thumb
  40              		.thumb_func
  41              		.type	USBUART_EP_0_ISR, %function
  42              	USBUART_EP_0_ISR:
  43              	.LFB0:
  44              		.file 1 "Generated_Source\\PSoC5\\USBUART_drv.c"
   1:Generated_Source\PSoC5/USBUART_drv.c **** /***************************************************************************//**
   2:Generated_Source\PSoC5/USBUART_drv.c **** * \file USBUART_drv.c
   3:Generated_Source\PSoC5/USBUART_drv.c **** * \version 3.10
   4:Generated_Source\PSoC5/USBUART_drv.c **** *
   5:Generated_Source\PSoC5/USBUART_drv.c **** * \brief
   6:Generated_Source\PSoC5/USBUART_drv.c **** *  This file contains the Endpoint 0 Driver for the USBFS Component.  
   7:Generated_Source\PSoC5/USBUART_drv.c **** *
   8:Generated_Source\PSoC5/USBUART_drv.c **** ********************************************************************************
   9:Generated_Source\PSoC5/USBUART_drv.c **** * \copyright
  10:Generated_Source\PSoC5/USBUART_drv.c **** * Copyright 2008-2016, Cypress Semiconductor Corporation.  All rights reserved.
  11:Generated_Source\PSoC5/USBUART_drv.c **** * You may use this file only in accordance with the license, terms, conditions,
  12:Generated_Source\PSoC5/USBUART_drv.c **** * disclaimers, and limitations in the end user license agreement accompanying
  13:Generated_Source\PSoC5/USBUART_drv.c **** * the software package with which this file was provided.
ARM GAS  C:\Users\Greg\AppData\Local\Temp\ccWhExNe.s 			page 2


  14:Generated_Source\PSoC5/USBUART_drv.c **** *******************************************************************************/
  15:Generated_Source\PSoC5/USBUART_drv.c **** 
  16:Generated_Source\PSoC5/USBUART_drv.c **** #include "USBUART_pvt.h"
  17:Generated_Source\PSoC5/USBUART_drv.c **** 
  18:Generated_Source\PSoC5/USBUART_drv.c **** 
  19:Generated_Source\PSoC5/USBUART_drv.c **** 
  20:Generated_Source\PSoC5/USBUART_drv.c **** /***************************************
  21:Generated_Source\PSoC5/USBUART_drv.c **** * Global data allocation
  22:Generated_Source\PSoC5/USBUART_drv.c **** ***************************************/
  23:Generated_Source\PSoC5/USBUART_drv.c **** 
  24:Generated_Source\PSoC5/USBUART_drv.c **** volatile T_USBUART_EP_CTL_BLOCK USBUART_EP[USBUART_MAX_EP];
  25:Generated_Source\PSoC5/USBUART_drv.c **** 
  26:Generated_Source\PSoC5/USBUART_drv.c **** /** Contains the current configuration number, which is set by the host using a 
  27:Generated_Source\PSoC5/USBUART_drv.c ****  * SET_CONFIGURATION request. This variable is initialized to zero in 
  28:Generated_Source\PSoC5/USBUART_drv.c ****  * USBFS_InitComponent() API and can be read by the USBFS_GetConfiguration() 
  29:Generated_Source\PSoC5/USBUART_drv.c ****  * API.*/
  30:Generated_Source\PSoC5/USBUART_drv.c **** volatile uint8 USBUART_configuration;
  31:Generated_Source\PSoC5/USBUART_drv.c **** 
  32:Generated_Source\PSoC5/USBUART_drv.c **** /** Contains the current interface number.*/
  33:Generated_Source\PSoC5/USBUART_drv.c **** volatile uint8 USBUART_interfaceNumber;
  34:Generated_Source\PSoC5/USBUART_drv.c **** 
  35:Generated_Source\PSoC5/USBUART_drv.c **** /** This variable is set to one after SET_CONFIGURATION and SET_INTERFACE 
  36:Generated_Source\PSoC5/USBUART_drv.c ****  *requests. It can be read by the USBFS_IsConfigurationChanged() API */
  37:Generated_Source\PSoC5/USBUART_drv.c **** volatile uint8 USBUART_configurationChanged;
  38:Generated_Source\PSoC5/USBUART_drv.c **** 
  39:Generated_Source\PSoC5/USBUART_drv.c **** /** Contains the current device address.*/
  40:Generated_Source\PSoC5/USBUART_drv.c **** volatile uint8 USBUART_deviceAddress;
  41:Generated_Source\PSoC5/USBUART_drv.c **** 
  42:Generated_Source\PSoC5/USBUART_drv.c **** /** This is a two-bit variable that contains power status in the bit 0 
  43:Generated_Source\PSoC5/USBUART_drv.c ****  * (DEVICE_STATUS_BUS_POWERED or DEVICE_STATUS_SELF_POWERED) and remote wakeup 
  44:Generated_Source\PSoC5/USBUART_drv.c ****  * status (DEVICE_STATUS_REMOTE_WAKEUP) in the bit 1. This variable is 
  45:Generated_Source\PSoC5/USBUART_drv.c ****  * initialized to zero in USBFS_InitComponent() API, configured by the 
  46:Generated_Source\PSoC5/USBUART_drv.c ****  * USBFS_SetPowerStatus() API. The remote wakeup status cannot be set using the 
  47:Generated_Source\PSoC5/USBUART_drv.c ****  * API SetPowerStatus(). */
  48:Generated_Source\PSoC5/USBUART_drv.c **** volatile uint8 USBUART_deviceStatus;
  49:Generated_Source\PSoC5/USBUART_drv.c **** 
  50:Generated_Source\PSoC5/USBUART_drv.c **** volatile uint8 USBUART_interfaceSetting[USBUART_MAX_INTERFACES_NUMBER];
  51:Generated_Source\PSoC5/USBUART_drv.c **** volatile uint8 USBUART_interfaceSetting_last[USBUART_MAX_INTERFACES_NUMBER];
  52:Generated_Source\PSoC5/USBUART_drv.c **** volatile uint8 USBUART_interfaceStatus[USBUART_MAX_INTERFACES_NUMBER];
  53:Generated_Source\PSoC5/USBUART_drv.c **** 
  54:Generated_Source\PSoC5/USBUART_drv.c **** /** Contains the started device number. This variable is set by the 
  55:Generated_Source\PSoC5/USBUART_drv.c ****  * USBFS_Start() or USBFS_InitComponent() APIs.*/
  56:Generated_Source\PSoC5/USBUART_drv.c **** volatile uint8 USBUART_device;
  57:Generated_Source\PSoC5/USBUART_drv.c **** 
  58:Generated_Source\PSoC5/USBUART_drv.c **** /** Initialized class array for each interface. It is used for handling Class 
  59:Generated_Source\PSoC5/USBUART_drv.c ****  * specific requests depend on interface class. Different classes in multiple 
  60:Generated_Source\PSoC5/USBUART_drv.c ****  * alternate settings are not supported.*/
  61:Generated_Source\PSoC5/USBUART_drv.c **** const uint8 CYCODE *USBUART_interfaceClass;
  62:Generated_Source\PSoC5/USBUART_drv.c **** 
  63:Generated_Source\PSoC5/USBUART_drv.c **** 
  64:Generated_Source\PSoC5/USBUART_drv.c **** /***************************************
  65:Generated_Source\PSoC5/USBUART_drv.c **** * Local data allocation
  66:Generated_Source\PSoC5/USBUART_drv.c **** ***************************************/
  67:Generated_Source\PSoC5/USBUART_drv.c **** 
  68:Generated_Source\PSoC5/USBUART_drv.c **** volatile uint8  USBUART_ep0Toggle;
  69:Generated_Source\PSoC5/USBUART_drv.c **** volatile uint8  USBUART_lastPacketSize;
  70:Generated_Source\PSoC5/USBUART_drv.c **** 
ARM GAS  C:\Users\Greg\AppData\Local\Temp\ccWhExNe.s 			page 3


  71:Generated_Source\PSoC5/USBUART_drv.c **** /** This variable is used by the communication functions to handle the current 
  72:Generated_Source\PSoC5/USBUART_drv.c **** * transfer state.
  73:Generated_Source\PSoC5/USBUART_drv.c **** * Initialized to TRANS_STATE_IDLE in the USBFS_InitComponent() API and after a 
  74:Generated_Source\PSoC5/USBUART_drv.c **** * complete transfer in the status stage.
  75:Generated_Source\PSoC5/USBUART_drv.c **** * Changed to the TRANS_STATE_CONTROL_READ or TRANS_STATE_CONTROL_WRITE in setup 
  76:Generated_Source\PSoC5/USBUART_drv.c **** * transaction depending on the request type.
  77:Generated_Source\PSoC5/USBUART_drv.c **** */
  78:Generated_Source\PSoC5/USBUART_drv.c **** volatile uint8  USBUART_transferState;
  79:Generated_Source\PSoC5/USBUART_drv.c **** volatile T_USBUART_TD USBUART_currentTD;
  80:Generated_Source\PSoC5/USBUART_drv.c **** volatile uint8  USBUART_ep0Mode;
  81:Generated_Source\PSoC5/USBUART_drv.c **** volatile uint8  USBUART_ep0Count;
  82:Generated_Source\PSoC5/USBUART_drv.c **** volatile uint16 USBUART_transferByteCount;
  83:Generated_Source\PSoC5/USBUART_drv.c **** 
  84:Generated_Source\PSoC5/USBUART_drv.c **** 
  85:Generated_Source\PSoC5/USBUART_drv.c **** /*******************************************************************************
  86:Generated_Source\PSoC5/USBUART_drv.c **** * Function Name: USBUART_ep_0_Interrupt
  87:Generated_Source\PSoC5/USBUART_drv.c **** ****************************************************************************//**
  88:Generated_Source\PSoC5/USBUART_drv.c **** *
  89:Generated_Source\PSoC5/USBUART_drv.c **** *  This Interrupt Service Routine handles Endpoint 0 (Control Pipe) traffic.
  90:Generated_Source\PSoC5/USBUART_drv.c **** *  It dispatches setup requests and handles the data and status stages.
  91:Generated_Source\PSoC5/USBUART_drv.c **** *
  92:Generated_Source\PSoC5/USBUART_drv.c **** *
  93:Generated_Source\PSoC5/USBUART_drv.c **** *******************************************************************************/
  94:Generated_Source\PSoC5/USBUART_drv.c **** CY_ISR(USBUART_EP_0_ISR)
  95:Generated_Source\PSoC5/USBUART_drv.c **** {
  45              		.loc 1 95 0
  46              		.cfi_startproc
  47              		@ args = 0, pretend = 0, frame = 8
  48              		@ frame_needed = 1, uses_anonymous_args = 0
  49 0000 80B5     		push	{r7, lr}
  50              		.cfi_def_cfa_offset 8
  51              		.cfi_offset 7, -8
  52              		.cfi_offset 14, -4
  53 0002 82B0     		sub	sp, sp, #8
  54              		.cfi_def_cfa_offset 16
  55 0004 00AF     		add	r7, sp, #0
  56              		.cfi_def_cfa_register 7
  96:Generated_Source\PSoC5/USBUART_drv.c ****     uint8 tempReg;
  97:Generated_Source\PSoC5/USBUART_drv.c ****     uint8 modifyReg;
  98:Generated_Source\PSoC5/USBUART_drv.c **** 
  99:Generated_Source\PSoC5/USBUART_drv.c **** #ifdef USBUART_EP_0_ISR_ENTRY_CALLBACK
 100:Generated_Source\PSoC5/USBUART_drv.c ****     USBUART_EP_0_ISR_EntryCallback();
 101:Generated_Source\PSoC5/USBUART_drv.c **** #endif /* (USBUART_EP_0_ISR_ENTRY_CALLBACK) */
 102:Generated_Source\PSoC5/USBUART_drv.c ****     
 103:Generated_Source\PSoC5/USBUART_drv.c ****     tempReg = USBUART_EP0_CR_REG;
  57              		.loc 1 103 0
  58 0006 374B     		ldr	r3, .L11
  59 0008 1B78     		ldrb	r3, [r3]
  60 000a BB71     		strb	r3, [r7, #6]
 104:Generated_Source\PSoC5/USBUART_drv.c ****     if ((tempReg & USBUART_MODE_ACKD) != 0u)
  61              		.loc 1 104 0
  62 000c BB79     		ldrb	r3, [r7, #6]	@ zero_extendqisi2
  63 000e 03F01003 		and	r3, r3, #16
  64 0012 002B     		cmp	r3, #0
  65 0014 63D0     		beq	.L1
 105:Generated_Source\PSoC5/USBUART_drv.c ****     {
 106:Generated_Source\PSoC5/USBUART_drv.c ****         modifyReg = 1u;
ARM GAS  C:\Users\Greg\AppData\Local\Temp\ccWhExNe.s 			page 4


  66              		.loc 1 106 0
  67 0016 0123     		movs	r3, #1
  68 0018 FB71     		strb	r3, [r7, #7]
 107:Generated_Source\PSoC5/USBUART_drv.c ****         if ((tempReg & USBUART_MODE_SETUP_RCVD) != 0u)
  69              		.loc 1 107 0
  70 001a BB79     		ldrb	r3, [r7, #6]	@ zero_extendqisi2
  71 001c 5BB2     		sxtb	r3, r3
  72 001e 002B     		cmp	r3, #0
  73 0020 13DA     		bge	.L3
 108:Generated_Source\PSoC5/USBUART_drv.c ****         {
 109:Generated_Source\PSoC5/USBUART_drv.c ****             if ((tempReg & USBUART_MODE_MASK) != USBUART_MODE_NAK_IN_OUT)
  74              		.loc 1 109 0
  75 0022 BB79     		ldrb	r3, [r7, #6]	@ zero_extendqisi2
  76 0024 03F00F03 		and	r3, r3, #15
  77 0028 012B     		cmp	r3, #1
  78 002a 02D0     		beq	.L4
 110:Generated_Source\PSoC5/USBUART_drv.c ****             {
 111:Generated_Source\PSoC5/USBUART_drv.c ****                 /* Mode not equal to NAK_IN_OUT: invalid setup */
 112:Generated_Source\PSoC5/USBUART_drv.c ****                 modifyReg = 0u;
  79              		.loc 1 112 0
  80 002c 0023     		movs	r3, #0
  81 002e FB71     		strb	r3, [r7, #7]
  82 0030 1DE0     		b	.L6
  83              	.L4:
 113:Generated_Source\PSoC5/USBUART_drv.c ****             }
 114:Generated_Source\PSoC5/USBUART_drv.c ****             else
 115:Generated_Source\PSoC5/USBUART_drv.c ****             {
 116:Generated_Source\PSoC5/USBUART_drv.c ****                 USBUART_HandleSetup();
  84              		.loc 1 116 0
  85 0032 FFF7FEFF 		bl	USBUART_HandleSetup
 117:Generated_Source\PSoC5/USBUART_drv.c ****                 
 118:Generated_Source\PSoC5/USBUART_drv.c ****                 if ((USBUART_ep0Mode & USBUART_MODE_SETUP_RCVD) != 0u)
  86              		.loc 1 118 0
  87 0036 2C4B     		ldr	r3, .L11+4
  88 0038 1B78     		ldrb	r3, [r3]
  89 003a DBB2     		uxtb	r3, r3
  90 003c DBB2     		uxtb	r3, r3
  91 003e 5BB2     		sxtb	r3, r3
  92 0040 002B     		cmp	r3, #0
  93 0042 14DA     		bge	.L6
 119:Generated_Source\PSoC5/USBUART_drv.c ****                 {
 120:Generated_Source\PSoC5/USBUART_drv.c ****                     /* SETUP bit set: exit without mode modificaiton */
 121:Generated_Source\PSoC5/USBUART_drv.c ****                     modifyReg = 0u;
  94              		.loc 1 121 0
  95 0044 0023     		movs	r3, #0
  96 0046 FB71     		strb	r3, [r7, #7]
  97 0048 11E0     		b	.L6
  98              	.L3:
 122:Generated_Source\PSoC5/USBUART_drv.c ****                 }
 123:Generated_Source\PSoC5/USBUART_drv.c ****             }
 124:Generated_Source\PSoC5/USBUART_drv.c ****         }
 125:Generated_Source\PSoC5/USBUART_drv.c ****         else if ((tempReg & USBUART_MODE_IN_RCVD) != 0u)
  99              		.loc 1 125 0
 100 004a BB79     		ldrb	r3, [r7, #6]	@ zero_extendqisi2
 101 004c 03F04003 		and	r3, r3, #64
 102 0050 002B     		cmp	r3, #0
 103 0052 02D0     		beq	.L7
ARM GAS  C:\Users\Greg\AppData\Local\Temp\ccWhExNe.s 			page 5


 126:Generated_Source\PSoC5/USBUART_drv.c ****         {
 127:Generated_Source\PSoC5/USBUART_drv.c ****             USBUART_HandleIN();
 104              		.loc 1 127 0
 105 0054 FFF7FEFF 		bl	USBUART_HandleIN
 106 0058 09E0     		b	.L6
 107              	.L7:
 128:Generated_Source\PSoC5/USBUART_drv.c ****         }
 129:Generated_Source\PSoC5/USBUART_drv.c ****         else if ((tempReg & USBUART_MODE_OUT_RCVD) != 0u)
 108              		.loc 1 129 0
 109 005a BB79     		ldrb	r3, [r7, #6]	@ zero_extendqisi2
 110 005c 03F02003 		and	r3, r3, #32
 111 0060 002B     		cmp	r3, #0
 112 0062 02D0     		beq	.L8
 130:Generated_Source\PSoC5/USBUART_drv.c ****         {
 131:Generated_Source\PSoC5/USBUART_drv.c ****             USBUART_HandleOUT();
 113              		.loc 1 131 0
 114 0064 FFF7FEFF 		bl	USBUART_HandleOUT
 115 0068 01E0     		b	.L6
 116              	.L8:
 132:Generated_Source\PSoC5/USBUART_drv.c ****         }
 133:Generated_Source\PSoC5/USBUART_drv.c ****         else
 134:Generated_Source\PSoC5/USBUART_drv.c ****         {
 135:Generated_Source\PSoC5/USBUART_drv.c ****             modifyReg = 0u;
 117              		.loc 1 135 0
 118 006a 0023     		movs	r3, #0
 119 006c FB71     		strb	r3, [r7, #7]
 120              	.L6:
 136:Generated_Source\PSoC5/USBUART_drv.c ****         }
 137:Generated_Source\PSoC5/USBUART_drv.c ****         
 138:Generated_Source\PSoC5/USBUART_drv.c ****         /* Modify the EP0_CR register */
 139:Generated_Source\PSoC5/USBUART_drv.c ****         if (modifyReg != 0u)
 121              		.loc 1 139 0
 122 006e FB79     		ldrb	r3, [r7, #7]	@ zero_extendqisi2
 123 0070 002B     		cmp	r3, #0
 124 0072 34D0     		beq	.L1
 140:Generated_Source\PSoC5/USBUART_drv.c ****         {
 141:Generated_Source\PSoC5/USBUART_drv.c ****             
 142:Generated_Source\PSoC5/USBUART_drv.c ****             tempReg = USBUART_EP0_CR_REG;
 125              		.loc 1 142 0
 126 0074 1B4B     		ldr	r3, .L11
 127 0076 1B78     		ldrb	r3, [r3]
 128 0078 BB71     		strb	r3, [r7, #6]
 143:Generated_Source\PSoC5/USBUART_drv.c ****             
 144:Generated_Source\PSoC5/USBUART_drv.c ****             /* Make sure that SETUP bit is cleared before modification */
 145:Generated_Source\PSoC5/USBUART_drv.c ****             if ((tempReg & USBUART_MODE_SETUP_RCVD) == 0u)
 129              		.loc 1 145 0
 130 007a BB79     		ldrb	r3, [r7, #6]	@ zero_extendqisi2
 131 007c 5BB2     		sxtb	r3, r3
 132 007e 002B     		cmp	r3, #0
 133 0080 2DDB     		blt	.L1
 146:Generated_Source\PSoC5/USBUART_drv.c ****             {
 147:Generated_Source\PSoC5/USBUART_drv.c ****                 /* Update count register */
 148:Generated_Source\PSoC5/USBUART_drv.c ****                 tempReg = (uint8) USBUART_ep0Toggle | USBUART_ep0Count;
 134              		.loc 1 148 0
 135 0082 1A4B     		ldr	r3, .L11+8
 136 0084 1B78     		ldrb	r3, [r3]
 137 0086 DAB2     		uxtb	r2, r3
ARM GAS  C:\Users\Greg\AppData\Local\Temp\ccWhExNe.s 			page 6


 138 0088 194B     		ldr	r3, .L11+12
 139 008a 1B78     		ldrb	r3, [r3]
 140 008c DBB2     		uxtb	r3, r3
 141 008e 1343     		orrs	r3, r3, r2
 142 0090 BB71     		strb	r3, [r7, #6]
 149:Generated_Source\PSoC5/USBUART_drv.c ****                 USBUART_EP0_CNT_REG = tempReg;
 143              		.loc 1 149 0
 144 0092 184A     		ldr	r2, .L11+16
 145 0094 BB79     		ldrb	r3, [r7, #6]
 146 0096 1370     		strb	r3, [r2]
 150:Generated_Source\PSoC5/USBUART_drv.c ****                
 151:Generated_Source\PSoC5/USBUART_drv.c ****                 /* Make sure that previous write operaiton was successful */
 152:Generated_Source\PSoC5/USBUART_drv.c ****                 if (tempReg == USBUART_EP0_CNT_REG)
 147              		.loc 1 152 0
 148 0098 164B     		ldr	r3, .L11+16
 149 009a 1B78     		ldrb	r3, [r3]
 150 009c DBB2     		uxtb	r3, r3
 151 009e BA79     		ldrb	r2, [r7, #6]	@ zero_extendqisi2
 152 00a0 9A42     		cmp	r2, r3
 153 00a2 1CD1     		bne	.L1
 154              	.L10:
 153:Generated_Source\PSoC5/USBUART_drv.c ****                 {
 154:Generated_Source\PSoC5/USBUART_drv.c ****                     /* Repeat until next successful write operation */
 155:Generated_Source\PSoC5/USBUART_drv.c ****                     do
 156:Generated_Source\PSoC5/USBUART_drv.c ****                     {
 157:Generated_Source\PSoC5/USBUART_drv.c ****                         /* Init temporary variable */
 158:Generated_Source\PSoC5/USBUART_drv.c ****                         modifyReg = USBUART_ep0Mode;
 155              		.loc 1 158 0
 156 00a4 104B     		ldr	r3, .L11+4
 157 00a6 1B78     		ldrb	r3, [r3]
 158 00a8 FB71     		strb	r3, [r7, #7]
 159:Generated_Source\PSoC5/USBUART_drv.c ****                         
 160:Generated_Source\PSoC5/USBUART_drv.c ****                         /* Unlock register */
 161:Generated_Source\PSoC5/USBUART_drv.c ****                         tempReg = (uint8) (USBUART_EP0_CR_REG & USBUART_MODE_SETUP_RCVD);
 159              		.loc 1 161 0
 160 00aa 0E4B     		ldr	r3, .L11
 161 00ac 1B78     		ldrb	r3, [r3]
 162 00ae DBB2     		uxtb	r3, r3
 163 00b0 23F07F03 		bic	r3, r3, #127
 164 00b4 BB71     		strb	r3, [r7, #6]
 162:Generated_Source\PSoC5/USBUART_drv.c ****                         
 163:Generated_Source\PSoC5/USBUART_drv.c ****                         /* Check if SETUP bit is not set */
 164:Generated_Source\PSoC5/USBUART_drv.c ****                         if (0u == tempReg)
 165              		.loc 1 164 0
 166 00b6 BB79     		ldrb	r3, [r7, #6]	@ zero_extendqisi2
 167 00b8 002B     		cmp	r3, #0
 168 00ba 0AD1     		bne	.L9
 165:Generated_Source\PSoC5/USBUART_drv.c ****                         {
 166:Generated_Source\PSoC5/USBUART_drv.c ****                             /* Set the Mode Register  */
 167:Generated_Source\PSoC5/USBUART_drv.c ****                             USBUART_EP0_CR_REG = USBUART_ep0Mode;
 169              		.loc 1 167 0
 170 00bc 094B     		ldr	r3, .L11
 171 00be 0A4A     		ldr	r2, .L11+4
 172 00c0 1278     		ldrb	r2, [r2]
 173 00c2 D2B2     		uxtb	r2, r2
 174 00c4 1A70     		strb	r2, [r3]
 168:Generated_Source\PSoC5/USBUART_drv.c ****                             
ARM GAS  C:\Users\Greg\AppData\Local\Temp\ccWhExNe.s 			page 7


 169:Generated_Source\PSoC5/USBUART_drv.c ****                             /* Writing check */
 170:Generated_Source\PSoC5/USBUART_drv.c ****                             modifyReg = USBUART_EP0_CR_REG & USBUART_MODE_MASK;
 175              		.loc 1 170 0
 176 00c6 074B     		ldr	r3, .L11
 177 00c8 1B78     		ldrb	r3, [r3]
 178 00ca DBB2     		uxtb	r3, r3
 179 00cc 03F00F03 		and	r3, r3, #15
 180 00d0 FB71     		strb	r3, [r7, #7]
 181              	.L9:
 171:Generated_Source\PSoC5/USBUART_drv.c ****                         }
 172:Generated_Source\PSoC5/USBUART_drv.c ****                     }
 173:Generated_Source\PSoC5/USBUART_drv.c ****                     while (modifyReg != USBUART_ep0Mode);
 182              		.loc 1 173 0
 183 00d2 054B     		ldr	r3, .L11+4
 184 00d4 1B78     		ldrb	r3, [r3]
 185 00d6 DBB2     		uxtb	r3, r3
 186 00d8 FA79     		ldrb	r2, [r7, #7]	@ zero_extendqisi2
 187 00da 9A42     		cmp	r2, r3
 188 00dc E2D1     		bne	.L10
 189              	.L1:
 174:Generated_Source\PSoC5/USBUART_drv.c ****                 }
 175:Generated_Source\PSoC5/USBUART_drv.c ****             }
 176:Generated_Source\PSoC5/USBUART_drv.c ****         }
 177:Generated_Source\PSoC5/USBUART_drv.c ****     }
 178:Generated_Source\PSoC5/USBUART_drv.c **** 
 179:Generated_Source\PSoC5/USBUART_drv.c ****     USBUART_ClearSieInterruptSource(USBUART_INTR_SIE_EP0_INTR);
 180:Generated_Source\PSoC5/USBUART_drv.c **** 	
 181:Generated_Source\PSoC5/USBUART_drv.c **** #ifdef USBUART_EP_0_ISR_EXIT_CALLBACK
 182:Generated_Source\PSoC5/USBUART_drv.c ****     USBUART_EP_0_ISR_ExitCallback();
 183:Generated_Source\PSoC5/USBUART_drv.c **** #endif /* (USBUART_EP_0_ISR_EXIT_CALLBACK) */
 184:Generated_Source\PSoC5/USBUART_drv.c **** }
 190              		.loc 1 184 0
 191 00de 0837     		adds	r7, r7, #8
 192              		.cfi_def_cfa_offset 8
 193 00e0 BD46     		mov	sp, r7
 194              		.cfi_def_cfa_register 13
 195              		@ sp needed
 196 00e2 80BD     		pop	{r7, pc}
 197              	.L12:
 198              		.align	2
 199              	.L11:
 200 00e4 28600040 		.word	1073766440
 201 00e8 00000000 		.word	USBUART_ep0Mode
 202 00ec 00000000 		.word	USBUART_ep0Toggle
 203 00f0 00000000 		.word	USBUART_ep0Count
 204 00f4 29600040 		.word	1073766441
 205              		.cfi_endproc
 206              	.LFE0:
 207              		.size	USBUART_EP_0_ISR, .-USBUART_EP_0_ISR
 208              		.section	.text.USBUART_HandleSetup,"ax",%progbits
 209              		.align	2
 210              		.global	USBUART_HandleSetup
 211              		.thumb
 212              		.thumb_func
 213              		.type	USBUART_HandleSetup, %function
 214              	USBUART_HandleSetup:
 215              	.LFB1:
ARM GAS  C:\Users\Greg\AppData\Local\Temp\ccWhExNe.s 			page 8


 185:Generated_Source\PSoC5/USBUART_drv.c **** 
 186:Generated_Source\PSoC5/USBUART_drv.c **** 
 187:Generated_Source\PSoC5/USBUART_drv.c **** /*******************************************************************************
 188:Generated_Source\PSoC5/USBUART_drv.c **** * Function Name: USBUART_HandleSetup
 189:Generated_Source\PSoC5/USBUART_drv.c **** ****************************************************************************//**
 190:Generated_Source\PSoC5/USBUART_drv.c **** *
 191:Generated_Source\PSoC5/USBUART_drv.c **** *  This Routine dispatches requests for the four USB request types
 192:Generated_Source\PSoC5/USBUART_drv.c **** *
 193:Generated_Source\PSoC5/USBUART_drv.c **** *
 194:Generated_Source\PSoC5/USBUART_drv.c **** * \reentrant
 195:Generated_Source\PSoC5/USBUART_drv.c **** *  No.
 196:Generated_Source\PSoC5/USBUART_drv.c **** *
 197:Generated_Source\PSoC5/USBUART_drv.c **** *******************************************************************************/
 198:Generated_Source\PSoC5/USBUART_drv.c **** void USBUART_HandleSetup(void) 
 199:Generated_Source\PSoC5/USBUART_drv.c **** {
 216              		.loc 1 199 0
 217              		.cfi_startproc
 218              		@ args = 0, pretend = 0, frame = 8
 219              		@ frame_needed = 1, uses_anonymous_args = 0
 220 0000 80B5     		push	{r7, lr}
 221              		.cfi_def_cfa_offset 8
 222              		.cfi_offset 7, -8
 223              		.cfi_offset 14, -4
 224 0002 82B0     		sub	sp, sp, #8
 225              		.cfi_def_cfa_offset 16
 226 0004 00AF     		add	r7, sp, #0
 227              		.cfi_def_cfa_register 7
 200:Generated_Source\PSoC5/USBUART_drv.c ****     uint8 requestHandled;
 201:Generated_Source\PSoC5/USBUART_drv.c ****     
 202:Generated_Source\PSoC5/USBUART_drv.c ****     /* Clear register lock by SIE (read register) and clear setup bit 
 203:Generated_Source\PSoC5/USBUART_drv.c ****     * (write any value in register).
 204:Generated_Source\PSoC5/USBUART_drv.c ****     */
 205:Generated_Source\PSoC5/USBUART_drv.c ****     requestHandled = (uint8) USBUART_EP0_CR_REG;
 228              		.loc 1 205 0
 229 0006 1D4B     		ldr	r3, .L22
 230 0008 1B78     		ldrb	r3, [r3]
 231 000a FB71     		strb	r3, [r7, #7]
 206:Generated_Source\PSoC5/USBUART_drv.c ****     USBUART_EP0_CR_REG = (uint8) requestHandled;
 232              		.loc 1 206 0
 233 000c 1B4A     		ldr	r2, .L22
 234 000e FB79     		ldrb	r3, [r7, #7]
 235 0010 1370     		strb	r3, [r2]
 207:Generated_Source\PSoC5/USBUART_drv.c ****     requestHandled = (uint8) USBUART_EP0_CR_REG;
 236              		.loc 1 207 0
 237 0012 1A4B     		ldr	r3, .L22
 238 0014 1B78     		ldrb	r3, [r3]
 239 0016 FB71     		strb	r3, [r7, #7]
 208:Generated_Source\PSoC5/USBUART_drv.c **** 
 209:Generated_Source\PSoC5/USBUART_drv.c ****     if ((requestHandled & USBUART_MODE_SETUP_RCVD) != 0u)
 240              		.loc 1 209 0
 241 0018 FB79     		ldrb	r3, [r7, #7]	@ zero_extendqisi2
 242 001a 5BB2     		sxtb	r3, r3
 243 001c 002B     		cmp	r3, #0
 244 001e 03DA     		bge	.L14
 210:Generated_Source\PSoC5/USBUART_drv.c ****     {
 211:Generated_Source\PSoC5/USBUART_drv.c ****         /* SETUP bit is set: exit without mode modification. */
 212:Generated_Source\PSoC5/USBUART_drv.c ****         USBUART_ep0Mode = requestHandled;
ARM GAS  C:\Users\Greg\AppData\Local\Temp\ccWhExNe.s 			page 9


 245              		.loc 1 212 0
 246 0020 174A     		ldr	r2, .L22+4
 247 0022 FB79     		ldrb	r3, [r7, #7]
 248 0024 1370     		strb	r3, [r2]
 249 0026 25E0     		b	.L13
 250              	.L14:
 213:Generated_Source\PSoC5/USBUART_drv.c ****     }
 214:Generated_Source\PSoC5/USBUART_drv.c ****     else
 215:Generated_Source\PSoC5/USBUART_drv.c ****     {
 216:Generated_Source\PSoC5/USBUART_drv.c ****         /* In case the previous transfer did not complete, close it out */
 217:Generated_Source\PSoC5/USBUART_drv.c ****         USBUART_UpdateStatusBlock(USBUART_XFER_PREMATURE);
 251              		.loc 1 217 0
 252 0028 0220     		movs	r0, #2
 253 002a FFF7FEFF 		bl	USBUART_UpdateStatusBlock
 218:Generated_Source\PSoC5/USBUART_drv.c **** 
 219:Generated_Source\PSoC5/USBUART_drv.c ****         /* Check request type. */
 220:Generated_Source\PSoC5/USBUART_drv.c ****         switch (USBUART_bmRequestTypeReg & USBUART_RQST_TYPE_MASK)
 254              		.loc 1 220 0
 255 002e 154B     		ldr	r3, .L22+8
 256 0030 1B78     		ldrb	r3, [r3]
 257 0032 DBB2     		uxtb	r3, r3
 258 0034 03F06003 		and	r3, r3, #96
 259 0038 202B     		cmp	r3, #32
 260 003a 08D0     		beq	.L17
 261 003c 402B     		cmp	r3, #64
 262 003e 0BD0     		beq	.L18
 263 0040 002B     		cmp	r3, #0
 264 0042 0ED1     		bne	.L21
 221:Generated_Source\PSoC5/USBUART_drv.c ****         {
 222:Generated_Source\PSoC5/USBUART_drv.c ****             case USBUART_RQST_TYPE_STD:
 223:Generated_Source\PSoC5/USBUART_drv.c ****                 requestHandled = USBUART_HandleStandardRqst();
 265              		.loc 1 223 0
 266 0044 FFF7FEFF 		bl	USBUART_HandleStandardRqst
 267 0048 0346     		mov	r3, r0
 268 004a FB71     		strb	r3, [r7, #7]
 224:Generated_Source\PSoC5/USBUART_drv.c ****                 break;
 269              		.loc 1 224 0
 270 004c 0CE0     		b	.L20
 271              	.L17:
 225:Generated_Source\PSoC5/USBUART_drv.c ****                 
 226:Generated_Source\PSoC5/USBUART_drv.c ****             case USBUART_RQST_TYPE_CLS:
 227:Generated_Source\PSoC5/USBUART_drv.c ****                 requestHandled = USBUART_DispatchClassRqst();
 272              		.loc 1 227 0
 273 004e FFF7FEFF 		bl	USBUART_DispatchClassRqst
 274 0052 0346     		mov	r3, r0
 275 0054 FB71     		strb	r3, [r7, #7]
 228:Generated_Source\PSoC5/USBUART_drv.c ****                 break;
 276              		.loc 1 228 0
 277 0056 07E0     		b	.L20
 278              	.L18:
 229:Generated_Source\PSoC5/USBUART_drv.c ****                 
 230:Generated_Source\PSoC5/USBUART_drv.c ****             case USBUART_RQST_TYPE_VND:
 231:Generated_Source\PSoC5/USBUART_drv.c ****                 requestHandled = USBUART_HandleVendorRqst();
 279              		.loc 1 231 0
 280 0058 FFF7FEFF 		bl	USBUART_HandleVendorRqst
 281 005c 0346     		mov	r3, r0
 282 005e FB71     		strb	r3, [r7, #7]
ARM GAS  C:\Users\Greg\AppData\Local\Temp\ccWhExNe.s 			page 10


 232:Generated_Source\PSoC5/USBUART_drv.c ****                 break;
 283              		.loc 1 232 0
 284 0060 02E0     		b	.L20
 285              	.L21:
 233:Generated_Source\PSoC5/USBUART_drv.c ****                 
 234:Generated_Source\PSoC5/USBUART_drv.c ****             default:
 235:Generated_Source\PSoC5/USBUART_drv.c ****                 requestHandled = USBUART_FALSE;
 286              		.loc 1 235 0
 287 0062 0023     		movs	r3, #0
 288 0064 FB71     		strb	r3, [r7, #7]
 236:Generated_Source\PSoC5/USBUART_drv.c ****                 break;
 289              		.loc 1 236 0
 290 0066 00BF     		nop
 291              	.L20:
 237:Generated_Source\PSoC5/USBUART_drv.c ****         }
 238:Generated_Source\PSoC5/USBUART_drv.c ****         
 239:Generated_Source\PSoC5/USBUART_drv.c ****         /* If request is not recognized. Stall endpoint 0 IN and OUT. */
 240:Generated_Source\PSoC5/USBUART_drv.c ****         if (requestHandled == USBUART_FALSE)
 292              		.loc 1 240 0
 293 0068 FB79     		ldrb	r3, [r7, #7]	@ zero_extendqisi2
 294 006a 002B     		cmp	r3, #0
 295 006c 02D1     		bne	.L13
 241:Generated_Source\PSoC5/USBUART_drv.c ****         {
 242:Generated_Source\PSoC5/USBUART_drv.c ****             USBUART_ep0Mode = USBUART_MODE_STALL_IN_OUT;
 296              		.loc 1 242 0
 297 006e 044B     		ldr	r3, .L22+4
 298 0070 0322     		movs	r2, #3
 299 0072 1A70     		strb	r2, [r3]
 300              	.L13:
 243:Generated_Source\PSoC5/USBUART_drv.c ****         }
 244:Generated_Source\PSoC5/USBUART_drv.c ****     }
 245:Generated_Source\PSoC5/USBUART_drv.c **** }
 301              		.loc 1 245 0
 302 0074 0837     		adds	r7, r7, #8
 303              		.cfi_def_cfa_offset 8
 304 0076 BD46     		mov	sp, r7
 305              		.cfi_def_cfa_register 13
 306              		@ sp needed
 307 0078 80BD     		pop	{r7, pc}
 308              	.L23:
 309 007a 00BF     		.align	2
 310              	.L22:
 311 007c 28600040 		.word	1073766440
 312 0080 00000000 		.word	USBUART_ep0Mode
 313 0084 00600040 		.word	1073766400
 314              		.cfi_endproc
 315              	.LFE1:
 316              		.size	USBUART_HandleSetup, .-USBUART_HandleSetup
 317              		.section	.text.USBUART_HandleIN,"ax",%progbits
 318              		.align	2
 319              		.global	USBUART_HandleIN
 320              		.thumb
 321              		.thumb_func
 322              		.type	USBUART_HandleIN, %function
 323              	USBUART_HandleIN:
 324              	.LFB2:
 246:Generated_Source\PSoC5/USBUART_drv.c **** 
ARM GAS  C:\Users\Greg\AppData\Local\Temp\ccWhExNe.s 			page 11


 247:Generated_Source\PSoC5/USBUART_drv.c **** 
 248:Generated_Source\PSoC5/USBUART_drv.c **** /*******************************************************************************
 249:Generated_Source\PSoC5/USBUART_drv.c **** * Function Name: USBUART_HandleIN
 250:Generated_Source\PSoC5/USBUART_drv.c **** ****************************************************************************//**
 251:Generated_Source\PSoC5/USBUART_drv.c **** *
 252:Generated_Source\PSoC5/USBUART_drv.c **** *  This routine handles EP0 IN transfers.
 253:Generated_Source\PSoC5/USBUART_drv.c **** *
 254:Generated_Source\PSoC5/USBUART_drv.c **** *
 255:Generated_Source\PSoC5/USBUART_drv.c **** * \reentrant
 256:Generated_Source\PSoC5/USBUART_drv.c **** *  No.
 257:Generated_Source\PSoC5/USBUART_drv.c **** *
 258:Generated_Source\PSoC5/USBUART_drv.c **** *******************************************************************************/
 259:Generated_Source\PSoC5/USBUART_drv.c **** void USBUART_HandleIN(void) 
 260:Generated_Source\PSoC5/USBUART_drv.c **** {
 325              		.loc 1 260 0
 326              		.cfi_startproc
 327              		@ args = 0, pretend = 0, frame = 0
 328              		@ frame_needed = 1, uses_anonymous_args = 0
 329 0000 80B5     		push	{r7, lr}
 330              		.cfi_def_cfa_offset 8
 331              		.cfi_offset 7, -8
 332              		.cfi_offset 14, -4
 333 0002 00AF     		add	r7, sp, #0
 334              		.cfi_def_cfa_register 7
 261:Generated_Source\PSoC5/USBUART_drv.c ****     switch (USBUART_transferState)
 335              		.loc 1 261 0
 336 0004 104B     		ldr	r3, .L33
 337 0006 1B78     		ldrb	r3, [r3]
 338 0008 DBB2     		uxtb	r3, r3
 339 000a 062B     		cmp	r3, #6
 340 000c 19D8     		bhi	.L32
 341 000e 01A2     		adr	r2, .L27
 342 0010 52F823F0 		ldr	pc, [r2, r3, lsl #2]
 343              		.p2align 2
 344              	.L27:
 345 0014 43000000 		.word	.L32+1
 346 0018 43000000 		.word	.L32+1
 347 001c 31000000 		.word	.L28+1
 348 0020 43000000 		.word	.L32+1
 349 0024 37000000 		.word	.L29+1
 350 0028 43000000 		.word	.L32+1
 351 002c 3D000000 		.word	.L30+1
 352              		.p2align 1
 353              	.L28:
 262:Generated_Source\PSoC5/USBUART_drv.c ****     {
 263:Generated_Source\PSoC5/USBUART_drv.c ****         case USBUART_TRANS_STATE_IDLE:
 264:Generated_Source\PSoC5/USBUART_drv.c ****             break;
 265:Generated_Source\PSoC5/USBUART_drv.c ****         
 266:Generated_Source\PSoC5/USBUART_drv.c ****         case USBUART_TRANS_STATE_CONTROL_READ:
 267:Generated_Source\PSoC5/USBUART_drv.c ****             USBUART_ControlReadDataStage();
 354              		.loc 1 267 0
 355 0030 FFF7FEFF 		bl	USBUART_ControlReadDataStage
 268:Generated_Source\PSoC5/USBUART_drv.c ****             break;
 356              		.loc 1 268 0
 357 0034 06E0     		b	.L24
 358              	.L29:
 269:Generated_Source\PSoC5/USBUART_drv.c ****             
ARM GAS  C:\Users\Greg\AppData\Local\Temp\ccWhExNe.s 			page 12


 270:Generated_Source\PSoC5/USBUART_drv.c ****         case USBUART_TRANS_STATE_CONTROL_WRITE:
 271:Generated_Source\PSoC5/USBUART_drv.c ****             USBUART_ControlWriteStatusStage();
 359              		.loc 1 271 0
 360 0036 FFF7FEFF 		bl	USBUART_ControlWriteStatusStage
 272:Generated_Source\PSoC5/USBUART_drv.c ****             break;
 361              		.loc 1 272 0
 362 003a 03E0     		b	.L24
 363              	.L30:
 273:Generated_Source\PSoC5/USBUART_drv.c ****             
 274:Generated_Source\PSoC5/USBUART_drv.c ****         case USBUART_TRANS_STATE_NO_DATA_CONTROL:
 275:Generated_Source\PSoC5/USBUART_drv.c ****             USBUART_NoDataControlStatusStage();
 364              		.loc 1 275 0
 365 003c FFF7FEFF 		bl	USBUART_NoDataControlStatusStage
 276:Generated_Source\PSoC5/USBUART_drv.c ****             break;
 366              		.loc 1 276 0
 367 0040 00E0     		b	.L24
 368              	.L32:
 277:Generated_Source\PSoC5/USBUART_drv.c ****             
 278:Generated_Source\PSoC5/USBUART_drv.c ****         default:    /* there are no more states */
 279:Generated_Source\PSoC5/USBUART_drv.c ****             break;
 369              		.loc 1 279 0
 370 0042 00BF     		nop
 371              	.L24:
 280:Generated_Source\PSoC5/USBUART_drv.c ****     }
 281:Generated_Source\PSoC5/USBUART_drv.c **** }
 372              		.loc 1 281 0
 373 0044 80BD     		pop	{r7, pc}
 374              	.L34:
 375 0046 00BF     		.align	2
 376              	.L33:
 377 0048 00000000 		.word	USBUART_transferState
 378              		.cfi_endproc
 379              	.LFE2:
 380              		.size	USBUART_HandleIN, .-USBUART_HandleIN
 381              		.section	.text.USBUART_HandleOUT,"ax",%progbits
 382              		.align	2
 383              		.global	USBUART_HandleOUT
 384              		.thumb
 385              		.thumb_func
 386              		.type	USBUART_HandleOUT, %function
 387              	USBUART_HandleOUT:
 388              	.LFB3:
 282:Generated_Source\PSoC5/USBUART_drv.c **** 
 283:Generated_Source\PSoC5/USBUART_drv.c **** 
 284:Generated_Source\PSoC5/USBUART_drv.c **** /*******************************************************************************
 285:Generated_Source\PSoC5/USBUART_drv.c **** * Function Name: USBUART_HandleOUT
 286:Generated_Source\PSoC5/USBUART_drv.c **** ****************************************************************************//**
 287:Generated_Source\PSoC5/USBUART_drv.c **** *
 288:Generated_Source\PSoC5/USBUART_drv.c **** *  This routine handles EP0 OUT transfers.
 289:Generated_Source\PSoC5/USBUART_drv.c **** *
 290:Generated_Source\PSoC5/USBUART_drv.c **** *
 291:Generated_Source\PSoC5/USBUART_drv.c **** * \reentrant
 292:Generated_Source\PSoC5/USBUART_drv.c **** *  No.
 293:Generated_Source\PSoC5/USBUART_drv.c **** *
 294:Generated_Source\PSoC5/USBUART_drv.c **** *******************************************************************************/
 295:Generated_Source\PSoC5/USBUART_drv.c **** void USBUART_HandleOUT(void) 
 296:Generated_Source\PSoC5/USBUART_drv.c **** {
ARM GAS  C:\Users\Greg\AppData\Local\Temp\ccWhExNe.s 			page 13


 389              		.loc 1 296 0
 390              		.cfi_startproc
 391              		@ args = 0, pretend = 0, frame = 0
 392              		@ frame_needed = 1, uses_anonymous_args = 0
 393 0000 80B5     		push	{r7, lr}
 394              		.cfi_def_cfa_offset 8
 395              		.cfi_offset 7, -8
 396              		.cfi_offset 14, -4
 397 0002 00AF     		add	r7, sp, #0
 398              		.cfi_def_cfa_register 7
 297:Generated_Source\PSoC5/USBUART_drv.c ****     switch (USBUART_transferState)
 399              		.loc 1 297 0
 400 0004 124B     		ldr	r3, .L44
 401 0006 1B78     		ldrb	r3, [r3]
 402 0008 DBB2     		uxtb	r3, r3
 403 000a 062B     		cmp	r3, #6
 404 000c 1DD8     		bhi	.L43
 405 000e 01A2     		adr	r2, .L38
 406 0010 52F823F0 		ldr	pc, [r2, r3, lsl #2]
 407              		.p2align 2
 408              	.L38:
 409 0014 4B000000 		.word	.L43+1
 410 0018 4B000000 		.word	.L43+1
 411 001c 31000000 		.word	.L39+1
 412 0020 4B000000 		.word	.L43+1
 413 0024 37000000 		.word	.L40+1
 414 0028 4B000000 		.word	.L43+1
 415 002c 3D000000 		.word	.L41+1
 416              		.p2align 1
 417              	.L39:
 298:Generated_Source\PSoC5/USBUART_drv.c ****     {
 299:Generated_Source\PSoC5/USBUART_drv.c ****         case USBUART_TRANS_STATE_IDLE:
 300:Generated_Source\PSoC5/USBUART_drv.c ****             break;
 301:Generated_Source\PSoC5/USBUART_drv.c ****         
 302:Generated_Source\PSoC5/USBUART_drv.c ****         case USBUART_TRANS_STATE_CONTROL_READ:
 303:Generated_Source\PSoC5/USBUART_drv.c ****             USBUART_ControlReadStatusStage();
 418              		.loc 1 303 0
 419 0030 FFF7FEFF 		bl	USBUART_ControlReadStatusStage
 304:Generated_Source\PSoC5/USBUART_drv.c ****             break;
 420              		.loc 1 304 0
 421 0034 0AE0     		b	.L35
 422              	.L40:
 305:Generated_Source\PSoC5/USBUART_drv.c ****             
 306:Generated_Source\PSoC5/USBUART_drv.c ****         case USBUART_TRANS_STATE_CONTROL_WRITE:
 307:Generated_Source\PSoC5/USBUART_drv.c ****             USBUART_ControlWriteDataStage();
 423              		.loc 1 307 0
 424 0036 FFF7FEFF 		bl	USBUART_ControlWriteDataStage
 308:Generated_Source\PSoC5/USBUART_drv.c ****             break;
 425              		.loc 1 308 0
 426 003a 07E0     		b	.L35
 427              	.L41:
 309:Generated_Source\PSoC5/USBUART_drv.c ****             
 310:Generated_Source\PSoC5/USBUART_drv.c ****         case USBUART_TRANS_STATE_NO_DATA_CONTROL:
 311:Generated_Source\PSoC5/USBUART_drv.c ****             /* Update the completion block */
 312:Generated_Source\PSoC5/USBUART_drv.c ****             USBUART_UpdateStatusBlock(USBUART_XFER_ERROR);
 428              		.loc 1 312 0
 429 003c 0320     		movs	r0, #3
ARM GAS  C:\Users\Greg\AppData\Local\Temp\ccWhExNe.s 			page 14


 430 003e FFF7FEFF 		bl	USBUART_UpdateStatusBlock
 313:Generated_Source\PSoC5/USBUART_drv.c ****             
 314:Generated_Source\PSoC5/USBUART_drv.c ****             /* We expect no more data, so stall INs and OUTs */
 315:Generated_Source\PSoC5/USBUART_drv.c ****             USBUART_ep0Mode = USBUART_MODE_STALL_IN_OUT;
 431              		.loc 1 315 0
 432 0042 044B     		ldr	r3, .L44+4
 433 0044 0322     		movs	r2, #3
 434 0046 1A70     		strb	r2, [r3]
 316:Generated_Source\PSoC5/USBUART_drv.c ****             break;
 435              		.loc 1 316 0
 436 0048 00E0     		b	.L35
 437              	.L43:
 317:Generated_Source\PSoC5/USBUART_drv.c ****             
 318:Generated_Source\PSoC5/USBUART_drv.c ****         default:    
 319:Generated_Source\PSoC5/USBUART_drv.c ****             /* There are no more states */
 320:Generated_Source\PSoC5/USBUART_drv.c ****             break;
 438              		.loc 1 320 0
 439 004a 00BF     		nop
 440              	.L35:
 321:Generated_Source\PSoC5/USBUART_drv.c ****     }
 322:Generated_Source\PSoC5/USBUART_drv.c **** }
 441              		.loc 1 322 0
 442 004c 80BD     		pop	{r7, pc}
 443              	.L45:
 444 004e 00BF     		.align	2
 445              	.L44:
 446 0050 00000000 		.word	USBUART_transferState
 447 0054 00000000 		.word	USBUART_ep0Mode
 448              		.cfi_endproc
 449              	.LFE3:
 450              		.size	USBUART_HandleOUT, .-USBUART_HandleOUT
 451              		.section	.text.USBUART_LoadEP0,"ax",%progbits
 452              		.align	2
 453              		.global	USBUART_LoadEP0
 454              		.thumb
 455              		.thumb_func
 456              		.type	USBUART_LoadEP0, %function
 457              	USBUART_LoadEP0:
 458              	.LFB4:
 323:Generated_Source\PSoC5/USBUART_drv.c **** 
 324:Generated_Source\PSoC5/USBUART_drv.c **** 
 325:Generated_Source\PSoC5/USBUART_drv.c **** /*******************************************************************************
 326:Generated_Source\PSoC5/USBUART_drv.c **** * Function Name: USBUART_LoadEP0
 327:Generated_Source\PSoC5/USBUART_drv.c **** ****************************************************************************//**
 328:Generated_Source\PSoC5/USBUART_drv.c **** *
 329:Generated_Source\PSoC5/USBUART_drv.c **** *  This routine loads the EP0 data registers for OUT transfers. It uses the
 330:Generated_Source\PSoC5/USBUART_drv.c **** *  currentTD (previously initialized by the _InitControlWrite function and
 331:Generated_Source\PSoC5/USBUART_drv.c **** *  updated for each OUT transfer, and the bLastPacketSize) to determine how
 332:Generated_Source\PSoC5/USBUART_drv.c **** *  many uint8s to transfer on the current OUT.
 333:Generated_Source\PSoC5/USBUART_drv.c **** *
 334:Generated_Source\PSoC5/USBUART_drv.c **** *  If the number of uint8s remaining is zero and the last transfer was full,
 335:Generated_Source\PSoC5/USBUART_drv.c **** *  we need to send a zero length packet.  Otherwise we send the minimum
 336:Generated_Source\PSoC5/USBUART_drv.c **** *  of the control endpoint size (8) or remaining number of uint8s for the
 337:Generated_Source\PSoC5/USBUART_drv.c **** *  transaction.
 338:Generated_Source\PSoC5/USBUART_drv.c **** *
 339:Generated_Source\PSoC5/USBUART_drv.c **** *
 340:Generated_Source\PSoC5/USBUART_drv.c **** * \globalvars
ARM GAS  C:\Users\Greg\AppData\Local\Temp\ccWhExNe.s 			page 15


 341:Generated_Source\PSoC5/USBUART_drv.c **** *  USBUART_transferByteCount - Update the transfer byte count from the
 342:Generated_Source\PSoC5/USBUART_drv.c **** *     last transaction.
 343:Generated_Source\PSoC5/USBUART_drv.c **** *  USBUART_ep0Count - counts the data loaded to the SIE memory in
 344:Generated_Source\PSoC5/USBUART_drv.c **** *     current packet.
 345:Generated_Source\PSoC5/USBUART_drv.c **** *  USBUART_lastPacketSize - remembers the USBFS_ep0Count value for the
 346:Generated_Source\PSoC5/USBUART_drv.c **** *     next packet.
 347:Generated_Source\PSoC5/USBUART_drv.c **** *  USBUART_transferByteCount - sum of the previous bytes transferred
 348:Generated_Source\PSoC5/USBUART_drv.c **** *     on previous packets(sum of USBFS_lastPacketSize)
 349:Generated_Source\PSoC5/USBUART_drv.c **** *  USBUART_ep0Toggle - inverted
 350:Generated_Source\PSoC5/USBUART_drv.c **** *  USBUART_ep0Mode  - prepare for mode register content.
 351:Generated_Source\PSoC5/USBUART_drv.c **** *  USBUART_transferState - set to TRANS_STATE_CONTROL_READ
 352:Generated_Source\PSoC5/USBUART_drv.c **** *
 353:Generated_Source\PSoC5/USBUART_drv.c **** * \reentrant
 354:Generated_Source\PSoC5/USBUART_drv.c **** *  No.
 355:Generated_Source\PSoC5/USBUART_drv.c **** *
 356:Generated_Source\PSoC5/USBUART_drv.c **** *******************************************************************************/
 357:Generated_Source\PSoC5/USBUART_drv.c **** void USBUART_LoadEP0(void) 
 358:Generated_Source\PSoC5/USBUART_drv.c **** {
 459              		.loc 1 358 0
 460              		.cfi_startproc
 461              		@ args = 0, pretend = 0, frame = 8
 462              		@ frame_needed = 1, uses_anonymous_args = 0
 463              		@ link register save eliminated.
 464 0000 80B4     		push	{r7}
 465              		.cfi_def_cfa_offset 4
 466              		.cfi_offset 7, -4
 467 0002 83B0     		sub	sp, sp, #12
 468              		.cfi_def_cfa_offset 16
 469 0004 00AF     		add	r7, sp, #0
 470              		.cfi_def_cfa_register 7
 359:Generated_Source\PSoC5/USBUART_drv.c ****     uint8 ep0Count = 0u;
 471              		.loc 1 359 0
 472 0006 0023     		movs	r3, #0
 473 0008 FB71     		strb	r3, [r7, #7]
 360:Generated_Source\PSoC5/USBUART_drv.c **** 
 361:Generated_Source\PSoC5/USBUART_drv.c ****     /* Update the transfer byte count from the last transaction */
 362:Generated_Source\PSoC5/USBUART_drv.c ****     USBUART_transferByteCount += USBUART_lastPacketSize;
 474              		.loc 1 362 0
 475 000a 294B     		ldr	r3, .L53
 476 000c 1B78     		ldrb	r3, [r3]
 477 000e DBB2     		uxtb	r3, r3
 478 0010 9AB2     		uxth	r2, r3
 479 0012 284B     		ldr	r3, .L53+4
 480 0014 1B88     		ldrh	r3, [r3]	@ movhi
 481 0016 9BB2     		uxth	r3, r3
 482 0018 1344     		add	r3, r3, r2
 483 001a 9AB2     		uxth	r2, r3
 484 001c 254B     		ldr	r3, .L53+4
 485 001e 1A80     		strh	r2, [r3]	@ movhi
 363:Generated_Source\PSoC5/USBUART_drv.c **** 
 364:Generated_Source\PSoC5/USBUART_drv.c ****     /* Now load the next transaction */
 365:Generated_Source\PSoC5/USBUART_drv.c ****     while ((USBUART_currentTD.count > 0u) && (ep0Count < 8u))
 486              		.loc 1 365 0
 487 0020 15E0     		b	.L47
 488              	.L49:
 366:Generated_Source\PSoC5/USBUART_drv.c ****     {
 367:Generated_Source\PSoC5/USBUART_drv.c ****         USBUART_EP0_DR_BASE.epData[ep0Count] = (uint8) *USBUART_currentTD.pData;
ARM GAS  C:\Users\Greg\AppData\Local\Temp\ccWhExNe.s 			page 16


 489              		.loc 1 367 0
 490 0022 2549     		ldr	r1, .L53+8
 491 0024 FB79     		ldrb	r3, [r7, #7]	@ zero_extendqisi2
 492 0026 254A     		ldr	r2, .L53+12
 493 0028 5268     		ldr	r2, [r2, #4]
 494 002a 1278     		ldrb	r2, [r2]
 495 002c D2B2     		uxtb	r2, r2
 496 002e CA54     		strb	r2, [r1, r3]
 368:Generated_Source\PSoC5/USBUART_drv.c ****         USBUART_currentTD.pData = &USBUART_currentTD.pData[1u];
 497              		.loc 1 368 0
 498 0030 224B     		ldr	r3, .L53+12
 499 0032 5B68     		ldr	r3, [r3, #4]
 500 0034 0133     		adds	r3, r3, #1
 501 0036 214A     		ldr	r2, .L53+12
 502 0038 5360     		str	r3, [r2, #4]
 369:Generated_Source\PSoC5/USBUART_drv.c ****         ep0Count++;
 503              		.loc 1 369 0
 504 003a FB79     		ldrb	r3, [r7, #7]	@ zero_extendqisi2
 505 003c 0133     		adds	r3, r3, #1
 506 003e FB71     		strb	r3, [r7, #7]
 370:Generated_Source\PSoC5/USBUART_drv.c ****         USBUART_currentTD.count--;
 507              		.loc 1 370 0
 508 0040 1E4B     		ldr	r3, .L53+12
 509 0042 1B88     		ldrh	r3, [r3]	@ movhi
 510 0044 9BB2     		uxth	r3, r3
 511 0046 013B     		subs	r3, r3, #1
 512 0048 9AB2     		uxth	r2, r3
 513 004a 1C4B     		ldr	r3, .L53+12
 514 004c 1A80     		strh	r2, [r3]	@ movhi
 515              	.L47:
 365:Generated_Source\PSoC5/USBUART_drv.c ****     {
 516              		.loc 1 365 0
 517 004e 1B4B     		ldr	r3, .L53+12
 518 0050 1B88     		ldrh	r3, [r3]	@ movhi
 519 0052 9BB2     		uxth	r3, r3
 520 0054 002B     		cmp	r3, #0
 521 0056 02D0     		beq	.L48
 365:Generated_Source\PSoC5/USBUART_drv.c ****     {
 522              		.loc 1 365 0 is_stmt 0 discriminator 1
 523 0058 FB79     		ldrb	r3, [r7, #7]	@ zero_extendqisi2
 524 005a 072B     		cmp	r3, #7
 525 005c E1D9     		bls	.L49
 526              	.L48:
 371:Generated_Source\PSoC5/USBUART_drv.c ****     }
 372:Generated_Source\PSoC5/USBUART_drv.c **** 
 373:Generated_Source\PSoC5/USBUART_drv.c ****     /* Support zero-length packet */
 374:Generated_Source\PSoC5/USBUART_drv.c ****     if ((USBUART_lastPacketSize == 8u) || (ep0Count > 0u))
 527              		.loc 1 374 0 is_stmt 1
 528 005e 144B     		ldr	r3, .L53
 529 0060 1B78     		ldrb	r3, [r3]
 530 0062 DBB2     		uxtb	r3, r3
 531 0064 082B     		cmp	r3, #8
 532 0066 02D0     		beq	.L50
 533              		.loc 1 374 0 is_stmt 0 discriminator 1
 534 0068 FB79     		ldrb	r3, [r7, #7]	@ zero_extendqisi2
 535 006a 002B     		cmp	r3, #0
 536 006c 0FD0     		beq	.L51
ARM GAS  C:\Users\Greg\AppData\Local\Temp\ccWhExNe.s 			page 17


 537              	.L50:
 375:Generated_Source\PSoC5/USBUART_drv.c ****     {
 376:Generated_Source\PSoC5/USBUART_drv.c ****         /* Update the data toggle */
 377:Generated_Source\PSoC5/USBUART_drv.c ****         USBUART_ep0Toggle ^= USBUART_EP0_CNT_DATA_TOGGLE;
 538              		.loc 1 377 0 is_stmt 1
 539 006e 144B     		ldr	r3, .L53+16
 540 0070 1B78     		ldrb	r3, [r3]
 541 0072 DBB2     		uxtb	r3, r3
 542 0074 83F07F03 		eor	r3, r3, #127
 543 0078 DB43     		mvns	r3, r3
 544 007a DAB2     		uxtb	r2, r3
 545 007c 104B     		ldr	r3, .L53+16
 546 007e 1A70     		strb	r2, [r3]
 378:Generated_Source\PSoC5/USBUART_drv.c ****         /* Set the Mode Register  */
 379:Generated_Source\PSoC5/USBUART_drv.c ****         USBUART_ep0Mode = USBUART_MODE_ACK_IN_STATUS_OUT;
 547              		.loc 1 379 0
 548 0080 104B     		ldr	r3, .L53+20
 549 0082 0F22     		movs	r2, #15
 550 0084 1A70     		strb	r2, [r3]
 380:Generated_Source\PSoC5/USBUART_drv.c ****         /* Update the state (or stay the same) */
 381:Generated_Source\PSoC5/USBUART_drv.c ****         USBUART_transferState = USBUART_TRANS_STATE_CONTROL_READ;
 551              		.loc 1 381 0
 552 0086 104B     		ldr	r3, .L53+24
 553 0088 0222     		movs	r2, #2
 554 008a 1A70     		strb	r2, [r3]
 555 008c 05E0     		b	.L52
 556              	.L51:
 382:Generated_Source\PSoC5/USBUART_drv.c ****     }
 383:Generated_Source\PSoC5/USBUART_drv.c ****     else
 384:Generated_Source\PSoC5/USBUART_drv.c ****     {
 385:Generated_Source\PSoC5/USBUART_drv.c ****         /* Expect Status Stage Out */
 386:Generated_Source\PSoC5/USBUART_drv.c ****         USBUART_ep0Mode = USBUART_MODE_STATUS_OUT_ONLY;
 557              		.loc 1 386 0
 558 008e 0D4B     		ldr	r3, .L53+20
 559 0090 0222     		movs	r2, #2
 560 0092 1A70     		strb	r2, [r3]
 387:Generated_Source\PSoC5/USBUART_drv.c ****         /* Update the state (or stay the same) */
 388:Generated_Source\PSoC5/USBUART_drv.c ****         USBUART_transferState = USBUART_TRANS_STATE_CONTROL_READ;
 561              		.loc 1 388 0
 562 0094 0C4B     		ldr	r3, .L53+24
 563 0096 0222     		movs	r2, #2
 564 0098 1A70     		strb	r2, [r3]
 565              	.L52:
 389:Generated_Source\PSoC5/USBUART_drv.c ****     }
 390:Generated_Source\PSoC5/USBUART_drv.c **** 
 391:Generated_Source\PSoC5/USBUART_drv.c ****     /* Save the packet size for next time */
 392:Generated_Source\PSoC5/USBUART_drv.c ****     USBUART_ep0Count =       (uint8) ep0Count;
 566              		.loc 1 392 0
 567 009a 0C4A     		ldr	r2, .L53+28
 568 009c FB79     		ldrb	r3, [r7, #7]
 569 009e 1370     		strb	r3, [r2]
 393:Generated_Source\PSoC5/USBUART_drv.c ****     USBUART_lastPacketSize = (uint8) ep0Count;
 570              		.loc 1 393 0
 571 00a0 034A     		ldr	r2, .L53
 572 00a2 FB79     		ldrb	r3, [r7, #7]
 573 00a4 1370     		strb	r3, [r2]
 394:Generated_Source\PSoC5/USBUART_drv.c **** }
ARM GAS  C:\Users\Greg\AppData\Local\Temp\ccWhExNe.s 			page 18


 574              		.loc 1 394 0
 575 00a6 0C37     		adds	r7, r7, #12
 576              		.cfi_def_cfa_offset 4
 577 00a8 BD46     		mov	sp, r7
 578              		.cfi_def_cfa_register 13
 579              		@ sp needed
 580 00aa 5DF8047B 		ldr	r7, [sp], #4
 581              		.cfi_restore 7
 582              		.cfi_def_cfa_offset 0
 583 00ae 7047     		bx	lr
 584              	.L54:
 585              		.align	2
 586              	.L53:
 587 00b0 00000000 		.word	USBUART_lastPacketSize
 588 00b4 00000000 		.word	USBUART_transferByteCount
 589 00b8 00600040 		.word	1073766400
 590 00bc 00000000 		.word	USBUART_currentTD
 591 00c0 00000000 		.word	USBUART_ep0Toggle
 592 00c4 00000000 		.word	USBUART_ep0Mode
 593 00c8 00000000 		.word	USBUART_transferState
 594 00cc 00000000 		.word	USBUART_ep0Count
 595              		.cfi_endproc
 596              	.LFE4:
 597              		.size	USBUART_LoadEP0, .-USBUART_LoadEP0
 598              		.section	.text.USBUART_InitControlRead,"ax",%progbits
 599              		.align	2
 600              		.global	USBUART_InitControlRead
 601              		.thumb
 602              		.thumb_func
 603              		.type	USBUART_InitControlRead, %function
 604              	USBUART_InitControlRead:
 605              	.LFB5:
 395:Generated_Source\PSoC5/USBUART_drv.c **** 
 396:Generated_Source\PSoC5/USBUART_drv.c **** 
 397:Generated_Source\PSoC5/USBUART_drv.c **** /*******************************************************************************
 398:Generated_Source\PSoC5/USBUART_drv.c **** * Function Name: USBUART_InitControlRead
 399:Generated_Source\PSoC5/USBUART_drv.c **** ****************************************************************************//**
 400:Generated_Source\PSoC5/USBUART_drv.c **** *
 401:Generated_Source\PSoC5/USBUART_drv.c **** *  Initialize a control read transaction. It is used to send data to the host.
 402:Generated_Source\PSoC5/USBUART_drv.c **** *  The following global variables should be initialized before this function
 403:Generated_Source\PSoC5/USBUART_drv.c **** *  called. To send zero length packet use InitZeroLengthControlTransfer
 404:Generated_Source\PSoC5/USBUART_drv.c **** *  function.
 405:Generated_Source\PSoC5/USBUART_drv.c **** *
 406:Generated_Source\PSoC5/USBUART_drv.c **** *
 407:Generated_Source\PSoC5/USBUART_drv.c **** * \return
 408:Generated_Source\PSoC5/USBUART_drv.c **** *  requestHandled state.
 409:Generated_Source\PSoC5/USBUART_drv.c **** *
 410:Generated_Source\PSoC5/USBUART_drv.c **** * \globalvars
 411:Generated_Source\PSoC5/USBUART_drv.c **** *  USBUART_currentTD.count - counts of data to be sent.
 412:Generated_Source\PSoC5/USBUART_drv.c **** *  USBUART_currentTD.pData - data pointer.
 413:Generated_Source\PSoC5/USBUART_drv.c **** *
 414:Generated_Source\PSoC5/USBUART_drv.c **** * \reentrant
 415:Generated_Source\PSoC5/USBUART_drv.c **** *  No.
 416:Generated_Source\PSoC5/USBUART_drv.c **** *
 417:Generated_Source\PSoC5/USBUART_drv.c **** *******************************************************************************/
 418:Generated_Source\PSoC5/USBUART_drv.c **** uint8 USBUART_InitControlRead(void) 
 419:Generated_Source\PSoC5/USBUART_drv.c **** {
ARM GAS  C:\Users\Greg\AppData\Local\Temp\ccWhExNe.s 			page 19


 606              		.loc 1 419 0
 607              		.cfi_startproc
 608              		@ args = 0, pretend = 0, frame = 8
 609              		@ frame_needed = 1, uses_anonymous_args = 0
 610 0000 80B5     		push	{r7, lr}
 611              		.cfi_def_cfa_offset 8
 612              		.cfi_offset 7, -8
 613              		.cfi_offset 14, -4
 614 0002 82B0     		sub	sp, sp, #8
 615              		.cfi_def_cfa_offset 16
 616 0004 00AF     		add	r7, sp, #0
 617              		.cfi_def_cfa_register 7
 420:Generated_Source\PSoC5/USBUART_drv.c ****     uint16 xferCount;
 421:Generated_Source\PSoC5/USBUART_drv.c **** 
 422:Generated_Source\PSoC5/USBUART_drv.c ****     if (USBUART_currentTD.count == 0u)
 618              		.loc 1 422 0
 619 0006 164B     		ldr	r3, .L60
 620 0008 1B88     		ldrh	r3, [r3]	@ movhi
 621 000a 9BB2     		uxth	r3, r3
 622 000c 002B     		cmp	r3, #0
 623 000e 02D1     		bne	.L56
 423:Generated_Source\PSoC5/USBUART_drv.c ****     {
 424:Generated_Source\PSoC5/USBUART_drv.c ****         (void) USBUART_InitZeroLengthControlTransfer();
 624              		.loc 1 424 0
 625 0010 FFF7FEFF 		bl	USBUART_InitZeroLengthControlTransfer
 626 0014 1EE0     		b	.L57
 627              	.L56:
 425:Generated_Source\PSoC5/USBUART_drv.c ****     }
 426:Generated_Source\PSoC5/USBUART_drv.c ****     else
 427:Generated_Source\PSoC5/USBUART_drv.c ****     {
 428:Generated_Source\PSoC5/USBUART_drv.c ****         /* Set up the state machine */
 429:Generated_Source\PSoC5/USBUART_drv.c ****         USBUART_transferState = USBUART_TRANS_STATE_CONTROL_READ;
 628              		.loc 1 429 0
 629 0016 134B     		ldr	r3, .L60+4
 630 0018 0222     		movs	r2, #2
 631 001a 1A70     		strb	r2, [r3]
 430:Generated_Source\PSoC5/USBUART_drv.c ****         
 431:Generated_Source\PSoC5/USBUART_drv.c ****         /* Set the toggle, it gets updated in LoadEP */
 432:Generated_Source\PSoC5/USBUART_drv.c ****         USBUART_ep0Toggle = 0u;
 632              		.loc 1 432 0
 633 001c 124B     		ldr	r3, .L60+8
 634 001e 0022     		movs	r2, #0
 635 0020 1A70     		strb	r2, [r3]
 433:Generated_Source\PSoC5/USBUART_drv.c ****         
 434:Generated_Source\PSoC5/USBUART_drv.c ****         /* Initialize the Status Block */
 435:Generated_Source\PSoC5/USBUART_drv.c ****         USBUART_InitializeStatusBlock();
 636              		.loc 1 435 0
 637 0022 FFF7FEFF 		bl	USBUART_InitializeStatusBlock
 436:Generated_Source\PSoC5/USBUART_drv.c ****         
 437:Generated_Source\PSoC5/USBUART_drv.c ****         xferCount = ((uint16)((uint16) USBUART_lengthHiReg << 8u) | ((uint16) USBUART_lengthLoReg))
 638              		.loc 1 437 0
 639 0026 114B     		ldr	r3, .L60+12
 640 0028 DB79     		ldrb	r3, [r3, #7]
 641 002a DBB2     		uxtb	r3, r3
 642 002c 9BB2     		uxth	r3, r3
 643 002e 1B02     		lsls	r3, r3, #8
 644 0030 9AB2     		uxth	r2, r3
ARM GAS  C:\Users\Greg\AppData\Local\Temp\ccWhExNe.s 			page 20


 645 0032 0E4B     		ldr	r3, .L60+12
 646 0034 9B79     		ldrb	r3, [r3, #6]
 647 0036 DBB2     		uxtb	r3, r3
 648 0038 9BB2     		uxth	r3, r3
 649 003a 1343     		orrs	r3, r3, r2
 650 003c FB80     		strh	r3, [r7, #6]	@ movhi
 438:Generated_Source\PSoC5/USBUART_drv.c **** 
 439:Generated_Source\PSoC5/USBUART_drv.c ****         if (USBUART_currentTD.count > xferCount)
 651              		.loc 1 439 0
 652 003e 084B     		ldr	r3, .L60
 653 0040 1B88     		ldrh	r3, [r3]	@ movhi
 654 0042 9BB2     		uxth	r3, r3
 655 0044 FA88     		ldrh	r2, [r7, #6]
 656 0046 9A42     		cmp	r2, r3
 657 0048 02D2     		bcs	.L58
 440:Generated_Source\PSoC5/USBUART_drv.c ****         {
 441:Generated_Source\PSoC5/USBUART_drv.c ****             USBUART_currentTD.count = xferCount;
 658              		.loc 1 441 0
 659 004a 054A     		ldr	r2, .L60
 660 004c FB88     		ldrh	r3, [r7, #6]	@ movhi
 661 004e 1380     		strh	r3, [r2]	@ movhi
 662              	.L58:
 442:Generated_Source\PSoC5/USBUART_drv.c ****         }
 443:Generated_Source\PSoC5/USBUART_drv.c ****         
 444:Generated_Source\PSoC5/USBUART_drv.c ****         USBUART_LoadEP0();
 663              		.loc 1 444 0
 664 0050 FFF7FEFF 		bl	USBUART_LoadEP0
 665              	.L57:
 445:Generated_Source\PSoC5/USBUART_drv.c ****     }
 446:Generated_Source\PSoC5/USBUART_drv.c **** 
 447:Generated_Source\PSoC5/USBUART_drv.c ****     return (USBUART_TRUE);
 666              		.loc 1 447 0
 667 0054 0123     		movs	r3, #1
 448:Generated_Source\PSoC5/USBUART_drv.c **** }
 668              		.loc 1 448 0
 669 0056 1846     		mov	r0, r3
 670 0058 0837     		adds	r7, r7, #8
 671              		.cfi_def_cfa_offset 8
 672 005a BD46     		mov	sp, r7
 673              		.cfi_def_cfa_register 13
 674              		@ sp needed
 675 005c 80BD     		pop	{r7, pc}
 676              	.L61:
 677 005e 00BF     		.align	2
 678              	.L60:
 679 0060 00000000 		.word	USBUART_currentTD
 680 0064 00000000 		.word	USBUART_transferState
 681 0068 00000000 		.word	USBUART_ep0Toggle
 682 006c 00600040 		.word	1073766400
 683              		.cfi_endproc
 684              	.LFE5:
 685              		.size	USBUART_InitControlRead, .-USBUART_InitControlRead
 686              		.section	.text.USBUART_InitZeroLengthControlTransfer,"ax",%progbits
 687              		.align	2
 688              		.global	USBUART_InitZeroLengthControlTransfer
 689              		.thumb
 690              		.thumb_func
ARM GAS  C:\Users\Greg\AppData\Local\Temp\ccWhExNe.s 			page 21


 691              		.type	USBUART_InitZeroLengthControlTransfer, %function
 692              	USBUART_InitZeroLengthControlTransfer:
 693              	.LFB6:
 449:Generated_Source\PSoC5/USBUART_drv.c **** 
 450:Generated_Source\PSoC5/USBUART_drv.c **** 
 451:Generated_Source\PSoC5/USBUART_drv.c **** /*******************************************************************************
 452:Generated_Source\PSoC5/USBUART_drv.c **** * Function Name: USBUART_InitZeroLengthControlTransfer
 453:Generated_Source\PSoC5/USBUART_drv.c **** ****************************************************************************//**
 454:Generated_Source\PSoC5/USBUART_drv.c **** *
 455:Generated_Source\PSoC5/USBUART_drv.c **** *  Initialize a zero length data IN transfer.
 456:Generated_Source\PSoC5/USBUART_drv.c **** *
 457:Generated_Source\PSoC5/USBUART_drv.c **** * \return
 458:Generated_Source\PSoC5/USBUART_drv.c **** *  requestHandled state.
 459:Generated_Source\PSoC5/USBUART_drv.c **** *
 460:Generated_Source\PSoC5/USBUART_drv.c **** * \globalvars
 461:Generated_Source\PSoC5/USBUART_drv.c **** *  USBUART_ep0Toggle - set to EP0_CNT_DATA_TOGGLE
 462:Generated_Source\PSoC5/USBUART_drv.c **** *  USBUART_ep0Mode  - prepare for mode register content.
 463:Generated_Source\PSoC5/USBUART_drv.c **** *  USBUART_transferState - set to TRANS_STATE_CONTROL_READ
 464:Generated_Source\PSoC5/USBUART_drv.c **** *  USBUART_ep0Count - cleared, means the zero-length packet.
 465:Generated_Source\PSoC5/USBUART_drv.c **** *  USBUART_lastPacketSize - cleared.
 466:Generated_Source\PSoC5/USBUART_drv.c **** *
 467:Generated_Source\PSoC5/USBUART_drv.c **** * \reentrant
 468:Generated_Source\PSoC5/USBUART_drv.c **** *  No.
 469:Generated_Source\PSoC5/USBUART_drv.c **** *
 470:Generated_Source\PSoC5/USBUART_drv.c **** *******************************************************************************/
 471:Generated_Source\PSoC5/USBUART_drv.c **** uint8 USBUART_InitZeroLengthControlTransfer(void)
 472:Generated_Source\PSoC5/USBUART_drv.c ****                                                 
 473:Generated_Source\PSoC5/USBUART_drv.c **** {
 694              		.loc 1 473 0
 695              		.cfi_startproc
 696              		@ args = 0, pretend = 0, frame = 0
 697              		@ frame_needed = 1, uses_anonymous_args = 0
 698              		@ link register save eliminated.
 699 0000 80B4     		push	{r7}
 700              		.cfi_def_cfa_offset 4
 701              		.cfi_offset 7, -4
 702 0002 00AF     		add	r7, sp, #0
 703              		.cfi_def_cfa_register 7
 474:Generated_Source\PSoC5/USBUART_drv.c ****     /* Update the state */
 475:Generated_Source\PSoC5/USBUART_drv.c ****     USBUART_transferState = USBUART_TRANS_STATE_CONTROL_READ;
 704              		.loc 1 475 0
 705 0004 0A4B     		ldr	r3, .L64
 706 0006 0222     		movs	r2, #2
 707 0008 1A70     		strb	r2, [r3]
 476:Generated_Source\PSoC5/USBUART_drv.c ****     
 477:Generated_Source\PSoC5/USBUART_drv.c ****     /* Set the data toggle */
 478:Generated_Source\PSoC5/USBUART_drv.c ****     USBUART_ep0Toggle = USBUART_EP0_CNT_DATA_TOGGLE;
 708              		.loc 1 478 0
 709 000a 0A4B     		ldr	r3, .L64+4
 710 000c 8022     		movs	r2, #128
 711 000e 1A70     		strb	r2, [r3]
 479:Generated_Source\PSoC5/USBUART_drv.c ****     
 480:Generated_Source\PSoC5/USBUART_drv.c ****     /* Set the Mode Register  */
 481:Generated_Source\PSoC5/USBUART_drv.c ****     USBUART_ep0Mode = USBUART_MODE_ACK_IN_STATUS_OUT;
 712              		.loc 1 481 0
 713 0010 094B     		ldr	r3, .L64+8
 714 0012 0F22     		movs	r2, #15
ARM GAS  C:\Users\Greg\AppData\Local\Temp\ccWhExNe.s 			page 22


 715 0014 1A70     		strb	r2, [r3]
 482:Generated_Source\PSoC5/USBUART_drv.c ****     
 483:Generated_Source\PSoC5/USBUART_drv.c ****     /* Save the packet size for next time */
 484:Generated_Source\PSoC5/USBUART_drv.c ****     USBUART_lastPacketSize = 0u;
 716              		.loc 1 484 0
 717 0016 094B     		ldr	r3, .L64+12
 718 0018 0022     		movs	r2, #0
 719 001a 1A70     		strb	r2, [r3]
 485:Generated_Source\PSoC5/USBUART_drv.c ****     
 486:Generated_Source\PSoC5/USBUART_drv.c ****     USBUART_ep0Count = 0u;
 720              		.loc 1 486 0
 721 001c 084B     		ldr	r3, .L64+16
 722 001e 0022     		movs	r2, #0
 723 0020 1A70     		strb	r2, [r3]
 487:Generated_Source\PSoC5/USBUART_drv.c **** 
 488:Generated_Source\PSoC5/USBUART_drv.c ****     return (USBUART_TRUE);
 724              		.loc 1 488 0
 725 0022 0123     		movs	r3, #1
 489:Generated_Source\PSoC5/USBUART_drv.c **** }
 726              		.loc 1 489 0
 727 0024 1846     		mov	r0, r3
 728 0026 BD46     		mov	sp, r7
 729              		.cfi_def_cfa_register 13
 730              		@ sp needed
 731 0028 5DF8047B 		ldr	r7, [sp], #4
 732              		.cfi_restore 7
 733              		.cfi_def_cfa_offset 0
 734 002c 7047     		bx	lr
 735              	.L65:
 736 002e 00BF     		.align	2
 737              	.L64:
 738 0030 00000000 		.word	USBUART_transferState
 739 0034 00000000 		.word	USBUART_ep0Toggle
 740 0038 00000000 		.word	USBUART_ep0Mode
 741 003c 00000000 		.word	USBUART_lastPacketSize
 742 0040 00000000 		.word	USBUART_ep0Count
 743              		.cfi_endproc
 744              	.LFE6:
 745              		.size	USBUART_InitZeroLengthControlTransfer, .-USBUART_InitZeroLengthControlTransfer
 746              		.section	.text.USBUART_ControlReadDataStage,"ax",%progbits
 747              		.align	2
 748              		.global	USBUART_ControlReadDataStage
 749              		.thumb
 750              		.thumb_func
 751              		.type	USBUART_ControlReadDataStage, %function
 752              	USBUART_ControlReadDataStage:
 753              	.LFB7:
 490:Generated_Source\PSoC5/USBUART_drv.c **** 
 491:Generated_Source\PSoC5/USBUART_drv.c **** 
 492:Generated_Source\PSoC5/USBUART_drv.c **** /*******************************************************************************
 493:Generated_Source\PSoC5/USBUART_drv.c **** * Function Name: USBUART_ControlReadDataStage
 494:Generated_Source\PSoC5/USBUART_drv.c **** ****************************************************************************//**
 495:Generated_Source\PSoC5/USBUART_drv.c **** *
 496:Generated_Source\PSoC5/USBUART_drv.c **** *  Handle the Data Stage of a control read transfer.
 497:Generated_Source\PSoC5/USBUART_drv.c **** *
 498:Generated_Source\PSoC5/USBUART_drv.c **** *
 499:Generated_Source\PSoC5/USBUART_drv.c **** * \reentrant
ARM GAS  C:\Users\Greg\AppData\Local\Temp\ccWhExNe.s 			page 23


 500:Generated_Source\PSoC5/USBUART_drv.c **** *  No.
 501:Generated_Source\PSoC5/USBUART_drv.c **** *
 502:Generated_Source\PSoC5/USBUART_drv.c **** *******************************************************************************/
 503:Generated_Source\PSoC5/USBUART_drv.c **** void USBUART_ControlReadDataStage(void) 
 504:Generated_Source\PSoC5/USBUART_drv.c **** 
 505:Generated_Source\PSoC5/USBUART_drv.c **** {
 754              		.loc 1 505 0
 755              		.cfi_startproc
 756              		@ args = 0, pretend = 0, frame = 0
 757              		@ frame_needed = 1, uses_anonymous_args = 0
 758 0000 80B5     		push	{r7, lr}
 759              		.cfi_def_cfa_offset 8
 760              		.cfi_offset 7, -8
 761              		.cfi_offset 14, -4
 762 0002 00AF     		add	r7, sp, #0
 763              		.cfi_def_cfa_register 7
 506:Generated_Source\PSoC5/USBUART_drv.c ****     USBUART_LoadEP0();
 764              		.loc 1 506 0
 765 0004 FFF7FEFF 		bl	USBUART_LoadEP0
 507:Generated_Source\PSoC5/USBUART_drv.c **** }
 766              		.loc 1 507 0
 767 0008 80BD     		pop	{r7, pc}
 768              		.cfi_endproc
 769              	.LFE7:
 770              		.size	USBUART_ControlReadDataStage, .-USBUART_ControlReadDataStage
 771 000a 00BF     		.section	.text.USBUART_ControlReadStatusStage,"ax",%progbits
 772              		.align	2
 773              		.global	USBUART_ControlReadStatusStage
 774              		.thumb
 775              		.thumb_func
 776              		.type	USBUART_ControlReadStatusStage, %function
 777              	USBUART_ControlReadStatusStage:
 778              	.LFB8:
 508:Generated_Source\PSoC5/USBUART_drv.c **** 
 509:Generated_Source\PSoC5/USBUART_drv.c **** 
 510:Generated_Source\PSoC5/USBUART_drv.c **** /*******************************************************************************
 511:Generated_Source\PSoC5/USBUART_drv.c **** * Function Name: USBUART_ControlReadStatusStage
 512:Generated_Source\PSoC5/USBUART_drv.c **** ****************************************************************************//**
 513:Generated_Source\PSoC5/USBUART_drv.c **** *
 514:Generated_Source\PSoC5/USBUART_drv.c **** *  Handle the Status Stage of a control read transfer.
 515:Generated_Source\PSoC5/USBUART_drv.c **** *
 516:Generated_Source\PSoC5/USBUART_drv.c **** *
 517:Generated_Source\PSoC5/USBUART_drv.c **** * \globalvars
 518:Generated_Source\PSoC5/USBUART_drv.c **** *  USBUART_USBFS_transferByteCount - updated with last packet size.
 519:Generated_Source\PSoC5/USBUART_drv.c **** *  USBUART_transferState - set to TRANS_STATE_IDLE.
 520:Generated_Source\PSoC5/USBUART_drv.c **** *  USBUART_ep0Mode  - set to MODE_STALL_IN_OUT.
 521:Generated_Source\PSoC5/USBUART_drv.c **** *
 522:Generated_Source\PSoC5/USBUART_drv.c **** * \reentrant
 523:Generated_Source\PSoC5/USBUART_drv.c **** *  No.
 524:Generated_Source\PSoC5/USBUART_drv.c **** *
 525:Generated_Source\PSoC5/USBUART_drv.c **** *******************************************************************************/
 526:Generated_Source\PSoC5/USBUART_drv.c **** void USBUART_ControlReadStatusStage(void) 
 527:Generated_Source\PSoC5/USBUART_drv.c **** {
 779              		.loc 1 527 0
 780              		.cfi_startproc
 781              		@ args = 0, pretend = 0, frame = 0
 782              		@ frame_needed = 1, uses_anonymous_args = 0
ARM GAS  C:\Users\Greg\AppData\Local\Temp\ccWhExNe.s 			page 24


 783 0000 80B5     		push	{r7, lr}
 784              		.cfi_def_cfa_offset 8
 785              		.cfi_offset 7, -8
 786              		.cfi_offset 14, -4
 787 0002 00AF     		add	r7, sp, #0
 788              		.cfi_def_cfa_register 7
 528:Generated_Source\PSoC5/USBUART_drv.c ****     /* Update the transfer byte count */
 529:Generated_Source\PSoC5/USBUART_drv.c ****     USBUART_transferByteCount += USBUART_lastPacketSize;
 789              		.loc 1 529 0
 790 0004 0A4B     		ldr	r3, .L68
 791 0006 1B78     		ldrb	r3, [r3]
 792 0008 DBB2     		uxtb	r3, r3
 793 000a 9AB2     		uxth	r2, r3
 794 000c 094B     		ldr	r3, .L68+4
 795 000e 1B88     		ldrh	r3, [r3]	@ movhi
 796 0010 9BB2     		uxth	r3, r3
 797 0012 1344     		add	r3, r3, r2
 798 0014 9AB2     		uxth	r2, r3
 799 0016 074B     		ldr	r3, .L68+4
 800 0018 1A80     		strh	r2, [r3]	@ movhi
 530:Generated_Source\PSoC5/USBUART_drv.c ****     
 531:Generated_Source\PSoC5/USBUART_drv.c ****     /* Go Idle */
 532:Generated_Source\PSoC5/USBUART_drv.c ****     USBUART_transferState = USBUART_TRANS_STATE_IDLE;
 801              		.loc 1 532 0
 802 001a 074B     		ldr	r3, .L68+8
 803 001c 0022     		movs	r2, #0
 804 001e 1A70     		strb	r2, [r3]
 533:Generated_Source\PSoC5/USBUART_drv.c ****     
 534:Generated_Source\PSoC5/USBUART_drv.c ****     /* Update the completion block */
 535:Generated_Source\PSoC5/USBUART_drv.c ****     USBUART_UpdateStatusBlock(USBUART_XFER_STATUS_ACK);
 805              		.loc 1 535 0
 806 0020 0120     		movs	r0, #1
 807 0022 FFF7FEFF 		bl	USBUART_UpdateStatusBlock
 536:Generated_Source\PSoC5/USBUART_drv.c ****     
 537:Generated_Source\PSoC5/USBUART_drv.c ****     /* We expect no more data, so stall INs and OUTs */
 538:Generated_Source\PSoC5/USBUART_drv.c ****     USBUART_ep0Mode = USBUART_MODE_STALL_IN_OUT;
 808              		.loc 1 538 0
 809 0026 054B     		ldr	r3, .L68+12
 810 0028 0322     		movs	r2, #3
 811 002a 1A70     		strb	r2, [r3]
 539:Generated_Source\PSoC5/USBUART_drv.c **** }
 812              		.loc 1 539 0
 813 002c 80BD     		pop	{r7, pc}
 814              	.L69:
 815 002e 00BF     		.align	2
 816              	.L68:
 817 0030 00000000 		.word	USBUART_lastPacketSize
 818 0034 00000000 		.word	USBUART_transferByteCount
 819 0038 00000000 		.word	USBUART_transferState
 820 003c 00000000 		.word	USBUART_ep0Mode
 821              		.cfi_endproc
 822              	.LFE8:
 823              		.size	USBUART_ControlReadStatusStage, .-USBUART_ControlReadStatusStage
 824              		.section	.text.USBUART_InitControlWrite,"ax",%progbits
 825              		.align	2
 826              		.global	USBUART_InitControlWrite
 827              		.thumb
ARM GAS  C:\Users\Greg\AppData\Local\Temp\ccWhExNe.s 			page 25


 828              		.thumb_func
 829              		.type	USBUART_InitControlWrite, %function
 830              	USBUART_InitControlWrite:
 831              	.LFB9:
 540:Generated_Source\PSoC5/USBUART_drv.c **** 
 541:Generated_Source\PSoC5/USBUART_drv.c **** 
 542:Generated_Source\PSoC5/USBUART_drv.c **** /*******************************************************************************
 543:Generated_Source\PSoC5/USBUART_drv.c **** * Function Name: USBUART_InitControlWrite
 544:Generated_Source\PSoC5/USBUART_drv.c **** ****************************************************************************//**
 545:Generated_Source\PSoC5/USBUART_drv.c **** *
 546:Generated_Source\PSoC5/USBUART_drv.c **** *  Initialize a control write transaction
 547:Generated_Source\PSoC5/USBUART_drv.c **** *
 548:Generated_Source\PSoC5/USBUART_drv.c **** * \return
 549:Generated_Source\PSoC5/USBUART_drv.c **** *  requestHandled state.
 550:Generated_Source\PSoC5/USBUART_drv.c **** *
 551:Generated_Source\PSoC5/USBUART_drv.c **** * \globalvars
 552:Generated_Source\PSoC5/USBUART_drv.c **** *  USBUART_USBFS_transferState - set to TRANS_STATE_CONTROL_WRITE
 553:Generated_Source\PSoC5/USBUART_drv.c **** *  USBUART_ep0Toggle - set to EP0_CNT_DATA_TOGGLE
 554:Generated_Source\PSoC5/USBUART_drv.c **** *  USBUART_ep0Mode  - set to MODE_ACK_OUT_STATUS_IN
 555:Generated_Source\PSoC5/USBUART_drv.c **** *
 556:Generated_Source\PSoC5/USBUART_drv.c **** * \reentrant
 557:Generated_Source\PSoC5/USBUART_drv.c **** *  No.
 558:Generated_Source\PSoC5/USBUART_drv.c **** *
 559:Generated_Source\PSoC5/USBUART_drv.c **** *******************************************************************************/
 560:Generated_Source\PSoC5/USBUART_drv.c **** uint8 USBUART_InitControlWrite(void) 
 561:Generated_Source\PSoC5/USBUART_drv.c **** {
 832              		.loc 1 561 0
 833              		.cfi_startproc
 834              		@ args = 0, pretend = 0, frame = 8
 835              		@ frame_needed = 1, uses_anonymous_args = 0
 836 0000 80B5     		push	{r7, lr}
 837              		.cfi_def_cfa_offset 8
 838              		.cfi_offset 7, -8
 839              		.cfi_offset 14, -4
 840 0002 82B0     		sub	sp, sp, #8
 841              		.cfi_def_cfa_offset 16
 842 0004 00AF     		add	r7, sp, #0
 843              		.cfi_def_cfa_register 7
 562:Generated_Source\PSoC5/USBUART_drv.c ****     uint16 xferCount;
 563:Generated_Source\PSoC5/USBUART_drv.c **** 
 564:Generated_Source\PSoC5/USBUART_drv.c ****     /* Set up the state machine */
 565:Generated_Source\PSoC5/USBUART_drv.c ****     USBUART_transferState = USBUART_TRANS_STATE_CONTROL_WRITE;
 844              		.loc 1 565 0
 845 0006 124B     		ldr	r3, .L73
 846 0008 0422     		movs	r2, #4
 847 000a 1A70     		strb	r2, [r3]
 566:Generated_Source\PSoC5/USBUART_drv.c ****     
 567:Generated_Source\PSoC5/USBUART_drv.c ****     /* This might not be necessary */
 568:Generated_Source\PSoC5/USBUART_drv.c ****     USBUART_ep0Toggle = USBUART_EP0_CNT_DATA_TOGGLE;
 848              		.loc 1 568 0
 849 000c 114B     		ldr	r3, .L73+4
 850 000e 8022     		movs	r2, #128
 851 0010 1A70     		strb	r2, [r3]
 569:Generated_Source\PSoC5/USBUART_drv.c ****     
 570:Generated_Source\PSoC5/USBUART_drv.c ****     /* Initialize the Status Block */
 571:Generated_Source\PSoC5/USBUART_drv.c ****     USBUART_InitializeStatusBlock();
 852              		.loc 1 571 0
ARM GAS  C:\Users\Greg\AppData\Local\Temp\ccWhExNe.s 			page 26


 853 0012 FFF7FEFF 		bl	USBUART_InitializeStatusBlock
 572:Generated_Source\PSoC5/USBUART_drv.c **** 
 573:Generated_Source\PSoC5/USBUART_drv.c ****     xferCount = ((uint16)((uint16) USBUART_lengthHiReg << 8u) | ((uint16) USBUART_lengthLoReg));
 854              		.loc 1 573 0
 855 0016 104B     		ldr	r3, .L73+8
 856 0018 DB79     		ldrb	r3, [r3, #7]
 857 001a DBB2     		uxtb	r3, r3
 858 001c 9BB2     		uxth	r3, r3
 859 001e 1B02     		lsls	r3, r3, #8
 860 0020 9AB2     		uxth	r2, r3
 861 0022 0D4B     		ldr	r3, .L73+8
 862 0024 9B79     		ldrb	r3, [r3, #6]
 863 0026 DBB2     		uxtb	r3, r3
 864 0028 9BB2     		uxth	r3, r3
 865 002a 1343     		orrs	r3, r3, r2
 866 002c FB80     		strh	r3, [r7, #6]	@ movhi
 574:Generated_Source\PSoC5/USBUART_drv.c **** 
 575:Generated_Source\PSoC5/USBUART_drv.c ****     if (USBUART_currentTD.count > xferCount)
 867              		.loc 1 575 0
 868 002e 0B4B     		ldr	r3, .L73+12
 869 0030 1B88     		ldrh	r3, [r3]	@ movhi
 870 0032 9BB2     		uxth	r3, r3
 871 0034 FA88     		ldrh	r2, [r7, #6]
 872 0036 9A42     		cmp	r2, r3
 873 0038 02D2     		bcs	.L71
 576:Generated_Source\PSoC5/USBUART_drv.c ****     {
 577:Generated_Source\PSoC5/USBUART_drv.c ****         USBUART_currentTD.count = xferCount;
 874              		.loc 1 577 0
 875 003a 084A     		ldr	r2, .L73+12
 876 003c FB88     		ldrh	r3, [r7, #6]	@ movhi
 877 003e 1380     		strh	r3, [r2]	@ movhi
 878              	.L71:
 578:Generated_Source\PSoC5/USBUART_drv.c ****     }
 579:Generated_Source\PSoC5/USBUART_drv.c **** 
 580:Generated_Source\PSoC5/USBUART_drv.c ****     /* Expect Data or Status Stage */
 581:Generated_Source\PSoC5/USBUART_drv.c ****     USBUART_ep0Mode = USBUART_MODE_ACK_OUT_STATUS_IN;
 879              		.loc 1 581 0
 880 0040 074B     		ldr	r3, .L73+16
 881 0042 0B22     		movs	r2, #11
 882 0044 1A70     		strb	r2, [r3]
 582:Generated_Source\PSoC5/USBUART_drv.c **** 
 583:Generated_Source\PSoC5/USBUART_drv.c ****     return(USBUART_TRUE);
 883              		.loc 1 583 0
 884 0046 0123     		movs	r3, #1
 584:Generated_Source\PSoC5/USBUART_drv.c **** }
 885              		.loc 1 584 0
 886 0048 1846     		mov	r0, r3
 887 004a 0837     		adds	r7, r7, #8
 888              		.cfi_def_cfa_offset 8
 889 004c BD46     		mov	sp, r7
 890              		.cfi_def_cfa_register 13
 891              		@ sp needed
 892 004e 80BD     		pop	{r7, pc}
 893              	.L74:
 894              		.align	2
 895              	.L73:
 896 0050 00000000 		.word	USBUART_transferState
ARM GAS  C:\Users\Greg\AppData\Local\Temp\ccWhExNe.s 			page 27


 897 0054 00000000 		.word	USBUART_ep0Toggle
 898 0058 00600040 		.word	1073766400
 899 005c 00000000 		.word	USBUART_currentTD
 900 0060 00000000 		.word	USBUART_ep0Mode
 901              		.cfi_endproc
 902              	.LFE9:
 903              		.size	USBUART_InitControlWrite, .-USBUART_InitControlWrite
 904              		.section	.text.USBUART_ControlWriteDataStage,"ax",%progbits
 905              		.align	2
 906              		.global	USBUART_ControlWriteDataStage
 907              		.thumb
 908              		.thumb_func
 909              		.type	USBUART_ControlWriteDataStage, %function
 910              	USBUART_ControlWriteDataStage:
 911              	.LFB10:
 585:Generated_Source\PSoC5/USBUART_drv.c **** 
 586:Generated_Source\PSoC5/USBUART_drv.c **** 
 587:Generated_Source\PSoC5/USBUART_drv.c **** /*******************************************************************************
 588:Generated_Source\PSoC5/USBUART_drv.c **** * Function Name: USBUART_ControlWriteDataStage
 589:Generated_Source\PSoC5/USBUART_drv.c **** ****************************************************************************//**
 590:Generated_Source\PSoC5/USBUART_drv.c **** *
 591:Generated_Source\PSoC5/USBUART_drv.c **** *  Handle the Data Stage of a control write transfer
 592:Generated_Source\PSoC5/USBUART_drv.c **** *       1. Get the data (We assume the destination was validated previously)
 593:Generated_Source\PSoC5/USBUART_drv.c **** *       2. Update the count and data toggle
 594:Generated_Source\PSoC5/USBUART_drv.c **** *       3. Update the mode register for the next transaction
 595:Generated_Source\PSoC5/USBUART_drv.c **** *
 596:Generated_Source\PSoC5/USBUART_drv.c **** *
 597:Generated_Source\PSoC5/USBUART_drv.c **** * \globalvars
 598:Generated_Source\PSoC5/USBUART_drv.c **** *  USBUART_transferByteCount - Update the transfer byte count from the
 599:Generated_Source\PSoC5/USBUART_drv.c **** *    last transaction.
 600:Generated_Source\PSoC5/USBUART_drv.c **** *  USBUART_ep0Count - counts the data loaded from the SIE memory
 601:Generated_Source\PSoC5/USBUART_drv.c **** *    in current packet.
 602:Generated_Source\PSoC5/USBUART_drv.c **** *  USBUART_transferByteCount - sum of the previous bytes transferred
 603:Generated_Source\PSoC5/USBUART_drv.c **** *    on previous packets(sum of USBFS_lastPacketSize)
 604:Generated_Source\PSoC5/USBUART_drv.c **** *  USBUART_ep0Toggle - inverted
 605:Generated_Source\PSoC5/USBUART_drv.c **** *  USBUART_ep0Mode  - set to MODE_ACK_OUT_STATUS_IN.
 606:Generated_Source\PSoC5/USBUART_drv.c **** *
 607:Generated_Source\PSoC5/USBUART_drv.c **** * \reentrant
 608:Generated_Source\PSoC5/USBUART_drv.c **** *  No.
 609:Generated_Source\PSoC5/USBUART_drv.c **** *
 610:Generated_Source\PSoC5/USBUART_drv.c **** *******************************************************************************/
 611:Generated_Source\PSoC5/USBUART_drv.c **** void USBUART_ControlWriteDataStage(void) 
 612:Generated_Source\PSoC5/USBUART_drv.c **** {
 912              		.loc 1 612 0
 913              		.cfi_startproc
 914              		@ args = 0, pretend = 0, frame = 8
 915              		@ frame_needed = 1, uses_anonymous_args = 0
 916              		@ link register save eliminated.
 917 0000 80B4     		push	{r7}
 918              		.cfi_def_cfa_offset 4
 919              		.cfi_offset 7, -4
 920 0002 83B0     		sub	sp, sp, #12
 921              		.cfi_def_cfa_offset 16
 922 0004 00AF     		add	r7, sp, #0
 923              		.cfi_def_cfa_register 7
 613:Generated_Source\PSoC5/USBUART_drv.c ****     uint8 ep0Count;
 614:Generated_Source\PSoC5/USBUART_drv.c ****     uint8 regIndex = 0u;
ARM GAS  C:\Users\Greg\AppData\Local\Temp\ccWhExNe.s 			page 28


 924              		.loc 1 614 0
 925 0006 0023     		movs	r3, #0
 926 0008 BB71     		strb	r3, [r7, #6]
 615:Generated_Source\PSoC5/USBUART_drv.c **** 
 616:Generated_Source\PSoC5/USBUART_drv.c ****     ep0Count = (USBUART_EP0_CNT_REG & USBUART_EPX_CNT0_MASK) - USBUART_EPX_CNTX_CRC_COUNT;
 927              		.loc 1 616 0
 928 000a 234B     		ldr	r3, .L79
 929 000c 1B78     		ldrb	r3, [r3]
 930 000e DBB2     		uxtb	r3, r3
 931 0010 03F00F03 		and	r3, r3, #15
 932 0014 DBB2     		uxtb	r3, r3
 933 0016 023B     		subs	r3, r3, #2
 934 0018 FB71     		strb	r3, [r7, #7]
 617:Generated_Source\PSoC5/USBUART_drv.c **** 
 618:Generated_Source\PSoC5/USBUART_drv.c ****     USBUART_transferByteCount += (uint8)ep0Count;
 935              		.loc 1 618 0
 936 001a FB79     		ldrb	r3, [r7, #7]	@ zero_extendqisi2
 937 001c 9AB2     		uxth	r2, r3
 938 001e 1F4B     		ldr	r3, .L79+4
 939 0020 1B88     		ldrh	r3, [r3]	@ movhi
 940 0022 9BB2     		uxth	r3, r3
 941 0024 1344     		add	r3, r3, r2
 942 0026 9AB2     		uxth	r2, r3
 943 0028 1C4B     		ldr	r3, .L79+4
 944 002a 1A80     		strh	r2, [r3]	@ movhi
 619:Generated_Source\PSoC5/USBUART_drv.c **** 
 620:Generated_Source\PSoC5/USBUART_drv.c ****     while ((USBUART_currentTD.count > 0u) && (ep0Count > 0u))
 945              		.loc 1 620 0
 946 002c 18E0     		b	.L76
 947              	.L78:
 621:Generated_Source\PSoC5/USBUART_drv.c ****     {
 622:Generated_Source\PSoC5/USBUART_drv.c ****         *USBUART_currentTD.pData = (uint8) USBUART_EP0_DR_BASE.epData[regIndex];
 948              		.loc 1 622 0
 949 002e 1C4B     		ldr	r3, .L79+8
 950 0030 5B68     		ldr	r3, [r3, #4]
 951 0032 1C49     		ldr	r1, .L79+12
 952 0034 BA79     		ldrb	r2, [r7, #6]	@ zero_extendqisi2
 953 0036 8A5C     		ldrb	r2, [r1, r2]
 954 0038 D2B2     		uxtb	r2, r2
 955 003a 1A70     		strb	r2, [r3]
 623:Generated_Source\PSoC5/USBUART_drv.c ****         USBUART_currentTD.pData = &USBUART_currentTD.pData[1u];
 956              		.loc 1 623 0
 957 003c 184B     		ldr	r3, .L79+8
 958 003e 5B68     		ldr	r3, [r3, #4]
 959 0040 0133     		adds	r3, r3, #1
 960 0042 174A     		ldr	r2, .L79+8
 961 0044 5360     		str	r3, [r2, #4]
 624:Generated_Source\PSoC5/USBUART_drv.c ****         regIndex++;
 962              		.loc 1 624 0
 963 0046 BB79     		ldrb	r3, [r7, #6]	@ zero_extendqisi2
 964 0048 0133     		adds	r3, r3, #1
 965 004a BB71     		strb	r3, [r7, #6]
 625:Generated_Source\PSoC5/USBUART_drv.c ****         ep0Count--;
 966              		.loc 1 625 0
 967 004c FB79     		ldrb	r3, [r7, #7]	@ zero_extendqisi2
 968 004e 013B     		subs	r3, r3, #1
 969 0050 FB71     		strb	r3, [r7, #7]
ARM GAS  C:\Users\Greg\AppData\Local\Temp\ccWhExNe.s 			page 29


 626:Generated_Source\PSoC5/USBUART_drv.c ****         USBUART_currentTD.count--;
 970              		.loc 1 626 0
 971 0052 134B     		ldr	r3, .L79+8
 972 0054 1B88     		ldrh	r3, [r3]	@ movhi
 973 0056 9BB2     		uxth	r3, r3
 974 0058 013B     		subs	r3, r3, #1
 975 005a 9AB2     		uxth	r2, r3
 976 005c 104B     		ldr	r3, .L79+8
 977 005e 1A80     		strh	r2, [r3]	@ movhi
 978              	.L76:
 620:Generated_Source\PSoC5/USBUART_drv.c ****     {
 979              		.loc 1 620 0
 980 0060 0F4B     		ldr	r3, .L79+8
 981 0062 1B88     		ldrh	r3, [r3]	@ movhi
 982 0064 9BB2     		uxth	r3, r3
 983 0066 002B     		cmp	r3, #0
 984 0068 02D0     		beq	.L77
 620:Generated_Source\PSoC5/USBUART_drv.c ****     {
 985              		.loc 1 620 0 is_stmt 0 discriminator 1
 986 006a FB79     		ldrb	r3, [r7, #7]	@ zero_extendqisi2
 987 006c 002B     		cmp	r3, #0
 988 006e DED1     		bne	.L78
 989              	.L77:
 627:Generated_Source\PSoC5/USBUART_drv.c ****     }
 628:Generated_Source\PSoC5/USBUART_drv.c ****     
 629:Generated_Source\PSoC5/USBUART_drv.c ****     USBUART_ep0Count = (uint8)ep0Count;
 990              		.loc 1 629 0 is_stmt 1
 991 0070 0D4A     		ldr	r2, .L79+16
 992 0072 FB79     		ldrb	r3, [r7, #7]
 993 0074 1370     		strb	r3, [r2]
 630:Generated_Source\PSoC5/USBUART_drv.c ****     
 631:Generated_Source\PSoC5/USBUART_drv.c ****     /* Update the data toggle */
 632:Generated_Source\PSoC5/USBUART_drv.c ****     USBUART_ep0Toggle ^= USBUART_EP0_CNT_DATA_TOGGLE;
 994              		.loc 1 632 0
 995 0076 0D4B     		ldr	r3, .L79+20
 996 0078 1B78     		ldrb	r3, [r3]
 997 007a DBB2     		uxtb	r3, r3
 998 007c 83F07F03 		eor	r3, r3, #127
 999 0080 DB43     		mvns	r3, r3
 1000 0082 DAB2     		uxtb	r2, r3
 1001 0084 094B     		ldr	r3, .L79+20
 1002 0086 1A70     		strb	r2, [r3]
 633:Generated_Source\PSoC5/USBUART_drv.c ****     
 634:Generated_Source\PSoC5/USBUART_drv.c ****     /* Expect Data or Status Stage */
 635:Generated_Source\PSoC5/USBUART_drv.c ****     USBUART_ep0Mode = USBUART_MODE_ACK_OUT_STATUS_IN;
 1003              		.loc 1 635 0
 1004 0088 094B     		ldr	r3, .L79+24
 1005 008a 0B22     		movs	r2, #11
 1006 008c 1A70     		strb	r2, [r3]
 636:Generated_Source\PSoC5/USBUART_drv.c **** }
 1007              		.loc 1 636 0
 1008 008e 0C37     		adds	r7, r7, #12
 1009              		.cfi_def_cfa_offset 4
 1010 0090 BD46     		mov	sp, r7
 1011              		.cfi_def_cfa_register 13
 1012              		@ sp needed
 1013 0092 5DF8047B 		ldr	r7, [sp], #4
ARM GAS  C:\Users\Greg\AppData\Local\Temp\ccWhExNe.s 			page 30


 1014              		.cfi_restore 7
 1015              		.cfi_def_cfa_offset 0
 1016 0096 7047     		bx	lr
 1017              	.L80:
 1018              		.align	2
 1019              	.L79:
 1020 0098 29600040 		.word	1073766441
 1021 009c 00000000 		.word	USBUART_transferByteCount
 1022 00a0 00000000 		.word	USBUART_currentTD
 1023 00a4 00600040 		.word	1073766400
 1024 00a8 00000000 		.word	USBUART_ep0Count
 1025 00ac 00000000 		.word	USBUART_ep0Toggle
 1026 00b0 00000000 		.word	USBUART_ep0Mode
 1027              		.cfi_endproc
 1028              	.LFE10:
 1029              		.size	USBUART_ControlWriteDataStage, .-USBUART_ControlWriteDataStage
 1030              		.section	.text.USBUART_ControlWriteStatusStage,"ax",%progbits
 1031              		.align	2
 1032              		.global	USBUART_ControlWriteStatusStage
 1033              		.thumb
 1034              		.thumb_func
 1035              		.type	USBUART_ControlWriteStatusStage, %function
 1036              	USBUART_ControlWriteStatusStage:
 1037              	.LFB11:
 637:Generated_Source\PSoC5/USBUART_drv.c **** 
 638:Generated_Source\PSoC5/USBUART_drv.c **** 
 639:Generated_Source\PSoC5/USBUART_drv.c **** /*******************************************************************************
 640:Generated_Source\PSoC5/USBUART_drv.c **** * Function Name: USBUART_ControlWriteStatusStage
 641:Generated_Source\PSoC5/USBUART_drv.c **** ****************************************************************************//**
 642:Generated_Source\PSoC5/USBUART_drv.c **** *
 643:Generated_Source\PSoC5/USBUART_drv.c **** *  Handle the Status Stage of a control write transfer
 644:Generated_Source\PSoC5/USBUART_drv.c **** *
 645:Generated_Source\PSoC5/USBUART_drv.c **** * \globalvars
 646:Generated_Source\PSoC5/USBUART_drv.c **** *  USBUART_transferState - set to TRANS_STATE_IDLE.
 647:Generated_Source\PSoC5/USBUART_drv.c **** *  USBUART_USBFS_ep0Mode  - set to MODE_STALL_IN_OUT.
 648:Generated_Source\PSoC5/USBUART_drv.c **** *
 649:Generated_Source\PSoC5/USBUART_drv.c **** * \reentrant
 650:Generated_Source\PSoC5/USBUART_drv.c **** *  No.
 651:Generated_Source\PSoC5/USBUART_drv.c **** *
 652:Generated_Source\PSoC5/USBUART_drv.c **** *******************************************************************************/
 653:Generated_Source\PSoC5/USBUART_drv.c **** void USBUART_ControlWriteStatusStage(void) 
 654:Generated_Source\PSoC5/USBUART_drv.c **** {
 1038              		.loc 1 654 0
 1039              		.cfi_startproc
 1040              		@ args = 0, pretend = 0, frame = 0
 1041              		@ frame_needed = 1, uses_anonymous_args = 0
 1042 0000 80B5     		push	{r7, lr}
 1043              		.cfi_def_cfa_offset 8
 1044              		.cfi_offset 7, -8
 1045              		.cfi_offset 14, -4
 1046 0002 00AF     		add	r7, sp, #0
 1047              		.cfi_def_cfa_register 7
 655:Generated_Source\PSoC5/USBUART_drv.c ****     /* Go Idle */
 656:Generated_Source\PSoC5/USBUART_drv.c ****     USBUART_transferState = USBUART_TRANS_STATE_IDLE;
 1048              		.loc 1 656 0
 1049 0004 044B     		ldr	r3, .L82
 1050 0006 0022     		movs	r2, #0
ARM GAS  C:\Users\Greg\AppData\Local\Temp\ccWhExNe.s 			page 31


 1051 0008 1A70     		strb	r2, [r3]
 657:Generated_Source\PSoC5/USBUART_drv.c ****     
 658:Generated_Source\PSoC5/USBUART_drv.c ****     /* Update the completion block */    
 659:Generated_Source\PSoC5/USBUART_drv.c ****     USBUART_UpdateStatusBlock(USBUART_XFER_STATUS_ACK);
 1052              		.loc 1 659 0
 1053 000a 0120     		movs	r0, #1
 1054 000c FFF7FEFF 		bl	USBUART_UpdateStatusBlock
 660:Generated_Source\PSoC5/USBUART_drv.c ****     
 661:Generated_Source\PSoC5/USBUART_drv.c ****     /* We expect no more data, so stall INs and OUTs */
 662:Generated_Source\PSoC5/USBUART_drv.c ****     USBUART_ep0Mode = USBUART_MODE_STALL_IN_OUT;
 1055              		.loc 1 662 0
 1056 0010 024B     		ldr	r3, .L82+4
 1057 0012 0322     		movs	r2, #3
 1058 0014 1A70     		strb	r2, [r3]
 663:Generated_Source\PSoC5/USBUART_drv.c **** }
 1059              		.loc 1 663 0
 1060 0016 80BD     		pop	{r7, pc}
 1061              	.L83:
 1062              		.align	2
 1063              	.L82:
 1064 0018 00000000 		.word	USBUART_transferState
 1065 001c 00000000 		.word	USBUART_ep0Mode
 1066              		.cfi_endproc
 1067              	.LFE11:
 1068              		.size	USBUART_ControlWriteStatusStage, .-USBUART_ControlWriteStatusStage
 1069              		.section	.text.USBUART_InitNoDataControlTransfer,"ax",%progbits
 1070              		.align	2
 1071              		.global	USBUART_InitNoDataControlTransfer
 1072              		.thumb
 1073              		.thumb_func
 1074              		.type	USBUART_InitNoDataControlTransfer, %function
 1075              	USBUART_InitNoDataControlTransfer:
 1076              	.LFB12:
 664:Generated_Source\PSoC5/USBUART_drv.c **** 
 665:Generated_Source\PSoC5/USBUART_drv.c **** 
 666:Generated_Source\PSoC5/USBUART_drv.c **** /*******************************************************************************
 667:Generated_Source\PSoC5/USBUART_drv.c **** * Function Name: USBUART_InitNoDataControlTransfer
 668:Generated_Source\PSoC5/USBUART_drv.c **** ****************************************************************************//**
 669:Generated_Source\PSoC5/USBUART_drv.c **** *
 670:Generated_Source\PSoC5/USBUART_drv.c **** *  Initialize a no data control transfer
 671:Generated_Source\PSoC5/USBUART_drv.c **** *
 672:Generated_Source\PSoC5/USBUART_drv.c **** * \return
 673:Generated_Source\PSoC5/USBUART_drv.c **** *  requestHandled state.
 674:Generated_Source\PSoC5/USBUART_drv.c **** *
 675:Generated_Source\PSoC5/USBUART_drv.c **** * \globalvars
 676:Generated_Source\PSoC5/USBUART_drv.c **** *  USBUART_transferState - set to TRANS_STATE_NO_DATA_CONTROL.
 677:Generated_Source\PSoC5/USBUART_drv.c **** *  USBUART_ep0Mode  - set to MODE_STATUS_IN_ONLY.
 678:Generated_Source\PSoC5/USBUART_drv.c **** *  USBUART_ep0Count - cleared.
 679:Generated_Source\PSoC5/USBUART_drv.c **** *  USBUART_ep0Toggle - set to EP0_CNT_DATA_TOGGLE
 680:Generated_Source\PSoC5/USBUART_drv.c **** *
 681:Generated_Source\PSoC5/USBUART_drv.c **** * \reentrant
 682:Generated_Source\PSoC5/USBUART_drv.c **** *  No.
 683:Generated_Source\PSoC5/USBUART_drv.c **** *
 684:Generated_Source\PSoC5/USBUART_drv.c **** *******************************************************************************/
 685:Generated_Source\PSoC5/USBUART_drv.c **** uint8 USBUART_InitNoDataControlTransfer(void) 
 686:Generated_Source\PSoC5/USBUART_drv.c **** {
 1077              		.loc 1 686 0
ARM GAS  C:\Users\Greg\AppData\Local\Temp\ccWhExNe.s 			page 32


 1078              		.cfi_startproc
 1079              		@ args = 0, pretend = 0, frame = 0
 1080              		@ frame_needed = 1, uses_anonymous_args = 0
 1081              		@ link register save eliminated.
 1082 0000 80B4     		push	{r7}
 1083              		.cfi_def_cfa_offset 4
 1084              		.cfi_offset 7, -4
 1085 0002 00AF     		add	r7, sp, #0
 1086              		.cfi_def_cfa_register 7
 687:Generated_Source\PSoC5/USBUART_drv.c ****     USBUART_transferState = USBUART_TRANS_STATE_NO_DATA_CONTROL;
 1087              		.loc 1 687 0
 1088 0004 084B     		ldr	r3, .L86
 1089 0006 0622     		movs	r2, #6
 1090 0008 1A70     		strb	r2, [r3]
 688:Generated_Source\PSoC5/USBUART_drv.c ****     USBUART_ep0Mode       = USBUART_MODE_STATUS_IN_ONLY;
 1091              		.loc 1 688 0
 1092 000a 084B     		ldr	r3, .L86+4
 1093 000c 0622     		movs	r2, #6
 1094 000e 1A70     		strb	r2, [r3]
 689:Generated_Source\PSoC5/USBUART_drv.c ****     USBUART_ep0Toggle     = USBUART_EP0_CNT_DATA_TOGGLE;
 1095              		.loc 1 689 0
 1096 0010 074B     		ldr	r3, .L86+8
 1097 0012 8022     		movs	r2, #128
 1098 0014 1A70     		strb	r2, [r3]
 690:Generated_Source\PSoC5/USBUART_drv.c ****     USBUART_ep0Count      = 0u;
 1099              		.loc 1 690 0
 1100 0016 074B     		ldr	r3, .L86+12
 1101 0018 0022     		movs	r2, #0
 1102 001a 1A70     		strb	r2, [r3]
 691:Generated_Source\PSoC5/USBUART_drv.c **** 
 692:Generated_Source\PSoC5/USBUART_drv.c ****     return (USBUART_TRUE);
 1103              		.loc 1 692 0
 1104 001c 0123     		movs	r3, #1
 693:Generated_Source\PSoC5/USBUART_drv.c **** }
 1105              		.loc 1 693 0
 1106 001e 1846     		mov	r0, r3
 1107 0020 BD46     		mov	sp, r7
 1108              		.cfi_def_cfa_register 13
 1109              		@ sp needed
 1110 0022 5DF8047B 		ldr	r7, [sp], #4
 1111              		.cfi_restore 7
 1112              		.cfi_def_cfa_offset 0
 1113 0026 7047     		bx	lr
 1114              	.L87:
 1115              		.align	2
 1116              	.L86:
 1117 0028 00000000 		.word	USBUART_transferState
 1118 002c 00000000 		.word	USBUART_ep0Mode
 1119 0030 00000000 		.word	USBUART_ep0Toggle
 1120 0034 00000000 		.word	USBUART_ep0Count
 1121              		.cfi_endproc
 1122              	.LFE12:
 1123              		.size	USBUART_InitNoDataControlTransfer, .-USBUART_InitNoDataControlTransfer
 1124              		.section	.text.USBUART_NoDataControlStatusStage,"ax",%progbits
 1125              		.align	2
 1126              		.global	USBUART_NoDataControlStatusStage
 1127              		.thumb
ARM GAS  C:\Users\Greg\AppData\Local\Temp\ccWhExNe.s 			page 33


 1128              		.thumb_func
 1129              		.type	USBUART_NoDataControlStatusStage, %function
 1130              	USBUART_NoDataControlStatusStage:
 1131              	.LFB13:
 694:Generated_Source\PSoC5/USBUART_drv.c **** 
 695:Generated_Source\PSoC5/USBUART_drv.c **** 
 696:Generated_Source\PSoC5/USBUART_drv.c **** /*******************************************************************************
 697:Generated_Source\PSoC5/USBUART_drv.c **** * Function Name: USBUART_NoDataControlStatusStage
 698:Generated_Source\PSoC5/USBUART_drv.c **** ****************************************************************************//**
 699:Generated_Source\PSoC5/USBUART_drv.c **** *  Handle the Status Stage of a no data control transfer.
 700:Generated_Source\PSoC5/USBUART_drv.c **** *
 701:Generated_Source\PSoC5/USBUART_drv.c **** *  SET_ADDRESS is special, since we need to receive the status stage with
 702:Generated_Source\PSoC5/USBUART_drv.c **** *  the old address.
 703:Generated_Source\PSoC5/USBUART_drv.c **** *
 704:Generated_Source\PSoC5/USBUART_drv.c **** * \globalvars
 705:Generated_Source\PSoC5/USBUART_drv.c **** *  USBUART_transferState - set to TRANS_STATE_IDLE.
 706:Generated_Source\PSoC5/USBUART_drv.c **** *  USBUART_ep0Mode  - set to MODE_STALL_IN_OUT.
 707:Generated_Source\PSoC5/USBUART_drv.c **** *  USBUART_ep0Toggle - set to EP0_CNT_DATA_TOGGLE
 708:Generated_Source\PSoC5/USBUART_drv.c **** *  USBUART_deviceAddress - used to set new address and cleared
 709:Generated_Source\PSoC5/USBUART_drv.c **** *
 710:Generated_Source\PSoC5/USBUART_drv.c **** * \reentrant
 711:Generated_Source\PSoC5/USBUART_drv.c **** *  No.
 712:Generated_Source\PSoC5/USBUART_drv.c **** *
 713:Generated_Source\PSoC5/USBUART_drv.c **** *******************************************************************************/
 714:Generated_Source\PSoC5/USBUART_drv.c **** void USBUART_NoDataControlStatusStage(void) 
 715:Generated_Source\PSoC5/USBUART_drv.c **** {
 1132              		.loc 1 715 0
 1133              		.cfi_startproc
 1134              		@ args = 0, pretend = 0, frame = 0
 1135              		@ frame_needed = 1, uses_anonymous_args = 0
 1136 0000 80B5     		push	{r7, lr}
 1137              		.cfi_def_cfa_offset 8
 1138              		.cfi_offset 7, -8
 1139              		.cfi_offset 14, -4
 1140 0002 00AF     		add	r7, sp, #0
 1141              		.cfi_def_cfa_register 7
 716:Generated_Source\PSoC5/USBUART_drv.c ****     if (0u != USBUART_deviceAddress)
 1142              		.loc 1 716 0
 1143 0004 0C4B     		ldr	r3, .L90
 1144 0006 1B78     		ldrb	r3, [r3]
 1145 0008 DBB2     		uxtb	r3, r3
 1146 000a 002B     		cmp	r3, #0
 1147 000c 0AD0     		beq	.L89
 717:Generated_Source\PSoC5/USBUART_drv.c ****     {
 718:Generated_Source\PSoC5/USBUART_drv.c ****         /* Update device address if we got new address. */
 719:Generated_Source\PSoC5/USBUART_drv.c ****         USBUART_CR0_REG = (uint8) USBUART_deviceAddress | USBUART_CR0_ENABLE;
 1148              		.loc 1 719 0
 1149 000e 0B4A     		ldr	r2, .L90+4
 1150 0010 094B     		ldr	r3, .L90
 1151 0012 1B78     		ldrb	r3, [r3]
 1152 0014 DBB2     		uxtb	r3, r3
 1153 0016 63F07F03 		orn	r3, r3, #127
 1154 001a DBB2     		uxtb	r3, r3
 1155 001c 1370     		strb	r3, [r2]
 720:Generated_Source\PSoC5/USBUART_drv.c ****         USBUART_deviceAddress = 0u;
 1156              		.loc 1 720 0
 1157 001e 064B     		ldr	r3, .L90
ARM GAS  C:\Users\Greg\AppData\Local\Temp\ccWhExNe.s 			page 34


 1158 0020 0022     		movs	r2, #0
 1159 0022 1A70     		strb	r2, [r3]
 1160              	.L89:
 721:Generated_Source\PSoC5/USBUART_drv.c ****     }
 722:Generated_Source\PSoC5/USBUART_drv.c **** 
 723:Generated_Source\PSoC5/USBUART_drv.c ****     USBUART_transferState = USBUART_TRANS_STATE_IDLE;
 1161              		.loc 1 723 0
 1162 0024 064B     		ldr	r3, .L90+8
 1163 0026 0022     		movs	r2, #0
 1164 0028 1A70     		strb	r2, [r3]
 724:Generated_Source\PSoC5/USBUART_drv.c ****     
 725:Generated_Source\PSoC5/USBUART_drv.c ****     /* Update the completion block. */
 726:Generated_Source\PSoC5/USBUART_drv.c ****     USBUART_UpdateStatusBlock(USBUART_XFER_STATUS_ACK);
 1165              		.loc 1 726 0
 1166 002a 0120     		movs	r0, #1
 1167 002c FFF7FEFF 		bl	USBUART_UpdateStatusBlock
 727:Generated_Source\PSoC5/USBUART_drv.c ****     
 728:Generated_Source\PSoC5/USBUART_drv.c ****     /* Stall IN and OUT, no more data is expected. */
 729:Generated_Source\PSoC5/USBUART_drv.c ****     USBUART_ep0Mode = USBUART_MODE_STALL_IN_OUT;
 1168              		.loc 1 729 0
 1169 0030 044B     		ldr	r3, .L90+12
 1170 0032 0322     		movs	r2, #3
 1171 0034 1A70     		strb	r2, [r3]
 730:Generated_Source\PSoC5/USBUART_drv.c **** }
 1172              		.loc 1 730 0
 1173 0036 80BD     		pop	{r7, pc}
 1174              	.L91:
 1175              		.align	2
 1176              	.L90:
 1177 0038 00000000 		.word	USBUART_deviceAddress
 1178 003c 08600040 		.word	1073766408
 1179 0040 00000000 		.word	USBUART_transferState
 1180 0044 00000000 		.word	USBUART_ep0Mode
 1181              		.cfi_endproc
 1182              	.LFE13:
 1183              		.size	USBUART_NoDataControlStatusStage, .-USBUART_NoDataControlStatusStage
 1184              		.section	.text.USBUART_UpdateStatusBlock,"ax",%progbits
 1185              		.align	2
 1186              		.global	USBUART_UpdateStatusBlock
 1187              		.thumb
 1188              		.thumb_func
 1189              		.type	USBUART_UpdateStatusBlock, %function
 1190              	USBUART_UpdateStatusBlock:
 1191              	.LFB14:
 731:Generated_Source\PSoC5/USBUART_drv.c **** 
 732:Generated_Source\PSoC5/USBUART_drv.c **** 
 733:Generated_Source\PSoC5/USBUART_drv.c **** /*******************************************************************************
 734:Generated_Source\PSoC5/USBUART_drv.c **** * Function Name: USBUART_UpdateStatusBlock
 735:Generated_Source\PSoC5/USBUART_drv.c **** ****************************************************************************//**
 736:Generated_Source\PSoC5/USBUART_drv.c **** *
 737:Generated_Source\PSoC5/USBUART_drv.c **** *  Update the Completion Status Block for a Request.  The block is updated
 738:Generated_Source\PSoC5/USBUART_drv.c **** *  with the completion code the USBUART_transferByteCount.  The
 739:Generated_Source\PSoC5/USBUART_drv.c **** *  StatusBlock Pointer is set to NULL.
 740:Generated_Source\PSoC5/USBUART_drv.c **** *
 741:Generated_Source\PSoC5/USBUART_drv.c **** *  completionCode - status.
 742:Generated_Source\PSoC5/USBUART_drv.c **** *
 743:Generated_Source\PSoC5/USBUART_drv.c **** *
ARM GAS  C:\Users\Greg\AppData\Local\Temp\ccWhExNe.s 			page 35


 744:Generated_Source\PSoC5/USBUART_drv.c **** * \globalvars
 745:Generated_Source\PSoC5/USBUART_drv.c **** *  USBUART_currentTD.pStatusBlock->status - updated by the
 746:Generated_Source\PSoC5/USBUART_drv.c **** *    completionCode parameter.
 747:Generated_Source\PSoC5/USBUART_drv.c **** *  USBUART_currentTD.pStatusBlock->length - updated.
 748:Generated_Source\PSoC5/USBUART_drv.c **** *  USBUART_currentTD.pStatusBlock - cleared.
 749:Generated_Source\PSoC5/USBUART_drv.c **** *
 750:Generated_Source\PSoC5/USBUART_drv.c **** * \reentrant
 751:Generated_Source\PSoC5/USBUART_drv.c **** *  No.
 752:Generated_Source\PSoC5/USBUART_drv.c **** *
 753:Generated_Source\PSoC5/USBUART_drv.c **** *******************************************************************************/
 754:Generated_Source\PSoC5/USBUART_drv.c **** void USBUART_UpdateStatusBlock(uint8 completionCode) 
 755:Generated_Source\PSoC5/USBUART_drv.c **** {
 1192              		.loc 1 755 0
 1193              		.cfi_startproc
 1194              		@ args = 0, pretend = 0, frame = 8
 1195              		@ frame_needed = 1, uses_anonymous_args = 0
 1196              		@ link register save eliminated.
 1197 0000 80B4     		push	{r7}
 1198              		.cfi_def_cfa_offset 4
 1199              		.cfi_offset 7, -4
 1200 0002 83B0     		sub	sp, sp, #12
 1201              		.cfi_def_cfa_offset 16
 1202 0004 00AF     		add	r7, sp, #0
 1203              		.cfi_def_cfa_register 7
 1204 0006 0346     		mov	r3, r0
 1205 0008 FB71     		strb	r3, [r7, #7]
 756:Generated_Source\PSoC5/USBUART_drv.c ****     if (USBUART_currentTD.pStatusBlock != NULL)
 1206              		.loc 1 756 0
 1207 000a 0B4B     		ldr	r3, .L94
 1208 000c 9B68     		ldr	r3, [r3, #8]
 1209 000e 002B     		cmp	r3, #0
 1210 0010 0CD0     		beq	.L92
 757:Generated_Source\PSoC5/USBUART_drv.c ****     {
 758:Generated_Source\PSoC5/USBUART_drv.c ****         USBUART_currentTD.pStatusBlock->status = completionCode;
 1211              		.loc 1 758 0
 1212 0012 094B     		ldr	r3, .L94
 1213 0014 9B68     		ldr	r3, [r3, #8]
 1214 0016 FA79     		ldrb	r2, [r7, #7]
 1215 0018 1A70     		strb	r2, [r3]
 759:Generated_Source\PSoC5/USBUART_drv.c ****         USBUART_currentTD.pStatusBlock->length = USBUART_transferByteCount;
 1216              		.loc 1 759 0
 1217 001a 074B     		ldr	r3, .L94
 1218 001c 9B68     		ldr	r3, [r3, #8]
 1219 001e 074A     		ldr	r2, .L94+4
 1220 0020 1288     		ldrh	r2, [r2]	@ movhi
 1221 0022 92B2     		uxth	r2, r2
 1222 0024 5A80     		strh	r2, [r3, #2]	@ movhi
 760:Generated_Source\PSoC5/USBUART_drv.c ****         USBUART_currentTD.pStatusBlock = NULL;
 1223              		.loc 1 760 0
 1224 0026 044B     		ldr	r3, .L94
 1225 0028 0022     		movs	r2, #0
 1226 002a 9A60     		str	r2, [r3, #8]
 1227              	.L92:
 761:Generated_Source\PSoC5/USBUART_drv.c ****     }
 762:Generated_Source\PSoC5/USBUART_drv.c **** }
 1228              		.loc 1 762 0
 1229 002c 0C37     		adds	r7, r7, #12
ARM GAS  C:\Users\Greg\AppData\Local\Temp\ccWhExNe.s 			page 36


 1230              		.cfi_def_cfa_offset 4
 1231 002e BD46     		mov	sp, r7
 1232              		.cfi_def_cfa_register 13
 1233              		@ sp needed
 1234 0030 5DF8047B 		ldr	r7, [sp], #4
 1235              		.cfi_restore 7
 1236              		.cfi_def_cfa_offset 0
 1237 0034 7047     		bx	lr
 1238              	.L95:
 1239 0036 00BF     		.align	2
 1240              	.L94:
 1241 0038 00000000 		.word	USBUART_currentTD
 1242 003c 00000000 		.word	USBUART_transferByteCount
 1243              		.cfi_endproc
 1244              	.LFE14:
 1245              		.size	USBUART_UpdateStatusBlock, .-USBUART_UpdateStatusBlock
 1246              		.section	.text.USBUART_InitializeStatusBlock,"ax",%progbits
 1247              		.align	2
 1248              		.global	USBUART_InitializeStatusBlock
 1249              		.thumb
 1250              		.thumb_func
 1251              		.type	USBUART_InitializeStatusBlock, %function
 1252              	USBUART_InitializeStatusBlock:
 1253              	.LFB15:
 763:Generated_Source\PSoC5/USBUART_drv.c **** 
 764:Generated_Source\PSoC5/USBUART_drv.c **** 
 765:Generated_Source\PSoC5/USBUART_drv.c **** /*******************************************************************************
 766:Generated_Source\PSoC5/USBUART_drv.c **** * Function Name: USBUART_InitializeStatusBlock
 767:Generated_Source\PSoC5/USBUART_drv.c **** ****************************************************************************//**
 768:Generated_Source\PSoC5/USBUART_drv.c **** *
 769:Generated_Source\PSoC5/USBUART_drv.c **** *  Initialize the Completion Status Block for a Request.  The completion
 770:Generated_Source\PSoC5/USBUART_drv.c **** *  code is set to USB_XFER_IDLE.
 771:Generated_Source\PSoC5/USBUART_drv.c **** *
 772:Generated_Source\PSoC5/USBUART_drv.c **** *  Also, initializes USBUART_transferByteCount.  Save some space,
 773:Generated_Source\PSoC5/USBUART_drv.c **** *  this is the only consumer.
 774:Generated_Source\PSoC5/USBUART_drv.c **** *
 775:Generated_Source\PSoC5/USBUART_drv.c **** * \globalvars
 776:Generated_Source\PSoC5/USBUART_drv.c **** *  USBUART_currentTD.pStatusBlock->status - set to XFER_IDLE.
 777:Generated_Source\PSoC5/USBUART_drv.c **** *  USBUART_currentTD.pStatusBlock->length - cleared.
 778:Generated_Source\PSoC5/USBUART_drv.c **** *  USBUART_transferByteCount - cleared.
 779:Generated_Source\PSoC5/USBUART_drv.c **** *
 780:Generated_Source\PSoC5/USBUART_drv.c **** * \reentrant
 781:Generated_Source\PSoC5/USBUART_drv.c **** *  No.
 782:Generated_Source\PSoC5/USBUART_drv.c **** *
 783:Generated_Source\PSoC5/USBUART_drv.c **** *******************************************************************************/
 784:Generated_Source\PSoC5/USBUART_drv.c **** void USBUART_InitializeStatusBlock(void) 
 785:Generated_Source\PSoC5/USBUART_drv.c **** {
 1254              		.loc 1 785 0
 1255              		.cfi_startproc
 1256              		@ args = 0, pretend = 0, frame = 0
 1257              		@ frame_needed = 1, uses_anonymous_args = 0
 1258              		@ link register save eliminated.
 1259 0000 80B4     		push	{r7}
 1260              		.cfi_def_cfa_offset 4
 1261              		.cfi_offset 7, -4
 1262 0002 00AF     		add	r7, sp, #0
 1263              		.cfi_def_cfa_register 7
ARM GAS  C:\Users\Greg\AppData\Local\Temp\ccWhExNe.s 			page 37


 786:Generated_Source\PSoC5/USBUART_drv.c ****     USBUART_transferByteCount = 0u;
 1264              		.loc 1 786 0
 1265 0004 094B     		ldr	r3, .L98
 1266 0006 0022     		movs	r2, #0
 1267 0008 1A80     		strh	r2, [r3]	@ movhi
 787:Generated_Source\PSoC5/USBUART_drv.c ****     
 788:Generated_Source\PSoC5/USBUART_drv.c ****     if (USBUART_currentTD.pStatusBlock != NULL)
 1268              		.loc 1 788 0
 1269 000a 094B     		ldr	r3, .L98+4
 1270 000c 9B68     		ldr	r3, [r3, #8]
 1271 000e 002B     		cmp	r3, #0
 1272 0010 07D0     		beq	.L96
 789:Generated_Source\PSoC5/USBUART_drv.c ****     {
 790:Generated_Source\PSoC5/USBUART_drv.c ****         USBUART_currentTD.pStatusBlock->status = USBUART_XFER_IDLE;
 1273              		.loc 1 790 0
 1274 0012 074B     		ldr	r3, .L98+4
 1275 0014 9B68     		ldr	r3, [r3, #8]
 1276 0016 0022     		movs	r2, #0
 1277 0018 1A70     		strb	r2, [r3]
 791:Generated_Source\PSoC5/USBUART_drv.c ****         USBUART_currentTD.pStatusBlock->length = 0u;
 1278              		.loc 1 791 0
 1279 001a 054B     		ldr	r3, .L98+4
 1280 001c 9B68     		ldr	r3, [r3, #8]
 1281 001e 0022     		movs	r2, #0
 1282 0020 5A80     		strh	r2, [r3, #2]	@ movhi
 1283              	.L96:
 792:Generated_Source\PSoC5/USBUART_drv.c ****     }
 793:Generated_Source\PSoC5/USBUART_drv.c **** }
 1284              		.loc 1 793 0
 1285 0022 BD46     		mov	sp, r7
 1286              		.cfi_def_cfa_register 13
 1287              		@ sp needed
 1288 0024 5DF8047B 		ldr	r7, [sp], #4
 1289              		.cfi_restore 7
 1290              		.cfi_def_cfa_offset 0
 1291 0028 7047     		bx	lr
 1292              	.L99:
 1293 002a 00BF     		.align	2
 1294              	.L98:
 1295 002c 00000000 		.word	USBUART_transferByteCount
 1296 0030 00000000 		.word	USBUART_currentTD
 1297              		.cfi_endproc
 1298              	.LFE15:
 1299              		.size	USBUART_InitializeStatusBlock, .-USBUART_InitializeStatusBlock
 1300              		.text
 1301              	.Letext0:
 1302              		.file 2 "Generated_Source\\PSoC5\\cytypes.h"
 1303              		.file 3 "Generated_Source\\PSoC5\\USBUART.h"
 1304              		.section	.debug_info,"",%progbits
 1305              	.Ldebug_info0:
 1306 0000 1D050000 		.4byte	0x51d
 1307 0004 0400     		.2byte	0x4
 1308 0006 00000000 		.4byte	.Ldebug_abbrev0
 1309 000a 04       		.byte	0x4
 1310 000b 01       		.uleb128 0x1
 1311 000c EE020000 		.4byte	.LASF75
 1312 0010 01       		.byte	0x1
ARM GAS  C:\Users\Greg\AppData\Local\Temp\ccWhExNe.s 			page 38


 1313 0011 DB000000 		.4byte	.LASF76
 1314 0015 36040000 		.4byte	.LASF77
 1315 0019 00000000 		.4byte	.Ldebug_ranges0+0
 1316 001d 00000000 		.4byte	0
 1317 0021 00000000 		.4byte	.Ldebug_line0
 1318 0025 02       		.uleb128 0x2
 1319 0026 01       		.byte	0x1
 1320 0027 06       		.byte	0x6
 1321 0028 0E010000 		.4byte	.LASF0
 1322 002c 02       		.uleb128 0x2
 1323 002d 01       		.byte	0x1
 1324 002e 08       		.byte	0x8
 1325 002f 1E040000 		.4byte	.LASF1
 1326 0033 02       		.uleb128 0x2
 1327 0034 02       		.byte	0x2
 1328 0035 05       		.byte	0x5
 1329 0036 2C040000 		.4byte	.LASF2
 1330 003a 02       		.uleb128 0x2
 1331 003b 02       		.byte	0x2
 1332 003c 07       		.byte	0x7
 1333 003d 17020000 		.4byte	.LASF3
 1334 0041 02       		.uleb128 0x2
 1335 0042 04       		.byte	0x4
 1336 0043 05       		.byte	0x5
 1337 0044 67010000 		.4byte	.LASF4
 1338 0048 02       		.uleb128 0x2
 1339 0049 04       		.byte	0x4
 1340 004a 07       		.byte	0x7
 1341 004b E8010000 		.4byte	.LASF5
 1342 004f 02       		.uleb128 0x2
 1343 0050 08       		.byte	0x8
 1344 0051 05       		.byte	0x5
 1345 0052 00010000 		.4byte	.LASF6
 1346 0056 02       		.uleb128 0x2
 1347 0057 08       		.byte	0x8
 1348 0058 07       		.byte	0x7
 1349 0059 98000000 		.4byte	.LASF7
 1350 005d 03       		.uleb128 0x3
 1351 005e 04       		.byte	0x4
 1352 005f 05       		.byte	0x5
 1353 0060 696E7400 		.ascii	"int\000"
 1354 0064 02       		.uleb128 0x2
 1355 0065 04       		.byte	0x4
 1356 0066 07       		.byte	0x7
 1357 0067 D1010000 		.4byte	.LASF8
 1358 006b 04       		.uleb128 0x4
 1359 006c 81010000 		.4byte	.LASF9
 1360 0070 02       		.byte	0x2
 1361 0071 9201     		.2byte	0x192
 1362 0073 2C000000 		.4byte	0x2c
 1363 0077 04       		.uleb128 0x4
 1364 0078 25000000 		.4byte	.LASF10
 1365 007c 02       		.byte	0x2
 1366 007d 9301     		.2byte	0x193
 1367 007f 3A000000 		.4byte	0x3a
 1368 0083 02       		.uleb128 0x2
 1369 0084 04       		.byte	0x4
ARM GAS  C:\Users\Greg\AppData\Local\Temp\ccWhExNe.s 			page 39


 1370 0085 04       		.byte	0x4
 1371 0086 CE030000 		.4byte	.LASF11
 1372 008a 02       		.uleb128 0x2
 1373 008b 08       		.byte	0x8
 1374 008c 04       		.byte	0x4
 1375 008d 90010000 		.4byte	.LASF12
 1376 0091 02       		.uleb128 0x2
 1377 0092 01       		.byte	0x1
 1378 0093 08       		.byte	0x8
 1379 0094 E4040000 		.4byte	.LASF13
 1380 0098 04       		.uleb128 0x4
 1381 0099 00040000 		.4byte	.LASF14
 1382 009d 02       		.byte	0x2
 1383 009e 3C02     		.2byte	0x23c
 1384 00a0 A4000000 		.4byte	0xa4
 1385 00a4 05       		.uleb128 0x5
 1386 00a5 6B000000 		.4byte	0x6b
 1387 00a9 05       		.uleb128 0x5
 1388 00aa 77000000 		.4byte	0x77
 1389 00ae 02       		.uleb128 0x2
 1390 00af 04       		.byte	0x4
 1391 00b0 07       		.byte	0x7
 1392 00b1 AE020000 		.4byte	.LASF15
 1393 00b5 06       		.uleb128 0x6
 1394 00b6 0C       		.byte	0xc
 1395 00b7 03       		.byte	0x3
 1396 00b8 8E       		.byte	0x8e
 1397 00b9 2A010000 		.4byte	0x12a
 1398 00bd 07       		.uleb128 0x7
 1399 00be D0020000 		.4byte	.LASF16
 1400 00c2 03       		.byte	0x3
 1401 00c3 90       		.byte	0x90
 1402 00c4 6B000000 		.4byte	0x6b
 1403 00c8 00       		.byte	0
 1404 00c9 07       		.uleb128 0x7
 1405 00ca D4030000 		.4byte	.LASF17
 1406 00ce 03       		.byte	0x3
 1407 00cf 91       		.byte	0x91
 1408 00d0 6B000000 		.4byte	0x6b
 1409 00d4 01       		.byte	0x1
 1410 00d5 07       		.uleb128 0x7
 1411 00d6 A4020000 		.4byte	.LASF18
 1412 00da 03       		.byte	0x3
 1413 00db 92       		.byte	0x92
 1414 00dc 6B000000 		.4byte	0x6b
 1415 00e0 02       		.byte	0x2
 1416 00e1 07       		.uleb128 0x7
 1417 00e2 87010000 		.4byte	.LASF19
 1418 00e6 03       		.byte	0x3
 1419 00e7 93       		.byte	0x93
 1420 00e8 6B000000 		.4byte	0x6b
 1421 00ec 03       		.byte	0x3
 1422 00ed 07       		.uleb128 0x7
 1423 00ee AF000000 		.4byte	.LASF20
 1424 00f2 03       		.byte	0x3
 1425 00f3 94       		.byte	0x94
 1426 00f4 6B000000 		.4byte	0x6b
ARM GAS  C:\Users\Greg\AppData\Local\Temp\ccWhExNe.s 			page 40


 1427 00f8 04       		.byte	0x4
 1428 00f9 07       		.uleb128 0x7
 1429 00fa B5010000 		.4byte	.LASF21
 1430 00fe 03       		.byte	0x3
 1431 00ff 95       		.byte	0x95
 1432 0100 6B000000 		.4byte	0x6b
 1433 0104 05       		.byte	0x5
 1434 0105 07       		.uleb128 0x7
 1435 0106 1A050000 		.4byte	.LASF22
 1436 010a 03       		.byte	0x3
 1437 010b 96       		.byte	0x96
 1438 010c 77000000 		.4byte	0x77
 1439 0110 06       		.byte	0x6
 1440 0111 07       		.uleb128 0x7
 1441 0112 E9040000 		.4byte	.LASF23
 1442 0116 03       		.byte	0x3
 1443 0117 97       		.byte	0x97
 1444 0118 77000000 		.4byte	0x77
 1445 011c 08       		.byte	0x8
 1446 011d 07       		.uleb128 0x7
 1447 011e 7C020000 		.4byte	.LASF24
 1448 0122 03       		.byte	0x3
 1449 0123 98       		.byte	0x98
 1450 0124 6B000000 		.4byte	0x6b
 1451 0128 0A       		.byte	0xa
 1452 0129 00       		.byte	0
 1453 012a 08       		.uleb128 0x8
 1454 012b 03050000 		.4byte	.LASF25
 1455 012f 03       		.byte	0x3
 1456 0130 99       		.byte	0x99
 1457 0131 B5000000 		.4byte	0xb5
 1458 0135 06       		.uleb128 0x6
 1459 0136 04       		.byte	0x4
 1460 0137 03       		.byte	0x3
 1461 0138 A5       		.byte	0xa5
 1462 0139 56010000 		.4byte	0x156
 1463 013d 07       		.uleb128 0x7
 1464 013e 66050000 		.4byte	.LASF26
 1465 0142 03       		.byte	0x3
 1466 0143 A7       		.byte	0xa7
 1467 0144 6B000000 		.4byte	0x6b
 1468 0148 00       		.byte	0
 1469 0149 07       		.uleb128 0x7
 1470 014a BF040000 		.4byte	.LASF27
 1471 014e 03       		.byte	0x3
 1472 014f A8       		.byte	0xa8
 1473 0150 77000000 		.4byte	0x77
 1474 0154 02       		.byte	0x2
 1475 0155 00       		.byte	0
 1476 0156 08       		.uleb128 0x8
 1477 0157 BF000000 		.4byte	.LASF28
 1478 015b 03       		.byte	0x3
 1479 015c A9       		.byte	0xa9
 1480 015d 35010000 		.4byte	0x135
 1481 0161 06       		.uleb128 0x6
 1482 0162 0C       		.byte	0xc
 1483 0163 03       		.byte	0x3
ARM GAS  C:\Users\Greg\AppData\Local\Temp\ccWhExNe.s 			page 41


 1484 0164 AB       		.byte	0xab
 1485 0165 8E010000 		.4byte	0x18e
 1486 0169 07       		.uleb128 0x7
 1487 016a 1F000000 		.4byte	.LASF29
 1488 016e 03       		.byte	0x3
 1489 016f AD       		.byte	0xad
 1490 0170 77000000 		.4byte	0x77
 1491 0174 00       		.byte	0
 1492 0175 07       		.uleb128 0x7
 1493 0176 AF010000 		.4byte	.LASF30
 1494 017a 03       		.byte	0x3
 1495 017b AE       		.byte	0xae
 1496 017c 8E010000 		.4byte	0x18e
 1497 0180 04       		.byte	0x4
 1498 0181 07       		.uleb128 0x7
 1499 0182 00000000 		.4byte	.LASF31
 1500 0186 03       		.byte	0x3
 1501 0187 AF       		.byte	0xaf
 1502 0188 94010000 		.4byte	0x194
 1503 018c 08       		.byte	0x8
 1504 018d 00       		.byte	0
 1505 018e 09       		.uleb128 0x9
 1506 018f 04       		.byte	0x4
 1507 0190 A4000000 		.4byte	0xa4
 1508 0194 09       		.uleb128 0x9
 1509 0195 04       		.byte	0x4
 1510 0196 56010000 		.4byte	0x156
 1511 019a 08       		.uleb128 0x8
 1512 019b 8A040000 		.4byte	.LASF32
 1513 019f 03       		.byte	0x3
 1514 01a0 B0       		.byte	0xb0
 1515 01a1 61010000 		.4byte	0x161
 1516 01a5 06       		.uleb128 0x6
 1517 01a6 08       		.byte	0x8
 1518 01a7 03       		.byte	0x3
 1519 01a8 C6       		.byte	0xc6
 1520 01a9 BA010000 		.4byte	0x1ba
 1521 01ad 07       		.uleb128 0x7
 1522 01ae 8D050000 		.4byte	.LASF33
 1523 01b2 03       		.byte	0x3
 1524 01b3 C8       		.byte	0xc8
 1525 01b4 BA010000 		.4byte	0x1ba
 1526 01b8 00       		.byte	0
 1527 01b9 00       		.byte	0
 1528 01ba 0A       		.uleb128 0xa
 1529 01bb 6B000000 		.4byte	0x6b
 1530 01bf CA010000 		.4byte	0x1ca
 1531 01c3 0B       		.uleb128 0xb
 1532 01c4 AE000000 		.4byte	0xae
 1533 01c8 07       		.byte	0x7
 1534 01c9 00       		.byte	0
 1535 01ca 08       		.uleb128 0x8
 1536 01cb 4F010000 		.4byte	.LASF34
 1537 01cf 03       		.byte	0x3
 1538 01d0 C9       		.byte	0xc9
 1539 01d1 A5010000 		.4byte	0x1a5
 1540 01d5 0C       		.uleb128 0xc
ARM GAS  C:\Users\Greg\AppData\Local\Temp\ccWhExNe.s 			page 42


 1541 01d6 70010000 		.4byte	.LASF37
 1542 01da 01       		.byte	0x1
 1543 01db 5E       		.byte	0x5e
 1544 01dc 00000000 		.4byte	.LFB0
 1545 01e0 F8000000 		.4byte	.LFE0-.LFB0
 1546 01e4 01       		.uleb128 0x1
 1547 01e5 9C       		.byte	0x9c
 1548 01e6 07020000 		.4byte	0x207
 1549 01ea 0D       		.uleb128 0xd
 1550 01eb 86020000 		.4byte	.LASF35
 1551 01ef 01       		.byte	0x1
 1552 01f0 60       		.byte	0x60
 1553 01f1 6B000000 		.4byte	0x6b
 1554 01f5 02       		.uleb128 0x2
 1555 01f6 91       		.byte	0x91
 1556 01f7 76       		.sleb128 -10
 1557 01f8 0D       		.uleb128 0xd
 1558 01f9 DE010000 		.4byte	.LASF36
 1559 01fd 01       		.byte	0x1
 1560 01fe 61       		.byte	0x61
 1561 01ff 6B000000 		.4byte	0x6b
 1562 0203 02       		.uleb128 0x2
 1563 0204 91       		.byte	0x91
 1564 0205 77       		.sleb128 -9
 1565 0206 00       		.byte	0
 1566 0207 0C       		.uleb128 0xc
 1567 0208 55000000 		.4byte	.LASF38
 1568 020c 01       		.byte	0x1
 1569 020d C6       		.byte	0xc6
 1570 020e 00000000 		.4byte	.LFB1
 1571 0212 88000000 		.4byte	.LFE1-.LFB1
 1572 0216 01       		.uleb128 0x1
 1573 0217 9C       		.byte	0x9c
 1574 0218 2B020000 		.4byte	0x22b
 1575 021c 0D       		.uleb128 0xd
 1576 021d F4040000 		.4byte	.LASF39
 1577 0221 01       		.byte	0x1
 1578 0222 C8       		.byte	0xc8
 1579 0223 6B000000 		.4byte	0x6b
 1580 0227 02       		.uleb128 0x2
 1581 0228 91       		.byte	0x91
 1582 0229 77       		.sleb128 -9
 1583 022a 00       		.byte	0
 1584 022b 0E       		.uleb128 0xe
 1585 022c 55050000 		.4byte	.LASF40
 1586 0230 01       		.byte	0x1
 1587 0231 0301     		.2byte	0x103
 1588 0233 00000000 		.4byte	.LFB2
 1589 0237 4C000000 		.4byte	.LFE2-.LFB2
 1590 023b 01       		.uleb128 0x1
 1591 023c 9C       		.byte	0x9c
 1592 023d 0E       		.uleb128 0xe
 1593 023e 25050000 		.4byte	.LASF41
 1594 0242 01       		.byte	0x1
 1595 0243 2701     		.2byte	0x127
 1596 0245 00000000 		.4byte	.LFB3
 1597 0249 58000000 		.4byte	.LFE3-.LFB3
ARM GAS  C:\Users\Greg\AppData\Local\Temp\ccWhExNe.s 			page 43


 1598 024d 01       		.uleb128 0x1
 1599 024e 9C       		.byte	0x9c
 1600 024f 0F       		.uleb128 0xf
 1601 0250 9E030000 		.4byte	.LASF42
 1602 0254 01       		.byte	0x1
 1603 0255 6501     		.2byte	0x165
 1604 0257 00000000 		.4byte	.LFB4
 1605 025b D0000000 		.4byte	.LFE4-.LFB4
 1606 025f 01       		.uleb128 0x1
 1607 0260 9C       		.byte	0x9c
 1608 0261 75020000 		.4byte	0x275
 1609 0265 10       		.uleb128 0x10
 1610 0266 73020000 		.4byte	.LASF43
 1611 026a 01       		.byte	0x1
 1612 026b 6701     		.2byte	0x167
 1613 026d 6B000000 		.4byte	0x6b
 1614 0271 02       		.uleb128 0x2
 1615 0272 91       		.byte	0x91
 1616 0273 77       		.sleb128 -9
 1617 0274 00       		.byte	0
 1618 0275 11       		.uleb128 0x11
 1619 0276 1A010000 		.4byte	.LASF47
 1620 027a 01       		.byte	0x1
 1621 027b A201     		.2byte	0x1a2
 1622 027d 6B000000 		.4byte	0x6b
 1623 0281 00000000 		.4byte	.LFB5
 1624 0285 70000000 		.4byte	.LFE5-.LFB5
 1625 0289 01       		.uleb128 0x1
 1626 028a 9C       		.byte	0x9c
 1627 028b 9F020000 		.4byte	0x29f
 1628 028f 10       		.uleb128 0x10
 1629 0290 83050000 		.4byte	.LASF44
 1630 0294 01       		.byte	0x1
 1631 0295 A401     		.2byte	0x1a4
 1632 0297 77000000 		.4byte	0x77
 1633 029b 02       		.uleb128 0x2
 1634 029c 91       		.byte	0x91
 1635 029d 76       		.sleb128 -10
 1636 029e 00       		.byte	0
 1637 029f 12       		.uleb128 0x12
 1638 02a0 2A020000 		.4byte	.LASF52
 1639 02a4 01       		.byte	0x1
 1640 02a5 D701     		.2byte	0x1d7
 1641 02a7 6B000000 		.4byte	0x6b
 1642 02ab 00000000 		.4byte	.LFB6
 1643 02af 44000000 		.4byte	.LFE6-.LFB6
 1644 02b3 01       		.uleb128 0x1
 1645 02b4 9C       		.byte	0x9c
 1646 02b5 0E       		.uleb128 0xe
 1647 02b6 FA010000 		.4byte	.LASF45
 1648 02ba 01       		.byte	0x1
 1649 02bb F701     		.2byte	0x1f7
 1650 02bd 00000000 		.4byte	.LFB7
 1651 02c1 0A000000 		.4byte	.LFE7-.LFB7
 1652 02c5 01       		.uleb128 0x1
 1653 02c6 9C       		.byte	0x9c
 1654 02c7 0E       		.uleb128 0xe
ARM GAS  C:\Users\Greg\AppData\Local\Temp\ccWhExNe.s 			page 44


 1655 02c8 AE050000 		.4byte	.LASF46
 1656 02cc 01       		.byte	0x1
 1657 02cd 0E02     		.2byte	0x20e
 1658 02cf 00000000 		.4byte	.LFB8
 1659 02d3 40000000 		.4byte	.LFE8-.LFB8
 1660 02d7 01       		.uleb128 0x1
 1661 02d8 9C       		.byte	0x9c
 1662 02d9 11       		.uleb128 0x11
 1663 02da B7020000 		.4byte	.LASF48
 1664 02de 01       		.byte	0x1
 1665 02df 3002     		.2byte	0x230
 1666 02e1 6B000000 		.4byte	0x6b
 1667 02e5 00000000 		.4byte	.LFB9
 1668 02e9 64000000 		.4byte	.LFE9-.LFB9
 1669 02ed 01       		.uleb128 0x1
 1670 02ee 9C       		.byte	0x9c
 1671 02ef 03030000 		.4byte	0x303
 1672 02f3 10       		.uleb128 0x10
 1673 02f4 83050000 		.4byte	.LASF44
 1674 02f8 01       		.byte	0x1
 1675 02f9 3202     		.2byte	0x232
 1676 02fb 77000000 		.4byte	0x77
 1677 02ff 02       		.uleb128 0x2
 1678 0300 91       		.byte	0x91
 1679 0301 76       		.sleb128 -10
 1680 0302 00       		.byte	0
 1681 0303 0F       		.uleb128 0xf
 1682 0304 37050000 		.4byte	.LASF49
 1683 0308 01       		.byte	0x1
 1684 0309 6302     		.2byte	0x263
 1685 030b 00000000 		.4byte	.LFB10
 1686 030f B4000000 		.4byte	.LFE10-.LFB10
 1687 0313 01       		.uleb128 0x1
 1688 0314 9C       		.byte	0x9c
 1689 0315 38030000 		.4byte	0x338
 1690 0319 10       		.uleb128 0x10
 1691 031a 73020000 		.4byte	.LASF43
 1692 031e 01       		.byte	0x1
 1693 031f 6502     		.2byte	0x265
 1694 0321 6B000000 		.4byte	0x6b
 1695 0325 02       		.uleb128 0x2
 1696 0326 91       		.byte	0x91
 1697 0327 77       		.sleb128 -9
 1698 0328 10       		.uleb128 0x10
 1699 0329 69000000 		.4byte	.LASF50
 1700 032d 01       		.byte	0x1
 1701 032e 6602     		.2byte	0x266
 1702 0330 6B000000 		.4byte	0x6b
 1703 0334 02       		.uleb128 0x2
 1704 0335 91       		.byte	0x91
 1705 0336 76       		.sleb128 -10
 1706 0337 00       		.byte	0
 1707 0338 0E       		.uleb128 0xe
 1708 0339 AE030000 		.4byte	.LASF51
 1709 033d 01       		.byte	0x1
 1710 033e 8D02     		.2byte	0x28d
 1711 0340 00000000 		.4byte	.LFB11
ARM GAS  C:\Users\Greg\AppData\Local\Temp\ccWhExNe.s 			page 45


 1712 0344 20000000 		.4byte	.LFE11-.LFB11
 1713 0348 01       		.uleb128 0x1
 1714 0349 9C       		.byte	0x9c
 1715 034a 12       		.uleb128 0x12
 1716 034b 7C030000 		.4byte	.LASF53
 1717 034f 01       		.byte	0x1
 1718 0350 AD02     		.2byte	0x2ad
 1719 0352 6B000000 		.4byte	0x6b
 1720 0356 00000000 		.4byte	.LFB12
 1721 035a 38000000 		.4byte	.LFE12-.LFB12
 1722 035e 01       		.uleb128 0x1
 1723 035f 9C       		.byte	0x9c
 1724 0360 0E       		.uleb128 0xe
 1725 0361 DF030000 		.4byte	.LASF54
 1726 0365 01       		.byte	0x1
 1727 0366 CA02     		.2byte	0x2ca
 1728 0368 00000000 		.4byte	.LFB13
 1729 036c 48000000 		.4byte	.LFE13-.LFB13
 1730 0370 01       		.uleb128 0x1
 1731 0371 9C       		.byte	0x9c
 1732 0372 0F       		.uleb128 0xf
 1733 0373 94050000 		.4byte	.LASF55
 1734 0377 01       		.byte	0x1
 1735 0378 F202     		.2byte	0x2f2
 1736 037a 00000000 		.4byte	.LFB14
 1737 037e 40000000 		.4byte	.LFE14-.LFB14
 1738 0382 01       		.uleb128 0x1
 1739 0383 9C       		.byte	0x9c
 1740 0384 98030000 		.4byte	0x398
 1741 0388 13       		.uleb128 0x13
 1742 0389 72000000 		.4byte	.LASF78
 1743 038d 01       		.byte	0x1
 1744 038e F202     		.2byte	0x2f2
 1745 0390 6B000000 		.4byte	0x6b
 1746 0394 02       		.uleb128 0x2
 1747 0395 91       		.byte	0x91
 1748 0396 77       		.sleb128 -9
 1749 0397 00       		.byte	0
 1750 0398 14       		.uleb128 0x14
 1751 0399 C6040000 		.4byte	.LASF56
 1752 039d 01       		.byte	0x1
 1753 039e 1003     		.2byte	0x310
 1754 03a0 00000000 		.4byte	.LFB15
 1755 03a4 34000000 		.4byte	.LFE15-.LFB15
 1756 03a8 01       		.uleb128 0x1
 1757 03a9 9C       		.byte	0x9c
 1758 03aa 15       		.uleb128 0x15
 1759 03ab 2C000000 		.4byte	.LASF57
 1760 03af 01       		.byte	0x1
 1761 03b0 38       		.byte	0x38
 1762 03b1 A4000000 		.4byte	0xa4
 1763 03b5 05       		.uleb128 0x5
 1764 03b6 03       		.byte	0x3
 1765 03b7 00000000 		.4byte	USBUART_device
 1766 03bb 15       		.uleb128 0x15
 1767 03bc CD050000 		.4byte	.LASF58
 1768 03c0 01       		.byte	0x1
ARM GAS  C:\Users\Greg\AppData\Local\Temp\ccWhExNe.s 			page 46


 1769 03c1 4E       		.byte	0x4e
 1770 03c2 A4000000 		.4byte	0xa4
 1771 03c6 05       		.uleb128 0x5
 1772 03c7 03       		.byte	0x3
 1773 03c8 00000000 		.4byte	USBUART_transferState
 1774 03cc 15       		.uleb128 0x15
 1775 03cd 6D050000 		.4byte	.LASF59
 1776 03d1 01       		.byte	0x1
 1777 03d2 1E       		.byte	0x1e
 1778 03d3 A4000000 		.4byte	0xa4
 1779 03d7 05       		.uleb128 0x5
 1780 03d8 03       		.byte	0x3
 1781 03d9 00000000 		.4byte	USBUART_configuration
 1782 03dd 15       		.uleb128 0x15
 1783 03de E3050000 		.4byte	.LASF60
 1784 03e2 01       		.byte	0x1
 1785 03e3 25       		.byte	0x25
 1786 03e4 A4000000 		.4byte	0xa4
 1787 03e8 05       		.uleb128 0x5
 1788 03e9 03       		.byte	0x3
 1789 03ea 00000000 		.4byte	USBUART_configurationChanged
 1790 03ee 15       		.uleb128 0x15
 1791 03ef BC010000 		.4byte	.LASF61
 1792 03f3 01       		.byte	0x1
 1793 03f4 30       		.byte	0x30
 1794 03f5 A4000000 		.4byte	0xa4
 1795 03f9 05       		.uleb128 0x5
 1796 03fa 03       		.byte	0x3
 1797 03fb 00000000 		.4byte	USBUART_deviceStatus
 1798 03ff 15       		.uleb128 0x15
 1799 0400 97010000 		.4byte	.LASF62
 1800 0404 01       		.byte	0x1
 1801 0405 21       		.byte	0x21
 1802 0406 A4000000 		.4byte	0xa4
 1803 040a 05       		.uleb128 0x5
 1804 040b 03       		.byte	0x3
 1805 040c 00000000 		.4byte	USBUART_interfaceNumber
 1806 0410 0A       		.uleb128 0xa
 1807 0411 6B000000 		.4byte	0x6b
 1808 0415 20040000 		.4byte	0x420
 1809 0419 0B       		.uleb128 0xb
 1810 041a AE000000 		.4byte	0xae
 1811 041e 01       		.byte	0x1
 1812 041f 00       		.byte	0
 1813 0420 15       		.uleb128 0x15
 1814 0421 05040000 		.4byte	.LASF63
 1815 0425 01       		.byte	0x1
 1816 0426 32       		.byte	0x32
 1817 0427 31040000 		.4byte	0x431
 1818 042b 05       		.uleb128 0x5
 1819 042c 03       		.byte	0x3
 1820 042d 00000000 		.4byte	USBUART_interfaceSetting
 1821 0431 05       		.uleb128 0x5
 1822 0432 10040000 		.4byte	0x410
 1823 0436 15       		.uleb128 0x15
 1824 0437 32010000 		.4byte	.LASF64
 1825 043b 01       		.byte	0x1
ARM GAS  C:\Users\Greg\AppData\Local\Temp\ccWhExNe.s 			page 47


 1826 043c 33       		.byte	0x33
 1827 043d 47040000 		.4byte	0x447
 1828 0441 05       		.uleb128 0x5
 1829 0442 03       		.byte	0x3
 1830 0443 00000000 		.4byte	USBUART_interfaceSettingLast
 1831 0447 05       		.uleb128 0x5
 1832 0448 10040000 		.4byte	0x410
 1833 044c 15       		.uleb128 0x15
 1834 044d 8E020000 		.4byte	.LASF65
 1835 0451 01       		.byte	0x1
 1836 0452 28       		.byte	0x28
 1837 0453 A4000000 		.4byte	0xa4
 1838 0457 05       		.uleb128 0x5
 1839 0458 03       		.byte	0x3
 1840 0459 00000000 		.4byte	USBUART_deviceAddress
 1841 045d 15       		.uleb128 0x15
 1842 045e 97040000 		.4byte	.LASF66
 1843 0462 01       		.byte	0x1
 1844 0463 34       		.byte	0x34
 1845 0464 6E040000 		.4byte	0x46e
 1846 0468 05       		.uleb128 0x5
 1847 0469 03       		.byte	0x3
 1848 046a 00000000 		.4byte	USBUART_interfaceStatus
 1849 046e 05       		.uleb128 0x5
 1850 046f 10040000 		.4byte	0x410
 1851 0473 15       		.uleb128 0x15
 1852 0474 D7020000 		.4byte	.LASF67
 1853 0478 01       		.byte	0x1
 1854 0479 3D       		.byte	0x3d
 1855 047a 84040000 		.4byte	0x484
 1856 047e 05       		.uleb128 0x5
 1857 047f 03       		.byte	0x3
 1858 0480 00000000 		.4byte	USBUART_interfaceClass
 1859 0484 09       		.uleb128 0x9
 1860 0485 04       		.byte	0x4
 1861 0486 8A040000 		.4byte	0x48a
 1862 048a 16       		.uleb128 0x16
 1863 048b 6B000000 		.4byte	0x6b
 1864 048f 0A       		.uleb128 0xa
 1865 0490 2A010000 		.4byte	0x12a
 1866 0494 9F040000 		.4byte	0x49f
 1867 0498 0B       		.uleb128 0xb
 1868 0499 AE000000 		.4byte	0xae
 1869 049d 08       		.byte	0x8
 1870 049e 00       		.byte	0
 1871 049f 15       		.uleb128 0x15
 1872 04a0 B4000000 		.4byte	.LASF68
 1873 04a4 01       		.byte	0x1
 1874 04a5 18       		.byte	0x18
 1875 04a6 B0040000 		.4byte	0x4b0
 1876 04aa 05       		.uleb128 0x5
 1877 04ab 03       		.byte	0x3
 1878 04ac 00000000 		.4byte	USBUART_EP
 1879 04b0 05       		.uleb128 0x5
 1880 04b1 8F040000 		.4byte	0x48f
 1881 04b5 15       		.uleb128 0x15
 1882 04b6 61020000 		.4byte	.LASF69
ARM GAS  C:\Users\Greg\AppData\Local\Temp\ccWhExNe.s 			page 48


 1883 04ba 01       		.byte	0x1
 1884 04bb 4F       		.byte	0x4f
 1885 04bc C6040000 		.4byte	0x4c6
 1886 04c0 05       		.uleb128 0x5
 1887 04c1 03       		.byte	0x3
 1888 04c2 00000000 		.4byte	USBUART_currentTD
 1889 04c6 05       		.uleb128 0x5
 1890 04c7 9A010000 		.4byte	0x19a
 1891 04cb 15       		.uleb128 0x15
 1892 04cc 0D000000 		.4byte	.LASF70
 1893 04d0 01       		.byte	0x1
 1894 04d1 44       		.byte	0x44
 1895 04d2 A4000000 		.4byte	0xa4
 1896 04d6 05       		.uleb128 0x5
 1897 04d7 03       		.byte	0x3
 1898 04d8 00000000 		.4byte	USBUART_ep0Toggle
 1899 04dc 15       		.uleb128 0x15
 1900 04dd 81000000 		.4byte	.LASF71
 1901 04e1 01       		.byte	0x1
 1902 04e2 45       		.byte	0x45
 1903 04e3 A4000000 		.4byte	0xa4
 1904 04e7 05       		.uleb128 0x5
 1905 04e8 03       		.byte	0x3
 1906 04e9 00000000 		.4byte	USBUART_lastPacketSize
 1907 04ed 15       		.uleb128 0x15
 1908 04ee AF040000 		.4byte	.LASF72
 1909 04f2 01       		.byte	0x1
 1910 04f3 50       		.byte	0x50
 1911 04f4 A4000000 		.4byte	0xa4
 1912 04f8 05       		.uleb128 0x5
 1913 04f9 03       		.byte	0x3
 1914 04fa 00000000 		.4byte	USBUART_ep0Mode
 1915 04fe 15       		.uleb128 0x15
 1916 04ff 50020000 		.4byte	.LASF73
 1917 0503 01       		.byte	0x1
 1918 0504 51       		.byte	0x51
 1919 0505 A4000000 		.4byte	0xa4
 1920 0509 05       		.uleb128 0x5
 1921 050a 03       		.byte	0x3
 1922 050b 00000000 		.4byte	USBUART_ep0Count
 1923 050f 15       		.uleb128 0x15
 1924 0510 3B000000 		.4byte	.LASF74
 1925 0514 01       		.byte	0x1
 1926 0515 52       		.byte	0x52
 1927 0516 A9000000 		.4byte	0xa9
 1928 051a 05       		.uleb128 0x5
 1929 051b 03       		.byte	0x3
 1930 051c 00000000 		.4byte	USBUART_transferByteCount
 1931 0520 00       		.byte	0
 1932              		.section	.debug_abbrev,"",%progbits
 1933              	.Ldebug_abbrev0:
 1934 0000 01       		.uleb128 0x1
 1935 0001 11       		.uleb128 0x11
 1936 0002 01       		.byte	0x1
 1937 0003 25       		.uleb128 0x25
 1938 0004 0E       		.uleb128 0xe
 1939 0005 13       		.uleb128 0x13
ARM GAS  C:\Users\Greg\AppData\Local\Temp\ccWhExNe.s 			page 49


 1940 0006 0B       		.uleb128 0xb
 1941 0007 03       		.uleb128 0x3
 1942 0008 0E       		.uleb128 0xe
 1943 0009 1B       		.uleb128 0x1b
 1944 000a 0E       		.uleb128 0xe
 1945 000b 55       		.uleb128 0x55
 1946 000c 17       		.uleb128 0x17
 1947 000d 11       		.uleb128 0x11
 1948 000e 01       		.uleb128 0x1
 1949 000f 10       		.uleb128 0x10
 1950 0010 17       		.uleb128 0x17
 1951 0011 00       		.byte	0
 1952 0012 00       		.byte	0
 1953 0013 02       		.uleb128 0x2
 1954 0014 24       		.uleb128 0x24
 1955 0015 00       		.byte	0
 1956 0016 0B       		.uleb128 0xb
 1957 0017 0B       		.uleb128 0xb
 1958 0018 3E       		.uleb128 0x3e
 1959 0019 0B       		.uleb128 0xb
 1960 001a 03       		.uleb128 0x3
 1961 001b 0E       		.uleb128 0xe
 1962 001c 00       		.byte	0
 1963 001d 00       		.byte	0
 1964 001e 03       		.uleb128 0x3
 1965 001f 24       		.uleb128 0x24
 1966 0020 00       		.byte	0
 1967 0021 0B       		.uleb128 0xb
 1968 0022 0B       		.uleb128 0xb
 1969 0023 3E       		.uleb128 0x3e
 1970 0024 0B       		.uleb128 0xb
 1971 0025 03       		.uleb128 0x3
 1972 0026 08       		.uleb128 0x8
 1973 0027 00       		.byte	0
 1974 0028 00       		.byte	0
 1975 0029 04       		.uleb128 0x4
 1976 002a 16       		.uleb128 0x16
 1977 002b 00       		.byte	0
 1978 002c 03       		.uleb128 0x3
 1979 002d 0E       		.uleb128 0xe
 1980 002e 3A       		.uleb128 0x3a
 1981 002f 0B       		.uleb128 0xb
 1982 0030 3B       		.uleb128 0x3b
 1983 0031 05       		.uleb128 0x5
 1984 0032 49       		.uleb128 0x49
 1985 0033 13       		.uleb128 0x13
 1986 0034 00       		.byte	0
 1987 0035 00       		.byte	0
 1988 0036 05       		.uleb128 0x5
 1989 0037 35       		.uleb128 0x35
 1990 0038 00       		.byte	0
 1991 0039 49       		.uleb128 0x49
 1992 003a 13       		.uleb128 0x13
 1993 003b 00       		.byte	0
 1994 003c 00       		.byte	0
 1995 003d 06       		.uleb128 0x6
 1996 003e 13       		.uleb128 0x13
ARM GAS  C:\Users\Greg\AppData\Local\Temp\ccWhExNe.s 			page 50


 1997 003f 01       		.byte	0x1
 1998 0040 0B       		.uleb128 0xb
 1999 0041 0B       		.uleb128 0xb
 2000 0042 3A       		.uleb128 0x3a
 2001 0043 0B       		.uleb128 0xb
 2002 0044 3B       		.uleb128 0x3b
 2003 0045 0B       		.uleb128 0xb
 2004 0046 01       		.uleb128 0x1
 2005 0047 13       		.uleb128 0x13
 2006 0048 00       		.byte	0
 2007 0049 00       		.byte	0
 2008 004a 07       		.uleb128 0x7
 2009 004b 0D       		.uleb128 0xd
 2010 004c 00       		.byte	0
 2011 004d 03       		.uleb128 0x3
 2012 004e 0E       		.uleb128 0xe
 2013 004f 3A       		.uleb128 0x3a
 2014 0050 0B       		.uleb128 0xb
 2015 0051 3B       		.uleb128 0x3b
 2016 0052 0B       		.uleb128 0xb
 2017 0053 49       		.uleb128 0x49
 2018 0054 13       		.uleb128 0x13
 2019 0055 38       		.uleb128 0x38
 2020 0056 0B       		.uleb128 0xb
 2021 0057 00       		.byte	0
 2022 0058 00       		.byte	0
 2023 0059 08       		.uleb128 0x8
 2024 005a 16       		.uleb128 0x16
 2025 005b 00       		.byte	0
 2026 005c 03       		.uleb128 0x3
 2027 005d 0E       		.uleb128 0xe
 2028 005e 3A       		.uleb128 0x3a
 2029 005f 0B       		.uleb128 0xb
 2030 0060 3B       		.uleb128 0x3b
 2031 0061 0B       		.uleb128 0xb
 2032 0062 49       		.uleb128 0x49
 2033 0063 13       		.uleb128 0x13
 2034 0064 00       		.byte	0
 2035 0065 00       		.byte	0
 2036 0066 09       		.uleb128 0x9
 2037 0067 0F       		.uleb128 0xf
 2038 0068 00       		.byte	0
 2039 0069 0B       		.uleb128 0xb
 2040 006a 0B       		.uleb128 0xb
 2041 006b 49       		.uleb128 0x49
 2042 006c 13       		.uleb128 0x13
 2043 006d 00       		.byte	0
 2044 006e 00       		.byte	0
 2045 006f 0A       		.uleb128 0xa
 2046 0070 01       		.uleb128 0x1
 2047 0071 01       		.byte	0x1
 2048 0072 49       		.uleb128 0x49
 2049 0073 13       		.uleb128 0x13
 2050 0074 01       		.uleb128 0x1
 2051 0075 13       		.uleb128 0x13
 2052 0076 00       		.byte	0
 2053 0077 00       		.byte	0
ARM GAS  C:\Users\Greg\AppData\Local\Temp\ccWhExNe.s 			page 51


 2054 0078 0B       		.uleb128 0xb
 2055 0079 21       		.uleb128 0x21
 2056 007a 00       		.byte	0
 2057 007b 49       		.uleb128 0x49
 2058 007c 13       		.uleb128 0x13
 2059 007d 2F       		.uleb128 0x2f
 2060 007e 0B       		.uleb128 0xb
 2061 007f 00       		.byte	0
 2062 0080 00       		.byte	0
 2063 0081 0C       		.uleb128 0xc
 2064 0082 2E       		.uleb128 0x2e
 2065 0083 01       		.byte	0x1
 2066 0084 3F       		.uleb128 0x3f
 2067 0085 19       		.uleb128 0x19
 2068 0086 03       		.uleb128 0x3
 2069 0087 0E       		.uleb128 0xe
 2070 0088 3A       		.uleb128 0x3a
 2071 0089 0B       		.uleb128 0xb
 2072 008a 3B       		.uleb128 0x3b
 2073 008b 0B       		.uleb128 0xb
 2074 008c 27       		.uleb128 0x27
 2075 008d 19       		.uleb128 0x19
 2076 008e 11       		.uleb128 0x11
 2077 008f 01       		.uleb128 0x1
 2078 0090 12       		.uleb128 0x12
 2079 0091 06       		.uleb128 0x6
 2080 0092 40       		.uleb128 0x40
 2081 0093 18       		.uleb128 0x18
 2082 0094 9642     		.uleb128 0x2116
 2083 0096 19       		.uleb128 0x19
 2084 0097 01       		.uleb128 0x1
 2085 0098 13       		.uleb128 0x13
 2086 0099 00       		.byte	0
 2087 009a 00       		.byte	0
 2088 009b 0D       		.uleb128 0xd
 2089 009c 34       		.uleb128 0x34
 2090 009d 00       		.byte	0
 2091 009e 03       		.uleb128 0x3
 2092 009f 0E       		.uleb128 0xe
 2093 00a0 3A       		.uleb128 0x3a
 2094 00a1 0B       		.uleb128 0xb
 2095 00a2 3B       		.uleb128 0x3b
 2096 00a3 0B       		.uleb128 0xb
 2097 00a4 49       		.uleb128 0x49
 2098 00a5 13       		.uleb128 0x13
 2099 00a6 02       		.uleb128 0x2
 2100 00a7 18       		.uleb128 0x18
 2101 00a8 00       		.byte	0
 2102 00a9 00       		.byte	0
 2103 00aa 0E       		.uleb128 0xe
 2104 00ab 2E       		.uleb128 0x2e
 2105 00ac 00       		.byte	0
 2106 00ad 3F       		.uleb128 0x3f
 2107 00ae 19       		.uleb128 0x19
 2108 00af 03       		.uleb128 0x3
 2109 00b0 0E       		.uleb128 0xe
 2110 00b1 3A       		.uleb128 0x3a
ARM GAS  C:\Users\Greg\AppData\Local\Temp\ccWhExNe.s 			page 52


 2111 00b2 0B       		.uleb128 0xb
 2112 00b3 3B       		.uleb128 0x3b
 2113 00b4 05       		.uleb128 0x5
 2114 00b5 27       		.uleb128 0x27
 2115 00b6 19       		.uleb128 0x19
 2116 00b7 11       		.uleb128 0x11
 2117 00b8 01       		.uleb128 0x1
 2118 00b9 12       		.uleb128 0x12
 2119 00ba 06       		.uleb128 0x6
 2120 00bb 40       		.uleb128 0x40
 2121 00bc 18       		.uleb128 0x18
 2122 00bd 9642     		.uleb128 0x2116
 2123 00bf 19       		.uleb128 0x19
 2124 00c0 00       		.byte	0
 2125 00c1 00       		.byte	0
 2126 00c2 0F       		.uleb128 0xf
 2127 00c3 2E       		.uleb128 0x2e
 2128 00c4 01       		.byte	0x1
 2129 00c5 3F       		.uleb128 0x3f
 2130 00c6 19       		.uleb128 0x19
 2131 00c7 03       		.uleb128 0x3
 2132 00c8 0E       		.uleb128 0xe
 2133 00c9 3A       		.uleb128 0x3a
 2134 00ca 0B       		.uleb128 0xb
 2135 00cb 3B       		.uleb128 0x3b
 2136 00cc 05       		.uleb128 0x5
 2137 00cd 27       		.uleb128 0x27
 2138 00ce 19       		.uleb128 0x19
 2139 00cf 11       		.uleb128 0x11
 2140 00d0 01       		.uleb128 0x1
 2141 00d1 12       		.uleb128 0x12
 2142 00d2 06       		.uleb128 0x6
 2143 00d3 40       		.uleb128 0x40
 2144 00d4 18       		.uleb128 0x18
 2145 00d5 9742     		.uleb128 0x2117
 2146 00d7 19       		.uleb128 0x19
 2147 00d8 01       		.uleb128 0x1
 2148 00d9 13       		.uleb128 0x13
 2149 00da 00       		.byte	0
 2150 00db 00       		.byte	0
 2151 00dc 10       		.uleb128 0x10
 2152 00dd 34       		.uleb128 0x34
 2153 00de 00       		.byte	0
 2154 00df 03       		.uleb128 0x3
 2155 00e0 0E       		.uleb128 0xe
 2156 00e1 3A       		.uleb128 0x3a
 2157 00e2 0B       		.uleb128 0xb
 2158 00e3 3B       		.uleb128 0x3b
 2159 00e4 05       		.uleb128 0x5
 2160 00e5 49       		.uleb128 0x49
 2161 00e6 13       		.uleb128 0x13
 2162 00e7 02       		.uleb128 0x2
 2163 00e8 18       		.uleb128 0x18
 2164 00e9 00       		.byte	0
 2165 00ea 00       		.byte	0
 2166 00eb 11       		.uleb128 0x11
 2167 00ec 2E       		.uleb128 0x2e
ARM GAS  C:\Users\Greg\AppData\Local\Temp\ccWhExNe.s 			page 53


 2168 00ed 01       		.byte	0x1
 2169 00ee 3F       		.uleb128 0x3f
 2170 00ef 19       		.uleb128 0x19
 2171 00f0 03       		.uleb128 0x3
 2172 00f1 0E       		.uleb128 0xe
 2173 00f2 3A       		.uleb128 0x3a
 2174 00f3 0B       		.uleb128 0xb
 2175 00f4 3B       		.uleb128 0x3b
 2176 00f5 05       		.uleb128 0x5
 2177 00f6 27       		.uleb128 0x27
 2178 00f7 19       		.uleb128 0x19
 2179 00f8 49       		.uleb128 0x49
 2180 00f9 13       		.uleb128 0x13
 2181 00fa 11       		.uleb128 0x11
 2182 00fb 01       		.uleb128 0x1
 2183 00fc 12       		.uleb128 0x12
 2184 00fd 06       		.uleb128 0x6
 2185 00fe 40       		.uleb128 0x40
 2186 00ff 18       		.uleb128 0x18
 2187 0100 9642     		.uleb128 0x2116
 2188 0102 19       		.uleb128 0x19
 2189 0103 01       		.uleb128 0x1
 2190 0104 13       		.uleb128 0x13
 2191 0105 00       		.byte	0
 2192 0106 00       		.byte	0
 2193 0107 12       		.uleb128 0x12
 2194 0108 2E       		.uleb128 0x2e
 2195 0109 00       		.byte	0
 2196 010a 3F       		.uleb128 0x3f
 2197 010b 19       		.uleb128 0x19
 2198 010c 03       		.uleb128 0x3
 2199 010d 0E       		.uleb128 0xe
 2200 010e 3A       		.uleb128 0x3a
 2201 010f 0B       		.uleb128 0xb
 2202 0110 3B       		.uleb128 0x3b
 2203 0111 05       		.uleb128 0x5
 2204 0112 27       		.uleb128 0x27
 2205 0113 19       		.uleb128 0x19
 2206 0114 49       		.uleb128 0x49
 2207 0115 13       		.uleb128 0x13
 2208 0116 11       		.uleb128 0x11
 2209 0117 01       		.uleb128 0x1
 2210 0118 12       		.uleb128 0x12
 2211 0119 06       		.uleb128 0x6
 2212 011a 40       		.uleb128 0x40
 2213 011b 18       		.uleb128 0x18
 2214 011c 9742     		.uleb128 0x2117
 2215 011e 19       		.uleb128 0x19
 2216 011f 00       		.byte	0
 2217 0120 00       		.byte	0
 2218 0121 13       		.uleb128 0x13
 2219 0122 05       		.uleb128 0x5
 2220 0123 00       		.byte	0
 2221 0124 03       		.uleb128 0x3
 2222 0125 0E       		.uleb128 0xe
 2223 0126 3A       		.uleb128 0x3a
 2224 0127 0B       		.uleb128 0xb
ARM GAS  C:\Users\Greg\AppData\Local\Temp\ccWhExNe.s 			page 54


 2225 0128 3B       		.uleb128 0x3b
 2226 0129 05       		.uleb128 0x5
 2227 012a 49       		.uleb128 0x49
 2228 012b 13       		.uleb128 0x13
 2229 012c 02       		.uleb128 0x2
 2230 012d 18       		.uleb128 0x18
 2231 012e 00       		.byte	0
 2232 012f 00       		.byte	0
 2233 0130 14       		.uleb128 0x14
 2234 0131 2E       		.uleb128 0x2e
 2235 0132 00       		.byte	0
 2236 0133 3F       		.uleb128 0x3f
 2237 0134 19       		.uleb128 0x19
 2238 0135 03       		.uleb128 0x3
 2239 0136 0E       		.uleb128 0xe
 2240 0137 3A       		.uleb128 0x3a
 2241 0138 0B       		.uleb128 0xb
 2242 0139 3B       		.uleb128 0x3b
 2243 013a 05       		.uleb128 0x5
 2244 013b 27       		.uleb128 0x27
 2245 013c 19       		.uleb128 0x19
 2246 013d 11       		.uleb128 0x11
 2247 013e 01       		.uleb128 0x1
 2248 013f 12       		.uleb128 0x12
 2249 0140 06       		.uleb128 0x6
 2250 0141 40       		.uleb128 0x40
 2251 0142 18       		.uleb128 0x18
 2252 0143 9742     		.uleb128 0x2117
 2253 0145 19       		.uleb128 0x19
 2254 0146 00       		.byte	0
 2255 0147 00       		.byte	0
 2256 0148 15       		.uleb128 0x15
 2257 0149 34       		.uleb128 0x34
 2258 014a 00       		.byte	0
 2259 014b 03       		.uleb128 0x3
 2260 014c 0E       		.uleb128 0xe
 2261 014d 3A       		.uleb128 0x3a
 2262 014e 0B       		.uleb128 0xb
 2263 014f 3B       		.uleb128 0x3b
 2264 0150 0B       		.uleb128 0xb
 2265 0151 49       		.uleb128 0x49
 2266 0152 13       		.uleb128 0x13
 2267 0153 3F       		.uleb128 0x3f
 2268 0154 19       		.uleb128 0x19
 2269 0155 02       		.uleb128 0x2
 2270 0156 18       		.uleb128 0x18
 2271 0157 00       		.byte	0
 2272 0158 00       		.byte	0
 2273 0159 16       		.uleb128 0x16
 2274 015a 26       		.uleb128 0x26
 2275 015b 00       		.byte	0
 2276 015c 49       		.uleb128 0x49
 2277 015d 13       		.uleb128 0x13
 2278 015e 00       		.byte	0
 2279 015f 00       		.byte	0
 2280 0160 00       		.byte	0
 2281              		.section	.debug_aranges,"",%progbits
ARM GAS  C:\Users\Greg\AppData\Local\Temp\ccWhExNe.s 			page 55


 2282 0000 94000000 		.4byte	0x94
 2283 0004 0200     		.2byte	0x2
 2284 0006 00000000 		.4byte	.Ldebug_info0
 2285 000a 04       		.byte	0x4
 2286 000b 00       		.byte	0
 2287 000c 0000     		.2byte	0
 2288 000e 0000     		.2byte	0
 2289 0010 00000000 		.4byte	.LFB0
 2290 0014 F8000000 		.4byte	.LFE0-.LFB0
 2291 0018 00000000 		.4byte	.LFB1
 2292 001c 88000000 		.4byte	.LFE1-.LFB1
 2293 0020 00000000 		.4byte	.LFB2
 2294 0024 4C000000 		.4byte	.LFE2-.LFB2
 2295 0028 00000000 		.4byte	.LFB3
 2296 002c 58000000 		.4byte	.LFE3-.LFB3
 2297 0030 00000000 		.4byte	.LFB4
 2298 0034 D0000000 		.4byte	.LFE4-.LFB4
 2299 0038 00000000 		.4byte	.LFB5
 2300 003c 70000000 		.4byte	.LFE5-.LFB5
 2301 0040 00000000 		.4byte	.LFB6
 2302 0044 44000000 		.4byte	.LFE6-.LFB6
 2303 0048 00000000 		.4byte	.LFB7
 2304 004c 0A000000 		.4byte	.LFE7-.LFB7
 2305 0050 00000000 		.4byte	.LFB8
 2306 0054 40000000 		.4byte	.LFE8-.LFB8
 2307 0058 00000000 		.4byte	.LFB9
 2308 005c 64000000 		.4byte	.LFE9-.LFB9
 2309 0060 00000000 		.4byte	.LFB10
 2310 0064 B4000000 		.4byte	.LFE10-.LFB10
 2311 0068 00000000 		.4byte	.LFB11
 2312 006c 20000000 		.4byte	.LFE11-.LFB11
 2313 0070 00000000 		.4byte	.LFB12
 2314 0074 38000000 		.4byte	.LFE12-.LFB12
 2315 0078 00000000 		.4byte	.LFB13
 2316 007c 48000000 		.4byte	.LFE13-.LFB13
 2317 0080 00000000 		.4byte	.LFB14
 2318 0084 40000000 		.4byte	.LFE14-.LFB14
 2319 0088 00000000 		.4byte	.LFB15
 2320 008c 34000000 		.4byte	.LFE15-.LFB15
 2321 0090 00000000 		.4byte	0
 2322 0094 00000000 		.4byte	0
 2323              		.section	.debug_ranges,"",%progbits
 2324              	.Ldebug_ranges0:
 2325 0000 00000000 		.4byte	.LFB0
 2326 0004 F8000000 		.4byte	.LFE0
 2327 0008 00000000 		.4byte	.LFB1
 2328 000c 88000000 		.4byte	.LFE1
 2329 0010 00000000 		.4byte	.LFB2
 2330 0014 4C000000 		.4byte	.LFE2
 2331 0018 00000000 		.4byte	.LFB3
 2332 001c 58000000 		.4byte	.LFE3
 2333 0020 00000000 		.4byte	.LFB4
 2334 0024 D0000000 		.4byte	.LFE4
 2335 0028 00000000 		.4byte	.LFB5
 2336 002c 70000000 		.4byte	.LFE5
 2337 0030 00000000 		.4byte	.LFB6
 2338 0034 44000000 		.4byte	.LFE6
ARM GAS  C:\Users\Greg\AppData\Local\Temp\ccWhExNe.s 			page 56


 2339 0038 00000000 		.4byte	.LFB7
 2340 003c 0A000000 		.4byte	.LFE7
 2341 0040 00000000 		.4byte	.LFB8
 2342 0044 40000000 		.4byte	.LFE8
 2343 0048 00000000 		.4byte	.LFB9
 2344 004c 64000000 		.4byte	.LFE9
 2345 0050 00000000 		.4byte	.LFB10
 2346 0054 B4000000 		.4byte	.LFE10
 2347 0058 00000000 		.4byte	.LFB11
 2348 005c 20000000 		.4byte	.LFE11
 2349 0060 00000000 		.4byte	.LFB12
 2350 0064 38000000 		.4byte	.LFE12
 2351 0068 00000000 		.4byte	.LFB13
 2352 006c 48000000 		.4byte	.LFE13
 2353 0070 00000000 		.4byte	.LFB14
 2354 0074 40000000 		.4byte	.LFE14
 2355 0078 00000000 		.4byte	.LFB15
 2356 007c 34000000 		.4byte	.LFE15
 2357 0080 00000000 		.4byte	0
 2358 0084 00000000 		.4byte	0
 2359              		.section	.debug_line,"",%progbits
 2360              	.Ldebug_line0:
 2361 0000 16020000 		.section	.debug_str,"MS",%progbits,1
 2361      02005500 
 2361      00000201 
 2361      FB0E0D00 
 2361      01010101 
 2362              	.LASF31:
 2363 0000 70537461 		.ascii	"pStatusBlock\000"
 2363      74757342 
 2363      6C6F636B 
 2363      00
 2364              	.LASF70:
 2365 000d 55534255 		.ascii	"USBUART_ep0Toggle\000"
 2365      4152545F 
 2365      65703054 
 2365      6F67676C 
 2365      6500
 2366              	.LASF29:
 2367 001f 636F756E 		.ascii	"count\000"
 2367      7400
 2368              	.LASF10:
 2369 0025 75696E74 		.ascii	"uint16\000"
 2369      313600
 2370              	.LASF57:
 2371 002c 55534255 		.ascii	"USBUART_device\000"
 2371      4152545F 
 2371      64657669 
 2371      636500
 2372              	.LASF74:
 2373 003b 55534255 		.ascii	"USBUART_transferByteCount\000"
 2373      4152545F 
 2373      7472616E 
 2373      73666572 
 2373      42797465 
 2374              	.LASF38:
 2375 0055 55534255 		.ascii	"USBUART_HandleSetup\000"
ARM GAS  C:\Users\Greg\AppData\Local\Temp\ccWhExNe.s 			page 57


 2375      4152545F 
 2375      48616E64 
 2375      6C655365 
 2375      74757000 
 2376              	.LASF50:
 2377 0069 72656749 		.ascii	"regIndex\000"
 2377      6E646578 
 2377      00
 2378              	.LASF78:
 2379 0072 636F6D70 		.ascii	"completionCode\000"
 2379      6C657469 
 2379      6F6E436F 
 2379      646500
 2380              	.LASF71:
 2381 0081 55534255 		.ascii	"USBUART_lastPacketSize\000"
 2381      4152545F 
 2381      6C617374 
 2381      5061636B 
 2381      65745369 
 2382              	.LASF7:
 2383 0098 6C6F6E67 		.ascii	"long long unsigned int\000"
 2383      206C6F6E 
 2383      6720756E 
 2383      7369676E 
 2383      65642069 
 2384              	.LASF20:
 2385 00af 61646472 		.ascii	"addr\000"
 2385      00
 2386              	.LASF68:
 2387 00b4 55534255 		.ascii	"USBUART_EP\000"
 2387      4152545F 
 2387      455000
 2388              	.LASF28:
 2389 00bf 545F5553 		.ascii	"T_USBUART_XFER_STATUS_BLOCK\000"
 2389      42554152 
 2389      545F5846 
 2389      45525F53 
 2389      54415455 
 2390              	.LASF76:
 2391 00db 47656E65 		.ascii	"Generated_Source\\PSoC5\\USBUART_drv.c\000"
 2391      72617465 
 2391      645F536F 
 2391      75726365 
 2391      5C50536F 
 2392              	.LASF6:
 2393 0100 6C6F6E67 		.ascii	"long long int\000"
 2393      206C6F6E 
 2393      6720696E 
 2393      7400
 2394              	.LASF0:
 2395 010e 7369676E 		.ascii	"signed char\000"
 2395      65642063 
 2395      68617200 
 2396              	.LASF47:
 2397 011a 55534255 		.ascii	"USBUART_InitControlRead\000"
 2397      4152545F 
 2397      496E6974 
ARM GAS  C:\Users\Greg\AppData\Local\Temp\ccWhExNe.s 			page 58


 2397      436F6E74 
 2397      726F6C52 
 2398              	.LASF64:
 2399 0132 55534255 		.ascii	"USBUART_interfaceSettingLast\000"
 2399      4152545F 
 2399      696E7465 
 2399      72666163 
 2399      65536574 
 2400              	.LASF34:
 2401 014f 55534255 		.ascii	"USBUART_ep0_data_struct\000"
 2401      4152545F 
 2401      6570305F 
 2401      64617461 
 2401      5F737472 
 2402              	.LASF4:
 2403 0167 6C6F6E67 		.ascii	"long int\000"
 2403      20696E74 
 2403      00
 2404              	.LASF37:
 2405 0170 55534255 		.ascii	"USBUART_EP_0_ISR\000"
 2405      4152545F 
 2405      45505F30 
 2405      5F495352 
 2405      00
 2406              	.LASF9:
 2407 0181 75696E74 		.ascii	"uint8\000"
 2407      3800
 2408              	.LASF19:
 2409 0187 6570546F 		.ascii	"epToggle\000"
 2409      67676C65 
 2409      00
 2410              	.LASF12:
 2411 0190 646F7562 		.ascii	"double\000"
 2411      6C6500
 2412              	.LASF62:
 2413 0197 55534255 		.ascii	"USBUART_interfaceNumber\000"
 2413      4152545F 
 2413      696E7465 
 2413      72666163 
 2413      654E756D 
 2414              	.LASF30:
 2415 01af 70446174 		.ascii	"pData\000"
 2415      6100
 2416              	.LASF21:
 2417 01b5 65704D6F 		.ascii	"epMode\000"
 2417      646500
 2418              	.LASF61:
 2419 01bc 55534255 		.ascii	"USBUART_deviceStatus\000"
 2419      4152545F 
 2419      64657669 
 2419      63655374 
 2419      61747573 
 2420              	.LASF8:
 2421 01d1 756E7369 		.ascii	"unsigned int\000"
 2421      676E6564 
 2421      20696E74 
 2421      00
ARM GAS  C:\Users\Greg\AppData\Local\Temp\ccWhExNe.s 			page 59


 2422              	.LASF36:
 2423 01de 6D6F6469 		.ascii	"modifyReg\000"
 2423      66795265 
 2423      6700
 2424              	.LASF5:
 2425 01e8 6C6F6E67 		.ascii	"long unsigned int\000"
 2425      20756E73 
 2425      69676E65 
 2425      6420696E 
 2425      7400
 2426              	.LASF45:
 2427 01fa 55534255 		.ascii	"USBUART_ControlReadDataStage\000"
 2427      4152545F 
 2427      436F6E74 
 2427      726F6C52 
 2427      65616444 
 2428              	.LASF3:
 2429 0217 73686F72 		.ascii	"short unsigned int\000"
 2429      7420756E 
 2429      7369676E 
 2429      65642069 
 2429      6E7400
 2430              	.LASF52:
 2431 022a 55534255 		.ascii	"USBUART_InitZeroLengthControlTransfer\000"
 2431      4152545F 
 2431      496E6974 
 2431      5A65726F 
 2431      4C656E67 
 2432              	.LASF73:
 2433 0250 55534255 		.ascii	"USBUART_ep0Count\000"
 2433      4152545F 
 2433      65703043 
 2433      6F756E74 
 2433      00
 2434              	.LASF69:
 2435 0261 55534255 		.ascii	"USBUART_currentTD\000"
 2435      4152545F 
 2435      63757272 
 2435      656E7454 
 2435      4400
 2436              	.LASF43:
 2437 0273 65703043 		.ascii	"ep0Count\000"
 2437      6F756E74 
 2437      00
 2438              	.LASF24:
 2439 027c 696E7465 		.ascii	"interface\000"
 2439      72666163 
 2439      6500
 2440              	.LASF35:
 2441 0286 74656D70 		.ascii	"tempReg\000"
 2441      52656700 
 2442              	.LASF65:
 2443 028e 55534255 		.ascii	"USBUART_deviceAddress\000"
 2443      4152545F 
 2443      64657669 
 2443      63654164 
 2443      64726573 
ARM GAS  C:\Users\Greg\AppData\Local\Temp\ccWhExNe.s 			page 60


 2444              	.LASF18:
 2445 02a4 68774570 		.ascii	"hwEpState\000"
 2445      53746174 
 2445      6500
 2446              	.LASF15:
 2447 02ae 73697A65 		.ascii	"sizetype\000"
 2447      74797065 
 2447      00
 2448              	.LASF48:
 2449 02b7 55534255 		.ascii	"USBUART_InitControlWrite\000"
 2449      4152545F 
 2449      496E6974 
 2449      436F6E74 
 2449      726F6C57 
 2450              	.LASF16:
 2451 02d0 61747472 		.ascii	"attrib\000"
 2451      696200
 2452              	.LASF67:
 2453 02d7 55534255 		.ascii	"USBUART_interfaceClass\000"
 2453      4152545F 
 2453      696E7465 
 2453      72666163 
 2453      65436C61 
 2454              	.LASF75:
 2455 02ee 474E5520 		.ascii	"GNU C 4.9.3 20150303 (release) [ARM/embedded-4_9-br"
 2455      4320342E 
 2455      392E3320 
 2455      32303135 
 2455      30333033 
 2456 0321 616E6368 		.ascii	"anch revision 221220] -mcpu=cortex-m3 -mthumb -g -O"
 2456      20726576 
 2456      6973696F 
 2456      6E203232 
 2456      31323230 
 2457 0354 30202D66 		.ascii	"0 -ffunction-sections -ffat-lto-objects\000"
 2457      66756E63 
 2457      74696F6E 
 2457      2D736563 
 2457      74696F6E 
 2458              	.LASF53:
 2459 037c 55534255 		.ascii	"USBUART_InitNoDataControlTransfer\000"
 2459      4152545F 
 2459      496E6974 
 2459      4E6F4461 
 2459      7461436F 
 2460              	.LASF42:
 2461 039e 55534255 		.ascii	"USBUART_LoadEP0\000"
 2461      4152545F 
 2461      4C6F6164 
 2461      45503000 
 2462              	.LASF51:
 2463 03ae 55534255 		.ascii	"USBUART_ControlWriteStatusStage\000"
 2463      4152545F 
 2463      436F6E74 
 2463      726F6C57 
 2463      72697465 
 2464              	.LASF11:
ARM GAS  C:\Users\Greg\AppData\Local\Temp\ccWhExNe.s 			page 61


 2465 03ce 666C6F61 		.ascii	"float\000"
 2465      7400
 2466              	.LASF17:
 2467 03d4 61706945 		.ascii	"apiEpState\000"
 2467      70537461 
 2467      746500
 2468              	.LASF54:
 2469 03df 55534255 		.ascii	"USBUART_NoDataControlStatusStage\000"
 2469      4152545F 
 2469      4E6F4461 
 2469      7461436F 
 2469      6E74726F 
 2470              	.LASF14:
 2471 0400 72656738 		.ascii	"reg8\000"
 2471      00
 2472              	.LASF63:
 2473 0405 55534255 		.ascii	"USBUART_interfaceSetting\000"
 2473      4152545F 
 2473      696E7465 
 2473      72666163 
 2473      65536574 
 2474              	.LASF1:
 2475 041e 756E7369 		.ascii	"unsigned char\000"
 2475      676E6564 
 2475      20636861 
 2475      7200
 2476              	.LASF2:
 2477 042c 73686F72 		.ascii	"short int\000"
 2477      7420696E 
 2477      7400
 2478              	.LASF77:
 2479 0436 433A5C53 		.ascii	"C:\\SVN\\apps\\trunk\\Cypress Academy\\PSoC-121-Ana"
 2479      564E5C61 
 2479      7070735C 
 2479      7472756E 
 2479      6B5C4379 
 2480 0464 6C6F675C 		.ascii	"log\\Scope\\KEES_Scope\\PSoC\\Scope.cydsn\000"
 2480      53636F70 
 2480      655C4B45 
 2480      45535F53 
 2480      636F7065 
 2481              	.LASF32:
 2482 048a 545F5553 		.ascii	"T_USBUART_TD\000"
 2482      42554152 
 2482      545F5444 
 2482      00
 2483              	.LASF66:
 2484 0497 55534255 		.ascii	"USBUART_interfaceStatus\000"
 2484      4152545F 
 2484      696E7465 
 2484      72666163 
 2484      65537461 
 2485              	.LASF72:
 2486 04af 55534255 		.ascii	"USBUART_ep0Mode\000"
 2486      4152545F 
 2486      6570304D 
 2486      6F646500 
ARM GAS  C:\Users\Greg\AppData\Local\Temp\ccWhExNe.s 			page 62


 2487              	.LASF27:
 2488 04bf 6C656E67 		.ascii	"length\000"
 2488      746800
 2489              	.LASF56:
 2490 04c6 55534255 		.ascii	"USBUART_InitializeStatusBlock\000"
 2490      4152545F 
 2490      496E6974 
 2490      69616C69 
 2490      7A655374 
 2491              	.LASF13:
 2492 04e4 63686172 		.ascii	"char\000"
 2492      00
 2493              	.LASF23:
 2494 04e9 62756666 		.ascii	"bufferSize\000"
 2494      65725369 
 2494      7A6500
 2495              	.LASF39:
 2496 04f4 72657175 		.ascii	"requestHandled\000"
 2496      65737448 
 2496      616E646C 
 2496      656400
 2497              	.LASF25:
 2498 0503 545F5553 		.ascii	"T_USBUART_EP_CTL_BLOCK\000"
 2498      42554152 
 2498      545F4550 
 2498      5F43544C 
 2498      5F424C4F 
 2499              	.LASF22:
 2500 051a 62756666 		.ascii	"buffOffset\000"
 2500      4F666673 
 2500      657400
 2501              	.LASF41:
 2502 0525 55534255 		.ascii	"USBUART_HandleOUT\000"
 2502      4152545F 
 2502      48616E64 
 2502      6C654F55 
 2502      5400
 2503              	.LASF49:
 2504 0537 55534255 		.ascii	"USBUART_ControlWriteDataStage\000"
 2504      4152545F 
 2504      436F6E74 
 2504      726F6C57 
 2504      72697465 
 2505              	.LASF40:
 2506 0555 55534255 		.ascii	"USBUART_HandleIN\000"
 2506      4152545F 
 2506      48616E64 
 2506      6C65494E 
 2506      00
 2507              	.LASF26:
 2508 0566 73746174 		.ascii	"status\000"
 2508      757300
 2509              	.LASF59:
 2510 056d 55534255 		.ascii	"USBUART_configuration\000"
 2510      4152545F 
 2510      636F6E66 
 2510      69677572 
ARM GAS  C:\Users\Greg\AppData\Local\Temp\ccWhExNe.s 			page 63


 2510      6174696F 
 2511              	.LASF44:
 2512 0583 78666572 		.ascii	"xferCount\000"
 2512      436F756E 
 2512      7400
 2513              	.LASF33:
 2514 058d 65704461 		.ascii	"epData\000"
 2514      746100
 2515              	.LASF55:
 2516 0594 55534255 		.ascii	"USBUART_UpdateStatusBlock\000"
 2516      4152545F 
 2516      55706461 
 2516      74655374 
 2516      61747573 
 2517              	.LASF46:
 2518 05ae 55534255 		.ascii	"USBUART_ControlReadStatusStage\000"
 2518      4152545F 
 2518      436F6E74 
 2518      726F6C52 
 2518      65616453 
 2519              	.LASF58:
 2520 05cd 55534255 		.ascii	"USBUART_transferState\000"
 2520      4152545F 
 2520      7472616E 
 2520      73666572 
 2520      53746174 
 2521              	.LASF60:
 2522 05e3 55534255 		.ascii	"USBUART_configurationChanged\000"
 2522      4152545F 
 2522      636F6E66 
 2522      69677572 
 2522      6174696F 
 2523              		.ident	"GCC: (GNU Tools for ARM Embedded Processors) 4.9.3 20150303 (release) [ARM/embedded-4_9-br
