ARM GAS  C:\Users\Greg\AppData\Local\Temp\cc66k9pW.s 			page 1


   1              		.syntax unified
   2              		.cpu cortex-m3
   3              		.fpu softvfp
   4              		.eabi_attribute 20, 1
   5              		.eabi_attribute 21, 1
   6              		.eabi_attribute 23, 3
   7              		.eabi_attribute 24, 1
   8              		.eabi_attribute 25, 1
   9              		.eabi_attribute 26, 1
  10              		.eabi_attribute 30, 6
  11              		.eabi_attribute 34, 1
  12              		.eabi_attribute 18, 4
  13              		.thumb
  14              		.file	"USBUART_std.c"
  15              		.text
  16              	.Ltext0:
  17              		.cfi_sections	.debug_frame
  18              		.section	.text.USBUART_HandleStandardRqst,"ax",%progbits
  19              		.align	2
  20              		.global	USBUART_HandleStandardRqst
  21              		.thumb
  22              		.thumb_func
  23              		.type	USBUART_HandleStandardRqst, %function
  24              	USBUART_HandleStandardRqst:
  25              	.LFB0:
  26              		.file 1 "Generated_Source\\PSoC5\\USBUART_std.c"
   1:Generated_Source\PSoC5/USBUART_std.c **** /***************************************************************************//**
   2:Generated_Source\PSoC5/USBUART_std.c **** * \file USBUART_std.c
   3:Generated_Source\PSoC5/USBUART_std.c **** * \version 3.10
   4:Generated_Source\PSoC5/USBUART_std.c **** *
   5:Generated_Source\PSoC5/USBUART_std.c **** * \brief
   6:Generated_Source\PSoC5/USBUART_std.c **** *  This file contains the USB Standard request handler.
   7:Generated_Source\PSoC5/USBUART_std.c **** *
   8:Generated_Source\PSoC5/USBUART_std.c **** ********************************************************************************
   9:Generated_Source\PSoC5/USBUART_std.c **** * \copyright
  10:Generated_Source\PSoC5/USBUART_std.c **** * Copyright 2008-2016, Cypress Semiconductor Corporation.  All rights reserved.
  11:Generated_Source\PSoC5/USBUART_std.c **** * You may use this file only in accordance with the license, terms, conditions,
  12:Generated_Source\PSoC5/USBUART_std.c **** * disclaimers, and limitations in the end user license agreement accompanying
  13:Generated_Source\PSoC5/USBUART_std.c **** * the software package with which this file was provided.
  14:Generated_Source\PSoC5/USBUART_std.c **** *******************************************************************************/
  15:Generated_Source\PSoC5/USBUART_std.c **** 
  16:Generated_Source\PSoC5/USBUART_std.c **** #include "USBUART_pvt.h"
  17:Generated_Source\PSoC5/USBUART_std.c **** 
  18:Generated_Source\PSoC5/USBUART_std.c **** /***************************************
  19:Generated_Source\PSoC5/USBUART_std.c **** *   Static data allocation
  20:Generated_Source\PSoC5/USBUART_std.c **** ***************************************/
  21:Generated_Source\PSoC5/USBUART_std.c **** 
  22:Generated_Source\PSoC5/USBUART_std.c **** #if defined(USBUART_ENABLE_FWSN_STRING)
  23:Generated_Source\PSoC5/USBUART_std.c ****     static volatile uint8* USBUART_fwSerialNumberStringDescriptor;
  24:Generated_Source\PSoC5/USBUART_std.c ****     static volatile uint8  USBUART_snStringConfirm = USBUART_FALSE;
  25:Generated_Source\PSoC5/USBUART_std.c **** #endif  /* (USBUART_ENABLE_FWSN_STRING) */
  26:Generated_Source\PSoC5/USBUART_std.c **** 
  27:Generated_Source\PSoC5/USBUART_std.c **** #if defined(USBUART_ENABLE_FWSN_STRING)
  28:Generated_Source\PSoC5/USBUART_std.c ****     /***************************************************************************
  29:Generated_Source\PSoC5/USBUART_std.c ****     * Function Name: USBUART_SerialNumString
  30:Generated_Source\PSoC5/USBUART_std.c ****     ************************************************************************//**
  31:Generated_Source\PSoC5/USBUART_std.c ****     *
ARM GAS  C:\Users\Greg\AppData\Local\Temp\cc66k9pW.s 			page 2


  32:Generated_Source\PSoC5/USBUART_std.c ****     *  This function is available only when the User Call Back option in the 
  33:Generated_Source\PSoC5/USBUART_std.c ****     *  Serial Number String descriptor properties is selected. Application 
  34:Generated_Source\PSoC5/USBUART_std.c ****     *  firmware can provide the source of the USB device serial number string 
  35:Generated_Source\PSoC5/USBUART_std.c ****     *  descriptor during run time. The default string is used if the application 
  36:Generated_Source\PSoC5/USBUART_std.c ****     *  firmware does not use this function or sets the wrong string descriptor.
  37:Generated_Source\PSoC5/USBUART_std.c ****     *
  38:Generated_Source\PSoC5/USBUART_std.c ****     *  \param snString:  Pointer to the user-defined string descriptor. The 
  39:Generated_Source\PSoC5/USBUART_std.c ****     *  string descriptor should meet the Universal Serial Bus Specification 
  40:Generated_Source\PSoC5/USBUART_std.c ****     *  revision 2.0 chapter 9.6.7
  41:Generated_Source\PSoC5/USBUART_std.c ****     *  Offset|Size|Value|Description
  42:Generated_Source\PSoC5/USBUART_std.c ****     *  ------|----|------|---------------------------------
  43:Generated_Source\PSoC5/USBUART_std.c ****     *  0     |1   |N     |Size of this descriptor in bytes
  44:Generated_Source\PSoC5/USBUART_std.c ****     *  1     |1   |0x03  |STRING Descriptor Type
  45:Generated_Source\PSoC5/USBUART_std.c ****     *  2     |N-2 |Number|UNICODE encoded string
  46:Generated_Source\PSoC5/USBUART_std.c ****     *  
  47:Generated_Source\PSoC5/USBUART_std.c ****     * *For example:* uint8 snString[16]={0x0E,0x03,'F',0,'W',0,'S',0,'N',0,'0',0,'1',0};
  48:Generated_Source\PSoC5/USBUART_std.c ****     *
  49:Generated_Source\PSoC5/USBUART_std.c ****     * \reentrant
  50:Generated_Source\PSoC5/USBUART_std.c ****     *  No.
  51:Generated_Source\PSoC5/USBUART_std.c ****     *
  52:Generated_Source\PSoC5/USBUART_std.c ****     ***************************************************************************/
  53:Generated_Source\PSoC5/USBUART_std.c ****     void  USBUART_SerialNumString(uint8 snString[]) 
  54:Generated_Source\PSoC5/USBUART_std.c ****     {
  55:Generated_Source\PSoC5/USBUART_std.c ****         USBUART_snStringConfirm = USBUART_FALSE;
  56:Generated_Source\PSoC5/USBUART_std.c ****         
  57:Generated_Source\PSoC5/USBUART_std.c ****         if (snString != NULL)
  58:Generated_Source\PSoC5/USBUART_std.c ****         {
  59:Generated_Source\PSoC5/USBUART_std.c ****             /* Check descriptor validation */
  60:Generated_Source\PSoC5/USBUART_std.c ****             if ((snString[0u] > 1u) && (snString[1u] == USBUART_DESCR_STRING))
  61:Generated_Source\PSoC5/USBUART_std.c ****             {
  62:Generated_Source\PSoC5/USBUART_std.c ****                 USBUART_fwSerialNumberStringDescriptor = snString;
  63:Generated_Source\PSoC5/USBUART_std.c ****                 USBUART_snStringConfirm = USBUART_TRUE;
  64:Generated_Source\PSoC5/USBUART_std.c ****             }
  65:Generated_Source\PSoC5/USBUART_std.c ****         }
  66:Generated_Source\PSoC5/USBUART_std.c ****     }
  67:Generated_Source\PSoC5/USBUART_std.c **** #endif  /* USBUART_ENABLE_FWSN_STRING */
  68:Generated_Source\PSoC5/USBUART_std.c **** 
  69:Generated_Source\PSoC5/USBUART_std.c **** 
  70:Generated_Source\PSoC5/USBUART_std.c **** /*******************************************************************************
  71:Generated_Source\PSoC5/USBUART_std.c **** * Function Name: USBUART_HandleStandardRqst
  72:Generated_Source\PSoC5/USBUART_std.c **** ****************************************************************************//**
  73:Generated_Source\PSoC5/USBUART_std.c **** *
  74:Generated_Source\PSoC5/USBUART_std.c **** *  This Routine dispatches standard requests
  75:Generated_Source\PSoC5/USBUART_std.c **** *
  76:Generated_Source\PSoC5/USBUART_std.c **** *
  77:Generated_Source\PSoC5/USBUART_std.c **** * \return
  78:Generated_Source\PSoC5/USBUART_std.c **** *  TRUE if request handled.
  79:Generated_Source\PSoC5/USBUART_std.c **** *
  80:Generated_Source\PSoC5/USBUART_std.c **** * \reentrant
  81:Generated_Source\PSoC5/USBUART_std.c **** *  No.
  82:Generated_Source\PSoC5/USBUART_std.c **** *
  83:Generated_Source\PSoC5/USBUART_std.c **** *******************************************************************************/
  84:Generated_Source\PSoC5/USBUART_std.c **** uint8 USBUART_HandleStandardRqst(void) 
  85:Generated_Source\PSoC5/USBUART_std.c **** {
  27              		.loc 1 85 0
  28              		.cfi_startproc
  29              		@ args = 0, pretend = 0, frame = 24
ARM GAS  C:\Users\Greg\AppData\Local\Temp\cc66k9pW.s 			page 3


  30              		@ frame_needed = 1, uses_anonymous_args = 0
  31 0000 80B5     		push	{r7, lr}
  32              		.cfi_def_cfa_offset 8
  33              		.cfi_offset 7, -8
  34              		.cfi_offset 14, -4
  35 0002 86B0     		sub	sp, sp, #24
  36              		.cfi_def_cfa_offset 32
  37 0004 00AF     		add	r7, sp, #0
  38              		.cfi_def_cfa_register 7
  86:Generated_Source\PSoC5/USBUART_std.c ****     uint8 requestHandled = USBUART_FALSE;
  39              		.loc 1 86 0
  40 0006 0023     		movs	r3, #0
  41 0008 FB75     		strb	r3, [r7, #23]
  87:Generated_Source\PSoC5/USBUART_std.c ****     uint8 interfaceNumber;
  88:Generated_Source\PSoC5/USBUART_std.c ****     uint8 configurationN;
  89:Generated_Source\PSoC5/USBUART_std.c ****     uint8 bmRequestType = USBUART_bmRequestTypeReg;
  42              		.loc 1 89 0
  43 000a 9D4B     		ldr	r3, .L61
  44 000c 1B78     		ldrb	r3, [r3]
  45 000e FB71     		strb	r3, [r7, #7]
  90:Generated_Source\PSoC5/USBUART_std.c **** 
  91:Generated_Source\PSoC5/USBUART_std.c **** #if defined(USBUART_ENABLE_STRINGS)
  92:Generated_Source\PSoC5/USBUART_std.c ****     volatile uint8 *pStr = 0u;
  46              		.loc 1 92 0
  47 0010 0023     		movs	r3, #0
  48 0012 3B61     		str	r3, [r7, #16]
  93:Generated_Source\PSoC5/USBUART_std.c ****     #if defined(USBUART_ENABLE_DESCRIPTOR_STRINGS)
  94:Generated_Source\PSoC5/USBUART_std.c ****         uint8 nStr;
  95:Generated_Source\PSoC5/USBUART_std.c ****         uint8 descrLength;
  96:Generated_Source\PSoC5/USBUART_std.c ****     #endif /* (USBUART_ENABLE_DESCRIPTOR_STRINGS) */
  97:Generated_Source\PSoC5/USBUART_std.c **** #endif /* (USBUART_ENABLE_STRINGS) */
  98:Generated_Source\PSoC5/USBUART_std.c ****     
  99:Generated_Source\PSoC5/USBUART_std.c ****     static volatile uint8 USBUART_tBuffer[USBUART_STATUS_LENGTH_MAX];
 100:Generated_Source\PSoC5/USBUART_std.c ****     const T_USBUART_LUT CYCODE *pTmp;
 101:Generated_Source\PSoC5/USBUART_std.c **** 
 102:Generated_Source\PSoC5/USBUART_std.c ****     USBUART_currentTD.count = 0u;
  49              		.loc 1 102 0
  50 0014 9B4B     		ldr	r3, .L61+4
  51 0016 0022     		movs	r2, #0
  52 0018 1A80     		strh	r2, [r3]	@ movhi
 103:Generated_Source\PSoC5/USBUART_std.c **** 
 104:Generated_Source\PSoC5/USBUART_std.c ****     if (USBUART_RQST_DIR_D2H == (bmRequestType & USBUART_RQST_DIR_MASK))
  53              		.loc 1 104 0
  54 001a FB79     		ldrb	r3, [r7, #7]	@ zero_extendqisi2
  55 001c 5BB2     		sxtb	r3, r3
  56 001e 002B     		cmp	r3, #0
  57 0020 80F20481 		bge	.L2
 105:Generated_Source\PSoC5/USBUART_std.c ****     {
 106:Generated_Source\PSoC5/USBUART_std.c ****         /* Control Read */
 107:Generated_Source\PSoC5/USBUART_std.c ****         switch (USBUART_bRequestReg)
  58              		.loc 1 107 0
  59 0024 964B     		ldr	r3, .L61
  60 0026 5B78     		ldrb	r3, [r3, #1]
  61 0028 DBB2     		uxtb	r3, r3
  62 002a 0A2B     		cmp	r3, #10
  63 002c 00F2FC80 		bhi	.L57
  64 0030 01A2     		adr	r2, .L5
ARM GAS  C:\Users\Greg\AppData\Local\Temp\cc66k9pW.s 			page 4


  65 0032 52F823F0 		ldr	pc, [r2, r3, lsl #2]
  66 0036 00BF     		.p2align 2
  67              	.L5:
  68 0038 81010000 		.word	.L4+1
  69 003c 29020000 		.word	.L57+1
  70 0040 29020000 		.word	.L57+1
  71 0044 29020000 		.word	.L57+1
  72 0048 29020000 		.word	.L57+1
  73 004c 29020000 		.word	.L57+1
  74 0050 65000000 		.word	.L6+1
  75 0054 29020000 		.word	.L57+1
  76 0058 F3010000 		.word	.L7+1
  77 005c 29020000 		.word	.L57+1
  78 0060 09020000 		.word	.L8+1
  79              		.p2align 1
  80              	.L6:
 108:Generated_Source\PSoC5/USBUART_std.c ****         {
 109:Generated_Source\PSoC5/USBUART_std.c ****             case USBUART_GET_DESCRIPTOR:
 110:Generated_Source\PSoC5/USBUART_std.c ****                 if (USBUART_DESCR_DEVICE ==USBUART_wValueHiReg)
  81              		.loc 1 110 0
  82 0064 864B     		ldr	r3, .L61
  83 0066 DB78     		ldrb	r3, [r3, #3]
  84 0068 DBB2     		uxtb	r3, r3
  85 006a 012B     		cmp	r3, #1
  86 006c 0ED1     		bne	.L9
 111:Generated_Source\PSoC5/USBUART_std.c ****                 {
 112:Generated_Source\PSoC5/USBUART_std.c ****                     pTmp = USBUART_GetDeviceTablePtr();
  87              		.loc 1 112 0
  88 006e FFF7FEFF 		bl	USBUART_GetDeviceTablePtr
  89 0072 B860     		str	r0, [r7, #8]
 113:Generated_Source\PSoC5/USBUART_std.c ****                     USBUART_currentTD.pData = (volatile uint8 *)pTmp->p_list;
  90              		.loc 1 113 0
  91 0074 BB68     		ldr	r3, [r7, #8]
  92 0076 5B68     		ldr	r3, [r3, #4]
  93 0078 824A     		ldr	r2, .L61+4
  94 007a 5360     		str	r3, [r2, #4]
 114:Generated_Source\PSoC5/USBUART_std.c ****                     USBUART_currentTD.count = USBUART_DEVICE_DESCR_LENGTH;
  95              		.loc 1 114 0
  96 007c 814B     		ldr	r3, .L61+4
  97 007e 1222     		movs	r2, #18
  98 0080 1A80     		strh	r2, [r3]	@ movhi
 115:Generated_Source\PSoC5/USBUART_std.c ****                     
 116:Generated_Source\PSoC5/USBUART_std.c ****                     requestHandled  = USBUART_InitControlRead();
  99              		.loc 1 116 0
 100 0082 FFF7FEFF 		bl	USBUART_InitControlRead
 101 0086 0346     		mov	r3, r0
 102 0088 FB75     		strb	r3, [r7, #23]
 103 008a 78E0     		b	.L10
 104              	.L9:
 117:Generated_Source\PSoC5/USBUART_std.c ****                 }
 118:Generated_Source\PSoC5/USBUART_std.c ****                 else if (USBUART_DESCR_CONFIG == USBUART_wValueHiReg)
 105              		.loc 1 118 0
 106 008c 7C4B     		ldr	r3, .L61
 107 008e DB78     		ldrb	r3, [r3, #3]
 108 0090 DBB2     		uxtb	r3, r3
 109 0092 022B     		cmp	r3, #2
 110 0094 24D1     		bne	.L11
ARM GAS  C:\Users\Greg\AppData\Local\Temp\cc66k9pW.s 			page 5


 119:Generated_Source\PSoC5/USBUART_std.c ****                 {
 120:Generated_Source\PSoC5/USBUART_std.c ****                     pTmp = USBUART_GetConfigTablePtr((uint8) USBUART_wValueLoReg);
 111              		.loc 1 120 0
 112 0096 7A4B     		ldr	r3, .L61
 113 0098 9B78     		ldrb	r3, [r3, #2]
 114 009a DBB2     		uxtb	r3, r3
 115 009c 1846     		mov	r0, r3
 116 009e FFF7FEFF 		bl	USBUART_GetConfigTablePtr
 117 00a2 B860     		str	r0, [r7, #8]
 121:Generated_Source\PSoC5/USBUART_std.c ****                     
 122:Generated_Source\PSoC5/USBUART_std.c ****                     /* Verify that requested descriptor exists */
 123:Generated_Source\PSoC5/USBUART_std.c ****                     if (pTmp != NULL)
 118              		.loc 1 123 0
 119 00a4 BB68     		ldr	r3, [r7, #8]
 120 00a6 002B     		cmp	r3, #0
 121 00a8 69D0     		beq	.L10
 124:Generated_Source\PSoC5/USBUART_std.c ****                     {
 125:Generated_Source\PSoC5/USBUART_std.c ****                         USBUART_currentTD.pData = (volatile uint8 *)pTmp->p_list;
 122              		.loc 1 125 0
 123 00aa BB68     		ldr	r3, [r7, #8]
 124 00ac 5B68     		ldr	r3, [r3, #4]
 125 00ae 754A     		ldr	r2, .L61+4
 126 00b0 5360     		str	r3, [r2, #4]
 126:Generated_Source\PSoC5/USBUART_std.c ****                         USBUART_currentTD.count = (uint16)((uint16)(USBUART_currentTD.pData)[USBUAR
 127              		.loc 1 126 0
 128 00b2 744B     		ldr	r3, .L61+4
 129 00b4 5B68     		ldr	r3, [r3, #4]
 130 00b6 0333     		adds	r3, r3, #3
 131 00b8 1B78     		ldrb	r3, [r3]
 132 00ba DBB2     		uxtb	r3, r3
 133 00bc 9BB2     		uxth	r3, r3
 134 00be 1B02     		lsls	r3, r3, #8
 135 00c0 9AB2     		uxth	r2, r3
 127:Generated_Source\PSoC5/USBUART_std.c ****                                                                             (USBUART_currentTD.pDat
 136              		.loc 1 127 0
 137 00c2 704B     		ldr	r3, .L61+4
 138 00c4 5B68     		ldr	r3, [r3, #4]
 139 00c6 0233     		adds	r3, r3, #2
 140 00c8 1B78     		ldrb	r3, [r3]
 141 00ca DBB2     		uxtb	r3, r3
 126:Generated_Source\PSoC5/USBUART_std.c ****                         USBUART_currentTD.count = (uint16)((uint16)(USBUART_currentTD.pData)[USBUAR
 142              		.loc 1 126 0
 143 00cc 9BB2     		uxth	r3, r3
 144 00ce 1343     		orrs	r3, r3, r2
 145 00d0 9AB2     		uxth	r2, r3
 146 00d2 6C4B     		ldr	r3, .L61+4
 147 00d4 1A80     		strh	r2, [r3]	@ movhi
 128:Generated_Source\PSoC5/USBUART_std.c ****                         requestHandled  = USBUART_InitControlRead();
 148              		.loc 1 128 0
 149 00d6 FFF7FEFF 		bl	USBUART_InitControlRead
 150 00da 0346     		mov	r3, r0
 151 00dc FB75     		strb	r3, [r7, #23]
 129:Generated_Source\PSoC5/USBUART_std.c ****                     }
 130:Generated_Source\PSoC5/USBUART_std.c ****                 }
 131:Generated_Source\PSoC5/USBUART_std.c ****                 
 132:Generated_Source\PSoC5/USBUART_std.c ****             #if(USBUART_BOS_ENABLE)
 133:Generated_Source\PSoC5/USBUART_std.c ****                 else if (USBUART_DESCR_BOS == USBUART_wValueHiReg)
ARM GAS  C:\Users\Greg\AppData\Local\Temp\cc66k9pW.s 			page 6


 134:Generated_Source\PSoC5/USBUART_std.c ****                 {
 135:Generated_Source\PSoC5/USBUART_std.c ****                     pTmp = USBUART_GetBOSPtr();
 136:Generated_Source\PSoC5/USBUART_std.c ****                     
 137:Generated_Source\PSoC5/USBUART_std.c ****                     /* Verify that requested descriptor exists */
 138:Generated_Source\PSoC5/USBUART_std.c ****                     if (pTmp != NULL)
 139:Generated_Source\PSoC5/USBUART_std.c ****                     {
 140:Generated_Source\PSoC5/USBUART_std.c ****                         USBUART_currentTD.pData = (volatile uint8 *)pTmp;
 141:Generated_Source\PSoC5/USBUART_std.c ****                         USBUART_currentTD.count = ((uint16)((uint16)(USBUART_currentTD.pData)[USBUA
 142:Generated_Source\PSoC5/USBUART_std.c ****                                                                              (USBUART_currentTD.pDa
 143:Generated_Source\PSoC5/USBUART_std.c ****                         requestHandled  = USBUART_InitControlRead();
 144:Generated_Source\PSoC5/USBUART_std.c ****                     }
 145:Generated_Source\PSoC5/USBUART_std.c ****                 }
 146:Generated_Source\PSoC5/USBUART_std.c ****             #endif /*(USBUART_BOS_ENABLE)*/
 147:Generated_Source\PSoC5/USBUART_std.c ****             
 148:Generated_Source\PSoC5/USBUART_std.c ****             #if defined(USBUART_ENABLE_STRINGS)
 149:Generated_Source\PSoC5/USBUART_std.c ****                 else if (USBUART_DESCR_STRING == USBUART_wValueHiReg)
 150:Generated_Source\PSoC5/USBUART_std.c ****                 {
 151:Generated_Source\PSoC5/USBUART_std.c ****                 /* Descriptor Strings */
 152:Generated_Source\PSoC5/USBUART_std.c ****                 #if defined(USBUART_ENABLE_DESCRIPTOR_STRINGS)
 153:Generated_Source\PSoC5/USBUART_std.c ****                     nStr = 0u;
 154:Generated_Source\PSoC5/USBUART_std.c ****                     pStr = (volatile uint8 *) &USBUART_STRING_DESCRIPTORS[0u];
 155:Generated_Source\PSoC5/USBUART_std.c ****                     
 156:Generated_Source\PSoC5/USBUART_std.c ****                     while ((USBUART_wValueLoReg > nStr) && (*pStr != 0u))
 157:Generated_Source\PSoC5/USBUART_std.c ****                     {
 158:Generated_Source\PSoC5/USBUART_std.c ****                         /* Read descriptor length from 1st byte */
 159:Generated_Source\PSoC5/USBUART_std.c ****                         descrLength = *pStr;
 160:Generated_Source\PSoC5/USBUART_std.c ****                         /* Move to next string descriptor */
 161:Generated_Source\PSoC5/USBUART_std.c ****                         pStr = &pStr[descrLength];
 162:Generated_Source\PSoC5/USBUART_std.c ****                         nStr++;
 163:Generated_Source\PSoC5/USBUART_std.c ****                     }
 164:Generated_Source\PSoC5/USBUART_std.c ****                 #endif /* (USBUART_ENABLE_DESCRIPTOR_STRINGS) */
 165:Generated_Source\PSoC5/USBUART_std.c ****                 
 166:Generated_Source\PSoC5/USBUART_std.c ****                 /* Microsoft OS String */
 167:Generated_Source\PSoC5/USBUART_std.c ****                 #if defined(USBUART_ENABLE_MSOS_STRING)
 168:Generated_Source\PSoC5/USBUART_std.c ****                     if (USBUART_STRING_MSOS == USBUART_wValueLoReg)
 169:Generated_Source\PSoC5/USBUART_std.c ****                     {
 170:Generated_Source\PSoC5/USBUART_std.c ****                         pStr = (volatile uint8 *)& USBUART_MSOS_DESCRIPTOR[0u];
 171:Generated_Source\PSoC5/USBUART_std.c ****                     }
 172:Generated_Source\PSoC5/USBUART_std.c ****                 #endif /* (USBUART_ENABLE_MSOS_STRING) */
 173:Generated_Source\PSoC5/USBUART_std.c ****                 
 174:Generated_Source\PSoC5/USBUART_std.c ****                 /* SN string */
 175:Generated_Source\PSoC5/USBUART_std.c ****                 #if defined(USBUART_ENABLE_SN_STRING)
 176:Generated_Source\PSoC5/USBUART_std.c ****                     if ((USBUART_wValueLoReg != 0u) && 
 177:Generated_Source\PSoC5/USBUART_std.c ****                         (USBUART_wValueLoReg == USBUART_DEVICE0_DESCR[USBUART_DEVICE_DESCR_SN_SHIFT
 178:Generated_Source\PSoC5/USBUART_std.c ****                     {
 179:Generated_Source\PSoC5/USBUART_std.c ****                     #if defined(USBUART_ENABLE_IDSN_STRING)
 180:Generated_Source\PSoC5/USBUART_std.c ****                         /* Read DIE ID and generate string descriptor in RAM */
 181:Generated_Source\PSoC5/USBUART_std.c ****                         USBUART_ReadDieID(USBUART_idSerialNumberStringDescriptor);
 182:Generated_Source\PSoC5/USBUART_std.c ****                         pStr = USBUART_idSerialNumberStringDescriptor;
 183:Generated_Source\PSoC5/USBUART_std.c ****                     #elif defined(USBUART_ENABLE_FWSN_STRING)
 184:Generated_Source\PSoC5/USBUART_std.c ****                         
 185:Generated_Source\PSoC5/USBUART_std.c ****                         if(USBUART_snStringConfirm != USBUART_FALSE)
 186:Generated_Source\PSoC5/USBUART_std.c ****                         {
 187:Generated_Source\PSoC5/USBUART_std.c ****                             pStr = USBUART_fwSerialNumberStringDescriptor;
 188:Generated_Source\PSoC5/USBUART_std.c ****                         }
 189:Generated_Source\PSoC5/USBUART_std.c ****                         else
 190:Generated_Source\PSoC5/USBUART_std.c ****                         {
ARM GAS  C:\Users\Greg\AppData\Local\Temp\cc66k9pW.s 			page 7


 191:Generated_Source\PSoC5/USBUART_std.c ****                             pStr = (volatile uint8 *)&USBUART_SN_STRING_DESCRIPTOR[0u];
 192:Generated_Source\PSoC5/USBUART_std.c ****                         }
 193:Generated_Source\PSoC5/USBUART_std.c ****                     #else
 194:Generated_Source\PSoC5/USBUART_std.c ****                         pStr = (volatile uint8 *)&USBUART_SN_STRING_DESCRIPTOR[0u];
 195:Generated_Source\PSoC5/USBUART_std.c ****                     #endif  /* (USBUART_ENABLE_IDSN_STRING) */
 196:Generated_Source\PSoC5/USBUART_std.c ****                     }
 197:Generated_Source\PSoC5/USBUART_std.c ****                 #endif /* (USBUART_ENABLE_SN_STRING) */
 198:Generated_Source\PSoC5/USBUART_std.c ****                 
 199:Generated_Source\PSoC5/USBUART_std.c ****                     if (*pStr != 0u)
 200:Generated_Source\PSoC5/USBUART_std.c ****                     {
 201:Generated_Source\PSoC5/USBUART_std.c ****                         USBUART_currentTD.count = *pStr;
 202:Generated_Source\PSoC5/USBUART_std.c ****                         USBUART_currentTD.pData = pStr;
 203:Generated_Source\PSoC5/USBUART_std.c ****                         requestHandled  = USBUART_InitControlRead();
 204:Generated_Source\PSoC5/USBUART_std.c ****                     }
 205:Generated_Source\PSoC5/USBUART_std.c ****                 }
 206:Generated_Source\PSoC5/USBUART_std.c ****             #endif /*  USBUART_ENABLE_STRINGS */
 207:Generated_Source\PSoC5/USBUART_std.c ****                 else
 208:Generated_Source\PSoC5/USBUART_std.c ****                 {
 209:Generated_Source\PSoC5/USBUART_std.c ****                     requestHandled = USBUART_DispatchClassRqst();
 210:Generated_Source\PSoC5/USBUART_std.c ****                 }
 211:Generated_Source\PSoC5/USBUART_std.c ****                 break;
 152              		.loc 1 211 0
 153 00de A4E0     		b	.L20
 154              	.L11:
 149:Generated_Source\PSoC5/USBUART_std.c ****                 {
 155              		.loc 1 149 0
 156 00e0 674B     		ldr	r3, .L61
 157 00e2 DB78     		ldrb	r3, [r3, #3]
 158 00e4 DBB2     		uxtb	r3, r3
 159 00e6 032B     		cmp	r3, #3
 160 00e8 44D1     		bne	.L13
 153:Generated_Source\PSoC5/USBUART_std.c ****                     pStr = (volatile uint8 *) &USBUART_STRING_DESCRIPTORS[0u];
 161              		.loc 1 153 0
 162 00ea 0023     		movs	r3, #0
 163 00ec FB73     		strb	r3, [r7, #15]
 154:Generated_Source\PSoC5/USBUART_std.c ****                     
 164              		.loc 1 154 0
 165 00ee 664B     		ldr	r3, .L61+8
 166 00f0 3B61     		str	r3, [r7, #16]
 156:Generated_Source\PSoC5/USBUART_std.c ****                     {
 167              		.loc 1 156 0
 168 00f2 09E0     		b	.L14
 169              	.L16:
 159:Generated_Source\PSoC5/USBUART_std.c ****                         /* Move to next string descriptor */
 170              		.loc 1 159 0
 171 00f4 3B69     		ldr	r3, [r7, #16]
 172 00f6 1B78     		ldrb	r3, [r3]
 173 00f8 BB71     		strb	r3, [r7, #6]
 161:Generated_Source\PSoC5/USBUART_std.c ****                         nStr++;
 174              		.loc 1 161 0
 175 00fa BB79     		ldrb	r3, [r7, #6]	@ zero_extendqisi2
 176 00fc 3A69     		ldr	r2, [r7, #16]
 177 00fe 1344     		add	r3, r3, r2
 178 0100 3B61     		str	r3, [r7, #16]
 162:Generated_Source\PSoC5/USBUART_std.c ****                     }
 179              		.loc 1 162 0
 180 0102 FB7B     		ldrb	r3, [r7, #15]	@ zero_extendqisi2
ARM GAS  C:\Users\Greg\AppData\Local\Temp\cc66k9pW.s 			page 8


 181 0104 0133     		adds	r3, r3, #1
 182 0106 FB73     		strb	r3, [r7, #15]
 183              	.L14:
 156:Generated_Source\PSoC5/USBUART_std.c ****                     {
 184              		.loc 1 156 0
 185 0108 5D4B     		ldr	r3, .L61
 186 010a 9B78     		ldrb	r3, [r3, #2]
 187 010c DBB2     		uxtb	r3, r3
 188 010e FA7B     		ldrb	r2, [r7, #15]	@ zero_extendqisi2
 189 0110 9A42     		cmp	r2, r3
 190 0112 04D2     		bcs	.L15
 156:Generated_Source\PSoC5/USBUART_std.c ****                     {
 191              		.loc 1 156 0 is_stmt 0 discriminator 1
 192 0114 3B69     		ldr	r3, [r7, #16]
 193 0116 1B78     		ldrb	r3, [r3]
 194 0118 DBB2     		uxtb	r3, r3
 195 011a 002B     		cmp	r3, #0
 196 011c EAD1     		bne	.L16
 197              	.L15:
 168:Generated_Source\PSoC5/USBUART_std.c ****                     {
 198              		.loc 1 168 0 is_stmt 1
 199 011e 584B     		ldr	r3, .L61
 200 0120 9B78     		ldrb	r3, [r3, #2]
 201 0122 DBB2     		uxtb	r3, r3
 202 0124 EE2B     		cmp	r3, #238
 203 0126 01D1     		bne	.L17
 170:Generated_Source\PSoC5/USBUART_std.c ****                     }
 204              		.loc 1 170 0
 205 0128 584B     		ldr	r3, .L61+12
 206 012a 3B61     		str	r3, [r7, #16]
 207              	.L17:
 176:Generated_Source\PSoC5/USBUART_std.c ****                         (USBUART_wValueLoReg == USBUART_DEVICE0_DESCR[USBUART_DEVICE_DESCR_SN_SHIFT
 208              		.loc 1 176 0
 209 012c 544B     		ldr	r3, .L61
 210 012e 9B78     		ldrb	r3, [r3, #2]
 211 0130 DBB2     		uxtb	r3, r3
 212 0132 002B     		cmp	r3, #0
 213 0134 0BD0     		beq	.L18
 177:Generated_Source\PSoC5/USBUART_std.c ****                     {
 214              		.loc 1 177 0 discriminator 1
 215 0136 524B     		ldr	r3, .L61
 216 0138 9B78     		ldrb	r3, [r3, #2]
 217 013a DAB2     		uxtb	r2, r3
 218 013c 544B     		ldr	r3, .L61+16
 219 013e 1B7C     		ldrb	r3, [r3, #16]	@ zero_extendqisi2
 176:Generated_Source\PSoC5/USBUART_std.c ****                         (USBUART_wValueLoReg == USBUART_DEVICE0_DESCR[USBUART_DEVICE_DESCR_SN_SHIFT
 220              		.loc 1 176 0 discriminator 1
 221 0140 9A42     		cmp	r2, r3
 222 0142 04D1     		bne	.L18
 181:Generated_Source\PSoC5/USBUART_std.c ****                         pStr = USBUART_idSerialNumberStringDescriptor;
 223              		.loc 1 181 0
 224 0144 5348     		ldr	r0, .L61+20
 225 0146 FFF7FEFF 		bl	USBUART_ReadDieID
 182:Generated_Source\PSoC5/USBUART_std.c ****                     #elif defined(USBUART_ENABLE_FWSN_STRING)
 226              		.loc 1 182 0
 227 014a 524B     		ldr	r3, .L61+20
 228 014c 3B61     		str	r3, [r7, #16]
ARM GAS  C:\Users\Greg\AppData\Local\Temp\cc66k9pW.s 			page 9


 229              	.L18:
 199:Generated_Source\PSoC5/USBUART_std.c ****                     {
 230              		.loc 1 199 0
 231 014e 3B69     		ldr	r3, [r7, #16]
 232 0150 1B78     		ldrb	r3, [r3]
 233 0152 DBB2     		uxtb	r3, r3
 234 0154 002B     		cmp	r3, #0
 235 0156 12D0     		beq	.L10
 201:Generated_Source\PSoC5/USBUART_std.c ****                         USBUART_currentTD.pData = pStr;
 236              		.loc 1 201 0
 237 0158 3B69     		ldr	r3, [r7, #16]
 238 015a 1B78     		ldrb	r3, [r3]
 239 015c DBB2     		uxtb	r3, r3
 240 015e 9AB2     		uxth	r2, r3
 241 0160 484B     		ldr	r3, .L61+4
 242 0162 1A80     		strh	r2, [r3]	@ movhi
 202:Generated_Source\PSoC5/USBUART_std.c ****                         requestHandled  = USBUART_InitControlRead();
 243              		.loc 1 202 0
 244 0164 474A     		ldr	r2, .L61+4
 245 0166 3B69     		ldr	r3, [r7, #16]
 246 0168 5360     		str	r3, [r2, #4]
 203:Generated_Source\PSoC5/USBUART_std.c ****                     }
 247              		.loc 1 203 0
 248 016a FFF7FEFF 		bl	USBUART_InitControlRead
 249 016e 0346     		mov	r3, r0
 250 0170 FB75     		strb	r3, [r7, #23]
 251              		.loc 1 211 0
 252 0172 5AE0     		b	.L20
 253              	.L13:
 209:Generated_Source\PSoC5/USBUART_std.c ****                 }
 254              		.loc 1 209 0
 255 0174 FFF7FEFF 		bl	USBUART_DispatchClassRqst
 256 0178 0346     		mov	r3, r0
 257 017a FB75     		strb	r3, [r7, #23]
 258              		.loc 1 211 0
 259 017c 55E0     		b	.L20
 260              	.L10:
 261              		.loc 1 211 0 is_stmt 0 discriminator 1
 262 017e 54E0     		b	.L20
 263              	.L4:
 212:Generated_Source\PSoC5/USBUART_std.c ****                 
 213:Generated_Source\PSoC5/USBUART_std.c ****             case USBUART_GET_STATUS:
 214:Generated_Source\PSoC5/USBUART_std.c ****                 switch (bmRequestType & USBUART_RQST_RCPT_MASK)
 264              		.loc 1 214 0 is_stmt 1
 265 0180 FB79     		ldrb	r3, [r7, #7]	@ zero_extendqisi2
 266 0182 03F00303 		and	r3, r3, #3
 267 0186 002B     		cmp	r3, #0
 268 0188 1FD0     		beq	.L22
 269 018a 022B     		cmp	r3, #2
 270 018c 00D0     		beq	.L23
 215:Generated_Source\PSoC5/USBUART_std.c ****                 {
 216:Generated_Source\PSoC5/USBUART_std.c ****                     case USBUART_RQST_RCPT_EP:
 217:Generated_Source\PSoC5/USBUART_std.c ****                         USBUART_currentTD.count = USBUART_EP_STATUS_LENGTH;
 218:Generated_Source\PSoC5/USBUART_std.c ****                         USBUART_tBuffer[0u]     = USBUART_EP[USBUART_wIndexLoReg & USBUART_DIR_UNUS
 219:Generated_Source\PSoC5/USBUART_std.c ****                         USBUART_tBuffer[1u]     = 0u;
 220:Generated_Source\PSoC5/USBUART_std.c ****                         USBUART_currentTD.pData = &USBUART_tBuffer[0u];
 221:Generated_Source\PSoC5/USBUART_std.c ****                         
ARM GAS  C:\Users\Greg\AppData\Local\Temp\cc66k9pW.s 			page 10


 222:Generated_Source\PSoC5/USBUART_std.c ****                         requestHandled  = USBUART_InitControlRead();
 223:Generated_Source\PSoC5/USBUART_std.c ****                         break;
 224:Generated_Source\PSoC5/USBUART_std.c ****                     case USBUART_RQST_RCPT_DEV:
 225:Generated_Source\PSoC5/USBUART_std.c ****                         USBUART_currentTD.count = USBUART_DEVICE_STATUS_LENGTH;
 226:Generated_Source\PSoC5/USBUART_std.c ****                         USBUART_tBuffer[0u]     = USBUART_deviceStatus;
 227:Generated_Source\PSoC5/USBUART_std.c ****                         USBUART_tBuffer[1u]     = 0u;
 228:Generated_Source\PSoC5/USBUART_std.c ****                         USBUART_currentTD.pData = &USBUART_tBuffer[0u];
 229:Generated_Source\PSoC5/USBUART_std.c ****                         
 230:Generated_Source\PSoC5/USBUART_std.c ****                         requestHandled  = USBUART_InitControlRead();
 231:Generated_Source\PSoC5/USBUART_std.c ****                         break;
 232:Generated_Source\PSoC5/USBUART_std.c ****                     default:    /* requestHandled is initialized as FALSE by default */
 233:Generated_Source\PSoC5/USBUART_std.c ****                         break;
 271              		.loc 1 233 0
 272 018e 2FE0     		b	.L24
 273              	.L23:
 217:Generated_Source\PSoC5/USBUART_std.c ****                         USBUART_tBuffer[0u]     = USBUART_EP[USBUART_wIndexLoReg & USBUART_DIR_UNUS
 274              		.loc 1 217 0
 275 0190 3C4B     		ldr	r3, .L61+4
 276 0192 0222     		movs	r2, #2
 277 0194 1A80     		strh	r2, [r3]	@ movhi
 218:Generated_Source\PSoC5/USBUART_std.c ****                         USBUART_tBuffer[1u]     = 0u;
 278              		.loc 1 218 0
 279 0196 3A4B     		ldr	r3, .L61
 280 0198 1B79     		ldrb	r3, [r3, #4]
 281 019a DBB2     		uxtb	r3, r3
 282 019c 03F07F02 		and	r2, r3, #127
 283 01a0 3D49     		ldr	r1, .L61+24
 284 01a2 1346     		mov	r3, r2
 285 01a4 5B00     		lsls	r3, r3, #1
 286 01a6 1344     		add	r3, r3, r2
 287 01a8 9B00     		lsls	r3, r3, #2
 288 01aa 0B44     		add	r3, r3, r1
 289 01ac 9B78     		ldrb	r3, [r3, #2]
 290 01ae DAB2     		uxtb	r2, r3
 291 01b0 3A4B     		ldr	r3, .L61+28
 292 01b2 1A70     		strb	r2, [r3]
 219:Generated_Source\PSoC5/USBUART_std.c ****                         USBUART_currentTD.pData = &USBUART_tBuffer[0u];
 293              		.loc 1 219 0
 294 01b4 394B     		ldr	r3, .L61+28
 295 01b6 0022     		movs	r2, #0
 296 01b8 5A70     		strb	r2, [r3, #1]
 220:Generated_Source\PSoC5/USBUART_std.c ****                         
 297              		.loc 1 220 0
 298 01ba 324B     		ldr	r3, .L61+4
 299 01bc 374A     		ldr	r2, .L61+28
 300 01be 5A60     		str	r2, [r3, #4]
 222:Generated_Source\PSoC5/USBUART_std.c ****                         break;
 301              		.loc 1 222 0
 302 01c0 FFF7FEFF 		bl	USBUART_InitControlRead
 303 01c4 0346     		mov	r3, r0
 304 01c6 FB75     		strb	r3, [r7, #23]
 223:Generated_Source\PSoC5/USBUART_std.c ****                     case USBUART_RQST_RCPT_DEV:
 305              		.loc 1 223 0
 306 01c8 12E0     		b	.L24
 307              	.L22:
 225:Generated_Source\PSoC5/USBUART_std.c ****                         USBUART_tBuffer[0u]     = USBUART_deviceStatus;
 308              		.loc 1 225 0
ARM GAS  C:\Users\Greg\AppData\Local\Temp\cc66k9pW.s 			page 11


 309 01ca 2E4B     		ldr	r3, .L61+4
 310 01cc 0222     		movs	r2, #2
 311 01ce 1A80     		strh	r2, [r3]	@ movhi
 226:Generated_Source\PSoC5/USBUART_std.c ****                         USBUART_tBuffer[1u]     = 0u;
 312              		.loc 1 226 0
 313 01d0 334B     		ldr	r3, .L61+32
 314 01d2 1B78     		ldrb	r3, [r3]
 315 01d4 DAB2     		uxtb	r2, r3
 316 01d6 314B     		ldr	r3, .L61+28
 317 01d8 1A70     		strb	r2, [r3]
 227:Generated_Source\PSoC5/USBUART_std.c ****                         USBUART_currentTD.pData = &USBUART_tBuffer[0u];
 318              		.loc 1 227 0
 319 01da 304B     		ldr	r3, .L61+28
 320 01dc 0022     		movs	r2, #0
 321 01de 5A70     		strb	r2, [r3, #1]
 228:Generated_Source\PSoC5/USBUART_std.c ****                         
 322              		.loc 1 228 0
 323 01e0 284B     		ldr	r3, .L61+4
 324 01e2 2E4A     		ldr	r2, .L61+28
 325 01e4 5A60     		str	r2, [r3, #4]
 230:Generated_Source\PSoC5/USBUART_std.c ****                         break;
 326              		.loc 1 230 0
 327 01e6 FFF7FEFF 		bl	USBUART_InitControlRead
 328 01ea 0346     		mov	r3, r0
 329 01ec FB75     		strb	r3, [r7, #23]
 231:Generated_Source\PSoC5/USBUART_std.c ****                     default:    /* requestHandled is initialized as FALSE by default */
 330              		.loc 1 231 0
 331 01ee 00BF     		nop
 332              	.L24:
 234:Generated_Source\PSoC5/USBUART_std.c ****                 }
 235:Generated_Source\PSoC5/USBUART_std.c ****                 break;
 333              		.loc 1 235 0 discriminator 4
 334 01f0 1BE0     		b	.L20
 335              	.L7:
 236:Generated_Source\PSoC5/USBUART_std.c ****                 
 237:Generated_Source\PSoC5/USBUART_std.c ****             case USBUART_GET_CONFIGURATION:
 238:Generated_Source\PSoC5/USBUART_std.c ****                 USBUART_currentTD.count = 1u;
 336              		.loc 1 238 0
 337 01f2 244B     		ldr	r3, .L61+4
 338 01f4 0122     		movs	r2, #1
 339 01f6 1A80     		strh	r2, [r3]	@ movhi
 239:Generated_Source\PSoC5/USBUART_std.c ****                 USBUART_currentTD.pData = (volatile uint8 *) &USBUART_configuration;
 340              		.loc 1 239 0
 341 01f8 224B     		ldr	r3, .L61+4
 342 01fa 2A4A     		ldr	r2, .L61+36
 343 01fc 5A60     		str	r2, [r3, #4]
 240:Generated_Source\PSoC5/USBUART_std.c ****                 requestHandled  = USBUART_InitControlRead();
 344              		.loc 1 240 0
 345 01fe FFF7FEFF 		bl	USBUART_InitControlRead
 346 0202 0346     		mov	r3, r0
 347 0204 FB75     		strb	r3, [r7, #23]
 241:Generated_Source\PSoC5/USBUART_std.c ****                 break;
 348              		.loc 1 241 0
 349 0206 10E0     		b	.L20
 350              	.L8:
 242:Generated_Source\PSoC5/USBUART_std.c ****                 
 243:Generated_Source\PSoC5/USBUART_std.c ****             case USBUART_GET_INTERFACE:
ARM GAS  C:\Users\Greg\AppData\Local\Temp\cc66k9pW.s 			page 12


 244:Generated_Source\PSoC5/USBUART_std.c ****                 USBUART_currentTD.count = 1u;
 351              		.loc 1 244 0
 352 0208 1E4B     		ldr	r3, .L61+4
 353 020a 0122     		movs	r2, #1
 354 020c 1A80     		strh	r2, [r3]	@ movhi
 245:Generated_Source\PSoC5/USBUART_std.c ****                 USBUART_currentTD.pData = (volatile uint8 *) &USBUART_interfaceSetting[USBUART_wInd
 355              		.loc 1 245 0
 356 020e 1C4B     		ldr	r3, .L61
 357 0210 1B79     		ldrb	r3, [r3, #4]
 358 0212 DBB2     		uxtb	r3, r3
 359 0214 1A46     		mov	r2, r3
 360 0216 244B     		ldr	r3, .L61+40
 361 0218 1344     		add	r3, r3, r2
 362 021a 1A4A     		ldr	r2, .L61+4
 363 021c 5360     		str	r3, [r2, #4]
 246:Generated_Source\PSoC5/USBUART_std.c ****                 requestHandled  = USBUART_InitControlRead();
 364              		.loc 1 246 0
 365 021e FFF7FEFF 		bl	USBUART_InitControlRead
 366 0222 0346     		mov	r3, r0
 367 0224 FB75     		strb	r3, [r7, #23]
 247:Generated_Source\PSoC5/USBUART_std.c ****                 break;
 368              		.loc 1 247 0
 369 0226 00E0     		b	.L20
 370              	.L57:
 248:Generated_Source\PSoC5/USBUART_std.c ****                 
 249:Generated_Source\PSoC5/USBUART_std.c ****             default: /* requestHandled is initialized as FALSE by default */
 250:Generated_Source\PSoC5/USBUART_std.c ****                 break;
 371              		.loc 1 250 0
 372 0228 00BF     		nop
 373              	.L20:
 374 022a 19E1     		b	.L25
 375              	.L2:
 251:Generated_Source\PSoC5/USBUART_std.c ****         }
 252:Generated_Source\PSoC5/USBUART_std.c ****     }
 253:Generated_Source\PSoC5/USBUART_std.c ****     else
 254:Generated_Source\PSoC5/USBUART_std.c ****     {
 255:Generated_Source\PSoC5/USBUART_std.c ****         /* Control Write */
 256:Generated_Source\PSoC5/USBUART_std.c ****         switch (USBUART_bRequestReg)
 376              		.loc 1 256 0
 377 022c 144B     		ldr	r3, .L61
 378 022e 5B78     		ldrb	r3, [r3, #1]
 379 0230 DBB2     		uxtb	r3, r3
 380 0232 013B     		subs	r3, r3, #1
 381 0234 0A2B     		cmp	r3, #10
 382 0236 00F21281 		bhi	.L58
 383 023a 01A2     		adr	r2, .L28
 384 023c 52F823F0 		ldr	pc, [r2, r3, lsl #2]
 385              		.p2align 2
 386              	.L28:
 387 0240 4B030000 		.word	.L27+1
 388 0244 5F040000 		.word	.L58+1
 389 0248 D5030000 		.word	.L29+1
 390 024c 5F040000 		.word	.L58+1
 391 0250 6D020000 		.word	.L30+1
 392 0254 5F040000 		.word	.L58+1
 393 0258 5F040000 		.word	.L58+1
 394 025c 5F040000 		.word	.L58+1
ARM GAS  C:\Users\Greg\AppData\Local\Temp\cc66k9pW.s 			page 13


 395 0260 B1020000 		.word	.L31+1
 396 0264 5F040000 		.word	.L58+1
 397 0268 07030000 		.word	.L32+1
 398              		.p2align 1
 399              	.L30:
 257:Generated_Source\PSoC5/USBUART_std.c ****         {
 258:Generated_Source\PSoC5/USBUART_std.c ****             case USBUART_SET_ADDRESS:
 259:Generated_Source\PSoC5/USBUART_std.c ****                 /* Store address to be set in USBUART_NoDataControlStatusStage(). */
 260:Generated_Source\PSoC5/USBUART_std.c ****                 USBUART_deviceAddress = (uint8) USBUART_wValueLoReg;
 400              		.loc 1 260 0
 401 026c 044B     		ldr	r3, .L61
 402 026e 9B78     		ldrb	r3, [r3, #2]
 403 0270 DAB2     		uxtb	r2, r3
 404 0272 0E4B     		ldr	r3, .L61+44
 405 0274 1A70     		strb	r2, [r3]
 261:Generated_Source\PSoC5/USBUART_std.c ****                 requestHandled = USBUART_InitNoDataControlTransfer();
 406              		.loc 1 261 0
 407 0276 FFF7FEFF 		bl	USBUART_InitNoDataControlTransfer
 408 027a 0346     		mov	r3, r0
 409 027c FB75     		strb	r3, [r7, #23]
 262:Generated_Source\PSoC5/USBUART_std.c ****                 break;
 410              		.loc 1 262 0
 411 027e EFE0     		b	.L25
 412              	.L62:
 413              		.align	2
 414              	.L61:
 415 0280 00600040 		.word	1073766400
 416 0284 00000000 		.word	USBUART_currentTD
 417 0288 00000000 		.word	USBUART_STRING_DESCRIPTORS
 418 028c 00000000 		.word	USBUART_MSOS_DESCRIPTOR
 419 0290 00000000 		.word	USBUART_DEVICE0_DESCR
 420 0294 00000000 		.word	USBUART_idSerialNumberStringDescriptor
 421 0298 00000000 		.word	USBUART_EP
 422 029c 00000000 		.word	USBUART_tBuffer.5117
 423 02a0 00000000 		.word	USBUART_deviceStatus
 424 02a4 00000000 		.word	USBUART_configuration
 425 02a8 00000000 		.word	USBUART_interfaceSetting
 426 02ac 00000000 		.word	USBUART_deviceAddress
 427              	.L31:
 263:Generated_Source\PSoC5/USBUART_std.c ****                 
 264:Generated_Source\PSoC5/USBUART_std.c ****             case USBUART_SET_CONFIGURATION:
 265:Generated_Source\PSoC5/USBUART_std.c ****                 configurationN = USBUART_wValueLoReg;
 428              		.loc 1 265 0
 429 02b0 6E4B     		ldr	r3, .L63
 430 02b2 9B78     		ldrb	r3, [r3, #2]
 431 02b4 7B71     		strb	r3, [r7, #5]
 266:Generated_Source\PSoC5/USBUART_std.c ****                 
 267:Generated_Source\PSoC5/USBUART_std.c ****                 /* Verify that configuration descriptor exists */
 268:Generated_Source\PSoC5/USBUART_std.c ****                 if(configurationN > 0u)
 432              		.loc 1 268 0
 433 02b6 7B79     		ldrb	r3, [r7, #5]	@ zero_extendqisi2
 434 02b8 002B     		cmp	r3, #0
 435 02ba 06D0     		beq	.L33
 269:Generated_Source\PSoC5/USBUART_std.c ****                 {
 270:Generated_Source\PSoC5/USBUART_std.c ****                     pTmp = USBUART_GetConfigTablePtr((uint8) configurationN - 1u);
 436              		.loc 1 270 0
 437 02bc 7B79     		ldrb	r3, [r7, #5]
ARM GAS  C:\Users\Greg\AppData\Local\Temp\cc66k9pW.s 			page 14


 438 02be 013B     		subs	r3, r3, #1
 439 02c0 DBB2     		uxtb	r3, r3
 440 02c2 1846     		mov	r0, r3
 441 02c4 FFF7FEFF 		bl	USBUART_GetConfigTablePtr
 442 02c8 B860     		str	r0, [r7, #8]
 443              	.L33:
 271:Generated_Source\PSoC5/USBUART_std.c ****                 }
 272:Generated_Source\PSoC5/USBUART_std.c ****                 
 273:Generated_Source\PSoC5/USBUART_std.c ****                 /* Responds with a Request Error when configuration number is invalid */
 274:Generated_Source\PSoC5/USBUART_std.c ****                 if (((configurationN > 0u) && (pTmp != NULL)) || (configurationN == 0u))
 444              		.loc 1 274 0
 445 02ca 7B79     		ldrb	r3, [r7, #5]	@ zero_extendqisi2
 446 02cc 002B     		cmp	r3, #0
 447 02ce 02D0     		beq	.L34
 448              		.loc 1 274 0 is_stmt 0 discriminator 1
 449 02d0 BB68     		ldr	r3, [r7, #8]
 450 02d2 002B     		cmp	r3, #0
 451 02d4 02D1     		bne	.L35
 452              	.L34:
 453              		.loc 1 274 0 discriminator 3
 454 02d6 7B79     		ldrb	r3, [r7, #5]	@ zero_extendqisi2
 455 02d8 002B     		cmp	r3, #0
 456 02da 13D1     		bne	.L36
 457              	.L35:
 275:Generated_Source\PSoC5/USBUART_std.c ****                 {
 276:Generated_Source\PSoC5/USBUART_std.c ****                     /* Set new configuration if it has been changed */
 277:Generated_Source\PSoC5/USBUART_std.c ****                     if(configurationN != USBUART_configuration)
 458              		.loc 1 277 0 is_stmt 1
 459 02dc 644B     		ldr	r3, .L63+4
 460 02de 1B78     		ldrb	r3, [r3]
 461 02e0 DBB2     		uxtb	r3, r3
 462 02e2 7A79     		ldrb	r2, [r7, #5]	@ zero_extendqisi2
 463 02e4 9A42     		cmp	r2, r3
 464 02e6 08D0     		beq	.L37
 278:Generated_Source\PSoC5/USBUART_std.c ****                     {
 279:Generated_Source\PSoC5/USBUART_std.c ****                         USBUART_configuration = (uint8) configurationN;
 465              		.loc 1 279 0
 466 02e8 614A     		ldr	r2, .L63+4
 467 02ea 7B79     		ldrb	r3, [r7, #5]
 468 02ec 1370     		strb	r3, [r2]
 280:Generated_Source\PSoC5/USBUART_std.c ****                         USBUART_configurationChanged = USBUART_TRUE;
 469              		.loc 1 280 0
 470 02ee 614B     		ldr	r3, .L63+8
 471 02f0 0122     		movs	r2, #1
 472 02f2 1A70     		strb	r2, [r3]
 281:Generated_Source\PSoC5/USBUART_std.c ****                         USBUART_Config(USBUART_TRUE);
 473              		.loc 1 281 0
 474 02f4 0120     		movs	r0, #1
 475 02f6 FFF7FEFF 		bl	USBUART_Config
 476              	.L37:
 282:Generated_Source\PSoC5/USBUART_std.c ****                     }
 283:Generated_Source\PSoC5/USBUART_std.c ****                     requestHandled = USBUART_InitNoDataControlTransfer();
 477              		.loc 1 283 0
 478 02fa FFF7FEFF 		bl	USBUART_InitNoDataControlTransfer
 479 02fe 0346     		mov	r3, r0
 480 0300 FB75     		strb	r3, [r7, #23]
 284:Generated_Source\PSoC5/USBUART_std.c ****                 }
ARM GAS  C:\Users\Greg\AppData\Local\Temp\cc66k9pW.s 			page 15


 285:Generated_Source\PSoC5/USBUART_std.c ****                 break;
 481              		.loc 1 285 0
 482 0302 ADE0     		b	.L25
 483              	.L36:
 484 0304 ACE0     		b	.L25
 485              	.L32:
 286:Generated_Source\PSoC5/USBUART_std.c ****                 
 287:Generated_Source\PSoC5/USBUART_std.c ****             case USBUART_SET_INTERFACE:
 288:Generated_Source\PSoC5/USBUART_std.c ****                 if (0u != USBUART_ValidateAlternateSetting())
 486              		.loc 1 288 0
 487 0306 FFF7FEFF 		bl	USBUART_ValidateAlternateSetting
 488 030a 0346     		mov	r3, r0
 489 030c 002B     		cmp	r3, #0
 490 030e 1BD0     		beq	.L38
 289:Generated_Source\PSoC5/USBUART_std.c ****                 {
 290:Generated_Source\PSoC5/USBUART_std.c ****                     /* Get interface number from the request. */
 291:Generated_Source\PSoC5/USBUART_std.c ****                     interfaceNumber = USBUART_wIndexLoReg;
 491              		.loc 1 291 0
 492 0310 564B     		ldr	r3, .L63
 493 0312 1B79     		ldrb	r3, [r3, #4]
 494 0314 3B71     		strb	r3, [r7, #4]
 292:Generated_Source\PSoC5/USBUART_std.c ****                     USBUART_interfaceNumber = (uint8) USBUART_wIndexLoReg;
 495              		.loc 1 292 0
 496 0316 554B     		ldr	r3, .L63
 497 0318 1B79     		ldrb	r3, [r3, #4]
 498 031a DAB2     		uxtb	r2, r3
 499 031c 564B     		ldr	r3, .L63+12
 500 031e 1A70     		strb	r2, [r3]
 293:Generated_Source\PSoC5/USBUART_std.c ****                      
 294:Generated_Source\PSoC5/USBUART_std.c ****                     /* Check if alternate settings is changed for interface. */
 295:Generated_Source\PSoC5/USBUART_std.c ****                     if (USBUART_interfaceSettingLast[interfaceNumber] != USBUART_interfaceSetting[i
 501              		.loc 1 295 0
 502 0320 3B79     		ldrb	r3, [r7, #4]	@ zero_extendqisi2
 503 0322 564A     		ldr	r2, .L63+16
 504 0324 D35C     		ldrb	r3, [r2, r3]
 505 0326 DAB2     		uxtb	r2, r3
 506 0328 3B79     		ldrb	r3, [r7, #4]	@ zero_extendqisi2
 507 032a 5549     		ldr	r1, .L63+20
 508 032c CB5C     		ldrb	r3, [r1, r3]
 509 032e DBB2     		uxtb	r3, r3
 510 0330 9A42     		cmp	r2, r3
 511 0332 04D0     		beq	.L39
 296:Generated_Source\PSoC5/USBUART_std.c ****                     {
 297:Generated_Source\PSoC5/USBUART_std.c ****                         USBUART_configurationChanged = USBUART_TRUE;
 512              		.loc 1 297 0
 513 0334 4F4B     		ldr	r3, .L63+8
 514 0336 0122     		movs	r2, #1
 515 0338 1A70     		strb	r2, [r3]
 298:Generated_Source\PSoC5/USBUART_std.c ****                     
 299:Generated_Source\PSoC5/USBUART_std.c ****                         /* Change alternate setting for the endpoints. */
 300:Generated_Source\PSoC5/USBUART_std.c ****                     #if (USBUART_EP_MANAGEMENT_MANUAL && USBUART_EP_ALLOC_DYNAMIC)
 301:Generated_Source\PSoC5/USBUART_std.c ****                         USBUART_Config(USBUART_FALSE);
 302:Generated_Source\PSoC5/USBUART_std.c ****                     #else
 303:Generated_Source\PSoC5/USBUART_std.c ****                         USBUART_ConfigAltChanged();
 516              		.loc 1 303 0
 517 033a FFF7FEFF 		bl	USBUART_ConfigAltChanged
 518              	.L39:
ARM GAS  C:\Users\Greg\AppData\Local\Temp\cc66k9pW.s 			page 16


 304:Generated_Source\PSoC5/USBUART_std.c ****                     #endif /* (USBUART_EP_MANAGEMENT_MANUAL && USBUART_EP_ALLOC_DYNAMIC) */
 305:Generated_Source\PSoC5/USBUART_std.c ****                     }
 306:Generated_Source\PSoC5/USBUART_std.c ****                     
 307:Generated_Source\PSoC5/USBUART_std.c ****                     requestHandled = USBUART_InitNoDataControlTransfer();
 519              		.loc 1 307 0
 520 033e FFF7FEFF 		bl	USBUART_InitNoDataControlTransfer
 521 0342 0346     		mov	r3, r0
 522 0344 FB75     		strb	r3, [r7, #23]
 308:Generated_Source\PSoC5/USBUART_std.c ****                 }
 309:Generated_Source\PSoC5/USBUART_std.c ****                 break;
 523              		.loc 1 309 0
 524 0346 8BE0     		b	.L25
 525              	.L38:
 526 0348 8AE0     		b	.L25
 527              	.L27:
 310:Generated_Source\PSoC5/USBUART_std.c ****                 
 311:Generated_Source\PSoC5/USBUART_std.c ****             case USBUART_CLEAR_FEATURE:
 312:Generated_Source\PSoC5/USBUART_std.c ****                 switch (bmRequestType & USBUART_RQST_RCPT_MASK)
 528              		.loc 1 312 0
 529 034a FB79     		ldrb	r3, [r7, #7]	@ zero_extendqisi2
 530 034c 03F00303 		and	r3, r3, #3
 531 0350 012B     		cmp	r3, #1
 532 0352 22D0     		beq	.L41
 533 0354 012B     		cmp	r3, #1
 534 0356 0DD3     		bcc	.L42
 535 0358 022B     		cmp	r3, #2
 536 035a 00D0     		beq	.L43
 313:Generated_Source\PSoC5/USBUART_std.c ****                 {
 314:Generated_Source\PSoC5/USBUART_std.c ****                     case USBUART_RQST_RCPT_EP:
 315:Generated_Source\PSoC5/USBUART_std.c ****                         if (USBUART_wValueLoReg == USBUART_ENDPOINT_HALT)
 316:Generated_Source\PSoC5/USBUART_std.c ****                         {
 317:Generated_Source\PSoC5/USBUART_std.c ****                             requestHandled = USBUART_ClearEndpointHalt();
 318:Generated_Source\PSoC5/USBUART_std.c ****                         }
 319:Generated_Source\PSoC5/USBUART_std.c ****                         break;
 320:Generated_Source\PSoC5/USBUART_std.c ****                     case USBUART_RQST_RCPT_DEV:
 321:Generated_Source\PSoC5/USBUART_std.c ****                         /* Clear device REMOTE_WAKEUP */
 322:Generated_Source\PSoC5/USBUART_std.c ****                         if (USBUART_wValueLoReg == USBUART_DEVICE_REMOTE_WAKEUP)
 323:Generated_Source\PSoC5/USBUART_std.c ****                         {
 324:Generated_Source\PSoC5/USBUART_std.c ****                             USBUART_deviceStatus &= (uint8)~USBUART_DEVICE_STATUS_REMOTE_WAKEUP;
 325:Generated_Source\PSoC5/USBUART_std.c ****                             requestHandled = USBUART_InitNoDataControlTransfer();
 326:Generated_Source\PSoC5/USBUART_std.c ****                         }
 327:Generated_Source\PSoC5/USBUART_std.c ****                         break;
 328:Generated_Source\PSoC5/USBUART_std.c ****                     case USBUART_RQST_RCPT_IFC:
 329:Generated_Source\PSoC5/USBUART_std.c ****                         /* Validate interfaceNumber */
 330:Generated_Source\PSoC5/USBUART_std.c ****                         if (USBUART_wIndexLoReg < USBUART_MAX_INTERFACES_NUMBER)
 331:Generated_Source\PSoC5/USBUART_std.c ****                         {
 332:Generated_Source\PSoC5/USBUART_std.c ****                             USBUART_interfaceStatus[USBUART_wIndexLoReg] &= (uint8) ~USBUART_wValue
 333:Generated_Source\PSoC5/USBUART_std.c ****                             requestHandled = USBUART_InitNoDataControlTransfer();
 334:Generated_Source\PSoC5/USBUART_std.c ****                         }
 335:Generated_Source\PSoC5/USBUART_std.c ****                         break;
 336:Generated_Source\PSoC5/USBUART_std.c ****                     default:    /* requestHandled is initialized as FALSE by default */
 337:Generated_Source\PSoC5/USBUART_std.c ****                         break;
 537              		.loc 1 337 0
 538 035c 39E0     		b	.L45
 539              	.L43:
 315:Generated_Source\PSoC5/USBUART_std.c ****                         {
 540              		.loc 1 315 0
ARM GAS  C:\Users\Greg\AppData\Local\Temp\cc66k9pW.s 			page 17


 541 035e 434B     		ldr	r3, .L63
 542 0360 9B78     		ldrb	r3, [r3, #2]
 543 0362 DBB2     		uxtb	r3, r3
 544 0364 002B     		cmp	r3, #0
 545 0366 04D1     		bne	.L44
 317:Generated_Source\PSoC5/USBUART_std.c ****                         }
 546              		.loc 1 317 0
 547 0368 FFF7FEFF 		bl	USBUART_ClearEndpointHalt
 548 036c 0346     		mov	r3, r0
 549 036e FB75     		strb	r3, [r7, #23]
 319:Generated_Source\PSoC5/USBUART_std.c ****                     case USBUART_RQST_RCPT_DEV:
 550              		.loc 1 319 0
 551 0370 2FE0     		b	.L45
 552              	.L44:
 553 0372 2EE0     		b	.L45
 554              	.L42:
 322:Generated_Source\PSoC5/USBUART_std.c ****                         {
 555              		.loc 1 322 0
 556 0374 3D4B     		ldr	r3, .L63
 557 0376 9B78     		ldrb	r3, [r3, #2]
 558 0378 DBB2     		uxtb	r3, r3
 559 037a 012B     		cmp	r3, #1
 560 037c 0CD1     		bne	.L46
 324:Generated_Source\PSoC5/USBUART_std.c ****                             requestHandled = USBUART_InitNoDataControlTransfer();
 561              		.loc 1 324 0
 562 037e 414B     		ldr	r3, .L63+24
 563 0380 1B78     		ldrb	r3, [r3]
 564 0382 DBB2     		uxtb	r3, r3
 565 0384 23F00203 		bic	r3, r3, #2
 566 0388 DAB2     		uxtb	r2, r3
 567 038a 3E4B     		ldr	r3, .L63+24
 568 038c 1A70     		strb	r2, [r3]
 325:Generated_Source\PSoC5/USBUART_std.c ****                         }
 569              		.loc 1 325 0
 570 038e FFF7FEFF 		bl	USBUART_InitNoDataControlTransfer
 571 0392 0346     		mov	r3, r0
 572 0394 FB75     		strb	r3, [r7, #23]
 327:Generated_Source\PSoC5/USBUART_std.c ****                     case USBUART_RQST_RCPT_IFC:
 573              		.loc 1 327 0
 574 0396 1CE0     		b	.L45
 575              	.L46:
 327:Generated_Source\PSoC5/USBUART_std.c ****                     case USBUART_RQST_RCPT_IFC:
 576              		.loc 1 327 0 is_stmt 0 discriminator 8
 577 0398 1BE0     		b	.L45
 578              	.L41:
 330:Generated_Source\PSoC5/USBUART_std.c ****                         {
 579              		.loc 1 330 0 is_stmt 1
 580 039a 344B     		ldr	r3, .L63
 581 039c 1B79     		ldrb	r3, [r3, #4]
 582 039e DBB2     		uxtb	r3, r3
 583 03a0 012B     		cmp	r3, #1
 584 03a2 15D8     		bhi	.L47
 332:Generated_Source\PSoC5/USBUART_std.c ****                             requestHandled = USBUART_InitNoDataControlTransfer();
 585              		.loc 1 332 0
 586 03a4 314B     		ldr	r3, .L63
 587 03a6 9B78     		ldrb	r3, [r3, #2]
 588 03a8 DBB2     		uxtb	r3, r3
ARM GAS  C:\Users\Greg\AppData\Local\Temp\cc66k9pW.s 			page 18


 589 03aa DB43     		mvns	r3, r3
 590 03ac DBB2     		uxtb	r3, r3
 591 03ae 2F4A     		ldr	r2, .L63
 592 03b0 1279     		ldrb	r2, [r2, #4]
 593 03b2 D2B2     		uxtb	r2, r2
 594 03b4 1146     		mov	r1, r2
 595 03b6 1046     		mov	r0, r2
 596 03b8 334A     		ldr	r2, .L63+28
 597 03ba 125C     		ldrb	r2, [r2, r0]
 598 03bc D2B2     		uxtb	r2, r2
 599 03be 1340     		ands	r3, r3, r2
 600 03c0 DAB2     		uxtb	r2, r3
 601 03c2 314B     		ldr	r3, .L63+28
 602 03c4 5A54     		strb	r2, [r3, r1]
 333:Generated_Source\PSoC5/USBUART_std.c ****                         }
 603              		.loc 1 333 0
 604 03c6 FFF7FEFF 		bl	USBUART_InitNoDataControlTransfer
 605 03ca 0346     		mov	r3, r0
 606 03cc FB75     		strb	r3, [r7, #23]
 335:Generated_Source\PSoC5/USBUART_std.c ****                     default:    /* requestHandled is initialized as FALSE by default */
 607              		.loc 1 335 0
 608 03ce FFE7     		b	.L59
 609              	.L47:
 610              	.L59:
 611 03d0 00BF     		nop
 612              	.L45:
 338:Generated_Source\PSoC5/USBUART_std.c ****                 }
 339:Generated_Source\PSoC5/USBUART_std.c ****                 break;
 613              		.loc 1 339 0 discriminator 7
 614 03d2 45E0     		b	.L25
 615              	.L29:
 340:Generated_Source\PSoC5/USBUART_std.c ****                 
 341:Generated_Source\PSoC5/USBUART_std.c ****             case USBUART_SET_FEATURE:
 342:Generated_Source\PSoC5/USBUART_std.c ****                 switch (bmRequestType & USBUART_RQST_RCPT_MASK)
 616              		.loc 1 342 0
 617 03d4 FB79     		ldrb	r3, [r7, #7]	@ zero_extendqisi2
 618 03d6 03F00303 		and	r3, r3, #3
 619 03da 012B     		cmp	r3, #1
 620 03dc 22D0     		beq	.L49
 621 03de 012B     		cmp	r3, #1
 622 03e0 0DD3     		bcc	.L50
 623 03e2 022B     		cmp	r3, #2
 624 03e4 00D0     		beq	.L51
 343:Generated_Source\PSoC5/USBUART_std.c ****                 {
 344:Generated_Source\PSoC5/USBUART_std.c ****                     case USBUART_RQST_RCPT_EP:
 345:Generated_Source\PSoC5/USBUART_std.c ****                         if (USBUART_wValueLoReg == USBUART_ENDPOINT_HALT)
 346:Generated_Source\PSoC5/USBUART_std.c ****                         {
 347:Generated_Source\PSoC5/USBUART_std.c ****                             requestHandled = USBUART_SetEndpointHalt();
 348:Generated_Source\PSoC5/USBUART_std.c ****                         }
 349:Generated_Source\PSoC5/USBUART_std.c ****                         break;
 350:Generated_Source\PSoC5/USBUART_std.c ****                         
 351:Generated_Source\PSoC5/USBUART_std.c ****                     case USBUART_RQST_RCPT_DEV:
 352:Generated_Source\PSoC5/USBUART_std.c ****                         /* Set device REMOTE_WAKEUP */
 353:Generated_Source\PSoC5/USBUART_std.c ****                         if (USBUART_wValueLoReg == USBUART_DEVICE_REMOTE_WAKEUP)
 354:Generated_Source\PSoC5/USBUART_std.c ****                         {
 355:Generated_Source\PSoC5/USBUART_std.c ****                             USBUART_deviceStatus |= USBUART_DEVICE_STATUS_REMOTE_WAKEUP;
 356:Generated_Source\PSoC5/USBUART_std.c ****                             requestHandled = USBUART_InitNoDataControlTransfer();
ARM GAS  C:\Users\Greg\AppData\Local\Temp\cc66k9pW.s 			page 19


 357:Generated_Source\PSoC5/USBUART_std.c ****                         }
 358:Generated_Source\PSoC5/USBUART_std.c ****                         break;
 359:Generated_Source\PSoC5/USBUART_std.c ****                         
 360:Generated_Source\PSoC5/USBUART_std.c ****                     case USBUART_RQST_RCPT_IFC:
 361:Generated_Source\PSoC5/USBUART_std.c ****                         /* Validate interfaceNumber */
 362:Generated_Source\PSoC5/USBUART_std.c ****                         if (USBUART_wIndexLoReg < USBUART_MAX_INTERFACES_NUMBER)
 363:Generated_Source\PSoC5/USBUART_std.c ****                         {
 364:Generated_Source\PSoC5/USBUART_std.c ****                             USBUART_interfaceStatus[USBUART_wIndexLoReg] &= (uint8) ~USBUART_wValue
 365:Generated_Source\PSoC5/USBUART_std.c ****                             requestHandled = USBUART_InitNoDataControlTransfer();
 366:Generated_Source\PSoC5/USBUART_std.c ****                         }
 367:Generated_Source\PSoC5/USBUART_std.c ****                         break;
 368:Generated_Source\PSoC5/USBUART_std.c ****                     
 369:Generated_Source\PSoC5/USBUART_std.c ****                     default:    /* requestHandled is initialized as FALSE by default */
 370:Generated_Source\PSoC5/USBUART_std.c ****                         break;
 625              		.loc 1 370 0
 626 03e6 39E0     		b	.L53
 627              	.L51:
 345:Generated_Source\PSoC5/USBUART_std.c ****                         {
 628              		.loc 1 345 0
 629 03e8 204B     		ldr	r3, .L63
 630 03ea 9B78     		ldrb	r3, [r3, #2]
 631 03ec DBB2     		uxtb	r3, r3
 632 03ee 002B     		cmp	r3, #0
 633 03f0 04D1     		bne	.L52
 347:Generated_Source\PSoC5/USBUART_std.c ****                         }
 634              		.loc 1 347 0
 635 03f2 FFF7FEFF 		bl	USBUART_SetEndpointHalt
 636 03f6 0346     		mov	r3, r0
 637 03f8 FB75     		strb	r3, [r7, #23]
 349:Generated_Source\PSoC5/USBUART_std.c ****                         
 638              		.loc 1 349 0
 639 03fa 2FE0     		b	.L53
 640              	.L52:
 641 03fc 2EE0     		b	.L53
 642              	.L50:
 353:Generated_Source\PSoC5/USBUART_std.c ****                         {
 643              		.loc 1 353 0
 644 03fe 1B4B     		ldr	r3, .L63
 645 0400 9B78     		ldrb	r3, [r3, #2]
 646 0402 DBB2     		uxtb	r3, r3
 647 0404 012B     		cmp	r3, #1
 648 0406 0CD1     		bne	.L54
 355:Generated_Source\PSoC5/USBUART_std.c ****                             requestHandled = USBUART_InitNoDataControlTransfer();
 649              		.loc 1 355 0
 650 0408 1E4B     		ldr	r3, .L63+24
 651 040a 1B78     		ldrb	r3, [r3]
 652 040c DBB2     		uxtb	r3, r3
 653 040e 43F00203 		orr	r3, r3, #2
 654 0412 DAB2     		uxtb	r2, r3
 655 0414 1B4B     		ldr	r3, .L63+24
 656 0416 1A70     		strb	r2, [r3]
 356:Generated_Source\PSoC5/USBUART_std.c ****                         }
 657              		.loc 1 356 0
 658 0418 FFF7FEFF 		bl	USBUART_InitNoDataControlTransfer
 659 041c 0346     		mov	r3, r0
 660 041e FB75     		strb	r3, [r7, #23]
 358:Generated_Source\PSoC5/USBUART_std.c ****                         
ARM GAS  C:\Users\Greg\AppData\Local\Temp\cc66k9pW.s 			page 20


 661              		.loc 1 358 0
 662 0420 1CE0     		b	.L53
 663              	.L54:
 358:Generated_Source\PSoC5/USBUART_std.c ****                         
 664              		.loc 1 358 0 is_stmt 0 discriminator 12
 665 0422 1BE0     		b	.L53
 666              	.L49:
 362:Generated_Source\PSoC5/USBUART_std.c ****                         {
 667              		.loc 1 362 0 is_stmt 1
 668 0424 114B     		ldr	r3, .L63
 669 0426 1B79     		ldrb	r3, [r3, #4]
 670 0428 DBB2     		uxtb	r3, r3
 671 042a 012B     		cmp	r3, #1
 672 042c 15D8     		bhi	.L55
 364:Generated_Source\PSoC5/USBUART_std.c ****                             requestHandled = USBUART_InitNoDataControlTransfer();
 673              		.loc 1 364 0
 674 042e 0F4B     		ldr	r3, .L63
 675 0430 9B78     		ldrb	r3, [r3, #2]
 676 0432 DBB2     		uxtb	r3, r3
 677 0434 DB43     		mvns	r3, r3
 678 0436 DBB2     		uxtb	r3, r3
 679 0438 0C4A     		ldr	r2, .L63
 680 043a 1279     		ldrb	r2, [r2, #4]
 681 043c D2B2     		uxtb	r2, r2
 682 043e 1146     		mov	r1, r2
 683 0440 1046     		mov	r0, r2
 684 0442 114A     		ldr	r2, .L63+28
 685 0444 125C     		ldrb	r2, [r2, r0]
 686 0446 D2B2     		uxtb	r2, r2
 687 0448 1340     		ands	r3, r3, r2
 688 044a DAB2     		uxtb	r2, r3
 689 044c 0E4B     		ldr	r3, .L63+28
 690 044e 5A54     		strb	r2, [r3, r1]
 365:Generated_Source\PSoC5/USBUART_std.c ****                         }
 691              		.loc 1 365 0
 692 0450 FFF7FEFF 		bl	USBUART_InitNoDataControlTransfer
 693 0454 0346     		mov	r3, r0
 694 0456 FB75     		strb	r3, [r7, #23]
 367:Generated_Source\PSoC5/USBUART_std.c ****                     
 695              		.loc 1 367 0
 696 0458 FFE7     		b	.L60
 697              	.L55:
 698              	.L60:
 699 045a 00BF     		nop
 700              	.L53:
 371:Generated_Source\PSoC5/USBUART_std.c ****                 }
 372:Generated_Source\PSoC5/USBUART_std.c ****                 break;
 701              		.loc 1 372 0 discriminator 11
 702 045c 00E0     		b	.L25
 703              	.L58:
 373:Generated_Source\PSoC5/USBUART_std.c ****                 
 374:Generated_Source\PSoC5/USBUART_std.c ****             default:    /* requestHandled is initialized as FALSE by default */
 375:Generated_Source\PSoC5/USBUART_std.c ****                 break;
 704              		.loc 1 375 0
 705 045e 00BF     		nop
 706              	.L25:
 376:Generated_Source\PSoC5/USBUART_std.c ****         }
ARM GAS  C:\Users\Greg\AppData\Local\Temp\cc66k9pW.s 			page 21


 377:Generated_Source\PSoC5/USBUART_std.c ****     }
 378:Generated_Source\PSoC5/USBUART_std.c ****     
 379:Generated_Source\PSoC5/USBUART_std.c ****     return (requestHandled);
 707              		.loc 1 379 0
 708 0460 FB7D     		ldrb	r3, [r7, #23]	@ zero_extendqisi2
 380:Generated_Source\PSoC5/USBUART_std.c **** }
 709              		.loc 1 380 0
 710 0462 1846     		mov	r0, r3
 711 0464 1837     		adds	r7, r7, #24
 712              		.cfi_def_cfa_offset 8
 713 0466 BD46     		mov	sp, r7
 714              		.cfi_def_cfa_register 13
 715              		@ sp needed
 716 0468 80BD     		pop	{r7, pc}
 717              	.L64:
 718 046a 00BF     		.align	2
 719              	.L63:
 720 046c 00600040 		.word	1073766400
 721 0470 00000000 		.word	USBUART_configuration
 722 0474 00000000 		.word	USBUART_configurationChanged
 723 0478 00000000 		.word	USBUART_interfaceNumber
 724 047c 00000000 		.word	USBUART_interfaceSettingLast
 725 0480 00000000 		.word	USBUART_interfaceSetting
 726 0484 00000000 		.word	USBUART_deviceStatus
 727 0488 00000000 		.word	USBUART_interfaceStatus
 728              		.cfi_endproc
 729              	.LFE0:
 730              		.size	USBUART_HandleStandardRqst, .-USBUART_HandleStandardRqst
 731              		.section	.rodata
 732              		.align	2
 733              	.LC0:
 734 0000 30313233 		.ascii	"0123456789ABCDEF\000"
 734      34353637 
 734      38394142 
 734      43444546 
 734      00
 735 0011 000000   		.section	.text.USBUART_ReadDieID,"ax",%progbits
 736              		.align	2
 737              		.global	USBUART_ReadDieID
 738              		.thumb
 739              		.thumb_func
 740              		.type	USBUART_ReadDieID, %function
 741              	USBUART_ReadDieID:
 742              	.LFB1:
 381:Generated_Source\PSoC5/USBUART_std.c **** 
 382:Generated_Source\PSoC5/USBUART_std.c **** 
 383:Generated_Source\PSoC5/USBUART_std.c **** #if defined(USBUART_ENABLE_IDSN_STRING)
 384:Generated_Source\PSoC5/USBUART_std.c ****     /***************************************************************************
 385:Generated_Source\PSoC5/USBUART_std.c ****     * Function Name: USBUART_ReadDieID
 386:Generated_Source\PSoC5/USBUART_std.c ****     ************************************************************************//**
 387:Generated_Source\PSoC5/USBUART_std.c ****     *
 388:Generated_Source\PSoC5/USBUART_std.c ****     *  This routine read Die ID and generate Serial Number string descriptor.
 389:Generated_Source\PSoC5/USBUART_std.c ****     *
 390:Generated_Source\PSoC5/USBUART_std.c ****     *  \param descr:  pointer on string descriptor. This string size has to be equal or
 391:Generated_Source\PSoC5/USBUART_std.c ****     *          greater than USBUART_IDSN_DESCR_LENGTH.
 392:Generated_Source\PSoC5/USBUART_std.c ****     *
 393:Generated_Source\PSoC5/USBUART_std.c ****     *
ARM GAS  C:\Users\Greg\AppData\Local\Temp\cc66k9pW.s 			page 22


 394:Generated_Source\PSoC5/USBUART_std.c ****     * \reentrant
 395:Generated_Source\PSoC5/USBUART_std.c ****     *  No.
 396:Generated_Source\PSoC5/USBUART_std.c ****     *
 397:Generated_Source\PSoC5/USBUART_std.c ****     ***************************************************************************/
 398:Generated_Source\PSoC5/USBUART_std.c ****     void USBUART_ReadDieID(uint8 descr[]) 
 399:Generated_Source\PSoC5/USBUART_std.c ****     {
 743              		.loc 1 399 0
 744              		.cfi_startproc
 745              		@ args = 0, pretend = 0, frame = 40
 746              		@ frame_needed = 1, uses_anonymous_args = 0
 747 0000 B0B5     		push	{r4, r5, r7, lr}
 748              		.cfi_def_cfa_offset 16
 749              		.cfi_offset 4, -16
 750              		.cfi_offset 5, -12
 751              		.cfi_offset 7, -8
 752              		.cfi_offset 14, -4
 753 0002 8AB0     		sub	sp, sp, #40
 754              		.cfi_def_cfa_offset 56
 755 0004 00AF     		add	r7, sp, #0
 756              		.cfi_def_cfa_register 7
 757 0006 7860     		str	r0, [r7, #4]
 400:Generated_Source\PSoC5/USBUART_std.c ****         const char8 CYCODE hex[] = "0123456789ABCDEF";
 758              		.loc 1 400 0
 759 0008 314B     		ldr	r3, .L69
 760 000a 07F11404 		add	r4, r7, #20
 761 000e 1D46     		mov	r5, r3
 762 0010 0FCD     		ldmia	r5!, {r0, r1, r2, r3}
 763 0012 0FC4     		stmia	r4!, {r0, r1, r2, r3}
 764 0014 2B68     		ldr	r3, [r5]
 765 0016 2370     		strb	r3, [r4]
 401:Generated_Source\PSoC5/USBUART_std.c ****         uint8 i;
 402:Generated_Source\PSoC5/USBUART_std.c ****         uint8 j = 0u;
 766              		.loc 1 402 0
 767 0018 0023     		movs	r3, #0
 768 001a 87F82630 		strb	r3, [r7, #38]
 403:Generated_Source\PSoC5/USBUART_std.c ****         uint8 uniqueId[8u];
 404:Generated_Source\PSoC5/USBUART_std.c **** 
 405:Generated_Source\PSoC5/USBUART_std.c ****         if (NULL != descr)
 769              		.loc 1 405 0
 770 001e 7B68     		ldr	r3, [r7, #4]
 771 0020 002B     		cmp	r3, #0
 772 0022 52D0     		beq	.L65
 406:Generated_Source\PSoC5/USBUART_std.c ****         {
 407:Generated_Source\PSoC5/USBUART_std.c ****             /* Initialize descriptor header. */
 408:Generated_Source\PSoC5/USBUART_std.c ****             descr[0u] = USBUART_IDSN_DESCR_LENGTH;
 773              		.loc 1 408 0
 774 0024 7B68     		ldr	r3, [r7, #4]
 775 0026 2222     		movs	r2, #34
 776 0028 1A70     		strb	r2, [r3]
 409:Generated_Source\PSoC5/USBUART_std.c ****             descr[1u] = USBUART_DESCR_STRING;
 777              		.loc 1 409 0
 778 002a 7B68     		ldr	r3, [r7, #4]
 779 002c 0133     		adds	r3, r3, #1
 780 002e 0322     		movs	r2, #3
 781 0030 1A70     		strb	r2, [r3]
 410:Generated_Source\PSoC5/USBUART_std.c ****             
 411:Generated_Source\PSoC5/USBUART_std.c ****             /* Unique ID size is 8 bytes. */
ARM GAS  C:\Users\Greg\AppData\Local\Temp\cc66k9pW.s 			page 23


 412:Generated_Source\PSoC5/USBUART_std.c ****             CyGetUniqueId((uint32 *) uniqueId);
 782              		.loc 1 412 0
 783 0032 07F10C03 		add	r3, r7, #12
 784 0036 1846     		mov	r0, r3
 785 0038 FFF7FEFF 		bl	CyGetUniqueId
 413:Generated_Source\PSoC5/USBUART_std.c **** 
 414:Generated_Source\PSoC5/USBUART_std.c ****             /* Fill descriptor with unique device ID. */
 415:Generated_Source\PSoC5/USBUART_std.c ****             for (i = 2u; i < USBUART_IDSN_DESCR_LENGTH; i += 4u)
 786              		.loc 1 415 0
 787 003c 0223     		movs	r3, #2
 788 003e 87F82730 		strb	r3, [r7, #39]
 789 0042 3EE0     		b	.L67
 790              	.L68:
 416:Generated_Source\PSoC5/USBUART_std.c ****             {
 417:Generated_Source\PSoC5/USBUART_std.c ****                 descr[i]      = (uint8) hex[(uniqueId[j] >> 4u)];
 791              		.loc 1 417 0 discriminator 3
 792 0044 97F82730 		ldrb	r3, [r7, #39]	@ zero_extendqisi2
 793 0048 7A68     		ldr	r2, [r7, #4]
 794 004a 1344     		add	r3, r3, r2
 795 004c 97F82620 		ldrb	r2, [r7, #38]	@ zero_extendqisi2
 796 0050 07F12801 		add	r1, r7, #40
 797 0054 0A44     		add	r2, r2, r1
 798 0056 12F81C2C 		ldrb	r2, [r2, #-28]	@ zero_extendqisi2
 799 005a 1209     		lsrs	r2, r2, #4
 800 005c D2B2     		uxtb	r2, r2
 801 005e 07F12801 		add	r1, r7, #40
 802 0062 0A44     		add	r2, r2, r1
 803 0064 12F8142C 		ldrb	r2, [r2, #-20]	@ zero_extendqisi2
 804 0068 1A70     		strb	r2, [r3]
 418:Generated_Source\PSoC5/USBUART_std.c ****                 descr[i + 1u] = 0u;
 805              		.loc 1 418 0 discriminator 3
 806 006a 97F82730 		ldrb	r3, [r7, #39]	@ zero_extendqisi2
 807 006e 0133     		adds	r3, r3, #1
 808 0070 7A68     		ldr	r2, [r7, #4]
 809 0072 1344     		add	r3, r3, r2
 810 0074 0022     		movs	r2, #0
 811 0076 1A70     		strb	r2, [r3]
 419:Generated_Source\PSoC5/USBUART_std.c ****                 descr[i + 2u] = (uint8) hex[(uniqueId[j] & 0x0Fu)];
 812              		.loc 1 419 0 discriminator 3
 813 0078 97F82730 		ldrb	r3, [r7, #39]	@ zero_extendqisi2
 814 007c 0233     		adds	r3, r3, #2
 815 007e 7A68     		ldr	r2, [r7, #4]
 816 0080 1344     		add	r3, r3, r2
 817 0082 97F82620 		ldrb	r2, [r7, #38]	@ zero_extendqisi2
 818 0086 07F12801 		add	r1, r7, #40
 819 008a 0A44     		add	r2, r2, r1
 820 008c 12F81C2C 		ldrb	r2, [r2, #-28]	@ zero_extendqisi2
 821 0090 02F00F02 		and	r2, r2, #15
 822 0094 07F12801 		add	r1, r7, #40
 823 0098 0A44     		add	r2, r2, r1
 824 009a 12F8142C 		ldrb	r2, [r2, #-20]	@ zero_extendqisi2
 825 009e 1A70     		strb	r2, [r3]
 420:Generated_Source\PSoC5/USBUART_std.c ****                 descr[i + 3u] = 0u;
 826              		.loc 1 420 0 discriminator 3
 827 00a0 97F82730 		ldrb	r3, [r7, #39]	@ zero_extendqisi2
 828 00a4 0333     		adds	r3, r3, #3
 829 00a6 7A68     		ldr	r2, [r7, #4]
ARM GAS  C:\Users\Greg\AppData\Local\Temp\cc66k9pW.s 			page 24


 830 00a8 1344     		add	r3, r3, r2
 831 00aa 0022     		movs	r2, #0
 832 00ac 1A70     		strb	r2, [r3]
 421:Generated_Source\PSoC5/USBUART_std.c ****                 ++j;
 833              		.loc 1 421 0 discriminator 3
 834 00ae 97F82630 		ldrb	r3, [r7, #38]
 835 00b2 0133     		adds	r3, r3, #1
 836 00b4 87F82630 		strb	r3, [r7, #38]
 415:Generated_Source\PSoC5/USBUART_std.c ****             {
 837              		.loc 1 415 0 discriminator 3
 838 00b8 97F82730 		ldrb	r3, [r7, #39]
 839 00bc 0433     		adds	r3, r3, #4
 840 00be 87F82730 		strb	r3, [r7, #39]
 841              	.L67:
 415:Generated_Source\PSoC5/USBUART_std.c ****             {
 842              		.loc 1 415 0 is_stmt 0 discriminator 1
 843 00c2 97F82730 		ldrb	r3, [r7, #39]	@ zero_extendqisi2
 844 00c6 212B     		cmp	r3, #33
 845 00c8 BCD9     		bls	.L68
 846              	.L65:
 422:Generated_Source\PSoC5/USBUART_std.c ****             }
 423:Generated_Source\PSoC5/USBUART_std.c ****         }
 424:Generated_Source\PSoC5/USBUART_std.c ****     }
 847              		.loc 1 424 0 is_stmt 1
 848 00ca 2837     		adds	r7, r7, #40
 849              		.cfi_def_cfa_offset 16
 850 00cc BD46     		mov	sp, r7
 851              		.cfi_def_cfa_register 13
 852              		@ sp needed
 853 00ce B0BD     		pop	{r4, r5, r7, pc}
 854              	.L70:
 855              		.align	2
 856              	.L69:
 857 00d0 00000000 		.word	.LC0
 858              		.cfi_endproc
 859              	.LFE1:
 860              		.size	USBUART_ReadDieID, .-USBUART_ReadDieID
 861              		.section	.text.USBUART_ConfigReg,"ax",%progbits
 862              		.align	2
 863              		.global	USBUART_ConfigReg
 864              		.thumb
 865              		.thumb_func
 866              		.type	USBUART_ConfigReg, %function
 867              	USBUART_ConfigReg:
 868              	.LFB2:
 425:Generated_Source\PSoC5/USBUART_std.c **** #endif /* (USBUART_ENABLE_IDSN_STRING) */
 426:Generated_Source\PSoC5/USBUART_std.c **** 
 427:Generated_Source\PSoC5/USBUART_std.c **** 
 428:Generated_Source\PSoC5/USBUART_std.c **** /*******************************************************************************
 429:Generated_Source\PSoC5/USBUART_std.c **** * Function Name: USBUART_ConfigReg
 430:Generated_Source\PSoC5/USBUART_std.c **** ****************************************************************************//**
 431:Generated_Source\PSoC5/USBUART_std.c **** *
 432:Generated_Source\PSoC5/USBUART_std.c **** *  This routine configures hardware registers from the variables.
 433:Generated_Source\PSoC5/USBUART_std.c **** *  It is called from USBUART_Config() function and from RestoreConfig
 434:Generated_Source\PSoC5/USBUART_std.c **** *  after Wakeup.
 435:Generated_Source\PSoC5/USBUART_std.c **** *
 436:Generated_Source\PSoC5/USBUART_std.c **** *******************************************************************************/
ARM GAS  C:\Users\Greg\AppData\Local\Temp\cc66k9pW.s 			page 25


 437:Generated_Source\PSoC5/USBUART_std.c **** void USBUART_ConfigReg(void) 
 438:Generated_Source\PSoC5/USBUART_std.c **** {
 869              		.loc 1 438 0
 870              		.cfi_startproc
 871              		@ args = 0, pretend = 0, frame = 8
 872              		@ frame_needed = 1, uses_anonymous_args = 0
 873              		@ link register save eliminated.
 874 0000 90B4     		push	{r4, r7}
 875              		.cfi_def_cfa_offset 8
 876              		.cfi_offset 4, -8
 877              		.cfi_offset 7, -4
 878 0002 82B0     		sub	sp, sp, #8
 879              		.cfi_def_cfa_offset 16
 880 0004 00AF     		add	r7, sp, #0
 881              		.cfi_def_cfa_register 7
 439:Generated_Source\PSoC5/USBUART_std.c ****     uint8 ep;
 440:Generated_Source\PSoC5/USBUART_std.c **** 
 441:Generated_Source\PSoC5/USBUART_std.c **** #if (USBUART_EP_MANAGEMENT_DMA_AUTO)
 442:Generated_Source\PSoC5/USBUART_std.c ****     uint8 epType = 0u;
 443:Generated_Source\PSoC5/USBUART_std.c **** #endif /* (USBUART_EP_MANAGEMENT_DMA_AUTO) */
 444:Generated_Source\PSoC5/USBUART_std.c **** 
 445:Generated_Source\PSoC5/USBUART_std.c ****     /* Go thought all endpoints and set hardware configuration */
 446:Generated_Source\PSoC5/USBUART_std.c ****     for (ep = USBUART_EP1; ep < USBUART_MAX_EP; ++ep)
 882              		.loc 1 446 0
 883 0006 0123     		movs	r3, #1
 884 0008 FB71     		strb	r3, [r7, #7]
 885 000a 74E0     		b	.L72
 886              	.L77:
 447:Generated_Source\PSoC5/USBUART_std.c ****     {
 448:Generated_Source\PSoC5/USBUART_std.c ****         USBUART_ARB_EP_BASE.arbEp[ep].epCfg = USBUART_ARB_EPX_CFG_DEFAULT;
 887              		.loc 1 448 0
 888 000c 3F4A     		ldr	r2, .L78
 889 000e FB79     		ldrb	r3, [r7, #7]	@ zero_extendqisi2
 890 0010 1B01     		lsls	r3, r3, #4
 891 0012 1344     		add	r3, r3, r2
 892 0014 0C22     		movs	r2, #12
 893 0016 1A70     		strb	r2, [r3]
 449:Generated_Source\PSoC5/USBUART_std.c ****         
 450:Generated_Source\PSoC5/USBUART_std.c ****     #if (USBUART_EP_MANAGEMENT_DMA)
 451:Generated_Source\PSoC5/USBUART_std.c ****         /* Enable arbiter endpoint interrupt sources */
 452:Generated_Source\PSoC5/USBUART_std.c ****         USBUART_ARB_EP_BASE.arbEp[ep].epIntEn = USBUART_ARB_EPX_INT_MASK;
 453:Generated_Source\PSoC5/USBUART_std.c ****     #endif /* (USBUART_EP_MANAGEMENT_DMA) */
 454:Generated_Source\PSoC5/USBUART_std.c ****     
 455:Generated_Source\PSoC5/USBUART_std.c ****         if (USBUART_EP[ep].epMode != USBUART_MODE_DISABLE)
 894              		.loc 1 455 0
 895 0018 FA79     		ldrb	r2, [r7, #7]	@ zero_extendqisi2
 896 001a 3D49     		ldr	r1, .L78+4
 897 001c 1346     		mov	r3, r2
 898 001e 5B00     		lsls	r3, r3, #1
 899 0020 1344     		add	r3, r3, r2
 900 0022 9B00     		lsls	r3, r3, #2
 901 0024 0B44     		add	r3, r3, r1
 902 0026 5B79     		ldrb	r3, [r3, #5]
 903 0028 DBB2     		uxtb	r3, r3
 904 002a 002B     		cmp	r3, #0
 905 002c 1AD0     		beq	.L73
 456:Generated_Source\PSoC5/USBUART_std.c ****         {
ARM GAS  C:\Users\Greg\AppData\Local\Temp\cc66k9pW.s 			page 26


 457:Generated_Source\PSoC5/USBUART_std.c ****             if (0u != (USBUART_EP[ep].addr & USBUART_DIR_IN))
 906              		.loc 1 457 0
 907 002e FA79     		ldrb	r2, [r7, #7]	@ zero_extendqisi2
 908 0030 3749     		ldr	r1, .L78+4
 909 0032 1346     		mov	r3, r2
 910 0034 5B00     		lsls	r3, r3, #1
 911 0036 1344     		add	r3, r3, r2
 912 0038 9B00     		lsls	r3, r3, #2
 913 003a 0B44     		add	r3, r3, r1
 914 003c 1B79     		ldrb	r3, [r3, #4]
 915 003e DBB2     		uxtb	r3, r3
 916 0040 DBB2     		uxtb	r3, r3
 917 0042 5BB2     		sxtb	r3, r3
 918 0044 002B     		cmp	r3, #0
 919 0046 06DA     		bge	.L74
 458:Generated_Source\PSoC5/USBUART_std.c ****             {
 459:Generated_Source\PSoC5/USBUART_std.c ****                 USBUART_SIE_EP_BASE.sieEp[ep].epCr0 = USBUART_MODE_NAK_IN;
 920              		.loc 1 459 0
 921 0048 324A     		ldr	r2, .L78+8
 922 004a FB79     		ldrb	r3, [r7, #7]	@ zero_extendqisi2
 923 004c 1B01     		lsls	r3, r3, #4
 924 004e 1344     		add	r3, r3, r2
 925 0050 0C22     		movs	r2, #12
 926 0052 9A70     		strb	r2, [r3, #2]
 927 0054 0CE0     		b	.L76
 928              	.L74:
 460:Generated_Source\PSoC5/USBUART_std.c ****                 
 461:Generated_Source\PSoC5/USBUART_std.c ****             #if (USBUART_EP_MANAGEMENT_DMA_AUTO && CY_PSOC4)
 462:Generated_Source\PSoC5/USBUART_std.c ****                 /* Clear DMA_TERMIN for IN endpoint. */
 463:Generated_Source\PSoC5/USBUART_std.c ****                 USBUART_ARB_EP_BASE.arbEp[ep].epIntEn &= (uint32) ~USBUART_ARB_EPX_INT_DMA_TERMIN;
 464:Generated_Source\PSoC5/USBUART_std.c ****             #endif /* (USBUART_EP_MANAGEMENT_DMA_AUTO && CY_PSOC4) */
 465:Generated_Source\PSoC5/USBUART_std.c ****             }
 466:Generated_Source\PSoC5/USBUART_std.c ****             else
 467:Generated_Source\PSoC5/USBUART_std.c ****             {
 468:Generated_Source\PSoC5/USBUART_std.c ****                 USBUART_SIE_EP_BASE.sieEp[ep].epCr0 = USBUART_MODE_NAK_OUT;
 929              		.loc 1 468 0
 930 0056 2F4A     		ldr	r2, .L78+8
 931 0058 FB79     		ldrb	r3, [r7, #7]	@ zero_extendqisi2
 932 005a 1B01     		lsls	r3, r3, #4
 933 005c 1344     		add	r3, r3, r2
 934 005e 0822     		movs	r2, #8
 935 0060 9A70     		strb	r2, [r3, #2]
 936 0062 05E0     		b	.L76
 937              	.L73:
 469:Generated_Source\PSoC5/USBUART_std.c **** 
 470:Generated_Source\PSoC5/USBUART_std.c ****             #if (USBUART_EP_MANAGEMENT_DMA_AUTO)
 471:Generated_Source\PSoC5/USBUART_std.c ****                 /* (CY_PSOC4): DMA_TERMIN for OUT endpoint is set above. */
 472:Generated_Source\PSoC5/USBUART_std.c ****                 
 473:Generated_Source\PSoC5/USBUART_std.c ****                 /* Prepare endpoint type mask. */
 474:Generated_Source\PSoC5/USBUART_std.c ****                 epType |= (uint8) (0x01u << (ep - USBUART_EP1));
 475:Generated_Source\PSoC5/USBUART_std.c ****             #endif /* (USBUART_EP_MANAGEMENT_DMA_AUTO) */
 476:Generated_Source\PSoC5/USBUART_std.c ****             }
 477:Generated_Source\PSoC5/USBUART_std.c ****         }
 478:Generated_Source\PSoC5/USBUART_std.c ****         else
 479:Generated_Source\PSoC5/USBUART_std.c ****         {
 480:Generated_Source\PSoC5/USBUART_std.c ****             USBUART_SIE_EP_BASE.sieEp[ep].epCr0 = USBUART_MODE_STALL_DATA_EP;
 938              		.loc 1 480 0
ARM GAS  C:\Users\Greg\AppData\Local\Temp\cc66k9pW.s 			page 27


 939 0064 2B4A     		ldr	r2, .L78+8
 940 0066 FB79     		ldrb	r3, [r7, #7]	@ zero_extendqisi2
 941 0068 1B01     		lsls	r3, r3, #4
 942 006a 1344     		add	r3, r3, r2
 943 006c 8022     		movs	r2, #128
 944 006e 9A70     		strb	r2, [r3, #2]
 945              	.L76:
 481:Generated_Source\PSoC5/USBUART_std.c ****         }
 482:Generated_Source\PSoC5/USBUART_std.c ****         
 483:Generated_Source\PSoC5/USBUART_std.c ****     #if (!USBUART_EP_MANAGEMENT_DMA_AUTO)
 484:Generated_Source\PSoC5/USBUART_std.c ****         #if (CY_PSOC4)
 485:Generated_Source\PSoC5/USBUART_std.c ****             USBUART_ARB_EP16_BASE.arbEp[ep].rwRa16  = (uint32) USBUART_EP[ep].buffOffset;
 486:Generated_Source\PSoC5/USBUART_std.c ****             USBUART_ARB_EP16_BASE.arbEp[ep].rwWa16  = (uint32) USBUART_EP[ep].buffOffset;
 487:Generated_Source\PSoC5/USBUART_std.c ****         #else
 488:Generated_Source\PSoC5/USBUART_std.c ****             USBUART_ARB_EP_BASE.arbEp[ep].rwRa    = LO8(USBUART_EP[ep].buffOffset);
 946              		.loc 1 488 0 discriminator 2
 947 0070 2648     		ldr	r0, .L78
 948 0072 F979     		ldrb	r1, [r7, #7]	@ zero_extendqisi2
 949 0074 FA79     		ldrb	r2, [r7, #7]	@ zero_extendqisi2
 950 0076 264C     		ldr	r4, .L78+4
 951 0078 1346     		mov	r3, r2
 952 007a 5B00     		lsls	r3, r3, #1
 953 007c 1344     		add	r3, r3, r2
 954 007e 9B00     		lsls	r3, r3, #2
 955 0080 2344     		add	r3, r3, r4
 956 0082 DB88     		ldrh	r3, [r3, #6]	@ movhi
 957 0084 9BB2     		uxth	r3, r3
 958 0086 DAB2     		uxtb	r2, r3
 959 0088 0B01     		lsls	r3, r1, #4
 960 008a 0344     		add	r3, r3, r0
 961 008c 9A71     		strb	r2, [r3, #6]
 489:Generated_Source\PSoC5/USBUART_std.c ****             USBUART_ARB_EP_BASE.arbEp[ep].rwRaMsb = HI8(USBUART_EP[ep].buffOffset);
 962              		.loc 1 489 0 discriminator 2
 963 008e 1F48     		ldr	r0, .L78
 964 0090 F979     		ldrb	r1, [r7, #7]	@ zero_extendqisi2
 965 0092 FA79     		ldrb	r2, [r7, #7]	@ zero_extendqisi2
 966 0094 1E4C     		ldr	r4, .L78+4
 967 0096 1346     		mov	r3, r2
 968 0098 5B00     		lsls	r3, r3, #1
 969 009a 1344     		add	r3, r3, r2
 970 009c 9B00     		lsls	r3, r3, #2
 971 009e 2344     		add	r3, r3, r4
 972 00a0 DB88     		ldrh	r3, [r3, #6]	@ movhi
 973 00a2 9BB2     		uxth	r3, r3
 974 00a4 1B0A     		lsrs	r3, r3, #8
 975 00a6 9BB2     		uxth	r3, r3
 976 00a8 DAB2     		uxtb	r2, r3
 977 00aa 0B01     		lsls	r3, r1, #4
 978 00ac 0344     		add	r3, r3, r0
 979 00ae DA71     		strb	r2, [r3, #7]
 490:Generated_Source\PSoC5/USBUART_std.c ****             USBUART_ARB_EP_BASE.arbEp[ep].rwWa    = LO8(USBUART_EP[ep].buffOffset);
 980              		.loc 1 490 0 discriminator 2
 981 00b0 1648     		ldr	r0, .L78
 982 00b2 F979     		ldrb	r1, [r7, #7]	@ zero_extendqisi2
 983 00b4 FA79     		ldrb	r2, [r7, #7]	@ zero_extendqisi2
 984 00b6 164C     		ldr	r4, .L78+4
 985 00b8 1346     		mov	r3, r2
ARM GAS  C:\Users\Greg\AppData\Local\Temp\cc66k9pW.s 			page 28


 986 00ba 5B00     		lsls	r3, r3, #1
 987 00bc 1344     		add	r3, r3, r2
 988 00be 9B00     		lsls	r3, r3, #2
 989 00c0 2344     		add	r3, r3, r4
 990 00c2 DB88     		ldrh	r3, [r3, #6]	@ movhi
 991 00c4 9BB2     		uxth	r3, r3
 992 00c6 DAB2     		uxtb	r2, r3
 993 00c8 0B01     		lsls	r3, r1, #4
 994 00ca 0344     		add	r3, r3, r0
 995 00cc 1A71     		strb	r2, [r3, #4]
 491:Generated_Source\PSoC5/USBUART_std.c ****             USBUART_ARB_EP_BASE.arbEp[ep].rwWaMsb = HI8(USBUART_EP[ep].buffOffset);
 996              		.loc 1 491 0 discriminator 2
 997 00ce 0F48     		ldr	r0, .L78
 998 00d0 F979     		ldrb	r1, [r7, #7]	@ zero_extendqisi2
 999 00d2 FA79     		ldrb	r2, [r7, #7]	@ zero_extendqisi2
 1000 00d4 0E4C     		ldr	r4, .L78+4
 1001 00d6 1346     		mov	r3, r2
 1002 00d8 5B00     		lsls	r3, r3, #1
 1003 00da 1344     		add	r3, r3, r2
 1004 00dc 9B00     		lsls	r3, r3, #2
 1005 00de 2344     		add	r3, r3, r4
 1006 00e0 DB88     		ldrh	r3, [r3, #6]	@ movhi
 1007 00e2 9BB2     		uxth	r3, r3
 1008 00e4 1B0A     		lsrs	r3, r3, #8
 1009 00e6 9BB2     		uxth	r3, r3
 1010 00e8 DAB2     		uxtb	r2, r3
 1011 00ea 0B01     		lsls	r3, r1, #4
 1012 00ec 0344     		add	r3, r3, r0
 1013 00ee 5A71     		strb	r2, [r3, #5]
 446:Generated_Source\PSoC5/USBUART_std.c ****     {
 1014              		.loc 1 446 0 discriminator 2
 1015 00f0 FB79     		ldrb	r3, [r7, #7]
 1016 00f2 0133     		adds	r3, r3, #1
 1017 00f4 FB71     		strb	r3, [r7, #7]
 1018              	.L72:
 446:Generated_Source\PSoC5/USBUART_std.c ****     {
 1019              		.loc 1 446 0 is_stmt 0 discriminator 1
 1020 00f6 FB79     		ldrb	r3, [r7, #7]	@ zero_extendqisi2
 1021 00f8 082B     		cmp	r3, #8
 1022 00fa 87D9     		bls	.L77
 492:Generated_Source\PSoC5/USBUART_std.c ****         #endif /* (CY_PSOC4) */
 493:Generated_Source\PSoC5/USBUART_std.c ****     #endif /* (!USBUART_EP_MANAGEMENT_DMA_AUTO) */
 494:Generated_Source\PSoC5/USBUART_std.c ****     }
 495:Generated_Source\PSoC5/USBUART_std.c **** 
 496:Generated_Source\PSoC5/USBUART_std.c **** #if (USBUART_EP_MANAGEMENT_DMA_AUTO)
 497:Generated_Source\PSoC5/USBUART_std.c ****      /* BUF_SIZE depend on DMA_THRESS value:0x55-32 bytes  0x44-16 bytes 0x33-8 bytes 0x22-4 bytes 
 498:Generated_Source\PSoC5/USBUART_std.c ****     USBUART_BUF_SIZE_REG = USBUART_DMA_BUF_SIZE;
 499:Generated_Source\PSoC5/USBUART_std.c **** 
 500:Generated_Source\PSoC5/USBUART_std.c ****     /* Configure DMA burst threshold */
 501:Generated_Source\PSoC5/USBUART_std.c **** #if (CY_PSOC4)
 502:Generated_Source\PSoC5/USBUART_std.c ****     USBUART_DMA_THRES16_REG   = USBUART_DMA_BYTES_PER_BURST;
 503:Generated_Source\PSoC5/USBUART_std.c **** #else
 504:Generated_Source\PSoC5/USBUART_std.c ****     USBUART_DMA_THRES_REG     = USBUART_DMA_BYTES_PER_BURST;
 505:Generated_Source\PSoC5/USBUART_std.c ****     USBUART_DMA_THRES_MSB_REG = 0u;
 506:Generated_Source\PSoC5/USBUART_std.c **** #endif /* (CY_PSOC4) */
 507:Generated_Source\PSoC5/USBUART_std.c ****     USBUART_EP_ACTIVE_REG = USBUART_DEFAULT_ARB_INT_EN;
 508:Generated_Source\PSoC5/USBUART_std.c ****     USBUART_EP_TYPE_REG   = epType;
ARM GAS  C:\Users\Greg\AppData\Local\Temp\cc66k9pW.s 			page 29


 509:Generated_Source\PSoC5/USBUART_std.c ****     
 510:Generated_Source\PSoC5/USBUART_std.c ****     /* Cfg_cmp bit set to 1 once configuration is complete. */
 511:Generated_Source\PSoC5/USBUART_std.c ****     /* Lock arbiter configtuation */
 512:Generated_Source\PSoC5/USBUART_std.c ****     USBUART_ARB_CFG_REG |= (uint8)  USBUART_ARB_CFG_CFG_CMP;
 513:Generated_Source\PSoC5/USBUART_std.c ****     /* Cfg_cmp bit set to 0 during configuration of PFSUSB Registers. */
 514:Generated_Source\PSoC5/USBUART_std.c ****     USBUART_ARB_CFG_REG &= (uint8) ~USBUART_ARB_CFG_CFG_CMP;
 515:Generated_Source\PSoC5/USBUART_std.c **** 
 516:Generated_Source\PSoC5/USBUART_std.c **** #endif /* (USBUART_EP_MANAGEMENT_DMA_AUTO) */
 517:Generated_Source\PSoC5/USBUART_std.c **** 
 518:Generated_Source\PSoC5/USBUART_std.c ****     /* Enable interrupt SIE interurpt source from EP0-EP1 */
 519:Generated_Source\PSoC5/USBUART_std.c ****     USBUART_SIE_EP_INT_EN_REG = (uint8) USBUART_DEFAULT_SIE_EP_INT_EN;
 1023              		.loc 1 519 0 is_stmt 1
 1024 00fc 064B     		ldr	r3, .L78+12
 1025 00fe FF22     		movs	r2, #255
 1026 0100 1A70     		strb	r2, [r3]
 520:Generated_Source\PSoC5/USBUART_std.c **** }
 1027              		.loc 1 520 0
 1028 0102 0837     		adds	r7, r7, #8
 1029              		.cfi_def_cfa_offset 8
 1030 0104 BD46     		mov	sp, r7
 1031              		.cfi_def_cfa_register 13
 1032              		@ sp needed
 1033 0106 90BC     		pop	{r4, r7}
 1034              		.cfi_restore 7
 1035              		.cfi_restore 4
 1036              		.cfi_def_cfa_offset 0
 1037 0108 7047     		bx	lr
 1038              	.L79:
 1039 010a 00BF     		.align	2
 1040              	.L78:
 1041 010c 70600040 		.word	1073766512
 1042 0110 00000000 		.word	USBUART_EP
 1043 0114 FC5F0040 		.word	1073766396
 1044 0118 0A600040 		.word	1073766410
 1045              		.cfi_endproc
 1046              	.LFE2:
 1047              		.size	USBUART_ConfigReg, .-USBUART_ConfigReg
 1048              		.section	.text.USBUART_EpStateInit,"ax",%progbits
 1049              		.align	2
 1050              		.global	USBUART_EpStateInit
 1051              		.thumb
 1052              		.thumb_func
 1053              		.type	USBUART_EpStateInit, %function
 1054              	USBUART_EpStateInit:
 1055              	.LFB3:
 521:Generated_Source\PSoC5/USBUART_std.c **** 
 522:Generated_Source\PSoC5/USBUART_std.c **** 
 523:Generated_Source\PSoC5/USBUART_std.c **** /*******************************************************************************
 524:Generated_Source\PSoC5/USBUART_std.c **** * Function Name: USBUART_EpStateInit
 525:Generated_Source\PSoC5/USBUART_std.c **** ****************************************************************************//**
 526:Generated_Source\PSoC5/USBUART_std.c **** *
 527:Generated_Source\PSoC5/USBUART_std.c **** *  This routine initialize state of Data end points based of its type: 
 528:Generated_Source\PSoC5/USBUART_std.c **** *   IN  - USBUART_IN_BUFFER_EMPTY (USBUART_EVENT_PENDING)
 529:Generated_Source\PSoC5/USBUART_std.c **** *   OUT - USBUART_OUT_BUFFER_EMPTY (USBUART_NO_EVENT_PENDING)
 530:Generated_Source\PSoC5/USBUART_std.c **** *
 531:Generated_Source\PSoC5/USBUART_std.c **** *******************************************************************************/
 532:Generated_Source\PSoC5/USBUART_std.c **** void USBUART_EpStateInit(void) 
ARM GAS  C:\Users\Greg\AppData\Local\Temp\cc66k9pW.s 			page 30


 533:Generated_Source\PSoC5/USBUART_std.c **** {
 1056              		.loc 1 533 0
 1057              		.cfi_startproc
 1058              		@ args = 0, pretend = 0, frame = 8
 1059              		@ frame_needed = 1, uses_anonymous_args = 0
 1060              		@ link register save eliminated.
 1061 0000 80B4     		push	{r7}
 1062              		.cfi_def_cfa_offset 4
 1063              		.cfi_offset 7, -4
 1064 0002 83B0     		sub	sp, sp, #12
 1065              		.cfi_def_cfa_offset 16
 1066 0004 00AF     		add	r7, sp, #0
 1067              		.cfi_def_cfa_register 7
 534:Generated_Source\PSoC5/USBUART_std.c ****     uint8 i;
 535:Generated_Source\PSoC5/USBUART_std.c **** 
 536:Generated_Source\PSoC5/USBUART_std.c ****     for (i = USBUART_EP1; i < USBUART_MAX_EP; i++)
 1068              		.loc 1 536 0
 1069 0006 0123     		movs	r3, #1
 1070 0008 FB71     		strb	r3, [r7, #7]
 1071 000a 22E0     		b	.L81
 1072              	.L84:
 537:Generated_Source\PSoC5/USBUART_std.c ****     { 
 538:Generated_Source\PSoC5/USBUART_std.c ****         if (0u != (USBUART_EP[i].addr & USBUART_DIR_IN))
 1073              		.loc 1 538 0
 1074 000c FA79     		ldrb	r2, [r7, #7]	@ zero_extendqisi2
 1075 000e 1549     		ldr	r1, .L85
 1076 0010 1346     		mov	r3, r2
 1077 0012 5B00     		lsls	r3, r3, #1
 1078 0014 1344     		add	r3, r3, r2
 1079 0016 9B00     		lsls	r3, r3, #2
 1080 0018 0B44     		add	r3, r3, r1
 1081 001a 1B79     		ldrb	r3, [r3, #4]
 1082 001c DBB2     		uxtb	r3, r3
 1083 001e DBB2     		uxtb	r3, r3
 1084 0020 5BB2     		sxtb	r3, r3
 1085 0022 002B     		cmp	r3, #0
 1086 0024 09DA     		bge	.L82
 539:Generated_Source\PSoC5/USBUART_std.c ****         {
 540:Generated_Source\PSoC5/USBUART_std.c ****             /* IN Endpoint */
 541:Generated_Source\PSoC5/USBUART_std.c ****             USBUART_EP[i].apiEpState = USBUART_EVENT_PENDING;
 1087              		.loc 1 541 0
 1088 0026 FA79     		ldrb	r2, [r7, #7]	@ zero_extendqisi2
 1089 0028 0E49     		ldr	r1, .L85
 1090 002a 1346     		mov	r3, r2
 1091 002c 5B00     		lsls	r3, r3, #1
 1092 002e 1344     		add	r3, r3, r2
 1093 0030 9B00     		lsls	r3, r3, #2
 1094 0032 0B44     		add	r3, r3, r1
 1095 0034 0122     		movs	r2, #1
 1096 0036 5A70     		strb	r2, [r3, #1]
 1097 0038 08E0     		b	.L83
 1098              	.L82:
 542:Generated_Source\PSoC5/USBUART_std.c ****         }
 543:Generated_Source\PSoC5/USBUART_std.c ****         else
 544:Generated_Source\PSoC5/USBUART_std.c ****         {
 545:Generated_Source\PSoC5/USBUART_std.c ****             /* OUT Endpoint */
 546:Generated_Source\PSoC5/USBUART_std.c ****             USBUART_EP[i].apiEpState = USBUART_NO_EVENT_PENDING;
ARM GAS  C:\Users\Greg\AppData\Local\Temp\cc66k9pW.s 			page 31


 1099              		.loc 1 546 0
 1100 003a FA79     		ldrb	r2, [r7, #7]	@ zero_extendqisi2
 1101 003c 0949     		ldr	r1, .L85
 1102 003e 1346     		mov	r3, r2
 1103 0040 5B00     		lsls	r3, r3, #1
 1104 0042 1344     		add	r3, r3, r2
 1105 0044 9B00     		lsls	r3, r3, #2
 1106 0046 0B44     		add	r3, r3, r1
 1107 0048 0022     		movs	r2, #0
 1108 004a 5A70     		strb	r2, [r3, #1]
 1109              	.L83:
 536:Generated_Source\PSoC5/USBUART_std.c ****     { 
 1110              		.loc 1 536 0 discriminator 2
 1111 004c FB79     		ldrb	r3, [r7, #7]	@ zero_extendqisi2
 1112 004e 0133     		adds	r3, r3, #1
 1113 0050 FB71     		strb	r3, [r7, #7]
 1114              	.L81:
 536:Generated_Source\PSoC5/USBUART_std.c ****     { 
 1115              		.loc 1 536 0 is_stmt 0 discriminator 1
 1116 0052 FB79     		ldrb	r3, [r7, #7]	@ zero_extendqisi2
 1117 0054 082B     		cmp	r3, #8
 1118 0056 D9D9     		bls	.L84
 547:Generated_Source\PSoC5/USBUART_std.c ****         }
 548:Generated_Source\PSoC5/USBUART_std.c ****     }
 549:Generated_Source\PSoC5/USBUART_std.c ****                     
 550:Generated_Source\PSoC5/USBUART_std.c **** }
 1119              		.loc 1 550 0 is_stmt 1
 1120 0058 0C37     		adds	r7, r7, #12
 1121              		.cfi_def_cfa_offset 4
 1122 005a BD46     		mov	sp, r7
 1123              		.cfi_def_cfa_register 13
 1124              		@ sp needed
 1125 005c 5DF8047B 		ldr	r7, [sp], #4
 1126              		.cfi_restore 7
 1127              		.cfi_def_cfa_offset 0
 1128 0060 7047     		bx	lr
 1129              	.L86:
 1130 0062 00BF     		.align	2
 1131              	.L85:
 1132 0064 00000000 		.word	USBUART_EP
 1133              		.cfi_endproc
 1134              	.LFE3:
 1135              		.size	USBUART_EpStateInit, .-USBUART_EpStateInit
 1136              		.section	.text.USBUART_Config,"ax",%progbits
 1137              		.align	2
 1138              		.global	USBUART_Config
 1139              		.thumb
 1140              		.thumb_func
 1141              		.type	USBUART_Config, %function
 1142              	USBUART_Config:
 1143              	.LFB4:
 551:Generated_Source\PSoC5/USBUART_std.c **** 
 552:Generated_Source\PSoC5/USBUART_std.c **** 
 553:Generated_Source\PSoC5/USBUART_std.c **** /*******************************************************************************
 554:Generated_Source\PSoC5/USBUART_std.c **** * Function Name: USBUART_Config
 555:Generated_Source\PSoC5/USBUART_std.c **** ****************************************************************************//**
 556:Generated_Source\PSoC5/USBUART_std.c **** *
ARM GAS  C:\Users\Greg\AppData\Local\Temp\cc66k9pW.s 			page 32


 557:Generated_Source\PSoC5/USBUART_std.c **** *  This routine configures endpoints for the entire configuration by scanning
 558:Generated_Source\PSoC5/USBUART_std.c **** *  the configuration descriptor.
 559:Generated_Source\PSoC5/USBUART_std.c **** *
 560:Generated_Source\PSoC5/USBUART_std.c **** *  \param clearAltSetting: It configures the bAlternateSetting 0 for each interface.
 561:Generated_Source\PSoC5/USBUART_std.c **** *
 562:Generated_Source\PSoC5/USBUART_std.c **** * USBUART_interfaceClass - Initialized class array for each interface.
 563:Generated_Source\PSoC5/USBUART_std.c **** *   It is used for handling Class specific requests depend on interface class.
 564:Generated_Source\PSoC5/USBUART_std.c **** *   Different classes in multiple Alternate settings does not supported.
 565:Generated_Source\PSoC5/USBUART_std.c **** *
 566:Generated_Source\PSoC5/USBUART_std.c **** * \reentrant
 567:Generated_Source\PSoC5/USBUART_std.c **** *  No.
 568:Generated_Source\PSoC5/USBUART_std.c **** *
 569:Generated_Source\PSoC5/USBUART_std.c **** *******************************************************************************/
 570:Generated_Source\PSoC5/USBUART_std.c **** void USBUART_Config(uint8 clearAltSetting) 
 571:Generated_Source\PSoC5/USBUART_std.c **** {
 1144              		.loc 1 571 0
 1145              		.cfi_startproc
 1146              		@ args = 0, pretend = 0, frame = 40
 1147              		@ frame_needed = 1, uses_anonymous_args = 0
 1148 0000 80B5     		push	{r7, lr}
 1149              		.cfi_def_cfa_offset 8
 1150              		.cfi_offset 7, -8
 1151              		.cfi_offset 14, -4
 1152 0002 8AB0     		sub	sp, sp, #40
 1153              		.cfi_def_cfa_offset 48
 1154 0004 00AF     		add	r7, sp, #0
 1155              		.cfi_def_cfa_register 7
 1156 0006 0346     		mov	r3, r0
 1157 0008 FB71     		strb	r3, [r7, #7]
 572:Generated_Source\PSoC5/USBUART_std.c ****     uint8 ep;
 573:Generated_Source\PSoC5/USBUART_std.c ****     uint8 curEp;
 574:Generated_Source\PSoC5/USBUART_std.c ****     uint8 i;
 575:Generated_Source\PSoC5/USBUART_std.c ****     uint8 epType;
 576:Generated_Source\PSoC5/USBUART_std.c ****     const uint8 *pDescr;
 577:Generated_Source\PSoC5/USBUART_std.c ****     
 578:Generated_Source\PSoC5/USBUART_std.c ****     #if (!USBUART_EP_MANAGEMENT_DMA_AUTO)
 579:Generated_Source\PSoC5/USBUART_std.c ****         uint16 buffCount = 0u;
 1158              		.loc 1 579 0
 1159 000a 0023     		movs	r3, #0
 1160 000c 7B84     		strh	r3, [r7, #34]	@ movhi
 580:Generated_Source\PSoC5/USBUART_std.c ****     #endif /* (!USBUART_EP_MANAGEMENT_DMA_AUTO) */
 581:Generated_Source\PSoC5/USBUART_std.c **** 
 582:Generated_Source\PSoC5/USBUART_std.c ****     const T_USBUART_LUT CYCODE *pTmp;
 583:Generated_Source\PSoC5/USBUART_std.c ****     const T_USBUART_EP_SETTINGS_BLOCK CYCODE *pEP;
 584:Generated_Source\PSoC5/USBUART_std.c **** 
 585:Generated_Source\PSoC5/USBUART_std.c ****     /* Clear endpoints settings */
 586:Generated_Source\PSoC5/USBUART_std.c ****     for (ep = 0u; ep < USBUART_MAX_EP; ++ep)
 1161              		.loc 1 586 0
 1162 000e 0023     		movs	r3, #0
 1163 0010 87F82730 		strb	r3, [r7, #39]
 1164 0014 4CE0     		b	.L88
 1165              	.L89:
 587:Generated_Source\PSoC5/USBUART_std.c ****     {
 588:Generated_Source\PSoC5/USBUART_std.c ****         USBUART_EP[ep].attrib     = 0u;
 1166              		.loc 1 588 0 discriminator 3
 1167 0016 97F82720 		ldrb	r2, [r7, #39]	@ zero_extendqisi2
 1168 001a C449     		ldr	r1, .L113
ARM GAS  C:\Users\Greg\AppData\Local\Temp\cc66k9pW.s 			page 33


 1169 001c 1346     		mov	r3, r2
 1170 001e 5B00     		lsls	r3, r3, #1
 1171 0020 1344     		add	r3, r3, r2
 1172 0022 9B00     		lsls	r3, r3, #2
 1173 0024 0B44     		add	r3, r3, r1
 1174 0026 0022     		movs	r2, #0
 1175 0028 1A70     		strb	r2, [r3]
 589:Generated_Source\PSoC5/USBUART_std.c ****         USBUART_EP[ep].hwEpState  = 0u;
 1176              		.loc 1 589 0 discriminator 3
 1177 002a 97F82720 		ldrb	r2, [r7, #39]	@ zero_extendqisi2
 1178 002e BF49     		ldr	r1, .L113
 1179 0030 1346     		mov	r3, r2
 1180 0032 5B00     		lsls	r3, r3, #1
 1181 0034 1344     		add	r3, r3, r2
 1182 0036 9B00     		lsls	r3, r3, #2
 1183 0038 0B44     		add	r3, r3, r1
 1184 003a 0022     		movs	r2, #0
 1185 003c 9A70     		strb	r2, [r3, #2]
 590:Generated_Source\PSoC5/USBUART_std.c ****         USBUART_EP[ep].epToggle   = 0u;
 1186              		.loc 1 590 0 discriminator 3
 1187 003e 97F82720 		ldrb	r2, [r7, #39]	@ zero_extendqisi2
 1188 0042 BA49     		ldr	r1, .L113
 1189 0044 1346     		mov	r3, r2
 1190 0046 5B00     		lsls	r3, r3, #1
 1191 0048 1344     		add	r3, r3, r2
 1192 004a 9B00     		lsls	r3, r3, #2
 1193 004c 0B44     		add	r3, r3, r1
 1194 004e 0022     		movs	r2, #0
 1195 0050 DA70     		strb	r2, [r3, #3]
 591:Generated_Source\PSoC5/USBUART_std.c ****         USBUART_EP[ep].bufferSize = 0u;
 1196              		.loc 1 591 0 discriminator 3
 1197 0052 97F82720 		ldrb	r2, [r7, #39]	@ zero_extendqisi2
 1198 0056 B549     		ldr	r1, .L113
 1199 0058 1346     		mov	r3, r2
 1200 005a 5B00     		lsls	r3, r3, #1
 1201 005c 1344     		add	r3, r3, r2
 1202 005e 9B00     		lsls	r3, r3, #2
 1203 0060 0B44     		add	r3, r3, r1
 1204 0062 0833     		adds	r3, r3, #8
 1205 0064 0022     		movs	r2, #0
 1206 0066 1A80     		strh	r2, [r3]	@ movhi
 592:Generated_Source\PSoC5/USBUART_std.c ****         USBUART_EP[ep].interface  = 0u;
 1207              		.loc 1 592 0 discriminator 3
 1208 0068 97F82720 		ldrb	r2, [r7, #39]	@ zero_extendqisi2
 1209 006c AF49     		ldr	r1, .L113
 1210 006e 1346     		mov	r3, r2
 1211 0070 5B00     		lsls	r3, r3, #1
 1212 0072 1344     		add	r3, r3, r2
 1213 0074 9B00     		lsls	r3, r3, #2
 1214 0076 0B44     		add	r3, r3, r1
 1215 0078 0833     		adds	r3, r3, #8
 1216 007a 0022     		movs	r2, #0
 1217 007c 9A70     		strb	r2, [r3, #2]
 593:Generated_Source\PSoC5/USBUART_std.c ****         USBUART_EP[ep].apiEpState = USBUART_NO_EVENT_PENDING;
 1218              		.loc 1 593 0 discriminator 3
 1219 007e 97F82720 		ldrb	r2, [r7, #39]	@ zero_extendqisi2
 1220 0082 AA49     		ldr	r1, .L113
ARM GAS  C:\Users\Greg\AppData\Local\Temp\cc66k9pW.s 			page 34


 1221 0084 1346     		mov	r3, r2
 1222 0086 5B00     		lsls	r3, r3, #1
 1223 0088 1344     		add	r3, r3, r2
 1224 008a 9B00     		lsls	r3, r3, #2
 1225 008c 0B44     		add	r3, r3, r1
 1226 008e 0022     		movs	r2, #0
 1227 0090 5A70     		strb	r2, [r3, #1]
 594:Generated_Source\PSoC5/USBUART_std.c ****         USBUART_EP[ep].epMode     = USBUART_MODE_DISABLE;   
 1228              		.loc 1 594 0 discriminator 3
 1229 0092 97F82720 		ldrb	r2, [r7, #39]	@ zero_extendqisi2
 1230 0096 A549     		ldr	r1, .L113
 1231 0098 1346     		mov	r3, r2
 1232 009a 5B00     		lsls	r3, r3, #1
 1233 009c 1344     		add	r3, r3, r2
 1234 009e 9B00     		lsls	r3, r3, #2
 1235 00a0 0B44     		add	r3, r3, r1
 1236 00a2 0022     		movs	r2, #0
 1237 00a4 5A71     		strb	r2, [r3, #5]
 586:Generated_Source\PSoC5/USBUART_std.c ****     {
 1238              		.loc 1 586 0 discriminator 3
 1239 00a6 97F82730 		ldrb	r3, [r7, #39]
 1240 00aa 0133     		adds	r3, r3, #1
 1241 00ac 87F82730 		strb	r3, [r7, #39]
 1242              	.L88:
 586:Generated_Source\PSoC5/USBUART_std.c ****     {
 1243              		.loc 1 586 0 is_stmt 0 discriminator 1
 1244 00b0 97F82730 		ldrb	r3, [r7, #39]	@ zero_extendqisi2
 1245 00b4 082B     		cmp	r3, #8
 1246 00b6 AED9     		bls	.L89
 595:Generated_Source\PSoC5/USBUART_std.c ****     }
 596:Generated_Source\PSoC5/USBUART_std.c **** 
 597:Generated_Source\PSoC5/USBUART_std.c ****     /* Clear Alternate settings for all interfaces. */
 598:Generated_Source\PSoC5/USBUART_std.c ****     if (0u != clearAltSetting)
 1247              		.loc 1 598 0 is_stmt 1
 1248 00b8 FB79     		ldrb	r3, [r7, #7]	@ zero_extendqisi2
 1249 00ba 002B     		cmp	r3, #0
 1250 00bc 16D0     		beq	.L90
 599:Generated_Source\PSoC5/USBUART_std.c ****     {
 600:Generated_Source\PSoC5/USBUART_std.c ****         for (i = 0u; i < USBUART_MAX_INTERFACES_NUMBER; ++i)
 1251              		.loc 1 600 0
 1252 00be 0023     		movs	r3, #0
 1253 00c0 87F82530 		strb	r3, [r7, #37]
 1254 00c4 0EE0     		b	.L91
 1255              	.L92:
 601:Generated_Source\PSoC5/USBUART_std.c ****         {
 602:Generated_Source\PSoC5/USBUART_std.c ****             USBUART_interfaceSetting[i]     = 0u;
 1256              		.loc 1 602 0 discriminator 3
 1257 00c6 97F82530 		ldrb	r3, [r7, #37]	@ zero_extendqisi2
 1258 00ca 994A     		ldr	r2, .L113+4
 1259 00cc 0021     		movs	r1, #0
 1260 00ce D154     		strb	r1, [r2, r3]
 603:Generated_Source\PSoC5/USBUART_std.c ****             USBUART_interfaceSettingLast[i] = 0u;
 1261              		.loc 1 603 0 discriminator 3
 1262 00d0 97F82530 		ldrb	r3, [r7, #37]	@ zero_extendqisi2
 1263 00d4 974A     		ldr	r2, .L113+8
 1264 00d6 0021     		movs	r1, #0
 1265 00d8 D154     		strb	r1, [r2, r3]
ARM GAS  C:\Users\Greg\AppData\Local\Temp\cc66k9pW.s 			page 35


 600:Generated_Source\PSoC5/USBUART_std.c ****         {
 1266              		.loc 1 600 0 discriminator 3
 1267 00da 97F82530 		ldrb	r3, [r7, #37]
 1268 00de 0133     		adds	r3, r3, #1
 1269 00e0 87F82530 		strb	r3, [r7, #37]
 1270              	.L91:
 600:Generated_Source\PSoC5/USBUART_std.c ****         {
 1271              		.loc 1 600 0 is_stmt 0 discriminator 1
 1272 00e4 97F82530 		ldrb	r3, [r7, #37]	@ zero_extendqisi2
 1273 00e8 012B     		cmp	r3, #1
 1274 00ea ECD9     		bls	.L92
 1275              	.L90:
 604:Generated_Source\PSoC5/USBUART_std.c ****         }
 605:Generated_Source\PSoC5/USBUART_std.c ****     }
 606:Generated_Source\PSoC5/USBUART_std.c **** 
 607:Generated_Source\PSoC5/USBUART_std.c ****     /* Init Endpoints and Device Status if configured */
 608:Generated_Source\PSoC5/USBUART_std.c ****     if (USBUART_configuration > 0u)
 1276              		.loc 1 608 0 is_stmt 1
 1277 00ec 924B     		ldr	r3, .L113+12
 1278 00ee 1B78     		ldrb	r3, [r3]
 1279 00f0 DBB2     		uxtb	r3, r3
 1280 00f2 002B     		cmp	r3, #0
 1281 00f4 00F04981 		beq	.L87
 1282              	.LBB2:
 609:Generated_Source\PSoC5/USBUART_std.c ****     {
 610:Generated_Source\PSoC5/USBUART_std.c ****         #if defined(USBUART_ENABLE_CDC_CLASS)
 611:Generated_Source\PSoC5/USBUART_std.c ****             uint8 cdcComNums = 0u;
 1283              		.loc 1 611 0
 1284 00f8 0023     		movs	r3, #0
 1285 00fa FB76     		strb	r3, [r7, #27]
 612:Generated_Source\PSoC5/USBUART_std.c ****         #endif  /* (USBUART_ENABLE_CDC_CLASS) */  
 613:Generated_Source\PSoC5/USBUART_std.c **** 
 614:Generated_Source\PSoC5/USBUART_std.c ****         pTmp = USBUART_GetConfigTablePtr(USBUART_configuration - 1u);
 1286              		.loc 1 614 0
 1287 00fc 8E4B     		ldr	r3, .L113+12
 1288 00fe 1B78     		ldrb	r3, [r3]
 1289 0100 DBB2     		uxtb	r3, r3
 1290 0102 013B     		subs	r3, r3, #1
 1291 0104 DBB2     		uxtb	r3, r3
 1292 0106 1846     		mov	r0, r3
 1293 0108 FFF7FEFF 		bl	USBUART_GetConfigTablePtr
 1294 010c 7861     		str	r0, [r7, #20]
 615:Generated_Source\PSoC5/USBUART_std.c ****         
 616:Generated_Source\PSoC5/USBUART_std.c ****         /* Set Power status for current configuration */
 617:Generated_Source\PSoC5/USBUART_std.c ****         pDescr = (const uint8 *)pTmp->p_list;
 1295              		.loc 1 617 0
 1296 010e 7B69     		ldr	r3, [r7, #20]
 1297 0110 5B68     		ldr	r3, [r3, #4]
 1298 0112 3B61     		str	r3, [r7, #16]
 618:Generated_Source\PSoC5/USBUART_std.c ****         if ((pDescr[USBUART_CONFIG_DESCR_ATTRIB] & USBUART_CONFIG_DESCR_ATTRIB_SELF_POWERED) != 0u)
 1299              		.loc 1 618 0
 1300 0114 3B69     		ldr	r3, [r7, #16]
 1301 0116 0733     		adds	r3, r3, #7
 1302 0118 1B78     		ldrb	r3, [r3]	@ zero_extendqisi2
 1303 011a 03F04003 		and	r3, r3, #64
 1304 011e 002B     		cmp	r3, #0
 1305 0120 08D0     		beq	.L94
ARM GAS  C:\Users\Greg\AppData\Local\Temp\cc66k9pW.s 			page 36


 619:Generated_Source\PSoC5/USBUART_std.c ****         {
 620:Generated_Source\PSoC5/USBUART_std.c ****             USBUART_deviceStatus |= (uint8)  USBUART_DEVICE_STATUS_SELF_POWERED;
 1306              		.loc 1 620 0
 1307 0122 864B     		ldr	r3, .L113+16
 1308 0124 1B78     		ldrb	r3, [r3]
 1309 0126 DBB2     		uxtb	r3, r3
 1310 0128 43F00103 		orr	r3, r3, #1
 1311 012c DAB2     		uxtb	r2, r3
 1312 012e 834B     		ldr	r3, .L113+16
 1313 0130 1A70     		strb	r2, [r3]
 1314 0132 07E0     		b	.L95
 1315              	.L94:
 621:Generated_Source\PSoC5/USBUART_std.c ****         }
 622:Generated_Source\PSoC5/USBUART_std.c ****         else
 623:Generated_Source\PSoC5/USBUART_std.c ****         {
 624:Generated_Source\PSoC5/USBUART_std.c ****             USBUART_deviceStatus &= (uint8) ~USBUART_DEVICE_STATUS_SELF_POWERED;
 1316              		.loc 1 624 0
 1317 0134 814B     		ldr	r3, .L113+16
 1318 0136 1B78     		ldrb	r3, [r3]
 1319 0138 DBB2     		uxtb	r3, r3
 1320 013a 23F00103 		bic	r3, r3, #1
 1321 013e DAB2     		uxtb	r2, r3
 1322 0140 7E4B     		ldr	r3, .L113+16
 1323 0142 1A70     		strb	r2, [r3]
 1324              	.L95:
 625:Generated_Source\PSoC5/USBUART_std.c ****         }
 626:Generated_Source\PSoC5/USBUART_std.c ****         
 627:Generated_Source\PSoC5/USBUART_std.c ****         /* Move to next element */
 628:Generated_Source\PSoC5/USBUART_std.c ****         pTmp = &pTmp[1u];
 1325              		.loc 1 628 0
 1326 0144 7B69     		ldr	r3, [r7, #20]
 1327 0146 0833     		adds	r3, r3, #8
 1328 0148 7B61     		str	r3, [r7, #20]
 629:Generated_Source\PSoC5/USBUART_std.c ****         ep = pTmp->c;  /* For this table, c is the number of endpoints configurations  */
 1329              		.loc 1 629 0
 1330 014a 7B69     		ldr	r3, [r7, #20]
 1331 014c 1B78     		ldrb	r3, [r3]
 1332 014e 87F82730 		strb	r3, [r7, #39]
 630:Generated_Source\PSoC5/USBUART_std.c **** 
 631:Generated_Source\PSoC5/USBUART_std.c ****         #if (USBUART_EP_MANAGEMENT_MANUAL && USBUART_EP_ALLOC_DYNAMIC)
 632:Generated_Source\PSoC5/USBUART_std.c ****             /* Configure for dynamic EP memory allocation */
 633:Generated_Source\PSoC5/USBUART_std.c ****             /* p_list points the endpoint setting table. */
 634:Generated_Source\PSoC5/USBUART_std.c ****             pEP = (T_USBUART_EP_SETTINGS_BLOCK *) pTmp->p_list;
 635:Generated_Source\PSoC5/USBUART_std.c ****             
 636:Generated_Source\PSoC5/USBUART_std.c ****             for (i = 0u; i < ep; i++)
 637:Generated_Source\PSoC5/USBUART_std.c ****             {     
 638:Generated_Source\PSoC5/USBUART_std.c ****                 /* Compare current Alternate setting with EP Alt */
 639:Generated_Source\PSoC5/USBUART_std.c ****                 if (USBUART_interfaceSetting[pEP->interface] == pEP->altSetting)
 640:Generated_Source\PSoC5/USBUART_std.c ****                 {                                                          
 641:Generated_Source\PSoC5/USBUART_std.c ****                     curEp  = pEP->addr & USBUART_DIR_UNUSED;
 642:Generated_Source\PSoC5/USBUART_std.c ****                     epType = pEP->attributes & USBUART_EP_TYPE_MASK;
 643:Generated_Source\PSoC5/USBUART_std.c ****                     
 644:Generated_Source\PSoC5/USBUART_std.c ****                     USBUART_EP[curEp].addr       = pEP->addr;
 645:Generated_Source\PSoC5/USBUART_std.c ****                     USBUART_EP[curEp].attrib     = pEP->attributes;
 646:Generated_Source\PSoC5/USBUART_std.c ****                     USBUART_EP[curEp].bufferSize = pEP->bufferSize;
 647:Generated_Source\PSoC5/USBUART_std.c **** 
 648:Generated_Source\PSoC5/USBUART_std.c ****                     if (0u != (pEP->addr & USBUART_DIR_IN))
ARM GAS  C:\Users\Greg\AppData\Local\Temp\cc66k9pW.s 			page 37


 649:Generated_Source\PSoC5/USBUART_std.c ****                     {
 650:Generated_Source\PSoC5/USBUART_std.c ****                         /* IN Endpoint */
 651:Generated_Source\PSoC5/USBUART_std.c ****                         USBUART_EP[curEp].epMode     = USBUART_GET_ACTIVE_IN_EP_CR0_MODE(epType);
 652:Generated_Source\PSoC5/USBUART_std.c ****                         USBUART_EP[curEp].apiEpState = USBUART_EVENT_PENDING;
 653:Generated_Source\PSoC5/USBUART_std.c ****                     
 654:Generated_Source\PSoC5/USBUART_std.c ****                     #if (defined(USBUART_ENABLE_MIDI_STREAMING) && (USBUART_MIDI_IN_BUFF_SIZE > 0))
 655:Generated_Source\PSoC5/USBUART_std.c ****                         if ((pEP->bMisc == USBUART_CLASS_AUDIO) && (epType == USBUART_EP_TYPE_BULK)
 656:Generated_Source\PSoC5/USBUART_std.c ****                         {
 657:Generated_Source\PSoC5/USBUART_std.c ****                             USBUART_midi_in_ep = curEp;
 658:Generated_Source\PSoC5/USBUART_std.c ****                         }
 659:Generated_Source\PSoC5/USBUART_std.c ****                     #endif  /* (USBUART_ENABLE_MIDI_STREAMING) */
 660:Generated_Source\PSoC5/USBUART_std.c ****                     }
 661:Generated_Source\PSoC5/USBUART_std.c ****                     else
 662:Generated_Source\PSoC5/USBUART_std.c ****                     {
 663:Generated_Source\PSoC5/USBUART_std.c ****                         /* OUT Endpoint */
 664:Generated_Source\PSoC5/USBUART_std.c ****                         USBUART_EP[curEp].epMode     = USBUART_GET_ACTIVE_OUT_EP_CR0_MODE(epType);
 665:Generated_Source\PSoC5/USBUART_std.c ****                         USBUART_EP[curEp].apiEpState = USBUART_NO_EVENT_PENDING;
 666:Generated_Source\PSoC5/USBUART_std.c ****                         
 667:Generated_Source\PSoC5/USBUART_std.c ****                     #if (defined(USBUART_ENABLE_MIDI_STREAMING) && (USBUART_MIDI_OUT_BUFF_SIZE > 0)
 668:Generated_Source\PSoC5/USBUART_std.c ****                         if ((pEP->bMisc == USBUART_CLASS_AUDIO) && (epType == USBUART_EP_TYPE_BULK)
 669:Generated_Source\PSoC5/USBUART_std.c ****                         {
 670:Generated_Source\PSoC5/USBUART_std.c ****                             USBUART_midi_out_ep = curEp;
 671:Generated_Source\PSoC5/USBUART_std.c ****                         }
 672:Generated_Source\PSoC5/USBUART_std.c ****                     #endif  /* (USBUART_ENABLE_MIDI_STREAMING) */
 673:Generated_Source\PSoC5/USBUART_std.c ****                     }
 674:Generated_Source\PSoC5/USBUART_std.c **** 
 675:Generated_Source\PSoC5/USBUART_std.c ****                 #if(defined (USBUART_ENABLE_CDC_CLASS))
 676:Generated_Source\PSoC5/USBUART_std.c ****                     if((pEP->bMisc == USBUART_CLASS_CDC_DATA) ||(pEP->bMisc == USBUART_CLASS_CDC))
 677:Generated_Source\PSoC5/USBUART_std.c ****                     {
 678:Generated_Source\PSoC5/USBUART_std.c ****                         cdcComNums = USBUART_Cdc_EpInit(pEP, curEp, cdcComNums);
 679:Generated_Source\PSoC5/USBUART_std.c ****                     }
 680:Generated_Source\PSoC5/USBUART_std.c ****                 #endif  /* (USBUART_ENABLE_CDC_CLASS) */
 681:Generated_Source\PSoC5/USBUART_std.c ****                 }
 682:Generated_Source\PSoC5/USBUART_std.c ****                 
 683:Generated_Source\PSoC5/USBUART_std.c ****                 pEP = &pEP[1u];
 684:Generated_Source\PSoC5/USBUART_std.c ****             }
 685:Generated_Source\PSoC5/USBUART_std.c ****             
 686:Generated_Source\PSoC5/USBUART_std.c ****         #else
 687:Generated_Source\PSoC5/USBUART_std.c ****             for (i = USBUART_EP1; i < USBUART_MAX_EP; ++i)
 1333              		.loc 1 687 0
 1334 0152 0123     		movs	r3, #1
 1335 0154 87F82530 		strb	r3, [r7, #37]
 1336 0158 B3E0     		b	.L96
 1337              	.L108:
 688:Generated_Source\PSoC5/USBUART_std.c ****             {
 689:Generated_Source\PSoC5/USBUART_std.c ****                 /* p_list points the endpoint setting table. */
 690:Generated_Source\PSoC5/USBUART_std.c ****                 pEP = (const T_USBUART_EP_SETTINGS_BLOCK CYCODE *) pTmp->p_list;
 1338              		.loc 1 690 0
 1339 015a 7B69     		ldr	r3, [r7, #20]
 1340 015c 5B68     		ldr	r3, [r3, #4]
 1341 015e FB61     		str	r3, [r7, #28]
 691:Generated_Source\PSoC5/USBUART_std.c ****                 /* Find max length for each EP and select it (length could be different in differen
 692:Generated_Source\PSoC5/USBUART_std.c ****                 /* but other settings should be correct with regards to Interface alt Setting */
 693:Generated_Source\PSoC5/USBUART_std.c ****                 
 694:Generated_Source\PSoC5/USBUART_std.c ****                 for (curEp = 0u; curEp < ep; ++curEp)
 1342              		.loc 1 694 0
 1343 0160 0023     		movs	r3, #0
ARM GAS  C:\Users\Greg\AppData\Local\Temp\cc66k9pW.s 			page 38


 1344 0162 87F82630 		strb	r3, [r7, #38]
 1345 0166 A0E0     		b	.L97
 1346              	.L107:
 695:Generated_Source\PSoC5/USBUART_std.c ****                 {
 696:Generated_Source\PSoC5/USBUART_std.c ****                     if (i == (pEP->addr & USBUART_DIR_UNUSED))
 1347              		.loc 1 696 0
 1348 0168 97F82520 		ldrb	r2, [r7, #37]	@ zero_extendqisi2
 1349 016c FB69     		ldr	r3, [r7, #28]
 1350 016e 9B78     		ldrb	r3, [r3, #2]	@ zero_extendqisi2
 1351 0170 03F07F03 		and	r3, r3, #127
 1352 0174 9A42     		cmp	r2, r3
 1353 0176 40F09080 		bne	.L98
 697:Generated_Source\PSoC5/USBUART_std.c ****                     {
 698:Generated_Source\PSoC5/USBUART_std.c ****                         /* Compare endpoint buffers size with current size to find greater. */
 699:Generated_Source\PSoC5/USBUART_std.c ****                         if (USBUART_EP[i].bufferSize < pEP->bufferSize)
 1354              		.loc 1 699 0
 1355 017a 97F82520 		ldrb	r2, [r7, #37]	@ zero_extendqisi2
 1356 017e 6B49     		ldr	r1, .L113
 1357 0180 1346     		mov	r3, r2
 1358 0182 5B00     		lsls	r3, r3, #1
 1359 0184 1344     		add	r3, r3, r2
 1360 0186 9B00     		lsls	r3, r3, #2
 1361 0188 0B44     		add	r3, r3, r1
 1362 018a 0833     		adds	r3, r3, #8
 1363 018c 1B88     		ldrh	r3, [r3]	@ movhi
 1364 018e 9AB2     		uxth	r2, r3
 1365 0190 FB69     		ldr	r3, [r7, #28]
 1366 0192 9B88     		ldrh	r3, [r3, #4]
 1367 0194 9A42     		cmp	r2, r3
 1368 0196 0CD2     		bcs	.L99
 700:Generated_Source\PSoC5/USBUART_std.c ****                         {
 701:Generated_Source\PSoC5/USBUART_std.c ****                             USBUART_EP[i].bufferSize = pEP->bufferSize;
 1369              		.loc 1 701 0
 1370 0198 97F82520 		ldrb	r2, [r7, #37]	@ zero_extendqisi2
 1371 019c FB69     		ldr	r3, [r7, #28]
 1372 019e 9888     		ldrh	r0, [r3, #4]
 1373 01a0 6249     		ldr	r1, .L113
 1374 01a2 1346     		mov	r3, r2
 1375 01a4 5B00     		lsls	r3, r3, #1
 1376 01a6 1344     		add	r3, r3, r2
 1377 01a8 9B00     		lsls	r3, r3, #2
 1378 01aa 0B44     		add	r3, r3, r1
 1379 01ac 0833     		adds	r3, r3, #8
 1380 01ae 0246     		mov	r2, r0	@ movhi
 1381 01b0 1A80     		strh	r2, [r3]	@ movhi
 1382              	.L99:
 702:Generated_Source\PSoC5/USBUART_std.c ****                         }
 703:Generated_Source\PSoC5/USBUART_std.c ****                         
 704:Generated_Source\PSoC5/USBUART_std.c ****                         /* Compare current Alternate setting with EP Alt */
 705:Generated_Source\PSoC5/USBUART_std.c ****                         if (USBUART_interfaceSetting[pEP->interface] == pEP->altSetting)
 1383              		.loc 1 705 0
 1384 01b2 FB69     		ldr	r3, [r7, #28]
 1385 01b4 1B78     		ldrb	r3, [r3]	@ zero_extendqisi2
 1386 01b6 1A46     		mov	r2, r3
 1387 01b8 5D4B     		ldr	r3, .L113+4
 1388 01ba 9B5C     		ldrb	r3, [r3, r2]
 1389 01bc DAB2     		uxtb	r2, r3
ARM GAS  C:\Users\Greg\AppData\Local\Temp\cc66k9pW.s 			page 39


 1390 01be FB69     		ldr	r3, [r7, #28]
 1391 01c0 5B78     		ldrb	r3, [r3, #1]	@ zero_extendqisi2
 1392 01c2 9A42     		cmp	r2, r3
 1393 01c4 69D1     		bne	.L98
 706:Generated_Source\PSoC5/USBUART_std.c ****                         {                            
 707:Generated_Source\PSoC5/USBUART_std.c ****                             USBUART_EP[i].addr = pEP->addr;
 1394              		.loc 1 707 0
 1395 01c6 97F82520 		ldrb	r2, [r7, #37]	@ zero_extendqisi2
 1396 01ca FB69     		ldr	r3, [r7, #28]
 1397 01cc 9878     		ldrb	r0, [r3, #2]	@ zero_extendqisi2
 1398 01ce 5749     		ldr	r1, .L113
 1399 01d0 1346     		mov	r3, r2
 1400 01d2 5B00     		lsls	r3, r3, #1
 1401 01d4 1344     		add	r3, r3, r2
 1402 01d6 9B00     		lsls	r3, r3, #2
 1403 01d8 0B44     		add	r3, r3, r1
 1404 01da 0246     		mov	r2, r0
 1405 01dc 1A71     		strb	r2, [r3, #4]
 708:Generated_Source\PSoC5/USBUART_std.c ****                             USBUART_EP[i].attrib = pEP->attributes;
 1406              		.loc 1 708 0
 1407 01de 97F82520 		ldrb	r2, [r7, #37]	@ zero_extendqisi2
 1408 01e2 FB69     		ldr	r3, [r7, #28]
 1409 01e4 D878     		ldrb	r0, [r3, #3]	@ zero_extendqisi2
 1410 01e6 5149     		ldr	r1, .L113
 1411 01e8 1346     		mov	r3, r2
 1412 01ea 5B00     		lsls	r3, r3, #1
 1413 01ec 1344     		add	r3, r3, r2
 1414 01ee 9B00     		lsls	r3, r3, #2
 1415 01f0 0B44     		add	r3, r3, r1
 1416 01f2 0246     		mov	r2, r0
 1417 01f4 1A70     		strb	r2, [r3]
 709:Generated_Source\PSoC5/USBUART_std.c ****                             
 710:Generated_Source\PSoC5/USBUART_std.c ****                             epType = pEP->attributes & USBUART_EP_TYPE_MASK;
 1418              		.loc 1 710 0
 1419 01f6 FB69     		ldr	r3, [r7, #28]
 1420 01f8 DB78     		ldrb	r3, [r3, #3]	@ zero_extendqisi2
 1421 01fa 03F00303 		and	r3, r3, #3
 1422 01fe FB73     		strb	r3, [r7, #15]
 711:Generated_Source\PSoC5/USBUART_std.c ****                             
 712:Generated_Source\PSoC5/USBUART_std.c ****                             if (0u != (pEP->addr & USBUART_DIR_IN))
 1423              		.loc 1 712 0
 1424 0200 FB69     		ldr	r3, [r7, #28]
 1425 0202 9B78     		ldrb	r3, [r3, #2]	@ zero_extendqisi2
 1426 0204 DBB2     		uxtb	r3, r3
 1427 0206 5BB2     		sxtb	r3, r3
 1428 0208 002B     		cmp	r3, #0
 1429 020a 1ADA     		bge	.L100
 713:Generated_Source\PSoC5/USBUART_std.c ****                             {
 714:Generated_Source\PSoC5/USBUART_std.c ****                                 /* IN Endpoint */
 715:Generated_Source\PSoC5/USBUART_std.c ****                                 USBUART_EP[i].epMode     = USBUART_GET_ACTIVE_IN_EP_CR0_MODE(epType
 1430              		.loc 1 715 0
 1431 020c 97F82520 		ldrb	r2, [r7, #37]	@ zero_extendqisi2
 1432 0210 FB7B     		ldrb	r3, [r7, #15]	@ zero_extendqisi2
 1433 0212 012B     		cmp	r3, #1
 1434 0214 01D1     		bne	.L101
 1435              		.loc 1 715 0 is_stmt 0 discriminator 1
 1436 0216 0720     		movs	r0, #7
ARM GAS  C:\Users\Greg\AppData\Local\Temp\cc66k9pW.s 			page 40


 1437 0218 00E0     		b	.L102
 1438              	.L101:
 1439              		.loc 1 715 0 discriminator 2
 1440 021a 0D20     		movs	r0, #13
 1441              	.L102:
 1442              		.loc 1 715 0 discriminator 4
 1443 021c 4349     		ldr	r1, .L113
 1444 021e 1346     		mov	r3, r2
 1445 0220 5B00     		lsls	r3, r3, #1
 1446 0222 1344     		add	r3, r3, r2
 1447 0224 9B00     		lsls	r3, r3, #2
 1448 0226 0B44     		add	r3, r3, r1
 1449 0228 0246     		mov	r2, r0
 1450 022a 5A71     		strb	r2, [r3, #5]
 716:Generated_Source\PSoC5/USBUART_std.c ****                                 USBUART_EP[i].apiEpState = USBUART_EVENT_PENDING;
 1451              		.loc 1 716 0 is_stmt 1 discriminator 4
 1452 022c 97F82520 		ldrb	r2, [r7, #37]	@ zero_extendqisi2
 1453 0230 3E49     		ldr	r1, .L113
 1454 0232 1346     		mov	r3, r2
 1455 0234 5B00     		lsls	r3, r3, #1
 1456 0236 1344     		add	r3, r3, r2
 1457 0238 9B00     		lsls	r3, r3, #2
 1458 023a 0B44     		add	r3, r3, r1
 1459 023c 0122     		movs	r2, #1
 1460 023e 5A70     		strb	r2, [r3, #1]
 1461 0240 19E0     		b	.L103
 1462              	.L100:
 717:Generated_Source\PSoC5/USBUART_std.c ****                                 
 718:Generated_Source\PSoC5/USBUART_std.c ****                             #if (defined(USBUART_ENABLE_MIDI_STREAMING) && (USBUART_MIDI_IN_BUFF_SI
 719:Generated_Source\PSoC5/USBUART_std.c ****                                 if ((pEP->bMisc == USBUART_CLASS_AUDIO) && (epType == USBUART_EP_TY
 720:Generated_Source\PSoC5/USBUART_std.c ****                                 {
 721:Generated_Source\PSoC5/USBUART_std.c ****                                     USBUART_midi_in_ep = i;
 722:Generated_Source\PSoC5/USBUART_std.c ****                                 }
 723:Generated_Source\PSoC5/USBUART_std.c ****                             #endif  /* (USBUART_ENABLE_MIDI_STREAMING) */
 724:Generated_Source\PSoC5/USBUART_std.c ****                             }
 725:Generated_Source\PSoC5/USBUART_std.c ****                             else
 726:Generated_Source\PSoC5/USBUART_std.c ****                             {
 727:Generated_Source\PSoC5/USBUART_std.c ****                                 /* OUT Endpoint */
 728:Generated_Source\PSoC5/USBUART_std.c ****                                 USBUART_EP[i].epMode     = USBUART_GET_ACTIVE_OUT_EP_CR0_MODE(epTyp
 1463              		.loc 1 728 0
 1464 0242 97F82520 		ldrb	r2, [r7, #37]	@ zero_extendqisi2
 1465 0246 FB7B     		ldrb	r3, [r7, #15]	@ zero_extendqisi2
 1466 0248 012B     		cmp	r3, #1
 1467 024a 01D1     		bne	.L104
 1468              		.loc 1 728 0 is_stmt 0 discriminator 1
 1469 024c 0520     		movs	r0, #5
 1470 024e 00E0     		b	.L105
 1471              	.L104:
 1472              		.loc 1 728 0 discriminator 2
 1473 0250 0920     		movs	r0, #9
 1474              	.L105:
 1475              		.loc 1 728 0 discriminator 4
 1476 0252 3649     		ldr	r1, .L113
 1477 0254 1346     		mov	r3, r2
 1478 0256 5B00     		lsls	r3, r3, #1
 1479 0258 1344     		add	r3, r3, r2
 1480 025a 9B00     		lsls	r3, r3, #2
ARM GAS  C:\Users\Greg\AppData\Local\Temp\cc66k9pW.s 			page 41


 1481 025c 0B44     		add	r3, r3, r1
 1482 025e 0246     		mov	r2, r0
 1483 0260 5A71     		strb	r2, [r3, #5]
 729:Generated_Source\PSoC5/USBUART_std.c ****                                 USBUART_EP[i].apiEpState = USBUART_NO_EVENT_PENDING;
 1484              		.loc 1 729 0 is_stmt 1 discriminator 4
 1485 0262 97F82520 		ldrb	r2, [r7, #37]	@ zero_extendqisi2
 1486 0266 3149     		ldr	r1, .L113
 1487 0268 1346     		mov	r3, r2
 1488 026a 5B00     		lsls	r3, r3, #1
 1489 026c 1344     		add	r3, r3, r2
 1490 026e 9B00     		lsls	r3, r3, #2
 1491 0270 0B44     		add	r3, r3, r1
 1492 0272 0022     		movs	r2, #0
 1493 0274 5A70     		strb	r2, [r3, #1]
 1494              	.L103:
 730:Generated_Source\PSoC5/USBUART_std.c ****                                 
 731:Generated_Source\PSoC5/USBUART_std.c ****                             #if (defined(USBUART_ENABLE_MIDI_STREAMING) && (USBUART_MIDI_OUT_BUFF_S
 732:Generated_Source\PSoC5/USBUART_std.c ****                                 if ((pEP->bMisc == USBUART_CLASS_AUDIO) && (epType == USBUART_EP_TY
 733:Generated_Source\PSoC5/USBUART_std.c ****                                 {
 734:Generated_Source\PSoC5/USBUART_std.c ****                                     USBUART_midi_out_ep = i;
 735:Generated_Source\PSoC5/USBUART_std.c ****                                 }
 736:Generated_Source\PSoC5/USBUART_std.c ****                             #endif  /* (USBUART_ENABLE_MIDI_STREAMING) */
 737:Generated_Source\PSoC5/USBUART_std.c ****                             }
 738:Generated_Source\PSoC5/USBUART_std.c **** 
 739:Generated_Source\PSoC5/USBUART_std.c ****                         #if (defined(USBUART_ENABLE_CDC_CLASS))
 740:Generated_Source\PSoC5/USBUART_std.c ****                             if((pEP->bMisc == USBUART_CLASS_CDC_DATA) ||(pEP->bMisc == USBUART_CLAS
 1495              		.loc 1 740 0
 1496 0276 FB69     		ldr	r3, [r7, #28]
 1497 0278 9B79     		ldrb	r3, [r3, #6]	@ zero_extendqisi2
 1498 027a 0A2B     		cmp	r3, #10
 1499 027c 03D0     		beq	.L106
 1500              		.loc 1 740 0 is_stmt 0 discriminator 1
 1501 027e FB69     		ldr	r3, [r7, #28]
 1502 0280 9B79     		ldrb	r3, [r3, #6]	@ zero_extendqisi2
 1503 0282 022B     		cmp	r3, #2
 1504 0284 09D1     		bne	.L98
 1505              	.L106:
 741:Generated_Source\PSoC5/USBUART_std.c ****                             {
 742:Generated_Source\PSoC5/USBUART_std.c ****                                 cdcComNums = USBUART_Cdc_EpInit(pEP, i, cdcComNums);
 1506              		.loc 1 742 0 is_stmt 1
 1507 0286 97F82520 		ldrb	r2, [r7, #37]	@ zero_extendqisi2
 1508 028a FB7E     		ldrb	r3, [r7, #27]	@ zero_extendqisi2
 1509 028c F869     		ldr	r0, [r7, #28]
 1510 028e 1146     		mov	r1, r2
 1511 0290 1A46     		mov	r2, r3
 1512 0292 FFF7FEFF 		bl	USBUART_Cdc_EpInit
 1513 0296 0346     		mov	r3, r0
 1514 0298 FB76     		strb	r3, [r7, #27]
 1515              	.L98:
 743:Generated_Source\PSoC5/USBUART_std.c ****                             }
 744:Generated_Source\PSoC5/USBUART_std.c ****                         #endif  /* (USBUART_ENABLE_CDC_CLASS) */
 745:Generated_Source\PSoC5/USBUART_std.c **** 
 746:Generated_Source\PSoC5/USBUART_std.c ****                             #if (USBUART_EP_MANAGEMENT_DMA_AUTO)
 747:Generated_Source\PSoC5/USBUART_std.c ****                                 break;  /* Use first EP setting in Auto memory management */
 748:Generated_Source\PSoC5/USBUART_std.c ****                             #endif /* (USBUART_EP_MANAGEMENT_DMA_AUTO) */
 749:Generated_Source\PSoC5/USBUART_std.c ****                         }
 750:Generated_Source\PSoC5/USBUART_std.c ****                     }
ARM GAS  C:\Users\Greg\AppData\Local\Temp\cc66k9pW.s 			page 42


 751:Generated_Source\PSoC5/USBUART_std.c ****                     
 752:Generated_Source\PSoC5/USBUART_std.c ****                     pEP = &pEP[1u];
 1516              		.loc 1 752 0 discriminator 2
 1517 029a FB69     		ldr	r3, [r7, #28]
 1518 029c 0833     		adds	r3, r3, #8
 1519 029e FB61     		str	r3, [r7, #28]
 694:Generated_Source\PSoC5/USBUART_std.c ****                 {
 1520              		.loc 1 694 0 discriminator 2
 1521 02a0 97F82630 		ldrb	r3, [r7, #38]
 1522 02a4 0133     		adds	r3, r3, #1
 1523 02a6 87F82630 		strb	r3, [r7, #38]
 1524              	.L97:
 694:Generated_Source\PSoC5/USBUART_std.c ****                 {
 1525              		.loc 1 694 0 is_stmt 0 discriminator 1
 1526 02aa 97F82620 		ldrb	r2, [r7, #38]	@ zero_extendqisi2
 1527 02ae 97F82730 		ldrb	r3, [r7, #39]	@ zero_extendqisi2
 1528 02b2 9A42     		cmp	r2, r3
 1529 02b4 FFF458AF 		bcc	.L107
 687:Generated_Source\PSoC5/USBUART_std.c ****             {
 1530              		.loc 1 687 0 is_stmt 1 discriminator 2
 1531 02b8 97F82530 		ldrb	r3, [r7, #37]
 1532 02bc 0133     		adds	r3, r3, #1
 1533 02be 87F82530 		strb	r3, [r7, #37]
 1534              	.L96:
 687:Generated_Source\PSoC5/USBUART_std.c ****             {
 1535              		.loc 1 687 0 is_stmt 0 discriminator 1
 1536 02c2 97F82530 		ldrb	r3, [r7, #37]	@ zero_extendqisi2
 1537 02c6 082B     		cmp	r3, #8
 1538 02c8 7FF647AF 		bls	.L108
 753:Generated_Source\PSoC5/USBUART_std.c ****                 }
 754:Generated_Source\PSoC5/USBUART_std.c ****             }
 755:Generated_Source\PSoC5/USBUART_std.c ****         #endif /*  (USBUART_EP_MANAGEMENT_MANUAL && USBUART_EP_ALLOC_DYNAMIC) */
 756:Generated_Source\PSoC5/USBUART_std.c **** 
 757:Generated_Source\PSoC5/USBUART_std.c ****         /* Init class array for each interface and interface number for each EP.
 758:Generated_Source\PSoC5/USBUART_std.c ****         *  It is used for handling Class specific requests directed to either an
 759:Generated_Source\PSoC5/USBUART_std.c ****         *  interface or the endpoint.
 760:Generated_Source\PSoC5/USBUART_std.c ****         */
 761:Generated_Source\PSoC5/USBUART_std.c ****         /* p_list points the endpoint setting table. */
 762:Generated_Source\PSoC5/USBUART_std.c ****         pEP = (const T_USBUART_EP_SETTINGS_BLOCK CYCODE *) pTmp->p_list;
 1539              		.loc 1 762 0 is_stmt 1
 1540 02cc 7B69     		ldr	r3, [r7, #20]
 1541 02ce 5B68     		ldr	r3, [r3, #4]
 1542 02d0 FB61     		str	r3, [r7, #28]
 763:Generated_Source\PSoC5/USBUART_std.c ****         for (i = 0u; i < ep; i++)
 1543              		.loc 1 763 0
 1544 02d2 0023     		movs	r3, #0
 1545 02d4 87F82530 		strb	r3, [r7, #37]
 1546 02d8 16E0     		b	.L109
 1547              	.L110:
 764:Generated_Source\PSoC5/USBUART_std.c ****         {
 765:Generated_Source\PSoC5/USBUART_std.c ****             /* Configure interface number for each EP */
 766:Generated_Source\PSoC5/USBUART_std.c ****             USBUART_EP[pEP->addr & USBUART_DIR_UNUSED].interface = pEP->interface;
 1548              		.loc 1 766 0 discriminator 3
 1549 02da FB69     		ldr	r3, [r7, #28]
 1550 02dc 9B78     		ldrb	r3, [r3, #2]	@ zero_extendqisi2
 1551 02de 03F07F02 		and	r2, r3, #127
 1552 02e2 FB69     		ldr	r3, [r7, #28]
ARM GAS  C:\Users\Greg\AppData\Local\Temp\cc66k9pW.s 			page 43


 1553 02e4 1878     		ldrb	r0, [r3]	@ zero_extendqisi2
 1554 02e6 1149     		ldr	r1, .L113
 1555 02e8 1346     		mov	r3, r2
 1556 02ea 5B00     		lsls	r3, r3, #1
 1557 02ec 1344     		add	r3, r3, r2
 1558 02ee 9B00     		lsls	r3, r3, #2
 1559 02f0 0B44     		add	r3, r3, r1
 1560 02f2 0833     		adds	r3, r3, #8
 1561 02f4 0246     		mov	r2, r0
 1562 02f6 9A70     		strb	r2, [r3, #2]
 767:Generated_Source\PSoC5/USBUART_std.c ****             pEP = &pEP[1u];
 1563              		.loc 1 767 0 discriminator 3
 1564 02f8 FB69     		ldr	r3, [r7, #28]
 1565 02fa 0833     		adds	r3, r3, #8
 1566 02fc FB61     		str	r3, [r7, #28]
 763:Generated_Source\PSoC5/USBUART_std.c ****         for (i = 0u; i < ep; i++)
 1567              		.loc 1 763 0 discriminator 3
 1568 02fe 97F82530 		ldrb	r3, [r7, #37]	@ zero_extendqisi2
 1569 0302 0133     		adds	r3, r3, #1
 1570 0304 87F82530 		strb	r3, [r7, #37]
 1571              	.L109:
 763:Generated_Source\PSoC5/USBUART_std.c ****         for (i = 0u; i < ep; i++)
 1572              		.loc 1 763 0 is_stmt 0 discriminator 1
 1573 0308 97F82520 		ldrb	r2, [r7, #37]	@ zero_extendqisi2
 1574 030c 97F82730 		ldrb	r3, [r7, #39]	@ zero_extendqisi2
 1575 0310 9A42     		cmp	r2, r3
 1576 0312 E2D3     		bcc	.L110
 768:Generated_Source\PSoC5/USBUART_std.c ****         }
 769:Generated_Source\PSoC5/USBUART_std.c ****         
 770:Generated_Source\PSoC5/USBUART_std.c ****         /* Init pointer on interface class table */
 771:Generated_Source\PSoC5/USBUART_std.c ****         USBUART_interfaceClass = USBUART_GetInterfaceClassTablePtr();
 1577              		.loc 1 771 0 is_stmt 1
 1578 0314 FFF7FEFF 		bl	USBUART_GetInterfaceClassTablePtr
 1579 0318 0246     		mov	r2, r0
 1580 031a 094B     		ldr	r3, .L113+20
 1581 031c 1A60     		str	r2, [r3]
 772:Generated_Source\PSoC5/USBUART_std.c ****         
 773:Generated_Source\PSoC5/USBUART_std.c ****     /* Set the endpoint buffer addresses */
 774:Generated_Source\PSoC5/USBUART_std.c ****     #if (!USBUART_EP_MANAGEMENT_DMA_AUTO)
 775:Generated_Source\PSoC5/USBUART_std.c ****         buffCount = 0u;
 1582              		.loc 1 775 0
 1583 031e 0023     		movs	r3, #0
 1584 0320 7B84     		strh	r3, [r7, #34]	@ movhi
 776:Generated_Source\PSoC5/USBUART_std.c ****         for (ep = USBUART_EP1; ep < USBUART_MAX_EP; ++ep)
 1585              		.loc 1 776 0
 1586 0322 0123     		movs	r3, #1
 1587 0324 87F82730 		strb	r3, [r7, #39]
 1588 0328 29E0     		b	.L111
 1589              	.L114:
 1590 032a 00BF     		.align	2
 1591              	.L113:
 1592 032c 00000000 		.word	USBUART_EP
 1593 0330 00000000 		.word	USBUART_interfaceSetting
 1594 0334 00000000 		.word	USBUART_interfaceSettingLast
 1595 0338 00000000 		.word	USBUART_configuration
 1596 033c 00000000 		.word	USBUART_deviceStatus
 1597 0340 00000000 		.word	USBUART_interfaceClass
ARM GAS  C:\Users\Greg\AppData\Local\Temp\cc66k9pW.s 			page 44


 1598              	.L112:
 777:Generated_Source\PSoC5/USBUART_std.c ****         {
 778:Generated_Source\PSoC5/USBUART_std.c ****             USBUART_EP[ep].buffOffset = buffCount;        
 1599              		.loc 1 778 0 discriminator 3
 1600 0344 97F82720 		ldrb	r2, [r7, #39]	@ zero_extendqisi2
 1601 0348 1149     		ldr	r1, .L115
 1602 034a 1346     		mov	r3, r2
 1603 034c 5B00     		lsls	r3, r3, #1
 1604 034e 1344     		add	r3, r3, r2
 1605 0350 9B00     		lsls	r3, r3, #2
 1606 0352 0B44     		add	r3, r3, r1
 1607 0354 7A8C     		ldrh	r2, [r7, #34]	@ movhi
 1608 0356 DA80     		strh	r2, [r3, #6]	@ movhi
 779:Generated_Source\PSoC5/USBUART_std.c ****             buffCount += USBUART_EP[ep].bufferSize;
 1609              		.loc 1 779 0 discriminator 3
 1610 0358 97F82720 		ldrb	r2, [r7, #39]	@ zero_extendqisi2
 1611 035c 0C49     		ldr	r1, .L115
 1612 035e 1346     		mov	r3, r2
 1613 0360 5B00     		lsls	r3, r3, #1
 1614 0362 1344     		add	r3, r3, r2
 1615 0364 9B00     		lsls	r3, r3, #2
 1616 0366 0B44     		add	r3, r3, r1
 1617 0368 0833     		adds	r3, r3, #8
 1618 036a 1B88     		ldrh	r3, [r3]	@ movhi
 1619 036c 9AB2     		uxth	r2, r3
 1620 036e 7B8C     		ldrh	r3, [r7, #34]	@ movhi
 1621 0370 1344     		add	r3, r3, r2
 1622 0372 7B84     		strh	r3, [r7, #34]	@ movhi
 776:Generated_Source\PSoC5/USBUART_std.c ****         for (ep = USBUART_EP1; ep < USBUART_MAX_EP; ++ep)
 1623              		.loc 1 776 0 discriminator 3
 1624 0374 97F82730 		ldrb	r3, [r7, #39]
 1625 0378 0133     		adds	r3, r3, #1
 1626 037a 87F82730 		strb	r3, [r7, #39]
 1627              	.L111:
 776:Generated_Source\PSoC5/USBUART_std.c ****         for (ep = USBUART_EP1; ep < USBUART_MAX_EP; ++ep)
 1628              		.loc 1 776 0 is_stmt 0 discriminator 1
 1629 037e 97F82730 		ldrb	r3, [r7, #39]	@ zero_extendqisi2
 1630 0382 082B     		cmp	r3, #8
 1631 0384 DED9     		bls	.L112
 780:Generated_Source\PSoC5/USBUART_std.c ****             
 781:Generated_Source\PSoC5/USBUART_std.c ****         #if (USBUART_GEN_16BITS_EP_ACCESS)
 782:Generated_Source\PSoC5/USBUART_std.c ****             /* Align EP buffers to be event size to access 16-bits DR register. */
 783:Generated_Source\PSoC5/USBUART_std.c ****             buffCount += (0u != (buffCount & 0x01u)) ? 1u : 0u;
 784:Generated_Source\PSoC5/USBUART_std.c ****         #endif /* (USBUART_GEN_16BITS_EP_ACCESS) */            
 785:Generated_Source\PSoC5/USBUART_std.c ****         }
 786:Generated_Source\PSoC5/USBUART_std.c ****     #endif /* (!USBUART_EP_MANAGEMENT_DMA_AUTO) */
 787:Generated_Source\PSoC5/USBUART_std.c **** 
 788:Generated_Source\PSoC5/USBUART_std.c ****         /* Configure hardware registers */
 789:Generated_Source\PSoC5/USBUART_std.c ****         USBUART_ConfigReg();
 1632              		.loc 1 789 0 is_stmt 1
 1633 0386 FFF7FEFF 		bl	USBUART_ConfigReg
 1634              	.L87:
 1635              	.LBE2:
 790:Generated_Source\PSoC5/USBUART_std.c ****     }
 791:Generated_Source\PSoC5/USBUART_std.c **** }
 1636              		.loc 1 791 0
 1637 038a 2837     		adds	r7, r7, #40
ARM GAS  C:\Users\Greg\AppData\Local\Temp\cc66k9pW.s 			page 45


 1638              		.cfi_def_cfa_offset 8
 1639 038c BD46     		mov	sp, r7
 1640              		.cfi_def_cfa_register 13
 1641              		@ sp needed
 1642 038e 80BD     		pop	{r7, pc}
 1643              	.L116:
 1644              		.align	2
 1645              	.L115:
 1646 0390 00000000 		.word	USBUART_EP
 1647              		.cfi_endproc
 1648              	.LFE4:
 1649              		.size	USBUART_Config, .-USBUART_Config
 1650              		.section	.text.USBUART_ConfigAltChanged,"ax",%progbits
 1651              		.align	2
 1652              		.global	USBUART_ConfigAltChanged
 1653              		.thumb
 1654              		.thumb_func
 1655              		.type	USBUART_ConfigAltChanged, %function
 1656              	USBUART_ConfigAltChanged:
 1657              	.LFB5:
 792:Generated_Source\PSoC5/USBUART_std.c **** 
 793:Generated_Source\PSoC5/USBUART_std.c **** 
 794:Generated_Source\PSoC5/USBUART_std.c **** /*******************************************************************************
 795:Generated_Source\PSoC5/USBUART_std.c **** * Function Name: USBUART_ConfigAltChanged
 796:Generated_Source\PSoC5/USBUART_std.c **** ****************************************************************************//**
 797:Generated_Source\PSoC5/USBUART_std.c **** *
 798:Generated_Source\PSoC5/USBUART_std.c **** *  This routine update configuration for the required endpoints only.
 799:Generated_Source\PSoC5/USBUART_std.c **** *  It is called after SET_INTERFACE request when Static memory allocation used.
 800:Generated_Source\PSoC5/USBUART_std.c **** *
 801:Generated_Source\PSoC5/USBUART_std.c **** * \reentrant
 802:Generated_Source\PSoC5/USBUART_std.c **** *  No.
 803:Generated_Source\PSoC5/USBUART_std.c **** *
 804:Generated_Source\PSoC5/USBUART_std.c **** *******************************************************************************/
 805:Generated_Source\PSoC5/USBUART_std.c **** void USBUART_ConfigAltChanged(void) 
 806:Generated_Source\PSoC5/USBUART_std.c **** {
 1658              		.loc 1 806 0
 1659              		.cfi_startproc
 1660              		@ args = 0, pretend = 0, frame = 16
 1661              		@ frame_needed = 1, uses_anonymous_args = 0
 1662 0000 90B5     		push	{r4, r7, lr}
 1663              		.cfi_def_cfa_offset 12
 1664              		.cfi_offset 4, -12
 1665              		.cfi_offset 7, -8
 1666              		.cfi_offset 14, -4
 1667 0002 85B0     		sub	sp, sp, #20
 1668              		.cfi_def_cfa_offset 32
 1669 0004 00AF     		add	r7, sp, #0
 1670              		.cfi_def_cfa_register 7
 807:Generated_Source\PSoC5/USBUART_std.c ****     uint8 ep;
 808:Generated_Source\PSoC5/USBUART_std.c ****     uint8 curEp;
 809:Generated_Source\PSoC5/USBUART_std.c ****     uint8 epType;
 810:Generated_Source\PSoC5/USBUART_std.c ****     uint8 i;
 811:Generated_Source\PSoC5/USBUART_std.c ****     uint8 interfaceNum;
 812:Generated_Source\PSoC5/USBUART_std.c **** 
 813:Generated_Source\PSoC5/USBUART_std.c ****     const T_USBUART_LUT CYCODE *pTmp;
 814:Generated_Source\PSoC5/USBUART_std.c ****     const T_USBUART_EP_SETTINGS_BLOCK CYCODE *pEP;
 815:Generated_Source\PSoC5/USBUART_std.c **** 
ARM GAS  C:\Users\Greg\AppData\Local\Temp\cc66k9pW.s 			page 46


 816:Generated_Source\PSoC5/USBUART_std.c ****     /* Init Endpoints and Device Status if configured */
 817:Generated_Source\PSoC5/USBUART_std.c ****     if (USBUART_configuration > 0u)
 1671              		.loc 1 817 0
 1672 0006 874B     		ldr	r3, .L128
 1673 0008 1B78     		ldrb	r3, [r3]
 1674 000a DBB2     		uxtb	r3, r3
 1675 000c 002B     		cmp	r3, #0
 1676 000e 00F00681 		beq	.L117
 818:Generated_Source\PSoC5/USBUART_std.c ****     {
 819:Generated_Source\PSoC5/USBUART_std.c ****         /* Get number of endpoints configurations (ep). */
 820:Generated_Source\PSoC5/USBUART_std.c ****         pTmp = USBUART_GetConfigTablePtr(USBUART_configuration - 1u);
 1677              		.loc 1 820 0
 1678 0012 844B     		ldr	r3, .L128
 1679 0014 1B78     		ldrb	r3, [r3]
 1680 0016 DBB2     		uxtb	r3, r3
 1681 0018 013B     		subs	r3, r3, #1
 1682 001a DBB2     		uxtb	r3, r3
 1683 001c 1846     		mov	r0, r3
 1684 001e FFF7FEFF 		bl	USBUART_GetConfigTablePtr
 1685 0022 7860     		str	r0, [r7, #4]
 821:Generated_Source\PSoC5/USBUART_std.c ****         pTmp = &pTmp[1u];
 1686              		.loc 1 821 0
 1687 0024 7B68     		ldr	r3, [r7, #4]
 1688 0026 0833     		adds	r3, r3, #8
 1689 0028 7B60     		str	r3, [r7, #4]
 822:Generated_Source\PSoC5/USBUART_std.c ****         ep = pTmp->c;
 1690              		.loc 1 822 0
 1691 002a 7B68     		ldr	r3, [r7, #4]
 1692 002c 1B78     		ldrb	r3, [r3]
 1693 002e FB70     		strb	r3, [r7, #3]
 823:Generated_Source\PSoC5/USBUART_std.c **** 
 824:Generated_Source\PSoC5/USBUART_std.c ****         /* Get pointer to endpoints setting table (pEP). */
 825:Generated_Source\PSoC5/USBUART_std.c ****         pEP = (const T_USBUART_EP_SETTINGS_BLOCK CYCODE *) pTmp->p_list;
 1694              		.loc 1 825 0
 1695 0030 7B68     		ldr	r3, [r7, #4]
 1696 0032 5B68     		ldr	r3, [r3, #4]
 1697 0034 BB60     		str	r3, [r7, #8]
 826:Generated_Source\PSoC5/USBUART_std.c ****         
 827:Generated_Source\PSoC5/USBUART_std.c ****         /* Look through all possible endpoint configurations. Find endpoints 
 828:Generated_Source\PSoC5/USBUART_std.c ****         * which belong to current interface and alternate settings for 
 829:Generated_Source\PSoC5/USBUART_std.c ****         * re-configuration.
 830:Generated_Source\PSoC5/USBUART_std.c ****         */
 831:Generated_Source\PSoC5/USBUART_std.c ****         interfaceNum = USBUART_interfaceNumber;
 1698              		.loc 1 831 0
 1699 0036 7C4B     		ldr	r3, .L128+4
 1700 0038 1B78     		ldrb	r3, [r3]
 1701 003a BB70     		strb	r3, [r7, #2]
 832:Generated_Source\PSoC5/USBUART_std.c ****         for (i = 0u; i < ep; i++)
 1702              		.loc 1 832 0
 1703 003c 0023     		movs	r3, #0
 1704 003e FB73     		strb	r3, [r7, #15]
 1705 0040 E8E0     		b	.L119
 1706              	.L127:
 833:Generated_Source\PSoC5/USBUART_std.c ****         {
 834:Generated_Source\PSoC5/USBUART_std.c ****             /* Find endpoints which belong to current interface and alternate settings. */
 835:Generated_Source\PSoC5/USBUART_std.c ****             if ((interfaceNum == pEP->interface) && 
 1707              		.loc 1 835 0
ARM GAS  C:\Users\Greg\AppData\Local\Temp\cc66k9pW.s 			page 47


 1708 0042 BB68     		ldr	r3, [r7, #8]
 1709 0044 1B78     		ldrb	r3, [r3]	@ zero_extendqisi2
 1710 0046 BA78     		ldrb	r2, [r7, #2]	@ zero_extendqisi2
 1711 0048 9A42     		cmp	r2, r3
 1712 004a 40F0DD80 		bne	.L120
 836:Generated_Source\PSoC5/USBUART_std.c ****                 (USBUART_interfaceSetting[interfaceNum] == pEP->altSetting))
 1713              		.loc 1 836 0 discriminator 1
 1714 004e BB78     		ldrb	r3, [r7, #2]	@ zero_extendqisi2
 1715 0050 764A     		ldr	r2, .L128+8
 1716 0052 D35C     		ldrb	r3, [r2, r3]
 1717 0054 DAB2     		uxtb	r2, r3
 1718 0056 BB68     		ldr	r3, [r7, #8]
 1719 0058 5B78     		ldrb	r3, [r3, #1]	@ zero_extendqisi2
 835:Generated_Source\PSoC5/USBUART_std.c ****                 (USBUART_interfaceSetting[interfaceNum] == pEP->altSetting))
 1720              		.loc 1 835 0 discriminator 1
 1721 005a 9A42     		cmp	r2, r3
 1722 005c 40F0D480 		bne	.L120
 837:Generated_Source\PSoC5/USBUART_std.c ****             {
 838:Generated_Source\PSoC5/USBUART_std.c ****                 curEp  = ((uint8) pEP->addr & USBUART_DIR_UNUSED);
 1723              		.loc 1 838 0
 1724 0060 BB68     		ldr	r3, [r7, #8]
 1725 0062 9B78     		ldrb	r3, [r3, #2]	@ zero_extendqisi2
 1726 0064 03F07F03 		and	r3, r3, #127
 1727 0068 7B70     		strb	r3, [r7, #1]
 839:Generated_Source\PSoC5/USBUART_std.c ****                 epType = ((uint8) pEP->attributes & USBUART_EP_TYPE_MASK);
 1728              		.loc 1 839 0
 1729 006a BB68     		ldr	r3, [r7, #8]
 1730 006c DB78     		ldrb	r3, [r3, #3]	@ zero_extendqisi2
 1731 006e 03F00303 		and	r3, r3, #3
 1732 0072 3B70     		strb	r3, [r7]
 840:Generated_Source\PSoC5/USBUART_std.c ****                 
 841:Generated_Source\PSoC5/USBUART_std.c ****                 /* Change the SIE mode for the selected EP to NAK ALL */
 842:Generated_Source\PSoC5/USBUART_std.c ****                 USBUART_EP[curEp].epToggle   = 0u;
 1733              		.loc 1 842 0
 1734 0074 7A78     		ldrb	r2, [r7, #1]	@ zero_extendqisi2
 1735 0076 6E49     		ldr	r1, .L128+12
 1736 0078 1346     		mov	r3, r2
 1737 007a 5B00     		lsls	r3, r3, #1
 1738 007c 1344     		add	r3, r3, r2
 1739 007e 9B00     		lsls	r3, r3, #2
 1740 0080 0B44     		add	r3, r3, r1
 1741 0082 0022     		movs	r2, #0
 1742 0084 DA70     		strb	r2, [r3, #3]
 843:Generated_Source\PSoC5/USBUART_std.c ****                 USBUART_EP[curEp].addr       = pEP->addr;
 1743              		.loc 1 843 0
 1744 0086 7A78     		ldrb	r2, [r7, #1]	@ zero_extendqisi2
 1745 0088 BB68     		ldr	r3, [r7, #8]
 1746 008a 9878     		ldrb	r0, [r3, #2]	@ zero_extendqisi2
 1747 008c 6849     		ldr	r1, .L128+12
 1748 008e 1346     		mov	r3, r2
 1749 0090 5B00     		lsls	r3, r3, #1
 1750 0092 1344     		add	r3, r3, r2
 1751 0094 9B00     		lsls	r3, r3, #2
 1752 0096 0B44     		add	r3, r3, r1
 1753 0098 0246     		mov	r2, r0
 1754 009a 1A71     		strb	r2, [r3, #4]
 844:Generated_Source\PSoC5/USBUART_std.c ****                 USBUART_EP[curEp].attrib     = pEP->attributes;
ARM GAS  C:\Users\Greg\AppData\Local\Temp\cc66k9pW.s 			page 48


 1755              		.loc 1 844 0
 1756 009c 7A78     		ldrb	r2, [r7, #1]	@ zero_extendqisi2
 1757 009e BB68     		ldr	r3, [r7, #8]
 1758 00a0 D878     		ldrb	r0, [r3, #3]	@ zero_extendqisi2
 1759 00a2 6349     		ldr	r1, .L128+12
 1760 00a4 1346     		mov	r3, r2
 1761 00a6 5B00     		lsls	r3, r3, #1
 1762 00a8 1344     		add	r3, r3, r2
 1763 00aa 9B00     		lsls	r3, r3, #2
 1764 00ac 0B44     		add	r3, r3, r1
 1765 00ae 0246     		mov	r2, r0
 1766 00b0 1A70     		strb	r2, [r3]
 845:Generated_Source\PSoC5/USBUART_std.c ****                 USBUART_EP[curEp].bufferSize = pEP->bufferSize;
 1767              		.loc 1 845 0
 1768 00b2 7A78     		ldrb	r2, [r7, #1]	@ zero_extendqisi2
 1769 00b4 BB68     		ldr	r3, [r7, #8]
 1770 00b6 9888     		ldrh	r0, [r3, #4]
 1771 00b8 5D49     		ldr	r1, .L128+12
 1772 00ba 1346     		mov	r3, r2
 1773 00bc 5B00     		lsls	r3, r3, #1
 1774 00be 1344     		add	r3, r3, r2
 1775 00c0 9B00     		lsls	r3, r3, #2
 1776 00c2 0B44     		add	r3, r3, r1
 1777 00c4 0833     		adds	r3, r3, #8
 1778 00c6 0246     		mov	r2, r0	@ movhi
 1779 00c8 1A80     		strh	r2, [r3]	@ movhi
 846:Generated_Source\PSoC5/USBUART_std.c **** 
 847:Generated_Source\PSoC5/USBUART_std.c ****                 if (0u != (pEP->addr & USBUART_DIR_IN))
 1780              		.loc 1 847 0
 1781 00ca BB68     		ldr	r3, [r7, #8]
 1782 00cc 9B78     		ldrb	r3, [r3, #2]	@ zero_extendqisi2
 1783 00ce DBB2     		uxtb	r3, r3
 1784 00d0 5BB2     		sxtb	r3, r3
 1785 00d2 002B     		cmp	r3, #0
 1786 00d4 18DA     		bge	.L121
 848:Generated_Source\PSoC5/USBUART_std.c ****                 {
 849:Generated_Source\PSoC5/USBUART_std.c ****                     /* IN Endpoint */
 850:Generated_Source\PSoC5/USBUART_std.c ****                     USBUART_EP[curEp].epMode     = USBUART_GET_ACTIVE_IN_EP_CR0_MODE(epType);
 1787              		.loc 1 850 0
 1788 00d6 7A78     		ldrb	r2, [r7, #1]	@ zero_extendqisi2
 1789 00d8 3B78     		ldrb	r3, [r7]	@ zero_extendqisi2
 1790 00da 012B     		cmp	r3, #1
 1791 00dc 01D1     		bne	.L122
 1792              		.loc 1 850 0 is_stmt 0 discriminator 1
 1793 00de 0720     		movs	r0, #7
 1794 00e0 00E0     		b	.L123
 1795              	.L122:
 1796              		.loc 1 850 0 discriminator 2
 1797 00e2 0D20     		movs	r0, #13
 1798              	.L123:
 1799              		.loc 1 850 0 discriminator 4
 1800 00e4 5249     		ldr	r1, .L128+12
 1801 00e6 1346     		mov	r3, r2
 1802 00e8 5B00     		lsls	r3, r3, #1
 1803 00ea 1344     		add	r3, r3, r2
 1804 00ec 9B00     		lsls	r3, r3, #2
 1805 00ee 0B44     		add	r3, r3, r1
ARM GAS  C:\Users\Greg\AppData\Local\Temp\cc66k9pW.s 			page 49


 1806 00f0 0246     		mov	r2, r0
 1807 00f2 5A71     		strb	r2, [r3, #5]
 851:Generated_Source\PSoC5/USBUART_std.c ****                     USBUART_EP[curEp].apiEpState = USBUART_EVENT_PENDING;
 1808              		.loc 1 851 0 is_stmt 1 discriminator 4
 1809 00f4 7A78     		ldrb	r2, [r7, #1]	@ zero_extendqisi2
 1810 00f6 4E49     		ldr	r1, .L128+12
 1811 00f8 1346     		mov	r3, r2
 1812 00fa 5B00     		lsls	r3, r3, #1
 1813 00fc 1344     		add	r3, r3, r2
 1814 00fe 9B00     		lsls	r3, r3, #2
 1815 0100 0B44     		add	r3, r3, r1
 1816 0102 0122     		movs	r2, #1
 1817 0104 5A70     		strb	r2, [r3, #1]
 1818 0106 17E0     		b	.L124
 1819              	.L121:
 852:Generated_Source\PSoC5/USBUART_std.c ****                 }
 853:Generated_Source\PSoC5/USBUART_std.c ****                 else
 854:Generated_Source\PSoC5/USBUART_std.c ****                 {
 855:Generated_Source\PSoC5/USBUART_std.c ****                     /* OUT Endpoint */
 856:Generated_Source\PSoC5/USBUART_std.c ****                     USBUART_EP[curEp].epMode     = USBUART_GET_ACTIVE_OUT_EP_CR0_MODE(epType);
 1820              		.loc 1 856 0
 1821 0108 7A78     		ldrb	r2, [r7, #1]	@ zero_extendqisi2
 1822 010a 3B78     		ldrb	r3, [r7]	@ zero_extendqisi2
 1823 010c 012B     		cmp	r3, #1
 1824 010e 01D1     		bne	.L125
 1825              		.loc 1 856 0 is_stmt 0 discriminator 1
 1826 0110 0520     		movs	r0, #5
 1827 0112 00E0     		b	.L126
 1828              	.L125:
 1829              		.loc 1 856 0 discriminator 2
 1830 0114 0920     		movs	r0, #9
 1831              	.L126:
 1832              		.loc 1 856 0 discriminator 4
 1833 0116 4649     		ldr	r1, .L128+12
 1834 0118 1346     		mov	r3, r2
 1835 011a 5B00     		lsls	r3, r3, #1
 1836 011c 1344     		add	r3, r3, r2
 1837 011e 9B00     		lsls	r3, r3, #2
 1838 0120 0B44     		add	r3, r3, r1
 1839 0122 0246     		mov	r2, r0
 1840 0124 5A71     		strb	r2, [r3, #5]
 857:Generated_Source\PSoC5/USBUART_std.c ****                     USBUART_EP[curEp].apiEpState = USBUART_NO_EVENT_PENDING;
 1841              		.loc 1 857 0 is_stmt 1 discriminator 4
 1842 0126 7A78     		ldrb	r2, [r7, #1]	@ zero_extendqisi2
 1843 0128 4149     		ldr	r1, .L128+12
 1844 012a 1346     		mov	r3, r2
 1845 012c 5B00     		lsls	r3, r3, #1
 1846 012e 1344     		add	r3, r3, r2
 1847 0130 9B00     		lsls	r3, r3, #2
 1848 0132 0B44     		add	r3, r3, r1
 1849 0134 0022     		movs	r2, #0
 1850 0136 5A70     		strb	r2, [r3, #1]
 1851              	.L124:
 858:Generated_Source\PSoC5/USBUART_std.c ****                 }
 859:Generated_Source\PSoC5/USBUART_std.c ****                 
 860:Generated_Source\PSoC5/USBUART_std.c ****                 /* Make SIE to NAK any endpoint requests */
 861:Generated_Source\PSoC5/USBUART_std.c ****                 USBUART_SIE_EP_BASE.sieEp[curEp].epCr0 = USBUART_MODE_NAK_IN_OUT;
ARM GAS  C:\Users\Greg\AppData\Local\Temp\cc66k9pW.s 			page 50


 1852              		.loc 1 861 0
 1853 0138 3E4A     		ldr	r2, .L128+16
 1854 013a 7B78     		ldrb	r3, [r7, #1]	@ zero_extendqisi2
 1855 013c 1B01     		lsls	r3, r3, #4
 1856 013e 1344     		add	r3, r3, r2
 1857 0140 0122     		movs	r2, #1
 1858 0142 9A70     		strb	r2, [r3, #2]
 862:Generated_Source\PSoC5/USBUART_std.c **** 
 863:Generated_Source\PSoC5/USBUART_std.c ****             #if (USBUART_EP_MANAGEMENT_DMA_AUTO)
 864:Generated_Source\PSoC5/USBUART_std.c ****                 /* Clear IN data ready. */
 865:Generated_Source\PSoC5/USBUART_std.c ****                 USBUART_ARB_EP_BASE.arbEp[curEp].epCfg &= (uint8) ~USBUART_ARB_EPX_CFG_IN_DATA_RDY;
 866:Generated_Source\PSoC5/USBUART_std.c **** 
 867:Generated_Source\PSoC5/USBUART_std.c ****                 /* Select endpoint number of reconfiguration */
 868:Generated_Source\PSoC5/USBUART_std.c ****                 USBUART_DYN_RECONFIG_REG = (uint8) ((curEp - 1u) << USBUART_DYN_RECONFIG_EP_SHIFT);
 869:Generated_Source\PSoC5/USBUART_std.c ****                 
 870:Generated_Source\PSoC5/USBUART_std.c ****                 /* Request for dynamic re-configuration of endpoint. */
 871:Generated_Source\PSoC5/USBUART_std.c ****                 USBUART_DYN_RECONFIG_REG |= USBUART_DYN_RECONFIG_ENABLE;
 872:Generated_Source\PSoC5/USBUART_std.c ****                 
 873:Generated_Source\PSoC5/USBUART_std.c ****                 /* Wait until block is ready for re-configuration */
 874:Generated_Source\PSoC5/USBUART_std.c ****                 while (0u == (USBUART_DYN_RECONFIG_REG & USBUART_DYN_RECONFIG_RDY_STS))
 875:Generated_Source\PSoC5/USBUART_std.c ****                 {
 876:Generated_Source\PSoC5/USBUART_std.c ****                 }
 877:Generated_Source\PSoC5/USBUART_std.c ****                 
 878:Generated_Source\PSoC5/USBUART_std.c ****                 /* Once DYN_RECONFIG_RDY_STS bit is set, FW can change the EP configuration. */
 879:Generated_Source\PSoC5/USBUART_std.c ****                 /* Change EP Type with new direction */
 880:Generated_Source\PSoC5/USBUART_std.c ****                 if (0u != (pEP->addr & USBUART_DIR_IN))
 881:Generated_Source\PSoC5/USBUART_std.c ****                 {
 882:Generated_Source\PSoC5/USBUART_std.c ****                     /* Set endpoint type: 0 - IN and 1 - OUT. */
 883:Generated_Source\PSoC5/USBUART_std.c ****                     USBUART_EP_TYPE_REG &= (uint8) ~(uint8)((uint8) 0x01u << (curEp - 1u));
 884:Generated_Source\PSoC5/USBUART_std.c ****                     
 885:Generated_Source\PSoC5/USBUART_std.c ****                 #if (CY_PSOC4)
 886:Generated_Source\PSoC5/USBUART_std.c ****                     /* Clear DMA_TERMIN for IN endpoint */
 887:Generated_Source\PSoC5/USBUART_std.c ****                     USBUART_ARB_EP_BASE.arbEp[curEp].epIntEn &= (uint32) ~USBUART_ARB_EPX_INT_DMA_T
 888:Generated_Source\PSoC5/USBUART_std.c ****                 #endif /* (CY_PSOC4) */
 889:Generated_Source\PSoC5/USBUART_std.c ****                 }
 890:Generated_Source\PSoC5/USBUART_std.c ****                 else
 891:Generated_Source\PSoC5/USBUART_std.c ****                 {
 892:Generated_Source\PSoC5/USBUART_std.c ****                     /* Set endpoint type: 0 - IN and 1- OUT. */
 893:Generated_Source\PSoC5/USBUART_std.c ****                     USBUART_EP_TYPE_REG |= (uint8) ((uint8) 0x01u << (curEp - 1u));
 894:Generated_Source\PSoC5/USBUART_std.c ****                     
 895:Generated_Source\PSoC5/USBUART_std.c ****                 #if (CY_PSOC4)
 896:Generated_Source\PSoC5/USBUART_std.c ****                     /* Set DMA_TERMIN for OUT endpoint */
 897:Generated_Source\PSoC5/USBUART_std.c ****                     USBUART_ARB_EP_BASE.arbEp[curEp].epIntEn |= (uint32) USBUART_ARB_EPX_INT_DMA_TE
 898:Generated_Source\PSoC5/USBUART_std.c ****                 #endif /* (CY_PSOC4) */
 899:Generated_Source\PSoC5/USBUART_std.c ****                 }
 900:Generated_Source\PSoC5/USBUART_std.c ****                 
 901:Generated_Source\PSoC5/USBUART_std.c ****                 /* Complete dynamic re-configuration: all endpoint related status and signals 
 902:Generated_Source\PSoC5/USBUART_std.c ****                 * are set into the default state.
 903:Generated_Source\PSoC5/USBUART_std.c ****                 */
 904:Generated_Source\PSoC5/USBUART_std.c ****                 USBUART_DYN_RECONFIG_REG &= (uint8) ~USBUART_DYN_RECONFIG_ENABLE;
 905:Generated_Source\PSoC5/USBUART_std.c **** 
 906:Generated_Source\PSoC5/USBUART_std.c ****             #else
 907:Generated_Source\PSoC5/USBUART_std.c ****                 USBUART_SIE_EP_BASE.sieEp[curEp].epCnt0 = HI8(USBUART_EP[curEp].bufferSize);
 1859              		.loc 1 907 0
 1860 0144 3B48     		ldr	r0, .L128+16
 1861 0146 7978     		ldrb	r1, [r7, #1]	@ zero_extendqisi2
 1862 0148 7A78     		ldrb	r2, [r7, #1]	@ zero_extendqisi2
ARM GAS  C:\Users\Greg\AppData\Local\Temp\cc66k9pW.s 			page 51


 1863 014a 394C     		ldr	r4, .L128+12
 1864 014c 1346     		mov	r3, r2
 1865 014e 5B00     		lsls	r3, r3, #1
 1866 0150 1344     		add	r3, r3, r2
 1867 0152 9B00     		lsls	r3, r3, #2
 1868 0154 2344     		add	r3, r3, r4
 1869 0156 0833     		adds	r3, r3, #8
 1870 0158 1B88     		ldrh	r3, [r3]	@ movhi
 1871 015a 9BB2     		uxth	r3, r3
 1872 015c 1B0A     		lsrs	r3, r3, #8
 1873 015e 9BB2     		uxth	r3, r3
 1874 0160 DAB2     		uxtb	r2, r3
 1875 0162 0B01     		lsls	r3, r1, #4
 1876 0164 0344     		add	r3, r3, r0
 1877 0166 1A70     		strb	r2, [r3]
 908:Generated_Source\PSoC5/USBUART_std.c ****                 USBUART_SIE_EP_BASE.sieEp[curEp].epCnt1 = LO8(USBUART_EP[curEp].bufferSize);
 1878              		.loc 1 908 0
 1879 0168 3248     		ldr	r0, .L128+16
 1880 016a 7978     		ldrb	r1, [r7, #1]	@ zero_extendqisi2
 1881 016c 7A78     		ldrb	r2, [r7, #1]	@ zero_extendqisi2
 1882 016e 304C     		ldr	r4, .L128+12
 1883 0170 1346     		mov	r3, r2
 1884 0172 5B00     		lsls	r3, r3, #1
 1885 0174 1344     		add	r3, r3, r2
 1886 0176 9B00     		lsls	r3, r3, #2
 1887 0178 2344     		add	r3, r3, r4
 1888 017a 0833     		adds	r3, r3, #8
 1889 017c 1B88     		ldrh	r3, [r3]	@ movhi
 1890 017e 9BB2     		uxth	r3, r3
 1891 0180 DAB2     		uxtb	r2, r3
 1892 0182 0B01     		lsls	r3, r1, #4
 1893 0184 0344     		add	r3, r3, r0
 1894 0186 5A70     		strb	r2, [r3, #1]
 909:Generated_Source\PSoC5/USBUART_std.c ****                 
 910:Generated_Source\PSoC5/USBUART_std.c ****                 #if (CY_PSOC4)
 911:Generated_Source\PSoC5/USBUART_std.c ****                     USBUART_ARB_EP16_BASE.arbEp[curEp].rwRa16  = (uint32) USBUART_EP[curEp].buffOff
 912:Generated_Source\PSoC5/USBUART_std.c ****                     USBUART_ARB_EP16_BASE.arbEp[curEp].rwWa16  = (uint32) USBUART_EP[curEp].buffOff
 913:Generated_Source\PSoC5/USBUART_std.c ****                 #else
 914:Generated_Source\PSoC5/USBUART_std.c ****                     USBUART_ARB_EP_BASE.arbEp[curEp].rwRa    = LO8(USBUART_EP[curEp].buffOffset);
 1895              		.loc 1 914 0
 1896 0188 2B48     		ldr	r0, .L128+20
 1897 018a 7978     		ldrb	r1, [r7, #1]	@ zero_extendqisi2
 1898 018c 7A78     		ldrb	r2, [r7, #1]	@ zero_extendqisi2
 1899 018e 284C     		ldr	r4, .L128+12
 1900 0190 1346     		mov	r3, r2
 1901 0192 5B00     		lsls	r3, r3, #1
 1902 0194 1344     		add	r3, r3, r2
 1903 0196 9B00     		lsls	r3, r3, #2
 1904 0198 2344     		add	r3, r3, r4
 1905 019a DB88     		ldrh	r3, [r3, #6]	@ movhi
 1906 019c 9BB2     		uxth	r3, r3
 1907 019e DAB2     		uxtb	r2, r3
 1908 01a0 0B01     		lsls	r3, r1, #4
 1909 01a2 0344     		add	r3, r3, r0
 1910 01a4 9A71     		strb	r2, [r3, #6]
 915:Generated_Source\PSoC5/USBUART_std.c ****                     USBUART_ARB_EP_BASE.arbEp[curEp].rwRaMsb = HI8(USBUART_EP[curEp].buffOffset);
 1911              		.loc 1 915 0
ARM GAS  C:\Users\Greg\AppData\Local\Temp\cc66k9pW.s 			page 52


 1912 01a6 2448     		ldr	r0, .L128+20
 1913 01a8 7978     		ldrb	r1, [r7, #1]	@ zero_extendqisi2
 1914 01aa 7A78     		ldrb	r2, [r7, #1]	@ zero_extendqisi2
 1915 01ac 204C     		ldr	r4, .L128+12
 1916 01ae 1346     		mov	r3, r2
 1917 01b0 5B00     		lsls	r3, r3, #1
 1918 01b2 1344     		add	r3, r3, r2
 1919 01b4 9B00     		lsls	r3, r3, #2
 1920 01b6 2344     		add	r3, r3, r4
 1921 01b8 DB88     		ldrh	r3, [r3, #6]	@ movhi
 1922 01ba 9BB2     		uxth	r3, r3
 1923 01bc 1B0A     		lsrs	r3, r3, #8
 1924 01be 9BB2     		uxth	r3, r3
 1925 01c0 DAB2     		uxtb	r2, r3
 1926 01c2 0B01     		lsls	r3, r1, #4
 1927 01c4 0344     		add	r3, r3, r0
 1928 01c6 DA71     		strb	r2, [r3, #7]
 916:Generated_Source\PSoC5/USBUART_std.c ****                     USBUART_ARB_EP_BASE.arbEp[curEp].rwWa    = LO8(USBUART_EP[curEp].buffOffset);
 1929              		.loc 1 916 0
 1930 01c8 1B48     		ldr	r0, .L128+20
 1931 01ca 7978     		ldrb	r1, [r7, #1]	@ zero_extendqisi2
 1932 01cc 7A78     		ldrb	r2, [r7, #1]	@ zero_extendqisi2
 1933 01ce 184C     		ldr	r4, .L128+12
 1934 01d0 1346     		mov	r3, r2
 1935 01d2 5B00     		lsls	r3, r3, #1
 1936 01d4 1344     		add	r3, r3, r2
 1937 01d6 9B00     		lsls	r3, r3, #2
 1938 01d8 2344     		add	r3, r3, r4
 1939 01da DB88     		ldrh	r3, [r3, #6]	@ movhi
 1940 01dc 9BB2     		uxth	r3, r3
 1941 01de DAB2     		uxtb	r2, r3
 1942 01e0 0B01     		lsls	r3, r1, #4
 1943 01e2 0344     		add	r3, r3, r0
 1944 01e4 1A71     		strb	r2, [r3, #4]
 917:Generated_Source\PSoC5/USBUART_std.c ****                     USBUART_ARB_EP_BASE.arbEp[curEp].rwWaMsb = HI8(USBUART_EP[curEp].buffOffset);
 1945              		.loc 1 917 0
 1946 01e6 1448     		ldr	r0, .L128+20
 1947 01e8 7978     		ldrb	r1, [r7, #1]	@ zero_extendqisi2
 1948 01ea 7A78     		ldrb	r2, [r7, #1]	@ zero_extendqisi2
 1949 01ec 104C     		ldr	r4, .L128+12
 1950 01ee 1346     		mov	r3, r2
 1951 01f0 5B00     		lsls	r3, r3, #1
 1952 01f2 1344     		add	r3, r3, r2
 1953 01f4 9B00     		lsls	r3, r3, #2
 1954 01f6 2344     		add	r3, r3, r4
 1955 01f8 DB88     		ldrh	r3, [r3, #6]	@ movhi
 1956 01fa 9BB2     		uxth	r3, r3
 1957 01fc 1B0A     		lsrs	r3, r3, #8
 1958 01fe 9BB2     		uxth	r3, r3
 1959 0200 DAB2     		uxtb	r2, r3
 1960 0202 0B01     		lsls	r3, r1, #4
 1961 0204 0344     		add	r3, r3, r0
 1962 0206 5A71     		strb	r2, [r3, #5]
 1963              	.L120:
 918:Generated_Source\PSoC5/USBUART_std.c ****                 #endif /* (CY_PSOC4) */                
 919:Generated_Source\PSoC5/USBUART_std.c ****             #endif /* (USBUART_EP_MANAGEMENT_DMA_AUTO) */
 920:Generated_Source\PSoC5/USBUART_std.c ****             }
ARM GAS  C:\Users\Greg\AppData\Local\Temp\cc66k9pW.s 			page 53


 921:Generated_Source\PSoC5/USBUART_std.c ****             
 922:Generated_Source\PSoC5/USBUART_std.c ****             pEP = &pEP[1u]; /* Get next EP element */
 1964              		.loc 1 922 0 discriminator 2
 1965 0208 BB68     		ldr	r3, [r7, #8]
 1966 020a 0833     		adds	r3, r3, #8
 1967 020c BB60     		str	r3, [r7, #8]
 832:Generated_Source\PSoC5/USBUART_std.c ****         {
 1968              		.loc 1 832 0 discriminator 2
 1969 020e FB7B     		ldrb	r3, [r7, #15]	@ zero_extendqisi2
 1970 0210 0133     		adds	r3, r3, #1
 1971 0212 FB73     		strb	r3, [r7, #15]
 1972              	.L119:
 832:Generated_Source\PSoC5/USBUART_std.c ****         {
 1973              		.loc 1 832 0 is_stmt 0 discriminator 1
 1974 0214 FA7B     		ldrb	r2, [r7, #15]	@ zero_extendqisi2
 1975 0216 FB78     		ldrb	r3, [r7, #3]	@ zero_extendqisi2
 1976 0218 9A42     		cmp	r2, r3
 1977 021a FFF412AF 		bcc	.L127
 1978              	.L117:
 923:Generated_Source\PSoC5/USBUART_std.c ****         }
 924:Generated_Source\PSoC5/USBUART_std.c ****         
 925:Generated_Source\PSoC5/USBUART_std.c ****         /* The main loop has to re-enable DMA and OUT endpoint */
 926:Generated_Source\PSoC5/USBUART_std.c ****     }
 927:Generated_Source\PSoC5/USBUART_std.c **** }
 1979              		.loc 1 927 0 is_stmt 1
 1980 021e 1437     		adds	r7, r7, #20
 1981              		.cfi_def_cfa_offset 12
 1982 0220 BD46     		mov	sp, r7
 1983              		.cfi_def_cfa_register 13
 1984              		@ sp needed
 1985 0222 90BD     		pop	{r4, r7, pc}
 1986              	.L129:
 1987              		.align	2
 1988              	.L128:
 1989 0224 00000000 		.word	USBUART_configuration
 1990 0228 00000000 		.word	USBUART_interfaceNumber
 1991 022c 00000000 		.word	USBUART_interfaceSetting
 1992 0230 00000000 		.word	USBUART_EP
 1993 0234 FC5F0040 		.word	1073766396
 1994 0238 70600040 		.word	1073766512
 1995              		.cfi_endproc
 1996              	.LFE5:
 1997              		.size	USBUART_ConfigAltChanged, .-USBUART_ConfigAltChanged
 1998              		.section	.text.USBUART_GetConfigTablePtr,"ax",%progbits
 1999              		.align	2
 2000              		.global	USBUART_GetConfigTablePtr
 2001              		.thumb
 2002              		.thumb_func
 2003              		.type	USBUART_GetConfigTablePtr, %function
 2004              	USBUART_GetConfigTablePtr:
 2005              	.LFB6:
 928:Generated_Source\PSoC5/USBUART_std.c **** 
 929:Generated_Source\PSoC5/USBUART_std.c **** 
 930:Generated_Source\PSoC5/USBUART_std.c **** /*******************************************************************************
 931:Generated_Source\PSoC5/USBUART_std.c **** * Function Name: USBUART_GetConfigTablePtr
 932:Generated_Source\PSoC5/USBUART_std.c **** ****************************************************************************//**
 933:Generated_Source\PSoC5/USBUART_std.c **** *
ARM GAS  C:\Users\Greg\AppData\Local\Temp\cc66k9pW.s 			page 54


 934:Generated_Source\PSoC5/USBUART_std.c **** *  This routine returns a pointer a configuration table entry
 935:Generated_Source\PSoC5/USBUART_std.c **** *
 936:Generated_Source\PSoC5/USBUART_std.c **** *  \param confIndex:  Configuration Index
 937:Generated_Source\PSoC5/USBUART_std.c **** *
 938:Generated_Source\PSoC5/USBUART_std.c **** * \return
 939:Generated_Source\PSoC5/USBUART_std.c **** *  Device Descriptor pointer or NULL when descriptor does not exist.
 940:Generated_Source\PSoC5/USBUART_std.c **** *
 941:Generated_Source\PSoC5/USBUART_std.c **** *******************************************************************************/
 942:Generated_Source\PSoC5/USBUART_std.c **** const T_USBUART_LUT CYCODE *USBUART_GetConfigTablePtr(uint8 confIndex)
 943:Generated_Source\PSoC5/USBUART_std.c ****                                                         
 944:Generated_Source\PSoC5/USBUART_std.c **** {
 2006              		.loc 1 944 0
 2007              		.cfi_startproc
 2008              		@ args = 0, pretend = 0, frame = 16
 2009              		@ frame_needed = 1, uses_anonymous_args = 0
 2010              		@ link register save eliminated.
 2011 0000 80B4     		push	{r7}
 2012              		.cfi_def_cfa_offset 4
 2013              		.cfi_offset 7, -4
 2014 0002 85B0     		sub	sp, sp, #20
 2015              		.cfi_def_cfa_offset 24
 2016 0004 00AF     		add	r7, sp, #0
 2017              		.cfi_def_cfa_register 7
 2018 0006 0346     		mov	r3, r0
 2019 0008 FB71     		strb	r3, [r7, #7]
 945:Generated_Source\PSoC5/USBUART_std.c ****     /* Device Table */
 946:Generated_Source\PSoC5/USBUART_std.c ****     const T_USBUART_LUT CYCODE *pTmp;
 947:Generated_Source\PSoC5/USBUART_std.c **** 
 948:Generated_Source\PSoC5/USBUART_std.c ****     pTmp = (const T_USBUART_LUT CYCODE *) USBUART_TABLE[USBUART_device].p_list;
 2020              		.loc 1 948 0
 2021 000a 104B     		ldr	r3, .L134
 2022 000c 1B78     		ldrb	r3, [r3]
 2023 000e DBB2     		uxtb	r3, r3
 2024 0010 0F4A     		ldr	r2, .L134+4
 2025 0012 DB00     		lsls	r3, r3, #3
 2026 0014 1344     		add	r3, r3, r2
 2027 0016 5B68     		ldr	r3, [r3, #4]
 2028 0018 FB60     		str	r3, [r7, #12]
 949:Generated_Source\PSoC5/USBUART_std.c **** 
 950:Generated_Source\PSoC5/USBUART_std.c ****     /* The first entry points to the Device Descriptor,
 951:Generated_Source\PSoC5/USBUART_std.c ****     *  the second entry point to the BOS Descriptor
 952:Generated_Source\PSoC5/USBUART_std.c ****     *  the rest configuration entries.
 953:Generated_Source\PSoC5/USBUART_std.c ****     *  Set pointer to the first Configuration Descriptor
 954:Generated_Source\PSoC5/USBUART_std.c ****     */
 955:Generated_Source\PSoC5/USBUART_std.c ****     pTmp = &pTmp[2u];
 2029              		.loc 1 955 0
 2030 001a FB68     		ldr	r3, [r7, #12]
 2031 001c 1033     		adds	r3, r3, #16
 2032 001e FB60     		str	r3, [r7, #12]
 956:Generated_Source\PSoC5/USBUART_std.c ****     /* For this table, c is the number of configuration descriptors  */
 957:Generated_Source\PSoC5/USBUART_std.c ****     if(confIndex >= pTmp->c)   /* Verify that required configuration descriptor exists */
 2033              		.loc 1 957 0
 2034 0020 FB68     		ldr	r3, [r7, #12]
 2035 0022 1B78     		ldrb	r3, [r3]	@ zero_extendqisi2
 2036 0024 FA79     		ldrb	r2, [r7, #7]	@ zero_extendqisi2
 2037 0026 9A42     		cmp	r2, r3
 2038 0028 02D3     		bcc	.L131
ARM GAS  C:\Users\Greg\AppData\Local\Temp\cc66k9pW.s 			page 55


 958:Generated_Source\PSoC5/USBUART_std.c ****     {
 959:Generated_Source\PSoC5/USBUART_std.c ****         pTmp = (const T_USBUART_LUT CYCODE *) NULL;
 2039              		.loc 1 959 0
 2040 002a 0023     		movs	r3, #0
 2041 002c FB60     		str	r3, [r7, #12]
 2042 002e 05E0     		b	.L132
 2043              	.L131:
 960:Generated_Source\PSoC5/USBUART_std.c ****     }
 961:Generated_Source\PSoC5/USBUART_std.c ****     else
 962:Generated_Source\PSoC5/USBUART_std.c ****     {
 963:Generated_Source\PSoC5/USBUART_std.c ****         pTmp = (const T_USBUART_LUT CYCODE *) pTmp[confIndex].p_list;
 2044              		.loc 1 963 0
 2045 0030 FB79     		ldrb	r3, [r7, #7]	@ zero_extendqisi2
 2046 0032 DB00     		lsls	r3, r3, #3
 2047 0034 FA68     		ldr	r2, [r7, #12]
 2048 0036 1344     		add	r3, r3, r2
 2049 0038 5B68     		ldr	r3, [r3, #4]
 2050 003a FB60     		str	r3, [r7, #12]
 2051              	.L132:
 964:Generated_Source\PSoC5/USBUART_std.c ****     }
 965:Generated_Source\PSoC5/USBUART_std.c **** 
 966:Generated_Source\PSoC5/USBUART_std.c ****     return (pTmp);
 2052              		.loc 1 966 0
 2053 003c FB68     		ldr	r3, [r7, #12]
 967:Generated_Source\PSoC5/USBUART_std.c **** }
 2054              		.loc 1 967 0
 2055 003e 1846     		mov	r0, r3
 2056 0040 1437     		adds	r7, r7, #20
 2057              		.cfi_def_cfa_offset 4
 2058 0042 BD46     		mov	sp, r7
 2059              		.cfi_def_cfa_register 13
 2060              		@ sp needed
 2061 0044 5DF8047B 		ldr	r7, [sp], #4
 2062              		.cfi_restore 7
 2063              		.cfi_def_cfa_offset 0
 2064 0048 7047     		bx	lr
 2065              	.L135:
 2066 004a 00BF     		.align	2
 2067              	.L134:
 2068 004c 00000000 		.word	USBUART_device
 2069 0050 00000000 		.word	USBUART_TABLE
 2070              		.cfi_endproc
 2071              	.LFE6:
 2072              		.size	USBUART_GetConfigTablePtr, .-USBUART_GetConfigTablePtr
 2073              		.section	.text.USBUART_GetDeviceTablePtr,"ax",%progbits
 2074              		.align	2
 2075              		.global	USBUART_GetDeviceTablePtr
 2076              		.thumb
 2077              		.thumb_func
 2078              		.type	USBUART_GetDeviceTablePtr, %function
 2079              	USBUART_GetDeviceTablePtr:
 2080              	.LFB7:
 968:Generated_Source\PSoC5/USBUART_std.c **** 
 969:Generated_Source\PSoC5/USBUART_std.c **** 
 970:Generated_Source\PSoC5/USBUART_std.c **** #if (USBUART_BOS_ENABLE)
 971:Generated_Source\PSoC5/USBUART_std.c ****     /*******************************************************************************
 972:Generated_Source\PSoC5/USBUART_std.c ****     * Function Name: USBUART_GetBOSPtr
ARM GAS  C:\Users\Greg\AppData\Local\Temp\cc66k9pW.s 			page 56


 973:Generated_Source\PSoC5/USBUART_std.c ****     ****************************************************************************//**
 974:Generated_Source\PSoC5/USBUART_std.c ****     *
 975:Generated_Source\PSoC5/USBUART_std.c ****     *  This routine returns a pointer a BOS table entry
 976:Generated_Source\PSoC5/USBUART_std.c ****     *
 977:Generated_Source\PSoC5/USBUART_std.c ****     *  
 978:Generated_Source\PSoC5/USBUART_std.c ****     *
 979:Generated_Source\PSoC5/USBUART_std.c ****     * \return
 980:Generated_Source\PSoC5/USBUART_std.c ****     *  BOS Descriptor pointer or NULL when descriptor does not exist.
 981:Generated_Source\PSoC5/USBUART_std.c ****     *
 982:Generated_Source\PSoC5/USBUART_std.c ****     *******************************************************************************/
 983:Generated_Source\PSoC5/USBUART_std.c ****     const T_USBUART_LUT CYCODE *USBUART_GetBOSPtr(void)
 984:Generated_Source\PSoC5/USBUART_std.c ****                                                             
 985:Generated_Source\PSoC5/USBUART_std.c ****     {
 986:Generated_Source\PSoC5/USBUART_std.c ****         /* Device Table */
 987:Generated_Source\PSoC5/USBUART_std.c ****         const T_USBUART_LUT CYCODE *pTmp;
 988:Generated_Source\PSoC5/USBUART_std.c **** 
 989:Generated_Source\PSoC5/USBUART_std.c ****         pTmp = (const T_USBUART_LUT CYCODE *) USBUART_TABLE[USBUART_device].p_list;
 990:Generated_Source\PSoC5/USBUART_std.c **** 
 991:Generated_Source\PSoC5/USBUART_std.c ****         /* The first entry points to the Device Descriptor,
 992:Generated_Source\PSoC5/USBUART_std.c ****         *  the second entry points to the BOS Descriptor
 993:Generated_Source\PSoC5/USBUART_std.c ****         */
 994:Generated_Source\PSoC5/USBUART_std.c ****         pTmp = &pTmp[1u];
 995:Generated_Source\PSoC5/USBUART_std.c ****         pTmp = (const T_USBUART_LUT CYCODE *) pTmp->p_list;
 996:Generated_Source\PSoC5/USBUART_std.c ****         return (pTmp);
 997:Generated_Source\PSoC5/USBUART_std.c ****     }
 998:Generated_Source\PSoC5/USBUART_std.c **** #endif /* (USBUART_BOS_ENABLE) */
 999:Generated_Source\PSoC5/USBUART_std.c **** 
1000:Generated_Source\PSoC5/USBUART_std.c **** 
1001:Generated_Source\PSoC5/USBUART_std.c **** /*******************************************************************************
1002:Generated_Source\PSoC5/USBUART_std.c **** * Function Name: USBUART_GetDeviceTablePtr
1003:Generated_Source\PSoC5/USBUART_std.c **** ****************************************************************************//**
1004:Generated_Source\PSoC5/USBUART_std.c **** *
1005:Generated_Source\PSoC5/USBUART_std.c **** *  This routine returns a pointer to the Device table
1006:Generated_Source\PSoC5/USBUART_std.c **** *
1007:Generated_Source\PSoC5/USBUART_std.c **** * \return
1008:Generated_Source\PSoC5/USBUART_std.c **** *  Device Table pointer
1009:Generated_Source\PSoC5/USBUART_std.c **** *
1010:Generated_Source\PSoC5/USBUART_std.c **** *******************************************************************************/
1011:Generated_Source\PSoC5/USBUART_std.c **** const T_USBUART_LUT CYCODE *USBUART_GetDeviceTablePtr(void)
1012:Generated_Source\PSoC5/USBUART_std.c ****                                                             
1013:Generated_Source\PSoC5/USBUART_std.c **** {
 2081              		.loc 1 1013 0
 2082              		.cfi_startproc
 2083              		@ args = 0, pretend = 0, frame = 0
 2084              		@ frame_needed = 1, uses_anonymous_args = 0
 2085              		@ link register save eliminated.
 2086 0000 80B4     		push	{r7}
 2087              		.cfi_def_cfa_offset 4
 2088              		.cfi_offset 7, -4
 2089 0002 00AF     		add	r7, sp, #0
 2090              		.cfi_def_cfa_register 7
1014:Generated_Source\PSoC5/USBUART_std.c ****     /* Device Table */
1015:Generated_Source\PSoC5/USBUART_std.c ****     return( (const T_USBUART_LUT CYCODE *) USBUART_TABLE[USBUART_device].p_list );
 2091              		.loc 1 1015 0
 2092 0004 054B     		ldr	r3, .L138
 2093 0006 1B78     		ldrb	r3, [r3]
 2094 0008 DBB2     		uxtb	r3, r3
ARM GAS  C:\Users\Greg\AppData\Local\Temp\cc66k9pW.s 			page 57


 2095 000a 054A     		ldr	r2, .L138+4
 2096 000c DB00     		lsls	r3, r3, #3
 2097 000e 1344     		add	r3, r3, r2
 2098 0010 5B68     		ldr	r3, [r3, #4]
1016:Generated_Source\PSoC5/USBUART_std.c **** }
 2099              		.loc 1 1016 0
 2100 0012 1846     		mov	r0, r3
 2101 0014 BD46     		mov	sp, r7
 2102              		.cfi_def_cfa_register 13
 2103              		@ sp needed
 2104 0016 5DF8047B 		ldr	r7, [sp], #4
 2105              		.cfi_restore 7
 2106              		.cfi_def_cfa_offset 0
 2107 001a 7047     		bx	lr
 2108              	.L139:
 2109              		.align	2
 2110              	.L138:
 2111 001c 00000000 		.word	USBUART_device
 2112 0020 00000000 		.word	USBUART_TABLE
 2113              		.cfi_endproc
 2114              	.LFE7:
 2115              		.size	USBUART_GetDeviceTablePtr, .-USBUART_GetDeviceTablePtr
 2116              		.section	.text.USBUART_GetInterfaceClassTablePtr,"ax",%progbits
 2117              		.align	2
 2118              		.global	USBUART_GetInterfaceClassTablePtr
 2119              		.thumb
 2120              		.thumb_func
 2121              		.type	USBUART_GetInterfaceClassTablePtr, %function
 2122              	USBUART_GetInterfaceClassTablePtr:
 2123              	.LFB8:
1017:Generated_Source\PSoC5/USBUART_std.c **** 
1018:Generated_Source\PSoC5/USBUART_std.c **** 
1019:Generated_Source\PSoC5/USBUART_std.c **** /*******************************************************************************
1020:Generated_Source\PSoC5/USBUART_std.c **** * Function Name: USB_GetInterfaceClassTablePtr
1021:Generated_Source\PSoC5/USBUART_std.c **** ****************************************************************************//**
1022:Generated_Source\PSoC5/USBUART_std.c **** *
1023:Generated_Source\PSoC5/USBUART_std.c **** *  This routine returns Interface Class table pointer, which contains
1024:Generated_Source\PSoC5/USBUART_std.c **** *  the relation between interface number and interface class.
1025:Generated_Source\PSoC5/USBUART_std.c **** *
1026:Generated_Source\PSoC5/USBUART_std.c **** * \return
1027:Generated_Source\PSoC5/USBUART_std.c **** *  Interface Class table pointer.
1028:Generated_Source\PSoC5/USBUART_std.c **** *
1029:Generated_Source\PSoC5/USBUART_std.c **** *******************************************************************************/
1030:Generated_Source\PSoC5/USBUART_std.c **** const uint8 CYCODE *USBUART_GetInterfaceClassTablePtr(void)
1031:Generated_Source\PSoC5/USBUART_std.c ****                                                         
1032:Generated_Source\PSoC5/USBUART_std.c **** {
 2124              		.loc 1 1032 0
 2125              		.cfi_startproc
 2126              		@ args = 0, pretend = 0, frame = 16
 2127              		@ frame_needed = 1, uses_anonymous_args = 0
 2128 0000 80B5     		push	{r7, lr}
 2129              		.cfi_def_cfa_offset 8
 2130              		.cfi_offset 7, -8
 2131              		.cfi_offset 14, -4
 2132 0002 84B0     		sub	sp, sp, #16
 2133              		.cfi_def_cfa_offset 24
 2134 0004 00AF     		add	r7, sp, #0
ARM GAS  C:\Users\Greg\AppData\Local\Temp\cc66k9pW.s 			page 58


 2135              		.cfi_def_cfa_register 7
1033:Generated_Source\PSoC5/USBUART_std.c ****     const T_USBUART_LUT CYCODE *pTmp;
1034:Generated_Source\PSoC5/USBUART_std.c ****     const uint8 CYCODE *pInterfaceClass;
1035:Generated_Source\PSoC5/USBUART_std.c ****     uint8 currentInterfacesNum;
1036:Generated_Source\PSoC5/USBUART_std.c **** 
1037:Generated_Source\PSoC5/USBUART_std.c ****     pTmp = USBUART_GetConfigTablePtr(USBUART_configuration - 1u);
 2136              		.loc 1 1037 0
 2137 0006 104B     		ldr	r3, .L144
 2138 0008 1B78     		ldrb	r3, [r3]
 2139 000a DBB2     		uxtb	r3, r3
 2140 000c 013B     		subs	r3, r3, #1
 2141 000e DBB2     		uxtb	r3, r3
 2142 0010 1846     		mov	r0, r3
 2143 0012 FFF7FEFF 		bl	USBUART_GetConfigTablePtr
 2144 0016 B860     		str	r0, [r7, #8]
1038:Generated_Source\PSoC5/USBUART_std.c ****     if (pTmp != NULL)
 2145              		.loc 1 1038 0
 2146 0018 BB68     		ldr	r3, [r7, #8]
 2147 001a 002B     		cmp	r3, #0
 2148 001c 0DD0     		beq	.L141
1039:Generated_Source\PSoC5/USBUART_std.c ****     {
1040:Generated_Source\PSoC5/USBUART_std.c ****         currentInterfacesNum  = ((const uint8 *) pTmp->p_list)[USBUART_CONFIG_DESCR_NUM_INTERFACES]
 2149              		.loc 1 1040 0
 2150 001e BB68     		ldr	r3, [r7, #8]
 2151 0020 5B68     		ldr	r3, [r3, #4]
 2152 0022 1B79     		ldrb	r3, [r3, #4]
 2153 0024 FB71     		strb	r3, [r7, #7]
1041:Generated_Source\PSoC5/USBUART_std.c ****         /* Third entry in the LUT starts the Interface Table pointers */
1042:Generated_Source\PSoC5/USBUART_std.c ****         /* The INTERFACE_CLASS table is located after all interfaces */
1043:Generated_Source\PSoC5/USBUART_std.c ****         pTmp = &pTmp[currentInterfacesNum + 2u];
 2154              		.loc 1 1043 0
 2155 0026 FB79     		ldrb	r3, [r7, #7]	@ zero_extendqisi2
 2156 0028 0233     		adds	r3, r3, #2
 2157 002a DB00     		lsls	r3, r3, #3
 2158 002c BA68     		ldr	r2, [r7, #8]
 2159 002e 1344     		add	r3, r3, r2
 2160 0030 BB60     		str	r3, [r7, #8]
1044:Generated_Source\PSoC5/USBUART_std.c ****         pInterfaceClass = (const uint8 CYCODE *) pTmp->p_list;
 2161              		.loc 1 1044 0
 2162 0032 BB68     		ldr	r3, [r7, #8]
 2163 0034 5B68     		ldr	r3, [r3, #4]
 2164 0036 FB60     		str	r3, [r7, #12]
 2165 0038 01E0     		b	.L142
 2166              	.L141:
1045:Generated_Source\PSoC5/USBUART_std.c ****     }
1046:Generated_Source\PSoC5/USBUART_std.c ****     else
1047:Generated_Source\PSoC5/USBUART_std.c ****     {
1048:Generated_Source\PSoC5/USBUART_std.c ****         pInterfaceClass = (const uint8 CYCODE *) NULL;
 2167              		.loc 1 1048 0
 2168 003a 0023     		movs	r3, #0
 2169 003c FB60     		str	r3, [r7, #12]
 2170              	.L142:
1049:Generated_Source\PSoC5/USBUART_std.c ****     }
1050:Generated_Source\PSoC5/USBUART_std.c **** 
1051:Generated_Source\PSoC5/USBUART_std.c ****     return (pInterfaceClass);
 2171              		.loc 1 1051 0
 2172 003e FB68     		ldr	r3, [r7, #12]
ARM GAS  C:\Users\Greg\AppData\Local\Temp\cc66k9pW.s 			page 59


1052:Generated_Source\PSoC5/USBUART_std.c **** }
 2173              		.loc 1 1052 0
 2174 0040 1846     		mov	r0, r3
 2175 0042 1037     		adds	r7, r7, #16
 2176              		.cfi_def_cfa_offset 8
 2177 0044 BD46     		mov	sp, r7
 2178              		.cfi_def_cfa_register 13
 2179              		@ sp needed
 2180 0046 80BD     		pop	{r7, pc}
 2181              	.L145:
 2182              		.align	2
 2183              	.L144:
 2184 0048 00000000 		.word	USBUART_configuration
 2185              		.cfi_endproc
 2186              	.LFE8:
 2187              		.size	USBUART_GetInterfaceClassTablePtr, .-USBUART_GetInterfaceClassTablePtr
 2188              		.section	.text.USBUART_TerminateEP,"ax",%progbits
 2189              		.align	2
 2190              		.global	USBUART_TerminateEP
 2191              		.thumb
 2192              		.thumb_func
 2193              		.type	USBUART_TerminateEP, %function
 2194              	USBUART_TerminateEP:
 2195              	.LFB9:
1053:Generated_Source\PSoC5/USBUART_std.c **** 
1054:Generated_Source\PSoC5/USBUART_std.c **** 
1055:Generated_Source\PSoC5/USBUART_std.c **** /*******************************************************************************
1056:Generated_Source\PSoC5/USBUART_std.c **** * Function Name: USBUART_TerminateEP
1057:Generated_Source\PSoC5/USBUART_std.c **** ****************************************************************************//**
1058:Generated_Source\PSoC5/USBUART_std.c **** *
1059:Generated_Source\PSoC5/USBUART_std.c **** *  This function terminates the specified USBFS endpoint.
1060:Generated_Source\PSoC5/USBUART_std.c **** *  This function should be used before endpoint reconfiguration.
1061:Generated_Source\PSoC5/USBUART_std.c **** *
1062:Generated_Source\PSoC5/USBUART_std.c **** *  \param ep Contains the data endpoint number.
1063:Generated_Source\PSoC5/USBUART_std.c **** *
1064:Generated_Source\PSoC5/USBUART_std.c **** *  \reentrant
1065:Generated_Source\PSoC5/USBUART_std.c **** *  No.
1066:Generated_Source\PSoC5/USBUART_std.c **** *
1067:Generated_Source\PSoC5/USBUART_std.c **** * \sideeffect
1068:Generated_Source\PSoC5/USBUART_std.c **** * 
1069:Generated_Source\PSoC5/USBUART_std.c **** * The device responds with a NAK for any transactions on the selected endpoint.
1070:Generated_Source\PSoC5/USBUART_std.c **** *   
1071:Generated_Source\PSoC5/USBUART_std.c **** *******************************************************************************/
1072:Generated_Source\PSoC5/USBUART_std.c **** void USBUART_TerminateEP(uint8 epNumber) 
1073:Generated_Source\PSoC5/USBUART_std.c **** {
 2196              		.loc 1 1073 0
 2197              		.cfi_startproc
 2198              		@ args = 0, pretend = 0, frame = 8
 2199              		@ frame_needed = 1, uses_anonymous_args = 0
 2200              		@ link register save eliminated.
 2201 0000 80B4     		push	{r7}
 2202              		.cfi_def_cfa_offset 4
 2203              		.cfi_offset 7, -4
 2204 0002 83B0     		sub	sp, sp, #12
 2205              		.cfi_def_cfa_offset 16
 2206 0004 00AF     		add	r7, sp, #0
 2207              		.cfi_def_cfa_register 7
ARM GAS  C:\Users\Greg\AppData\Local\Temp\cc66k9pW.s 			page 60


 2208 0006 0346     		mov	r3, r0
 2209 0008 FB71     		strb	r3, [r7, #7]
1074:Generated_Source\PSoC5/USBUART_std.c ****     /* Get endpoint number */
1075:Generated_Source\PSoC5/USBUART_std.c ****     epNumber &= USBUART_DIR_UNUSED;
 2210              		.loc 1 1075 0
 2211 000a FB79     		ldrb	r3, [r7, #7]
 2212 000c 03F07F03 		and	r3, r3, #127
 2213 0010 FB71     		strb	r3, [r7, #7]
1076:Generated_Source\PSoC5/USBUART_std.c **** 
1077:Generated_Source\PSoC5/USBUART_std.c ****     if ((epNumber > USBUART_EP0) && (epNumber < USBUART_MAX_EP))
 2214              		.loc 1 1077 0
 2215 0012 FB79     		ldrb	r3, [r7, #7]	@ zero_extendqisi2
 2216 0014 002B     		cmp	r3, #0
 2217 0016 43D0     		beq	.L146
 2218              		.loc 1 1077 0 is_stmt 0 discriminator 1
 2219 0018 FB79     		ldrb	r3, [r7, #7]	@ zero_extendqisi2
 2220 001a 082B     		cmp	r3, #8
 2221 001c 40D8     		bhi	.L146
1078:Generated_Source\PSoC5/USBUART_std.c ****     {
1079:Generated_Source\PSoC5/USBUART_std.c ****         /* Set the endpoint Halt */
1080:Generated_Source\PSoC5/USBUART_std.c ****         USBUART_EP[epNumber].hwEpState |= USBUART_ENDPOINT_STATUS_HALT;
 2222              		.loc 1 1080 0 is_stmt 1
 2223 001e FA79     		ldrb	r2, [r7, #7]	@ zero_extendqisi2
 2224 0020 F979     		ldrb	r1, [r7, #7]	@ zero_extendqisi2
 2225 0022 2248     		ldr	r0, .L149
 2226 0024 0B46     		mov	r3, r1
 2227 0026 5B00     		lsls	r3, r3, #1
 2228 0028 0B44     		add	r3, r3, r1
 2229 002a 9B00     		lsls	r3, r3, #2
 2230 002c 0344     		add	r3, r3, r0
 2231 002e 9B78     		ldrb	r3, [r3, #2]
 2232 0030 DBB2     		uxtb	r3, r3
 2233 0032 43F00103 		orr	r3, r3, #1
 2234 0036 D8B2     		uxtb	r0, r3
 2235 0038 1C49     		ldr	r1, .L149
 2236 003a 1346     		mov	r3, r2
 2237 003c 5B00     		lsls	r3, r3, #1
 2238 003e 1344     		add	r3, r3, r2
 2239 0040 9B00     		lsls	r3, r3, #2
 2240 0042 0B44     		add	r3, r3, r1
 2241 0044 0246     		mov	r2, r0
 2242 0046 9A70     		strb	r2, [r3, #2]
1081:Generated_Source\PSoC5/USBUART_std.c **** 
1082:Generated_Source\PSoC5/USBUART_std.c ****         /* Clear the data toggle */
1083:Generated_Source\PSoC5/USBUART_std.c ****         USBUART_EP[epNumber].epToggle = 0u;
 2243              		.loc 1 1083 0
 2244 0048 FA79     		ldrb	r2, [r7, #7]	@ zero_extendqisi2
 2245 004a 1849     		ldr	r1, .L149
 2246 004c 1346     		mov	r3, r2
 2247 004e 5B00     		lsls	r3, r3, #1
 2248 0050 1344     		add	r3, r3, r2
 2249 0052 9B00     		lsls	r3, r3, #2
 2250 0054 0B44     		add	r3, r3, r1
 2251 0056 0022     		movs	r2, #0
 2252 0058 DA70     		strb	r2, [r3, #3]
1084:Generated_Source\PSoC5/USBUART_std.c ****         USBUART_EP[epNumber].apiEpState = USBUART_NO_EVENT_ALLOWED;
 2253              		.loc 1 1084 0
ARM GAS  C:\Users\Greg\AppData\Local\Temp\cc66k9pW.s 			page 61


 2254 005a FA79     		ldrb	r2, [r7, #7]	@ zero_extendqisi2
 2255 005c 1349     		ldr	r1, .L149
 2256 005e 1346     		mov	r3, r2
 2257 0060 5B00     		lsls	r3, r3, #1
 2258 0062 1344     		add	r3, r3, r2
 2259 0064 9B00     		lsls	r3, r3, #2
 2260 0066 0B44     		add	r3, r3, r1
 2261 0068 0222     		movs	r2, #2
 2262 006a 5A70     		strb	r2, [r3, #1]
1085:Generated_Source\PSoC5/USBUART_std.c **** 
1086:Generated_Source\PSoC5/USBUART_std.c ****         if ((USBUART_EP[epNumber].addr & USBUART_DIR_IN) != 0u)
 2263              		.loc 1 1086 0
 2264 006c FA79     		ldrb	r2, [r7, #7]	@ zero_extendqisi2
 2265 006e 0F49     		ldr	r1, .L149
 2266 0070 1346     		mov	r3, r2
 2267 0072 5B00     		lsls	r3, r3, #1
 2268 0074 1344     		add	r3, r3, r2
 2269 0076 9B00     		lsls	r3, r3, #2
 2270 0078 0B44     		add	r3, r3, r1
 2271 007a 1B79     		ldrb	r3, [r3, #4]
 2272 007c DBB2     		uxtb	r3, r3
 2273 007e DBB2     		uxtb	r3, r3
 2274 0080 5BB2     		sxtb	r3, r3
 2275 0082 002B     		cmp	r3, #0
 2276 0084 06DA     		bge	.L148
1087:Generated_Source\PSoC5/USBUART_std.c ****         {   
1088:Generated_Source\PSoC5/USBUART_std.c ****             /* IN Endpoint */
1089:Generated_Source\PSoC5/USBUART_std.c ****             USBUART_SIE_EP_BASE.sieEp[epNumber].epCr0 = USBUART_MODE_NAK_IN;
 2277              		.loc 1 1089 0
 2278 0086 0A4A     		ldr	r2, .L149+4
 2279 0088 FB79     		ldrb	r3, [r7, #7]	@ zero_extendqisi2
 2280 008a 1B01     		lsls	r3, r3, #4
 2281 008c 1344     		add	r3, r3, r2
 2282 008e 0C22     		movs	r2, #12
 2283 0090 9A70     		strb	r2, [r3, #2]
 2284 0092 05E0     		b	.L146
 2285              	.L148:
1090:Generated_Source\PSoC5/USBUART_std.c ****         }
1091:Generated_Source\PSoC5/USBUART_std.c ****         else
1092:Generated_Source\PSoC5/USBUART_std.c ****         {
1093:Generated_Source\PSoC5/USBUART_std.c ****             /* OUT Endpoint */
1094:Generated_Source\PSoC5/USBUART_std.c ****             USBUART_SIE_EP_BASE.sieEp[epNumber].epCr0 = USBUART_MODE_NAK_OUT;
 2286              		.loc 1 1094 0
 2287 0094 064A     		ldr	r2, .L149+4
 2288 0096 FB79     		ldrb	r3, [r7, #7]	@ zero_extendqisi2
 2289 0098 1B01     		lsls	r3, r3, #4
 2290 009a 1344     		add	r3, r3, r2
 2291 009c 0822     		movs	r2, #8
 2292 009e 9A70     		strb	r2, [r3, #2]
 2293              	.L146:
1095:Generated_Source\PSoC5/USBUART_std.c ****         }
1096:Generated_Source\PSoC5/USBUART_std.c ****     }
1097:Generated_Source\PSoC5/USBUART_std.c **** }
 2294              		.loc 1 1097 0
 2295 00a0 0C37     		adds	r7, r7, #12
 2296              		.cfi_def_cfa_offset 4
 2297 00a2 BD46     		mov	sp, r7
ARM GAS  C:\Users\Greg\AppData\Local\Temp\cc66k9pW.s 			page 62


 2298              		.cfi_def_cfa_register 13
 2299              		@ sp needed
 2300 00a4 5DF8047B 		ldr	r7, [sp], #4
 2301              		.cfi_restore 7
 2302              		.cfi_def_cfa_offset 0
 2303 00a8 7047     		bx	lr
 2304              	.L150:
 2305 00aa 00BF     		.align	2
 2306              	.L149:
 2307 00ac 00000000 		.word	USBUART_EP
 2308 00b0 FC5F0040 		.word	1073766396
 2309              		.cfi_endproc
 2310              	.LFE9:
 2311              		.size	USBUART_TerminateEP, .-USBUART_TerminateEP
 2312              		.section	.text.USBUART_SetEndpointHalt,"ax",%progbits
 2313              		.align	2
 2314              		.global	USBUART_SetEndpointHalt
 2315              		.thumb
 2316              		.thumb_func
 2317              		.type	USBUART_SetEndpointHalt, %function
 2318              	USBUART_SetEndpointHalt:
 2319              	.LFB10:
1098:Generated_Source\PSoC5/USBUART_std.c **** 
1099:Generated_Source\PSoC5/USBUART_std.c **** 
1100:Generated_Source\PSoC5/USBUART_std.c **** /*******************************************************************************
1101:Generated_Source\PSoC5/USBUART_std.c **** * Function Name: USBUART_SetEndpointHalt
1102:Generated_Source\PSoC5/USBUART_std.c **** ****************************************************************************//**
1103:Generated_Source\PSoC5/USBUART_std.c **** *
1104:Generated_Source\PSoC5/USBUART_std.c **** *  This routine handles set endpoint halt.
1105:Generated_Source\PSoC5/USBUART_std.c **** *
1106:Generated_Source\PSoC5/USBUART_std.c **** * \return
1107:Generated_Source\PSoC5/USBUART_std.c **** *  requestHandled.
1108:Generated_Source\PSoC5/USBUART_std.c **** *
1109:Generated_Source\PSoC5/USBUART_std.c **** * \reentrant
1110:Generated_Source\PSoC5/USBUART_std.c **** *  No.
1111:Generated_Source\PSoC5/USBUART_std.c **** *
1112:Generated_Source\PSoC5/USBUART_std.c **** *******************************************************************************/
1113:Generated_Source\PSoC5/USBUART_std.c **** uint8 USBUART_SetEndpointHalt(void) 
1114:Generated_Source\PSoC5/USBUART_std.c **** {
 2320              		.loc 1 1114 0
 2321              		.cfi_startproc
 2322              		@ args = 0, pretend = 0, frame = 8
 2323              		@ frame_needed = 1, uses_anonymous_args = 0
 2324 0000 80B5     		push	{r7, lr}
 2325              		.cfi_def_cfa_offset 8
 2326              		.cfi_offset 7, -8
 2327              		.cfi_offset 14, -4
 2328 0002 82B0     		sub	sp, sp, #8
 2329              		.cfi_def_cfa_offset 16
 2330 0004 00AF     		add	r7, sp, #0
 2331              		.cfi_def_cfa_register 7
1115:Generated_Source\PSoC5/USBUART_std.c ****     uint8 requestHandled = USBUART_FALSE;
 2332              		.loc 1 1115 0
 2333 0006 0023     		movs	r3, #0
 2334 0008 FB71     		strb	r3, [r7, #7]
1116:Generated_Source\PSoC5/USBUART_std.c ****     uint8 ep;
1117:Generated_Source\PSoC5/USBUART_std.c ****     
ARM GAS  C:\Users\Greg\AppData\Local\Temp\cc66k9pW.s 			page 63


1118:Generated_Source\PSoC5/USBUART_std.c ****     /* Set endpoint halt */
1119:Generated_Source\PSoC5/USBUART_std.c ****     ep = USBUART_wIndexLoReg & USBUART_DIR_UNUSED;
 2335              		.loc 1 1119 0
 2336 000a 314B     		ldr	r3, .L156
 2337 000c 1B79     		ldrb	r3, [r3, #4]
 2338 000e DBB2     		uxtb	r3, r3
 2339 0010 03F07F03 		and	r3, r3, #127
 2340 0014 BB71     		strb	r3, [r7, #6]
1120:Generated_Source\PSoC5/USBUART_std.c **** 
1121:Generated_Source\PSoC5/USBUART_std.c ****     if ((ep > USBUART_EP0) && (ep < USBUART_MAX_EP))
 2341              		.loc 1 1121 0
 2342 0016 BB79     		ldrb	r3, [r7, #6]	@ zero_extendqisi2
 2343 0018 002B     		cmp	r3, #0
 2344 001a 53D0     		beq	.L152
 2345              		.loc 1 1121 0 is_stmt 0 discriminator 1
 2346 001c BB79     		ldrb	r3, [r7, #6]	@ zero_extendqisi2
 2347 001e 082B     		cmp	r3, #8
 2348 0020 50D8     		bhi	.L152
1122:Generated_Source\PSoC5/USBUART_std.c ****     {
1123:Generated_Source\PSoC5/USBUART_std.c ****         /* Set the endpoint Halt */
1124:Generated_Source\PSoC5/USBUART_std.c ****         USBUART_EP[ep].hwEpState |= (USBUART_ENDPOINT_STATUS_HALT);
 2349              		.loc 1 1124 0 is_stmt 1
 2350 0022 BA79     		ldrb	r2, [r7, #6]	@ zero_extendqisi2
 2351 0024 B979     		ldrb	r1, [r7, #6]	@ zero_extendqisi2
 2352 0026 2B48     		ldr	r0, .L156+4
 2353 0028 0B46     		mov	r3, r1
 2354 002a 5B00     		lsls	r3, r3, #1
 2355 002c 0B44     		add	r3, r3, r1
 2356 002e 9B00     		lsls	r3, r3, #2
 2357 0030 0344     		add	r3, r3, r0
 2358 0032 9B78     		ldrb	r3, [r3, #2]
 2359 0034 DBB2     		uxtb	r3, r3
 2360 0036 43F00103 		orr	r3, r3, #1
 2361 003a D8B2     		uxtb	r0, r3
 2362 003c 2549     		ldr	r1, .L156+4
 2363 003e 1346     		mov	r3, r2
 2364 0040 5B00     		lsls	r3, r3, #1
 2365 0042 1344     		add	r3, r3, r2
 2366 0044 9B00     		lsls	r3, r3, #2
 2367 0046 0B44     		add	r3, r3, r1
 2368 0048 0246     		mov	r2, r0
 2369 004a 9A70     		strb	r2, [r3, #2]
1125:Generated_Source\PSoC5/USBUART_std.c **** 
1126:Generated_Source\PSoC5/USBUART_std.c ****         /* Clear the data toggle */
1127:Generated_Source\PSoC5/USBUART_std.c ****         USBUART_EP[ep].epToggle = 0u;
 2370              		.loc 1 1127 0
 2371 004c BA79     		ldrb	r2, [r7, #6]	@ zero_extendqisi2
 2372 004e 2149     		ldr	r1, .L156+4
 2373 0050 1346     		mov	r3, r2
 2374 0052 5B00     		lsls	r3, r3, #1
 2375 0054 1344     		add	r3, r3, r2
 2376 0056 9B00     		lsls	r3, r3, #2
 2377 0058 0B44     		add	r3, r3, r1
 2378 005a 0022     		movs	r2, #0
 2379 005c DA70     		strb	r2, [r3, #3]
1128:Generated_Source\PSoC5/USBUART_std.c ****         USBUART_EP[ep].apiEpState |= USBUART_NO_EVENT_ALLOWED;
 2380              		.loc 1 1128 0
ARM GAS  C:\Users\Greg\AppData\Local\Temp\cc66k9pW.s 			page 64


 2381 005e BA79     		ldrb	r2, [r7, #6]	@ zero_extendqisi2
 2382 0060 B979     		ldrb	r1, [r7, #6]	@ zero_extendqisi2
 2383 0062 1C48     		ldr	r0, .L156+4
 2384 0064 0B46     		mov	r3, r1
 2385 0066 5B00     		lsls	r3, r3, #1
 2386 0068 0B44     		add	r3, r3, r1
 2387 006a 9B00     		lsls	r3, r3, #2
 2388 006c 0344     		add	r3, r3, r0
 2389 006e 5B78     		ldrb	r3, [r3, #1]
 2390 0070 DBB2     		uxtb	r3, r3
 2391 0072 43F00203 		orr	r3, r3, #2
 2392 0076 D8B2     		uxtb	r0, r3
 2393 0078 1649     		ldr	r1, .L156+4
 2394 007a 1346     		mov	r3, r2
 2395 007c 5B00     		lsls	r3, r3, #1
 2396 007e 1344     		add	r3, r3, r2
 2397 0080 9B00     		lsls	r3, r3, #2
 2398 0082 0B44     		add	r3, r3, r1
 2399 0084 0246     		mov	r2, r0
 2400 0086 5A70     		strb	r2, [r3, #1]
1129:Generated_Source\PSoC5/USBUART_std.c **** 
1130:Generated_Source\PSoC5/USBUART_std.c ****         if ((USBUART_EP[ep].addr & USBUART_DIR_IN) != 0u)
 2401              		.loc 1 1130 0
 2402 0088 BA79     		ldrb	r2, [r7, #6]	@ zero_extendqisi2
 2403 008a 1249     		ldr	r1, .L156+4
 2404 008c 1346     		mov	r3, r2
 2405 008e 5B00     		lsls	r3, r3, #1
 2406 0090 1344     		add	r3, r3, r2
 2407 0092 9B00     		lsls	r3, r3, #2
 2408 0094 0B44     		add	r3, r3, r1
 2409 0096 1B79     		ldrb	r3, [r3, #4]
 2410 0098 DBB2     		uxtb	r3, r3
 2411 009a DBB2     		uxtb	r3, r3
 2412 009c 5BB2     		sxtb	r3, r3
 2413 009e 002B     		cmp	r3, #0
 2414 00a0 06DA     		bge	.L153
1131:Generated_Source\PSoC5/USBUART_std.c ****         {
1132:Generated_Source\PSoC5/USBUART_std.c ****             /* IN Endpoint */
1133:Generated_Source\PSoC5/USBUART_std.c ****             USBUART_SIE_EP_BASE.sieEp[ep].epCr0 = (USBUART_MODE_STALL_DATA_EP | 
 2415              		.loc 1 1133 0
 2416 00a2 0D4A     		ldr	r2, .L156+8
 2417 00a4 BB79     		ldrb	r3, [r7, #6]	@ zero_extendqisi2
 2418 00a6 1B01     		lsls	r3, r3, #4
 2419 00a8 1344     		add	r3, r3, r2
 2420 00aa 8D22     		movs	r2, #141
 2421 00ac 9A70     		strb	r2, [r3, #2]
 2422 00ae 05E0     		b	.L154
 2423              	.L153:
1134:Generated_Source\PSoC5/USBUART_std.c ****                                                             USBUART_MODE_ACK_IN);
1135:Generated_Source\PSoC5/USBUART_std.c ****         }
1136:Generated_Source\PSoC5/USBUART_std.c ****         else
1137:Generated_Source\PSoC5/USBUART_std.c ****         {
1138:Generated_Source\PSoC5/USBUART_std.c ****             /* OUT Endpoint */
1139:Generated_Source\PSoC5/USBUART_std.c ****             USBUART_SIE_EP_BASE.sieEp[ep].epCr0 = (USBUART_MODE_STALL_DATA_EP | 
 2424              		.loc 1 1139 0
 2425 00b0 094A     		ldr	r2, .L156+8
 2426 00b2 BB79     		ldrb	r3, [r7, #6]	@ zero_extendqisi2
ARM GAS  C:\Users\Greg\AppData\Local\Temp\cc66k9pW.s 			page 65


 2427 00b4 1B01     		lsls	r3, r3, #4
 2428 00b6 1344     		add	r3, r3, r2
 2429 00b8 8922     		movs	r2, #137
 2430 00ba 9A70     		strb	r2, [r3, #2]
 2431              	.L154:
1140:Generated_Source\PSoC5/USBUART_std.c ****                                                             USBUART_MODE_ACK_OUT);
1141:Generated_Source\PSoC5/USBUART_std.c ****         }
1142:Generated_Source\PSoC5/USBUART_std.c ****         requestHandled = USBUART_InitNoDataControlTransfer();
 2432              		.loc 1 1142 0
 2433 00bc FFF7FEFF 		bl	USBUART_InitNoDataControlTransfer
 2434 00c0 0346     		mov	r3, r0
 2435 00c2 FB71     		strb	r3, [r7, #7]
 2436              	.L152:
1143:Generated_Source\PSoC5/USBUART_std.c ****     }
1144:Generated_Source\PSoC5/USBUART_std.c **** 
1145:Generated_Source\PSoC5/USBUART_std.c ****     return (requestHandled);
 2437              		.loc 1 1145 0
 2438 00c4 FB79     		ldrb	r3, [r7, #7]	@ zero_extendqisi2
1146:Generated_Source\PSoC5/USBUART_std.c **** }
 2439              		.loc 1 1146 0
 2440 00c6 1846     		mov	r0, r3
 2441 00c8 0837     		adds	r7, r7, #8
 2442              		.cfi_def_cfa_offset 8
 2443 00ca BD46     		mov	sp, r7
 2444              		.cfi_def_cfa_register 13
 2445              		@ sp needed
 2446 00cc 80BD     		pop	{r7, pc}
 2447              	.L157:
 2448 00ce 00BF     		.align	2
 2449              	.L156:
 2450 00d0 00600040 		.word	1073766400
 2451 00d4 00000000 		.word	USBUART_EP
 2452 00d8 FC5F0040 		.word	1073766396
 2453              		.cfi_endproc
 2454              	.LFE10:
 2455              		.size	USBUART_SetEndpointHalt, .-USBUART_SetEndpointHalt
 2456              		.section	.text.USBUART_ClearEndpointHalt,"ax",%progbits
 2457              		.align	2
 2458              		.global	USBUART_ClearEndpointHalt
 2459              		.thumb
 2460              		.thumb_func
 2461              		.type	USBUART_ClearEndpointHalt, %function
 2462              	USBUART_ClearEndpointHalt:
 2463              	.LFB11:
1147:Generated_Source\PSoC5/USBUART_std.c **** 
1148:Generated_Source\PSoC5/USBUART_std.c **** 
1149:Generated_Source\PSoC5/USBUART_std.c **** /*******************************************************************************
1150:Generated_Source\PSoC5/USBUART_std.c **** * Function Name: USBUART_ClearEndpointHalt
1151:Generated_Source\PSoC5/USBUART_std.c **** ****************************************************************************//**
1152:Generated_Source\PSoC5/USBUART_std.c **** *
1153:Generated_Source\PSoC5/USBUART_std.c **** *  This routine handles clear endpoint halt.
1154:Generated_Source\PSoC5/USBUART_std.c **** *
1155:Generated_Source\PSoC5/USBUART_std.c **** * \return
1156:Generated_Source\PSoC5/USBUART_std.c **** *  requestHandled.
1157:Generated_Source\PSoC5/USBUART_std.c **** *
1158:Generated_Source\PSoC5/USBUART_std.c **** * \reentrant
1159:Generated_Source\PSoC5/USBUART_std.c **** *  No.
ARM GAS  C:\Users\Greg\AppData\Local\Temp\cc66k9pW.s 			page 66


1160:Generated_Source\PSoC5/USBUART_std.c **** *
1161:Generated_Source\PSoC5/USBUART_std.c **** *******************************************************************************/
1162:Generated_Source\PSoC5/USBUART_std.c **** uint8 USBUART_ClearEndpointHalt(void) 
1163:Generated_Source\PSoC5/USBUART_std.c **** {
 2464              		.loc 1 1163 0
 2465              		.cfi_startproc
 2466              		@ args = 0, pretend = 0, frame = 8
 2467              		@ frame_needed = 1, uses_anonymous_args = 0
 2468 0000 80B5     		push	{r7, lr}
 2469              		.cfi_def_cfa_offset 8
 2470              		.cfi_offset 7, -8
 2471              		.cfi_offset 14, -4
 2472 0002 82B0     		sub	sp, sp, #8
 2473              		.cfi_def_cfa_offset 16
 2474 0004 00AF     		add	r7, sp, #0
 2475              		.cfi_def_cfa_register 7
1164:Generated_Source\PSoC5/USBUART_std.c ****     uint8 requestHandled = USBUART_FALSE;
 2476              		.loc 1 1164 0
 2477 0006 0023     		movs	r3, #0
 2478 0008 FB71     		strb	r3, [r7, #7]
1165:Generated_Source\PSoC5/USBUART_std.c ****     uint8 ep;
1166:Generated_Source\PSoC5/USBUART_std.c **** 
1167:Generated_Source\PSoC5/USBUART_std.c ****     /* Clear endpoint halt */
1168:Generated_Source\PSoC5/USBUART_std.c ****     ep = USBUART_wIndexLoReg & USBUART_DIR_UNUSED;
 2479              		.loc 1 1168 0
 2480 000a 464B     		ldr	r3, .L166
 2481 000c 1B79     		ldrb	r3, [r3, #4]
 2482 000e DBB2     		uxtb	r3, r3
 2483 0010 03F07F03 		and	r3, r3, #127
 2484 0014 BB71     		strb	r3, [r7, #6]
1169:Generated_Source\PSoC5/USBUART_std.c **** 
1170:Generated_Source\PSoC5/USBUART_std.c ****     if ((ep > USBUART_EP0) && (ep < USBUART_MAX_EP))
 2485              		.loc 1 1170 0
 2486 0016 BB79     		ldrb	r3, [r7, #6]	@ zero_extendqisi2
 2487 0018 002B     		cmp	r3, #0
 2488 001a 7DD0     		beq	.L159
 2489              		.loc 1 1170 0 is_stmt 0 discriminator 1
 2490 001c BB79     		ldrb	r3, [r7, #6]	@ zero_extendqisi2
 2491 001e 082B     		cmp	r3, #8
 2492 0020 7AD8     		bhi	.L159
1171:Generated_Source\PSoC5/USBUART_std.c ****     {
1172:Generated_Source\PSoC5/USBUART_std.c ****         /* Clear the endpoint Halt */
1173:Generated_Source\PSoC5/USBUART_std.c ****         USBUART_EP[ep].hwEpState &= (uint8) ~USBUART_ENDPOINT_STATUS_HALT;
 2493              		.loc 1 1173 0 is_stmt 1
 2494 0022 BA79     		ldrb	r2, [r7, #6]	@ zero_extendqisi2
 2495 0024 B979     		ldrb	r1, [r7, #6]	@ zero_extendqisi2
 2496 0026 4048     		ldr	r0, .L166+4
 2497 0028 0B46     		mov	r3, r1
 2498 002a 5B00     		lsls	r3, r3, #1
 2499 002c 0B44     		add	r3, r3, r1
 2500 002e 9B00     		lsls	r3, r3, #2
 2501 0030 0344     		add	r3, r3, r0
 2502 0032 9B78     		ldrb	r3, [r3, #2]
 2503 0034 DBB2     		uxtb	r3, r3
 2504 0036 23F00103 		bic	r3, r3, #1
 2505 003a D8B2     		uxtb	r0, r3
 2506 003c 3A49     		ldr	r1, .L166+4
ARM GAS  C:\Users\Greg\AppData\Local\Temp\cc66k9pW.s 			page 67


 2507 003e 1346     		mov	r3, r2
 2508 0040 5B00     		lsls	r3, r3, #1
 2509 0042 1344     		add	r3, r3, r2
 2510 0044 9B00     		lsls	r3, r3, #2
 2511 0046 0B44     		add	r3, r3, r1
 2512 0048 0246     		mov	r2, r0
 2513 004a 9A70     		strb	r2, [r3, #2]
1174:Generated_Source\PSoC5/USBUART_std.c **** 
1175:Generated_Source\PSoC5/USBUART_std.c ****         /* Clear the data toggle */
1176:Generated_Source\PSoC5/USBUART_std.c ****         USBUART_EP[ep].epToggle = 0u;
 2514              		.loc 1 1176 0
 2515 004c BA79     		ldrb	r2, [r7, #6]	@ zero_extendqisi2
 2516 004e 3649     		ldr	r1, .L166+4
 2517 0050 1346     		mov	r3, r2
 2518 0052 5B00     		lsls	r3, r3, #1
 2519 0054 1344     		add	r3, r3, r2
 2520 0056 9B00     		lsls	r3, r3, #2
 2521 0058 0B44     		add	r3, r3, r1
 2522 005a 0022     		movs	r2, #0
 2523 005c DA70     		strb	r2, [r3, #3]
1177:Generated_Source\PSoC5/USBUART_std.c ****         
1178:Generated_Source\PSoC5/USBUART_std.c ****         /* Clear toggle bit for already armed packet */
1179:Generated_Source\PSoC5/USBUART_std.c ****         USBUART_SIE_EP_BASE.sieEp[ep].epCnt0 = (uint8) ~(uint8)USBUART_EPX_CNT_DATA_TOGGLE;
 2524              		.loc 1 1179 0
 2525 005e 334A     		ldr	r2, .L166+8
 2526 0060 BB79     		ldrb	r3, [r7, #6]	@ zero_extendqisi2
 2527 0062 1B01     		lsls	r3, r3, #4
 2528 0064 1344     		add	r3, r3, r2
 2529 0066 7F22     		movs	r2, #127
 2530 0068 1A70     		strb	r2, [r3]
1180:Generated_Source\PSoC5/USBUART_std.c ****         
1181:Generated_Source\PSoC5/USBUART_std.c ****         /* Return API State as it was defined before */
1182:Generated_Source\PSoC5/USBUART_std.c ****         USBUART_EP[ep].apiEpState &= (uint8) ~USBUART_NO_EVENT_ALLOWED;
 2531              		.loc 1 1182 0
 2532 006a BA79     		ldrb	r2, [r7, #6]	@ zero_extendqisi2
 2533 006c B979     		ldrb	r1, [r7, #6]	@ zero_extendqisi2
 2534 006e 2E48     		ldr	r0, .L166+4
 2535 0070 0B46     		mov	r3, r1
 2536 0072 5B00     		lsls	r3, r3, #1
 2537 0074 0B44     		add	r3, r3, r1
 2538 0076 9B00     		lsls	r3, r3, #2
 2539 0078 0344     		add	r3, r3, r0
 2540 007a 5B78     		ldrb	r3, [r3, #1]
 2541 007c DBB2     		uxtb	r3, r3
 2542 007e 23F00203 		bic	r3, r3, #2
 2543 0082 D8B2     		uxtb	r0, r3
 2544 0084 2849     		ldr	r1, .L166+4
 2545 0086 1346     		mov	r3, r2
 2546 0088 5B00     		lsls	r3, r3, #1
 2547 008a 1344     		add	r3, r3, r2
 2548 008c 9B00     		lsls	r3, r3, #2
 2549 008e 0B44     		add	r3, r3, r1
 2550 0090 0246     		mov	r2, r0
 2551 0092 5A70     		strb	r2, [r3, #1]
1183:Generated_Source\PSoC5/USBUART_std.c **** 
1184:Generated_Source\PSoC5/USBUART_std.c ****         if ((USBUART_EP[ep].addr & USBUART_DIR_IN) != 0u)
 2552              		.loc 1 1184 0
ARM GAS  C:\Users\Greg\AppData\Local\Temp\cc66k9pW.s 			page 68


 2553 0094 BA79     		ldrb	r2, [r7, #6]	@ zero_extendqisi2
 2554 0096 2449     		ldr	r1, .L166+4
 2555 0098 1346     		mov	r3, r2
 2556 009a 5B00     		lsls	r3, r3, #1
 2557 009c 1344     		add	r3, r3, r2
 2558 009e 9B00     		lsls	r3, r3, #2
 2559 00a0 0B44     		add	r3, r3, r1
 2560 00a2 1B79     		ldrb	r3, [r3, #4]
 2561 00a4 DBB2     		uxtb	r3, r3
 2562 00a6 DBB2     		uxtb	r3, r3
 2563 00a8 5BB2     		sxtb	r3, r3
 2564 00aa 002B     		cmp	r3, #0
 2565 00ac 18DA     		bge	.L160
1185:Generated_Source\PSoC5/USBUART_std.c ****         {
1186:Generated_Source\PSoC5/USBUART_std.c ****             /* IN Endpoint */
1187:Generated_Source\PSoC5/USBUART_std.c ****             if(USBUART_EP[ep].apiEpState == USBUART_IN_BUFFER_EMPTY)
 2566              		.loc 1 1187 0
 2567 00ae BA79     		ldrb	r2, [r7, #6]	@ zero_extendqisi2
 2568 00b0 1D49     		ldr	r1, .L166+4
 2569 00b2 1346     		mov	r3, r2
 2570 00b4 5B00     		lsls	r3, r3, #1
 2571 00b6 1344     		add	r3, r3, r2
 2572 00b8 9B00     		lsls	r3, r3, #2
 2573 00ba 0B44     		add	r3, r3, r1
 2574 00bc 5B78     		ldrb	r3, [r3, #1]
 2575 00be DBB2     		uxtb	r3, r3
 2576 00c0 012B     		cmp	r3, #1
 2577 00c2 06D1     		bne	.L161
1188:Generated_Source\PSoC5/USBUART_std.c ****             {       
1189:Generated_Source\PSoC5/USBUART_std.c ****                 /* Wait for next packet from application */
1190:Generated_Source\PSoC5/USBUART_std.c ****                 USBUART_SIE_EP_BASE.sieEp[ep].epCr0 = USBUART_MODE_NAK_IN;
 2578              		.loc 1 1190 0
 2579 00c4 194A     		ldr	r2, .L166+8
 2580 00c6 BB79     		ldrb	r3, [r7, #6]	@ zero_extendqisi2
 2581 00c8 1B01     		lsls	r3, r3, #4
 2582 00ca 1344     		add	r3, r3, r2
 2583 00cc 0C22     		movs	r2, #12
 2584 00ce 9A70     		strb	r2, [r3, #2]
 2585 00d0 1EE0     		b	.L163
 2586              	.L161:
1191:Generated_Source\PSoC5/USBUART_std.c ****             }
1192:Generated_Source\PSoC5/USBUART_std.c ****             else    /* Continue armed transfer */
1193:Generated_Source\PSoC5/USBUART_std.c ****             {
1194:Generated_Source\PSoC5/USBUART_std.c ****                 USBUART_SIE_EP_BASE.sieEp[ep].epCr0 = USBUART_MODE_ACK_IN;
 2587              		.loc 1 1194 0
 2588 00d2 164A     		ldr	r2, .L166+8
 2589 00d4 BB79     		ldrb	r3, [r7, #6]	@ zero_extendqisi2
 2590 00d6 1B01     		lsls	r3, r3, #4
 2591 00d8 1344     		add	r3, r3, r2
 2592 00da 0D22     		movs	r2, #13
 2593 00dc 9A70     		strb	r2, [r3, #2]
 2594 00de 17E0     		b	.L163
 2595              	.L160:
1195:Generated_Source\PSoC5/USBUART_std.c ****             }
1196:Generated_Source\PSoC5/USBUART_std.c ****         }
1197:Generated_Source\PSoC5/USBUART_std.c ****         else
1198:Generated_Source\PSoC5/USBUART_std.c ****         {
ARM GAS  C:\Users\Greg\AppData\Local\Temp\cc66k9pW.s 			page 69


1199:Generated_Source\PSoC5/USBUART_std.c ****             /* OUT Endpoint */
1200:Generated_Source\PSoC5/USBUART_std.c ****             if (USBUART_EP[ep].apiEpState == USBUART_OUT_BUFFER_FULL)
 2596              		.loc 1 1200 0
 2597 00e0 BA79     		ldrb	r2, [r7, #6]	@ zero_extendqisi2
 2598 00e2 1149     		ldr	r1, .L166+4
 2599 00e4 1346     		mov	r3, r2
 2600 00e6 5B00     		lsls	r3, r3, #1
 2601 00e8 1344     		add	r3, r3, r2
 2602 00ea 9B00     		lsls	r3, r3, #2
 2603 00ec 0B44     		add	r3, r3, r1
 2604 00ee 5B78     		ldrb	r3, [r3, #1]
 2605 00f0 DBB2     		uxtb	r3, r3
 2606 00f2 012B     		cmp	r3, #1
 2607 00f4 06D1     		bne	.L164
1201:Generated_Source\PSoC5/USBUART_std.c ****             {       
1202:Generated_Source\PSoC5/USBUART_std.c ****                 /* Allow application to read full buffer */
1203:Generated_Source\PSoC5/USBUART_std.c ****                 USBUART_SIE_EP_BASE.sieEp[ep].epCr0 = USBUART_MODE_NAK_OUT;
 2608              		.loc 1 1203 0
 2609 00f6 0D4A     		ldr	r2, .L166+8
 2610 00f8 BB79     		ldrb	r3, [r7, #6]	@ zero_extendqisi2
 2611 00fa 1B01     		lsls	r3, r3, #4
 2612 00fc 1344     		add	r3, r3, r2
 2613 00fe 0822     		movs	r2, #8
 2614 0100 9A70     		strb	r2, [r3, #2]
 2615 0102 05E0     		b	.L163
 2616              	.L164:
1204:Generated_Source\PSoC5/USBUART_std.c ****             }
1205:Generated_Source\PSoC5/USBUART_std.c ****             else    /* Mark endpoint as empty, so it will be reloaded */
1206:Generated_Source\PSoC5/USBUART_std.c ****             {
1207:Generated_Source\PSoC5/USBUART_std.c ****                 USBUART_SIE_EP_BASE.sieEp[ep].epCr0 = USBUART_MODE_ACK_OUT;
 2617              		.loc 1 1207 0
 2618 0104 094A     		ldr	r2, .L166+8
 2619 0106 BB79     		ldrb	r3, [r7, #6]	@ zero_extendqisi2
 2620 0108 1B01     		lsls	r3, r3, #4
 2621 010a 1344     		add	r3, r3, r2
 2622 010c 0922     		movs	r2, #9
 2623 010e 9A70     		strb	r2, [r3, #2]
 2624              	.L163:
1208:Generated_Source\PSoC5/USBUART_std.c ****             }
1209:Generated_Source\PSoC5/USBUART_std.c ****         }
1210:Generated_Source\PSoC5/USBUART_std.c ****         
1211:Generated_Source\PSoC5/USBUART_std.c ****         requestHandled = USBUART_InitNoDataControlTransfer();
 2625              		.loc 1 1211 0
 2626 0110 FFF7FEFF 		bl	USBUART_InitNoDataControlTransfer
 2627 0114 0346     		mov	r3, r0
 2628 0116 FB71     		strb	r3, [r7, #7]
 2629              	.L159:
1212:Generated_Source\PSoC5/USBUART_std.c ****     }
1213:Generated_Source\PSoC5/USBUART_std.c **** 
1214:Generated_Source\PSoC5/USBUART_std.c ****     return(requestHandled);
 2630              		.loc 1 1214 0
 2631 0118 FB79     		ldrb	r3, [r7, #7]	@ zero_extendqisi2
1215:Generated_Source\PSoC5/USBUART_std.c **** }
 2632              		.loc 1 1215 0
 2633 011a 1846     		mov	r0, r3
 2634 011c 0837     		adds	r7, r7, #8
 2635              		.cfi_def_cfa_offset 8
ARM GAS  C:\Users\Greg\AppData\Local\Temp\cc66k9pW.s 			page 70


 2636 011e BD46     		mov	sp, r7
 2637              		.cfi_def_cfa_register 13
 2638              		@ sp needed
 2639 0120 80BD     		pop	{r7, pc}
 2640              	.L167:
 2641 0122 00BF     		.align	2
 2642              	.L166:
 2643 0124 00600040 		.word	1073766400
 2644 0128 00000000 		.word	USBUART_EP
 2645 012c FC5F0040 		.word	1073766396
 2646              		.cfi_endproc
 2647              	.LFE11:
 2648              		.size	USBUART_ClearEndpointHalt, .-USBUART_ClearEndpointHalt
 2649              		.section	.text.USBUART_ValidateAlternateSetting,"ax",%progbits
 2650              		.align	2
 2651              		.global	USBUART_ValidateAlternateSetting
 2652              		.thumb
 2653              		.thumb_func
 2654              		.type	USBUART_ValidateAlternateSetting, %function
 2655              	USBUART_ValidateAlternateSetting:
 2656              	.LFB12:
1216:Generated_Source\PSoC5/USBUART_std.c **** 
1217:Generated_Source\PSoC5/USBUART_std.c **** 
1218:Generated_Source\PSoC5/USBUART_std.c **** /*******************************************************************************
1219:Generated_Source\PSoC5/USBUART_std.c **** * Function Name: USBUART_ValidateAlternateSetting
1220:Generated_Source\PSoC5/USBUART_std.c **** ****************************************************************************//**
1221:Generated_Source\PSoC5/USBUART_std.c **** *
1222:Generated_Source\PSoC5/USBUART_std.c **** *  Validates (and records) a SET INTERFACE request.
1223:Generated_Source\PSoC5/USBUART_std.c **** *
1224:Generated_Source\PSoC5/USBUART_std.c **** * \return
1225:Generated_Source\PSoC5/USBUART_std.c **** *  requestHandled.
1226:Generated_Source\PSoC5/USBUART_std.c **** *
1227:Generated_Source\PSoC5/USBUART_std.c **** * \reentrant
1228:Generated_Source\PSoC5/USBUART_std.c **** *  No.
1229:Generated_Source\PSoC5/USBUART_std.c **** *
1230:Generated_Source\PSoC5/USBUART_std.c **** *******************************************************************************/
1231:Generated_Source\PSoC5/USBUART_std.c **** uint8 USBUART_ValidateAlternateSetting(void) 
1232:Generated_Source\PSoC5/USBUART_std.c **** {
 2657              		.loc 1 1232 0
 2658              		.cfi_startproc
 2659              		@ args = 0, pretend = 0, frame = 16
 2660              		@ frame_needed = 1, uses_anonymous_args = 0
 2661 0000 80B5     		push	{r7, lr}
 2662              		.cfi_def_cfa_offset 8
 2663              		.cfi_offset 7, -8
 2664              		.cfi_offset 14, -4
 2665 0002 84B0     		sub	sp, sp, #16
 2666              		.cfi_def_cfa_offset 24
 2667 0004 00AF     		add	r7, sp, #0
 2668              		.cfi_def_cfa_register 7
1233:Generated_Source\PSoC5/USBUART_std.c ****     uint8 requestHandled = USBUART_FALSE;
 2669              		.loc 1 1233 0
 2670 0006 0023     		movs	r3, #0
 2671 0008 FB73     		strb	r3, [r7, #15]
1234:Generated_Source\PSoC5/USBUART_std.c ****     
1235:Generated_Source\PSoC5/USBUART_std.c ****     uint8 interfaceNum;
1236:Generated_Source\PSoC5/USBUART_std.c ****     uint8 curInterfacesNum;
ARM GAS  C:\Users\Greg\AppData\Local\Temp\cc66k9pW.s 			page 71


1237:Generated_Source\PSoC5/USBUART_std.c ****     const T_USBUART_LUT CYCODE *pTmp;
1238:Generated_Source\PSoC5/USBUART_std.c ****     
1239:Generated_Source\PSoC5/USBUART_std.c ****     /* Get interface number from the request. */
1240:Generated_Source\PSoC5/USBUART_std.c ****     interfaceNum = (uint8) USBUART_wIndexLoReg;
 2672              		.loc 1 1240 0
 2673 000a 154B     		ldr	r3, .L172
 2674 000c 1B79     		ldrb	r3, [r3, #4]
 2675 000e BB73     		strb	r3, [r7, #14]
1241:Generated_Source\PSoC5/USBUART_std.c ****     
1242:Generated_Source\PSoC5/USBUART_std.c ****     /* Get number of interfaces for current configuration. */
1243:Generated_Source\PSoC5/USBUART_std.c ****     pTmp = USBUART_GetConfigTablePtr(USBUART_configuration - 1u);
 2676              		.loc 1 1243 0
 2677 0010 144B     		ldr	r3, .L172+4
 2678 0012 1B78     		ldrb	r3, [r3]
 2679 0014 DBB2     		uxtb	r3, r3
 2680 0016 013B     		subs	r3, r3, #1
 2681 0018 DBB2     		uxtb	r3, r3
 2682 001a 1846     		mov	r0, r3
 2683 001c FFF7FEFF 		bl	USBUART_GetConfigTablePtr
 2684 0020 B860     		str	r0, [r7, #8]
1244:Generated_Source\PSoC5/USBUART_std.c ****     curInterfacesNum  = ((const uint8 *) pTmp->p_list)[USBUART_CONFIG_DESCR_NUM_INTERFACES];
 2685              		.loc 1 1244 0
 2686 0022 BB68     		ldr	r3, [r7, #8]
 2687 0024 5B68     		ldr	r3, [r3, #4]
 2688 0026 1B79     		ldrb	r3, [r3, #4]
 2689 0028 FB71     		strb	r3, [r7, #7]
1245:Generated_Source\PSoC5/USBUART_std.c **** 
1246:Generated_Source\PSoC5/USBUART_std.c ****     /* Validate that interface number is within range. */
1247:Generated_Source\PSoC5/USBUART_std.c ****     if ((interfaceNum <= curInterfacesNum) || (interfaceNum <= USBUART_MAX_INTERFACES_NUMBER))
 2690              		.loc 1 1247 0
 2691 002a BA7B     		ldrb	r2, [r7, #14]	@ zero_extendqisi2
 2692 002c FB79     		ldrb	r3, [r7, #7]	@ zero_extendqisi2
 2693 002e 9A42     		cmp	r2, r3
 2694 0030 02D9     		bls	.L169
 2695              		.loc 1 1247 0 is_stmt 0 discriminator 1
 2696 0032 BB7B     		ldrb	r3, [r7, #14]	@ zero_extendqisi2
 2697 0034 022B     		cmp	r3, #2
 2698 0036 0ED8     		bhi	.L170
 2699              	.L169:
1248:Generated_Source\PSoC5/USBUART_std.c ****     {
1249:Generated_Source\PSoC5/USBUART_std.c ****         /* Save current and new alternate settings (come with request) to make 
1250:Generated_Source\PSoC5/USBUART_std.c ****         * desicion about following endpoint re-configuration.
1251:Generated_Source\PSoC5/USBUART_std.c ****         */
1252:Generated_Source\PSoC5/USBUART_std.c ****         USBUART_interfaceSettingLast[interfaceNum] = USBUART_interfaceSetting[interfaceNum];
 2700              		.loc 1 1252 0 is_stmt 1
 2701 0038 BB7B     		ldrb	r3, [r7, #14]	@ zero_extendqisi2
 2702 003a BA7B     		ldrb	r2, [r7, #14]	@ zero_extendqisi2
 2703 003c 0A49     		ldr	r1, .L172+8
 2704 003e 8A5C     		ldrb	r2, [r1, r2]
 2705 0040 D1B2     		uxtb	r1, r2
 2706 0042 0A4A     		ldr	r2, .L172+12
 2707 0044 D154     		strb	r1, [r2, r3]
1253:Generated_Source\PSoC5/USBUART_std.c ****         USBUART_interfaceSetting[interfaceNum]     = (uint8) USBUART_wValueLoReg;
 2708              		.loc 1 1253 0
 2709 0046 BB7B     		ldrb	r3, [r7, #14]	@ zero_extendqisi2
 2710 0048 054A     		ldr	r2, .L172
 2711 004a 9278     		ldrb	r2, [r2, #2]
ARM GAS  C:\Users\Greg\AppData\Local\Temp\cc66k9pW.s 			page 72


 2712 004c D1B2     		uxtb	r1, r2
 2713 004e 064A     		ldr	r2, .L172+8
 2714 0050 D154     		strb	r1, [r2, r3]
1254:Generated_Source\PSoC5/USBUART_std.c ****         
1255:Generated_Source\PSoC5/USBUART_std.c ****         requestHandled = USBUART_TRUE;
 2715              		.loc 1 1255 0
 2716 0052 0123     		movs	r3, #1
 2717 0054 FB73     		strb	r3, [r7, #15]
 2718              	.L170:
1256:Generated_Source\PSoC5/USBUART_std.c ****     }
1257:Generated_Source\PSoC5/USBUART_std.c **** 
1258:Generated_Source\PSoC5/USBUART_std.c ****     return (requestHandled);
 2719              		.loc 1 1258 0
 2720 0056 FB7B     		ldrb	r3, [r7, #15]	@ zero_extendqisi2
1259:Generated_Source\PSoC5/USBUART_std.c **** }
 2721              		.loc 1 1259 0
 2722 0058 1846     		mov	r0, r3
 2723 005a 1037     		adds	r7, r7, #16
 2724              		.cfi_def_cfa_offset 8
 2725 005c BD46     		mov	sp, r7
 2726              		.cfi_def_cfa_register 13
 2727              		@ sp needed
 2728 005e 80BD     		pop	{r7, pc}
 2729              	.L173:
 2730              		.align	2
 2731              	.L172:
 2732 0060 00600040 		.word	1073766400
 2733 0064 00000000 		.word	USBUART_configuration
 2734 0068 00000000 		.word	USBUART_interfaceSetting
 2735 006c 00000000 		.word	USBUART_interfaceSettingLast
 2736              		.cfi_endproc
 2737              	.LFE12:
 2738              		.size	USBUART_ValidateAlternateSetting, .-USBUART_ValidateAlternateSetting
 2739              		.bss
 2740              		.align	2
 2741              	USBUART_tBuffer.5117:
 2742 0000 0000     		.space	2
 2743 0002 0000     		.text
 2744              	.Letext0:
 2745              		.file 2 "Generated_Source\\PSoC5\\cytypes.h"
 2746              		.file 3 "Generated_Source\\PSoC5\\USBUART.h"
 2747              		.file 4 "Generated_Source\\PSoC5\\USBUART_pvt.h"