ARM GAS  C:\Users\Greg\AppData\Local\Temp\ccWhExNe.s 			page 1


   1              		.syntax unified
   2              		.cpu cortex-m3
   3              		.fpu softvfp
   4              		.eabi_attribute 20, 1
   5              		.eabi_attribute 21, 1
   6              		.eabi_attribute 23, 3
   7              		.eabi_attribute 24, 1
   8              		.eabi_attribute 25, 1
   9              		.eabi_attribute 26, 1
  10              		.eabi_attribute 30, 6
  11              		.eabi_attribute 34, 1
  12              		.eabi_attribute 18, 4
  13              		.thumb
  14              		.file	"USBUART_drv.c"
  15              		.text
  16              	.Ltext0:
  17              		.cfi_sections	.debug_frame
  18              		.comm	USBUART_EP,108,4
  19              		.comm	USBUART_configuration,1,1
  20              		.comm	USBUART_interfaceNumber,1,1
  21              		.comm	USBUART_configurationChanged,1,1
  22              		.comm	USBUART_deviceAddress,1,1
  23              		.comm	USBUART_deviceStatus,1,1
  24              		.comm	USBUART_interfaceSetting,2,4
  25              		.comm	USBUART_interfaceSettingLast,2,4
  26              		.comm	USBUART_interfaceStatus,2,4
  27              		.comm	USBUART_device,1,1
  28              		.comm	USBUART_interfaceClass,4,4
  29              		.comm	USBUART_ep0Toggle,1,1
  30              		.comm	USBUART_lastPacketSize,1,1
  31              		.comm	USBUART_transferState,1,1
  32              		.comm	USBUART_currentTD,12,4
  33              		.comm	USBUART_ep0Mode,1,1
  34              		.comm	USBUART_ep0Count,1,1
  35              		.comm	USBUART_transferByteCount,2,2
  36              		.section	.text.USBUART_EP_0_ISR,"ax",%progbits
  37              		.align	2
  38              		.global	USBUART_EP_0_ISR
  39              		.thumb
  40              		.thumb_func
  41              		.type	USBUART_EP_0_ISR, %function
  42              	USBUART_EP_0_ISR:
  43              	.LFB0:
  44              		.file 1 "Generated_Source\\PSoC5\\USBUART_drv.c"
   1:Generated_Source\PSoC5/USBUART_drv.c **** /***************************************************************************//**
   2:Generated_Source\PSoC5/USBUART_drv.c **** * \file USBUART_drv.c
   3:Generated_Source\PSoC5/USBUART_drv.c **** * \version 3.10
   4:Generated_Source\PSoC5/USBUART_drv.c **** *
   5:Generated_Source\PSoC5/USBUART_drv.c **** * \brief
   6:Generated_Source\PSoC5/USBUART_drv.c **** *  This file contains the Endpoint 0 Driver for the USBFS Component.  
   7:Generated_Source\PSoC5/USBUART_drv.c **** *
   8:Generated_Source\PSoC5/USBUART_drv.c **** ********************************************************************************
   9:Generated_Source\PSoC5/USBUART_drv.c **** * \copyright
  10:Generated_Source\PSoC5/USBUART_drv.c **** * Copyright 2008-2016, Cypress Semiconductor Corporation.  All rights reserved.
  11:Generated_Source\PSoC5/USBUART_drv.c **** * You may use this file only in accordance with the license, terms, conditions,
  12:Generated_Source\PSoC5/USBUART_drv.c **** * disclaimers, and limitations in the end user license agreement accompanying
  13:Generated_Source\PSoC5/USBUART_drv.c **** * the software package with which this file was provided.
ARM GAS  C:\Users\Greg\AppData\Local\Temp\ccWhExNe.s 			page 2


  14:Generated_Source\PSoC5/USBUART_drv.c **** *******************************************************************************/
  15:Generated_Source\PSoC5/USBUART_drv.c **** 
  16:Generated_Source\PSoC5/USBUART_drv.c **** #include "USBUART_pvt.h"
  17:Generated_Source\PSoC5/USBUART_drv.c **** 
  18:Generated_Source\PSoC5/USBUART_drv.c **** 
  19:Generated_Source\PSoC5/USBUART_drv.c **** 
  20:Generated_Source\PSoC5/USBUART_drv.c **** /***************************************
  21:Generated_Source\PSoC5/USBUART_drv.c **** * Global data allocation
  22:Generated_Source\PSoC5/USBUART_drv.c **** ***************************************/
  23:Generated_Source\PSoC5/USBUART_drv.c **** 
  24:Generated_Source\PSoC5/USBUART_drv.c **** volatile T_USBUART_EP_CTL_BLOCK USBUART_EP[USBUART_MAX_EP];
  25:Generated_Source\PSoC5/USBUART_drv.c **** 
  26:Generated_Source\PSoC5/USBUART_drv.c **** /** Contains the current configuration number, which is set by the host using a 
  27:Generated_Source\PSoC5/USBUART_drv.c ****  * SET_CONFIGURATION request. This variable is initialized to zero in 
  28:Generated_Source\PSoC5/USBUART_drv.c ****  * USBFS_InitComponent() API and can be read by the USBFS_GetConfiguration() 
  29:Generated_Source\PSoC5/USBUART_drv.c ****  * API.*/
  30:Generated_Source\PSoC5/USBUART_drv.c **** volatile uint8 USBUART_configuration;
  31:Generated_Source\PSoC5/USBUART_drv.c **** 
  32:Generated_Source\PSoC5/USBUART_drv.c **** /** Contains the current interface number.*/
  33:Generated_Source\PSoC5/USBUART_drv.c **** volatile uint8 USBUART_interfaceNumber;
  34:Generated_Source\PSoC5/USBUART_drv.c **** 
  35:Generated_Source\PSoC5/USBUART_drv.c **** /** This variable is set to one after SET_CONFIGURATION and SET_INTERFACE 
  36:Generated_Source\PSoC5/USBUART_drv.c ****  *requests. It can be read by the USBFS_IsConfigurationChanged() API */
  37:Generated_Source\PSoC5/USBUART_drv.c **** volatile uint8 USBUART_configurationChanged;
  38:Generated_Source\PSoC5/USBUART_drv.c **** 
  39:Generated_Source\PSoC5/USBUART_drv.c **** /** Contains the current device address.*/
  40:Generated_Source\PSoC5/USBUART_drv.c **** volatile uint8 USBUART_deviceAddress;
  41:Generated_Source\PSoC5/USBUART_drv.c **** 
  42:Generated_Source\PSoC5/USBUART_drv.c **** /** This is a two-bit variable that contains power status in the bit 0 
  43:Generated_Source\PSoC5/USBUART_drv.c ****  * (DEVICE_STATUS_BUS_POWERED or DEVICE_STATUS_SELF_POWERED) and remote wakeup 
  44:Generated_Source\PSoC5/USBUART_drv.c ****  * status (DEVICE_STATUS_REMOTE_WAKEUP) in the bit 1. This variable is 
  45:Generated_Source\PSoC5/USBUART_drv.c ****  * initialized to zero in USBFS_InitComponent() API, configured by the 
  46:Generated_Source\PSoC5/USBUART_drv.c ****  * USBFS_SetPowerStatus() API. The remote wakeup status cannot be set using the 
  47:Generated_Source\PSoC5/USBUART_drv.c ****  * API SetPowerStatus(). */
  48:Generated_Source\PSoC5/USBUART_drv.c **** volatile uint8 USBUART_deviceStatus;
  49:Generated_Source\PSoC5/USBUART_drv.c **** 
  50:Generated_Source\PSoC5/USBUART_drv.c **** volatile uint8 USBUART_interfaceSetting[USBUART_MAX_INTERFACES_NUMBER];
  51:Generated_Source\PSoC5/USBUART_drv.c **** volatile uint8 USBUART_interfaceSetting_last[USBUART_MAX_INTERFACES_NUMBER];
  52:Generated_Source\PSoC5/USBUART_drv.c **** volatile uint8 USBUART_interfaceStatus[USBUART_MAX_INTERFACES_NUMBER];
  53:Generated_Source\PSoC5/USBUART_drv.c **** 
  54:Generated_Source\PSoC5/USBUART_drv.c **** /** Contains the started device number. This variable is set by the 
  55:Generated_Source\PSoC5/USBUART_drv.c ****  * USBFS_Start() or USBFS_InitComponent() APIs.*/
  56:Generated_Source\PSoC5/USBUART_drv.c **** volatile uint8 USBUART_device;
  57:Generated_Source\PSoC5/USBUART_drv.c **** 
  58:Generated_Source\PSoC5/USBUART_drv.c **** /** Initialized class array for each interface. It is used for handling Class 
  59:Generated_Source\PSoC5/USBUART_drv.c ****  * specific requests depend on interface class. Different classes in multiple 
  60:Generated_Source\PSoC5/USBUART_drv.c ****  * alternate settings are not supported.*/
  61:Generated_Source\PSoC5/USBUART_drv.c **** const uint8 CYCODE *USBUART_interfaceClass;
  62:Generated_Source\PSoC5/USBUART_drv.c **** 
  63:Generated_Source\PSoC5/USBUART_drv.c **** 
  64:Generated_Source\PSoC5/USBUART_drv.c **** /***************************************
  65:Generated_Source\PSoC5/USBUART_drv.c **** * Local data allocation
  66:Generated_Source\PSoC5/USBUART_drv.c **** ***************************************/
  67:Generated_Source\PSoC5/USBUART_drv.c **** 
  68:Generated_Source\PSoC5/USBUART_drv.c **** volatile uint8  USBUART_ep0Toggle;
  69:Generated_Source\PSoC5/USBUART_drv.c **** volatile uint8  USBUART_lastPacketSize;
  70:Generated_Source\PSoC5/USBUART_drv.c **** 
ARM GAS  C:\Users\Greg\AppData\Local\Temp\ccWhExNe.s 			page 3


  71:Generated_Source\PSoC5/USBUART_drv.c **** /** This variable is used by the communication functions to handle the current 
  72:Generated_Source\PSoC5/USBUART_drv.c **** * transfer state.
  73:Generated_Source\PSoC5/USBUART_drv.c **** * Initialized to TRANS_STATE_IDLE in the USBFS_InitComponent() API and after a 
  74:Generated_Source\PSoC5/USBUART_drv.c **** * complete transfer in the status stage.
  75:Generated_Source\PSoC5/USBUART_drv.c **** * Changed to the TRANS_STATE_CONTROL_READ or TRANS_STATE_CONTROL_WRITE in setup 
  76:Generated_Source\PSoC5/USBUART_drv.c **** * transaction depending on the request type.
  77:Generated_Source\PSoC5/USBUART_drv.c **** */
  78:Generated_Source\PSoC5/USBUART_drv.c **** volatile uint8  USBUART_transferState;
  79:Generated_Source\PSoC5/USBUART_drv.c **** volatile T_USBUART_TD USBUART_currentTD;
  80:Generated_Source\PSoC5/USBUART_drv.c **** volatile uint8  USBUART_ep0Mode;
  81:Generated_Source\PSoC5/USBUART_drv.c **** volatile uint8  USBUART_ep0Count;
  82:Generated_Source\PSoC5/USBUART_drv.c **** volatile uint16 USBUART_transferByteCount;
  83:Generated_Source\PSoC5/USBUART_drv.c **** 
  84:Generated_Source\PSoC5/USBUART_drv.c **** 
  85:Generated_Source\PSoC5/USBUART_drv.c **** /*******************************************************************************
  86:Generated_Source\PSoC5/USBUART_drv.c **** * Function Name: USBUART_ep_0_Interrupt
  87:Generated_Source\PSoC5/USBUART_drv.c **** ****************************************************************************//**
  88:Generated_Source\PSoC5/USBUART_drv.c **** *
  89:Generated_Source\PSoC5/USBUART_drv.c **** *  This Interrupt Service Routine handles Endpoint 0 (Control Pipe) traffic.
  90:Generated_Source\PSoC5/USBUART_drv.c **** *  It dispatches setup requests and handles the data and status stages.
  91:Generated_Source\PSoC5/USBUART_drv.c **** *
  92:Generated_Source\PSoC5/USBUART_drv.c **** *
  93:Generated_Source\PSoC5/USBUART_drv.c **** *******************************************************************************/
  94:Generated_Source\PSoC5/USBUART_drv.c **** CY_ISR(USBUART_EP_0_ISR)
  95:Generated_Source\PSoC5/USBUART_drv.c **** {
  45              		.loc 1 95 0
  46              		.cfi_startproc
  47              		@ args = 0, pretend = 0, frame = 8
  48              		@ frame_needed = 1, uses_anonymous_args = 0
  49 0000 80B5     		push	{r7, lr}
  50              		.cfi_def_cfa_offset 8
  51              		.cfi_offset 7, -8
  52              		.cfi_offset 14, -4
  53 0002 82B0     		sub	sp, sp, #8
  54              		.cfi_def_cfa_offset 16
  55 0004 00AF     		add	r7, sp, #0
  56              		.cfi_def_cfa_register 7
  96:Generated_Source\PSoC5/USBUART_drv.c ****     uint8 tempReg;
  97:Generated_Source\PSoC5/USBUART_drv.c ****     uint8 modifyReg;
  98:Generated_Source\PSoC5/USBUART_drv.c **** 
  99:Generated_Source\PSoC5/USBUART_drv.c **** #ifdef USBUART_EP_0_ISR_ENTRY_CALLBACK
 100:Generated_Source\PSoC5/USBUART_drv.c ****     USBUART_EP_0_ISR_EntryCallback();
 101:Generated_Source\PSoC5/USBUART_drv.c **** #endif /* (USBUART_EP_0_ISR_ENTRY_CALLBACK) */
 102:Generated_Source\PSoC5/USBUART_drv.c ****     
 103:Generated_Source\PSoC5/USBUART_drv.c ****     tempReg = USBUART_EP0_CR_REG;
  57              		.loc 1 103 0
  58 0006 374B     		ldr	r3, .L11
  59 0008 1B78     		ldrb	r3, [r3]
  60 000a BB71     		strb	r3, [r7, #6]
 104:Generated_Source\PSoC5/USBUART_drv.c ****     if ((tempReg & USBUART_MODE_ACKD) != 0u)
  61              		.loc 1 104 0
  62 000c BB79     		ldrb	r3, [r7, #6]	@ zero_extendqisi2
  63 000e 03F01003 		and	r3, r3, #16
  64 0012 002B     		cmp	r3, #0
  65 0014 63D0     		beq	.L1
 105:Generated_Source\PSoC5/USBUART_drv.c ****     {
 106:Generated_Source\PSoC5/USBUART_drv.c ****         modifyReg = 1u;
ARM GAS  C:\Users\Greg\AppData\Local\Temp\ccWhExNe.s 			page 4


  66              		.loc 1 106 0
  67 0016 0123     		movs	r3, #1
  68 0018 FB71     		strb	r3, [r7, #7]
 107:Generated_Source\PSoC5/USBUART_drv.c ****         if ((tempReg & USBUART_MODE_SETUP_RCVD) != 0u)
  69              		.loc 1 107 0
  70 001a BB79     		ldrb	r3, [r7, #6]	@ zero_extendqisi2
  71 001c 5BB2     		sxtb	r3, r3
  72 001e 002B     		cmp	r3, #0
  73 0020 13DA     		bge	.L3
 108:Generated_Source\PSoC5/USBUART_drv.c ****         {
 109:Generated_Source\PSoC5/USBUART_drv.c ****             if ((tempReg & USBUART_MODE_MASK) != USBUART_MODE_NAK_IN_OUT)
  74              		.loc 1 109 0
  75 0022 BB79     		ldrb	r3, [r7, #6]	@ zero_extendqisi2
  76 0024 03F00F03 		and	r3, r3, #15
  77 0028 012B     		cmp	r3, #1
  78 002a 02D0     		beq	.L4
 110:Generated_Source\PSoC5/USBUART_drv.c ****             {
 111:Generated_Source\PSoC5/USBUART_drv.c ****                 /* Mode not equal to NAK_IN_OUT: invalid setup */
 112:Generated_Source\PSoC5/USBUART_drv.c ****                 modifyReg = 0u;
  79              		.loc 1 112 0
  80 002c 0023     		movs	r3, #0
  81 002e FB71     		strb	r3, [r7, #7]
  82 0030 1DE0     		b	.L6
  83              	.L4:
 113:Generated_Source\PSoC5/USBUART_drv.c ****             }
 114:Generated_Source\PSoC5/USBUART_drv.c ****             else
 115:Generated_Source\PSoC5/USBUART_drv.c ****             {
 116:Generated_Source\PSoC5/USBUART_drv.c ****                 USBUART_HandleSetup();
  84              		.loc 1 116 0
  85 0032 FFF7FEFF 		bl	USBUART_HandleSetup
 117:Generated_Source\PSoC5/USBUART_drv.c ****                 
 118:Generated_Source\PSoC5/USBUART_drv.c ****                 if ((USBUART_ep0Mode & USBUART_MODE_SETUP_RCVD) != 0u)
  86              		.loc 1 118 0
  87 0036 2C4B     		ldr	r3, .L11+4
  88 0038 1B78     		ldrb	r3, [r3]
  89 003a DBB2     		uxtb	r3, r3
  90 003c DBB2     		uxtb	r3, r3
  91 003e 5BB2     		sxtb	r3, r3
  92 0040 002B     		cmp	r3, #0
  93 0042 14DA     		bge	.L6
 119:Generated_Source\PSoC5/USBUART_drv.c ****                 {
 120:Generated_Source\PSoC5/USBUART_drv.c ****                     /* SETUP bit set: exit without mode modificaiton */
 121:Generated_Source\PSoC5/USBUART_drv.c ****                     modifyReg = 0u;
  94              		.loc 1 121 0
  95 0044 0023     		movs	r3, #0
  96 0046 FB71     		strb	r3, [r7, #7]
  97 0048 11E0     		b	.L6
  98              	.L3:
 122:Generated_Source\PSoC5/USBUART_drv.c ****                 }
 123:Generated_Source\PSoC5/USBUART_drv.c ****             }
 124:Generated_Source\PSoC5/USBUART_drv.c ****         }
 125:Generated_Source\PSoC5/USBUART_drv.c ****         else if ((tempReg & USBUART_MODE_IN_RCVD) != 0u)
  99              		.loc 1 125 0
 100 004a BB79     		ldrb	r3, [r7, #6]	@ zero_extendqisi2
 101 004c 03F04003 		and	r3, r3, #64
 102 0050 002B     		cmp	r3, #0
 103 0052 02D0     		beq	.L7
ARM GAS  C:\Users\Greg\AppData\Local\Temp\ccWhExNe.s 			page 5


 126:Generated_Source\PSoC5/USBUART_drv.c ****         {
 127:Generated_Source\PSoC5/USBUART_drv.c ****             USBUART_HandleIN();
 104              		.loc 1 127 0
 105 0054 FFF7FEFF 		bl	USBUART_HandleIN
 106 0058 09E0     		b	.L6
 107              	.L7:
 128:Generated_Source\PSoC5/USBUART_drv.c ****         }
 129:Generated_Source\PSoC5/USBUART_drv.c ****         else if ((tempReg & USBUART_MODE_OUT_RCVD) != 0u)
 108              		.loc 1 129 0
 109 005a BB79     		ldrb	r3, [r7, #6]	@ zero_extendqisi2
 110 005c 03F02003 		and	r3, r3, #32
 111 0060 002B     		cmp	r3, #0
 112 0062 02D0     		beq	.L8
 130:Generated_Source\PSoC5/USBUART_drv.c ****         {
 131:Generated_Source\PSoC5/USBUART_drv.c ****             USBUART_HandleOUT();
 113              		.loc 1 131 0
 114 0064 FFF7FEFF 		bl	USBUART_HandleOUT
 115 0068 01E0     		b	.L6
 116              	.L8:
 132:Generated_Source\PSoC5/USBUART_drv.c ****         }
 133:Generated_Source\PSoC5/USBUART_drv.c ****         else
 134:Generated_Source\PSoC5/USBUART_drv.c ****         {
 135:Generated_Source\PSoC5/USBUART_drv.c ****             modifyReg = 0u;
 117              		.loc 1 135 0
 118 006a 0023     		movs	r3, #0
 119 006c FB71     		strb	r3, [r7, #7]
 120              	.L6:
 136:Generated_Source\PSoC5/USBUART_drv.c ****         }
 137:Generated_Source\PSoC5/USBUART_drv.c ****         
 138:Generated_Source\PSoC5/USBUART_drv.c ****         /* Modify the EP0_CR register */
 139:Generated_Source\PSoC5/USBUART_drv.c ****         if (modifyReg != 0u)
 121              		.loc 1 139 0
 122 006e FB79     		ldrb	r3, [r7, #7]	@ zero_extendqisi2
 123 0070 002B     		cmp	r3, #0
 124 0072 34D0     		beq	.L1
 140:Generated_Source\PSoC5/USBUART_drv.c ****         {
 141:Generated_Source\PSoC5/USBUART_drv.c ****             
 142:Generated_Source\PSoC5/USBUART_drv.c ****             tempReg = USBUART_EP0_CR_REG;
 125              		.loc 1 142 0
 126 0074 1B4B     		ldr	r3, .L11
 127 0076 1B78     		ldrb	r3, [r3]
 128 0078 BB71     		strb	r3, [r7, #6]
 143:Generated_Source\PSoC5/USBUART_drv.c ****             
 144:Generated_Source\PSoC5/USBUART_drv.c ****             /* Make sure that SETUP bit is cleared before modification */
 145:Generated_Source\PSoC5/USBUART_drv.c ****             if ((tempReg & USBUART_MODE_SETUP_RCVD) == 0u)
 129              		.loc 1 145 0
 130 007a BB79     		ldrb	r3, [r7, #6]	@ zero_extendqisi2
 131 007c 5BB2     		sxtb	r3, r3
 132 007e 002B     		cmp	r3, #0
 133 0080 2DDB     		blt	.L1
 146:Generated_Source\PSoC5/USBUART_drv.c ****             {
 147:Generated_Source\PSoC5/USBUART_drv.c ****                 /* Update count register */
 148:Generated_Source\PSoC5/USBUART_drv.c ****                 tempReg = (uint8) USBUART_ep0Toggle | USBUART_ep0Count;
 134              		.loc 1 148 0
 135 0082 1A4B     		ldr	r3, .L11+8
 136 0084 1B78     		ldrb	r3, [r3]
 137 0086 DAB2     		uxtb	r2, r3
ARM GAS  C:\Users\Greg\AppData\Local\Temp\ccWhExNe.s 			page 6


 138 0088 194B     		ldr	r3, .L11+12
 139 008a 1B78     		ldrb	r3, [r3]
 140 008c DBB2     		uxtb	r3, r3
 141 008e 1343     		orrs	r3, r3, r2
 142 0090 BB71     		strb	r3, [r7, #6]
 149:Generated_Source\PSoC5/USBUART_drv.c ****                 USBUART_EP0_CNT_REG = tempReg;
 143              		.loc 1 149 0
 144 0092 184A     		ldr	r2, .L11+16
 145 0094 BB79     		ldrb	r3, [r7, #6]
 146 0096 1370     		strb	r3, [r2]
 150:Generated_Source\PSoC5/USBUART_drv.c ****                
 151:Generated_Source\PSoC5/USBUART_drv.c ****                 /* Make sure that previous write operaiton was successful */
 152:Generated_Source\PSoC5/USBUART_drv.c ****                 if (tempReg == USBUART_EP0_CNT_REG)
 147              		.loc 1 152 0
 148 0098 164B     		ldr	r3, .L11+16
 149 009a 1B78     		ldrb	r3, [r3]
 150 009c DBB2     		uxtb	r3, r3
 151 009e BA79     		ldrb	r2, [r7, #6]	@ zero_extendqisi2
 152 00a0 9A42     		cmp	r2, r3
 153 00a2 1CD1     		bne	.L1
 154              	.L10:
 153:Generated_Source\PSoC5/USBUART_drv.c ****                 {
 154:Generated_Source\PSoC5/USBUART_drv.c ****                     /* Repeat until next successful write operation */
 155:Generated_Source\PSoC5/USBUART_drv.c ****                     do
 156:Generated_Source\PSoC5/USBUART_drv.c ****                     {
 157:Generated_Source\PSoC5/USBUART_drv.c ****                         /* Init temporary variable */
 158:Generated_Source\PSoC5/USBUART_drv.c ****                         modifyReg = USBUART_ep0Mode;
 155              		.loc 1 158 0
 156 00a4 104B     		ldr	r3, .L11+4
 157 00a6 1B78     		ldrb	r3, [r3]
 158 00a8 FB71     		strb	r3, [r7, #7]
 159:Generated_Source\PSoC5/USBUART_drv.c ****                         
 160:Generated_Source\PSoC5/USBUART_drv.c ****                         /* Unlock register */
 161:Generated_Source\PSoC5/USBUART_drv.c ****                         tempReg = (uint8) (USBUART_EP0_CR_REG & USBUART_MODE_SETUP_RCVD);
 159              		.loc 1 161 0
 160 00aa 0E4B     		ldr	r3, .L11
 161 00ac 1B78     		ldrb	r3, [r3]
 162 00ae DBB2     		uxtb	r3, r3
 163 00b0 23F07F03 		bic	r3, r3, #127
 164 00b4 BB71     		strb	r3, [r7, #6]
 162:Generated_Source\PSoC5/USBUART_drv.c ****                         
 163:Generated_Source\PSoC5/USBUART_drv.c ****                         /* Check if SETUP bit is not set */
 164:Generated_Source\PSoC5/USBUART_drv.c ****                         if (0u == tempReg)
 165              		.loc 1 164 0
 166 00b6 BB79     		ldrb	r3, [r7, #6]	@ zero_extendqisi2
 167 00b8 002B     		cmp	r3, #0
 168 00ba 0AD1     		bne	.L9
 165:Generated_Source\PSoC5/USBUART_drv.c ****                         {
 166:Generated_Source\PSoC5/USBUART_drv.c ****                             /* Set the Mode Register  */
 167:Generated_Source\PSoC5/USBUART_drv.c ****                             USBUART_EP0_CR_REG = USBUART_ep0Mode;
 169              		.loc 1 167 0
 170 00bc 094B     		ldr	r3, .L11
 171 00be 0A4A     		ldr	r2, .L11+4
 172 00c0 1278     		ldrb	r2, [r2]
 173 00c2 D2B2     		uxtb	r2, r2
 174 00c4 1A70     		strb	r2, [r3]
 168:Generated_Source\PSoC5/USBUART_drv.c ****                             
ARM GAS  C:\Users\Greg\AppData\Local\Temp\ccWhExNe.s 			page 7


 169:Generated_Source\PSoC5/USBUART_drv.c ****                             /* Writing check */
 170:Generated_Source\PSoC5/USBUART_drv.c ****                             modifyReg = USBUART_EP0_CR_REG & USBUART_MODE_MASK;
 175              		.loc 1 170 0
 176 00c6 074B     		ldr	r3, .L11
 177 00c8 1B78     		ldrb	r3, [r3]
 178 00ca DBB2     		uxtb	r3, r3
 179 00cc 03F00F03 		and	r3, r3, #15
 180 00d0 FB71     		strb	r3, [r7, #7]
 181              	.L9:
 171:Generated_Source\PSoC5/USBUART_drv.c ****                         }
 172:Generated_Source\PSoC5/USBUART_drv.c ****                     }
 173:Generated_Source\PSoC5/USBUART_drv.c ****                     while (modifyReg != USBUART_ep0Mode);
 182              		.loc 1 173 0
 183 00d2 054B     		ldr	r3, .L11+4
 184 00d4 1B78     		ldrb	r3, [r3]
 185 00d6 DBB2     		uxtb	r3, r3
 186 00d8 FA79     		ldrb	r2, [r7, #7]	@ zero_extendqisi2
 187 00da 9A42     		cmp	r2, r3
 188 00dc E2D1     		bne	.L10
 189              	.L1:
 174:Generated_Source\PSoC5/USBUART_drv.c ****                 }
 175:Generated_Source\PSoC5/USBUART_drv.c ****             }
 176:Generated_Source\PSoC5/USBUART_drv.c ****         }
 177:Generated_Source\PSoC5/USBUART_drv.c ****     }
 178:Generated_Source\PSoC5/USBUART_drv.c **** 
 179:Generated_Source\PSoC5/USBUART_drv.c ****     USBUART_ClearSieInterruptSource(USBUART_INTR_SIE_EP0_INTR);
 180:Generated_Source\PSoC5/USBUART_drv.c **** 	
 181:Generated_Source\PSoC5/USBUART_drv.c **** #ifdef USBUART_EP_0_ISR_EXIT_CALLBACK
 182:Generated_Source\PSoC5/USBUART_drv.c ****     USBUART_EP_0_ISR_ExitCallback();
 183:Generated_Source\PSoC5/USBUART_drv.c **** #endif /* (USBUART_EP_0_ISR_EXIT_CALLBACK) */
 184:Generated_Source\PSoC5/USBUART_drv.c **** }
 190              		.loc 1 184 0
 191 00de 0837     		adds	r7, r7, #8
 192              		.cfi_def_cfa_offset 8
 193 00e0 BD46     		mov	sp, r7
 194              		.cfi_def_cfa_register 13
 195              		@ sp needed
 196 00e2 80BD     		pop	{r7, pc}
 197              	.L12:
 198              		.align	2
 199              	.L11:
 200 00e4 28600040 		.word	1073766440
 201 00e8 00000000 		.word	USBUART_ep0Mode
 202 00ec 00000000 		.word	USBUART_ep0Toggle
 203 00f0 00000000 		.word	USBUART_ep0Count
 204 00f4 29600040 		.word	1073766441
 205              		.cfi_endproc
 206              	.LFE0:
 207              		.size	USBUART_EP_0_ISR, .-USBUART_EP_0_ISR
 208              		.section	.text.USBUART_HandleSetup,"ax",%progbits
 209              		.align	2
 210              		.global	USBUART_HandleSetup
 211              		.thumb
 212              		.thumb_func
 213              		.type	USBUART_HandleSetup, %function
 214              	USBUART_HandleSetup:
 215              	.LFB1:
ARM GAS  C:\Users\Greg\AppData\Local\Temp\ccWhExNe.s 			page 8


 185:Generated_Source\PSoC5/USBUART_drv.c **** 
 186:Generated_Source\PSoC5/USBUART_drv.c **** 
 187:Generated_Source\PSoC5/USBUART_drv.c **** /*******************************************************************************
 188:Generated_Source\PSoC5/USBUART_drv.c **** * Function Name: USBUART_HandleSetup
 189:Generated_Source\PSoC5/USBUART_drv.c **** ****************************************************************************//**
 190:Generated_Source\PSoC5/USBUART_drv.c **** *
 191:Generated_Source\PSoC5/USBUART_drv.c **** *  This Routine dispatches requests for the four USB request types
 192:Generated_Source\PSoC5/USBUART_drv.c **** *
 193:Generated_Source\PSoC5/USBUART_drv.c **** *
 194:Generated_Source\PSoC5/USBUART_drv.c **** * \reentrant
 195:Generated_Source\PSoC5/USBUART_drv.c **** *  No.
 196:Generated_Source\PSoC5/USBUART_drv.c **** *
 197:Generated_Source\PSoC5/USBUART_drv.c **** *******************************************************************************/
 198:Generated_Source\PSoC5/USBUART_drv.c **** void USBUART_HandleSetup(void) 
 199:Generated_Source\PSoC5/USBUART_drv.c **** {
 216              		.loc 1 199 0
 217              		.cfi_startproc
 218              		@ args = 0, pretend = 0, frame = 8
 219              		@ frame_needed = 1, uses_anonymous_args = 0
 220 0000 80B5     		push	{r7, lr}
 221              		.cfi_def_cfa_offset 8
 222              		.cfi_offset 7, -8
 223              		.cfi_offset 14, -4
 224 0002 82B0     		sub	sp, sp, #8
 225              		.cfi_def_cfa_offset 16
 226 0004 00AF     		add	r7, sp, #0
 227              		.cfi_def_cfa_register 7
 200:Generated_Source\PSoC5/USBUART_drv.c ****     uint8 requestHandled;
 201:Generated_Source\PSoC5/USBUART_drv.c ****     
 202:Generated_Source\PSoC5/USBUART_drv.c ****     /* Clear register lock by SIE (read register) and clear setup bit 
 203:Generated_Source\PSoC5/USBUART_drv.c ****     * (write any value in register).
 204:Generated_Source\PSoC5/USBUART_drv.c ****     */
 205:Generated_Source\PSoC5/USBUART_drv.c ****     requestHandled = (uint8) USBUART_EP0_CR_REG;
 228              		.loc 1 205 0
 229 0006 1D4B     		ldr	r3, .L22
 230 0008 1B78     		ldrb	r3, [r3]
 231 000a FB71     		strb	r3, [r7, #7]
 206:Generated_Source\PSoC5/USBUART_drv.c ****     USBUART_EP0_CR_REG = (uint8) requestHandled;
 232              		.loc 1 206 0
 233 000c 1B4A     		ldr	r2, .L22
 234 000e FB79     		ldrb	r3, [r7, #7]
 235 0010 1370     		strb	r3, [r2]
 207:Generated_Source\PSoC5/USBUART_drv.c ****     requestHandled = (uint8) USBUART_EP0_CR_REG;
 236              		.loc 1 207 0
 237 0012 1A4B     		ldr	r3, .L22
 238 0014 1B78     		ldrb	r3, [r3]
 239 0016 FB71     		strb	r3, [r7, #7]
 208:Generated_Source\PSoC5/USBUART_drv.c **** 
 209:Generated_Source\PSoC5/USBUART_drv.c ****     if ((requestHandled & USBUART_MODE_SETUP_RCVD) != 0u)
 240              		.loc 1 209 0
 241 0018 FB79     		ldrb	r3, [r7, #7]	@ zero_extendqisi2
 242 001a 5BB2     		sxtb	r3, r3
 243 001c 002B     		cmp	r3, #0
 244 001e 03DA     		bge	.L14
 210:Generated_Source\PSoC5/USBUART_drv.c ****     {
 211:Generated_Source\PSoC5/USBUART_drv.c ****         /* SETUP bit is set: exit without mode modification. */
 212:Generated_Source\PSoC5/USBUART_drv.c ****         USBUART_ep0Mode = requestHandled;
ARM GAS  C:\Users\Greg\AppData\Local\Temp\ccWhExNe.s 			page 9


 245              		.loc 1 212 0
 246 0020 174A     		ldr	r2, .L22+4
 247 0022 FB79     		ldrb	r3, [r7, #7]
 248 0024 1370     		strb	r3, [r2]
 249 0026 25E0     		b	.L13
 250              	.L14:
 213:Generated_Source\PSoC5/USBUART_drv.c ****     }
 214:Generated_Source\PSoC5/USBUART_drv.c ****     else
 215:Generated_Source\PSoC5/USBUART_drv.c ****     {
 216:Generated_Source\PSoC5/USBUART_drv.c ****         /* In case the previous transfer did not complete, close it out */
 217:Generated_Source\PSoC5/USBUART_drv.c ****         USBUART_UpdateStatusBlock(USBUART_XFER_PREMATURE);
 251              		.loc 1 217 0
 252 0028 0220     		movs	r0, #2
 253 002a FFF7FEFF 		bl	USBUART_UpdateStatusBlock
 218:Generated_Source\PSoC5/USBUART_drv.c **** 
 219:Generated_Source\PSoC5/USBUART_drv.c ****         /* Check request type. */
 220:Generated_Source\PSoC5/USBUART_drv.c ****         switch (USBUART_bmRequestTypeReg & USBUART_RQST_TYPE_MASK)
 254              		.loc 1 220 0
 255 002e 154B     		ldr	r3, .L22+8
 256 0030 1B78     		ldrb	r3, [r3]
 257 0032 DBB2     		uxtb	r3, r3
 258 0034 03F06003 		and	r3, r3, #96
 259 0038 202B     		cmp	r3, #32
 260 003a 08D0     		beq	.L17
 261 003c 402B     		cmp	r3, #64
 262 003e 0BD0     		beq	.L18
 263 0040 002B     		cmp	r3, #0
 264 0042 0ED1     		bne	.L21
 221:Generated_Source\PSoC5/USBUART_drv.c ****         {
 222:Generated_Source\PSoC5/USBUART_drv.c ****             case USBUART_RQST_TYPE_STD:
 223:Generated_Source\PSoC5/USBUART_drv.c ****                 requestHandled = USBUART_HandleStandardRqst();
 265              		.loc 1 223 0
 266 0044 FFF7FEFF 		bl	USBUART_HandleStandardRqst
 267 0048 0346     		mov	r3, r0
 268 004a FB71     		strb	r3, [r7, #7]
 224:Generated_Source\PSoC5/USBUART_drv.c ****                 break;
 269              		.loc 1 224 0
 270 004c 0CE0     		b	.L20
 271              	.L17:
 225:Generated_Source\PSoC5/USBUART_drv.c ****                 
 226:Generated_Source\PSoC5/USBUART_drv.c ****             case USBUART_RQST_TYPE_CLS:
 227:Generated_Source\PSoC5/USBUART_drv.c ****                 requestHandled = USBUART_DispatchClassRqst();
 272              		.loc 1 227 0
 273 004e FFF7FEFF 		bl	USBUART_DispatchClassRqst
 274 0052 0346     		mov	r3, r0
 275 0054 FB71     		strb	r3, [r7, #7]
 228:Generated_Source\PSoC5/USBUART_drv.c ****                 break;
 276              		.loc 1 228 0
 277 0056 07E0     		b	.L20
 278              	.L18:
 229:Generated_Source\PSoC5/USBUART_drv.c ****                 
 230:Generated_Source\PSoC5/USBUART_drv.c ****             case USBUART_RQST_TYPE_VND:
 231:Generated_Source\PSoC5/USBUART_drv.c ****                 requestHandled = USBUART_HandleVendorRqst();
 279              		.loc 1 231 0
 280 0058 FFF7FEFF 		bl	USBUART_HandleVendorRqst
 281 005c 0346     		mov	r3, r0
 282 005e FB71     		strb	r3, [r7, #7]
ARM GAS  C:\Users\Greg\AppData\Local\Temp\ccWhExNe.s 			page 10


 232:Generated_Source\PSoC5/USBUART_drv.c ****                 break;
 283              		.loc 1 232 0
 284 0060 02E0     		b	.L20
 285              	.L21:
 233:Generated_Source\PSoC5/USBUART_drv.c ****                 
 234:Generated_Source\PSoC5/USBUART_drv.c ****             default:
 235:Generated_Source\PSoC5/USBUART_drv.c ****                 requestHandled = USBUART_FALSE;
 286              		.loc 1 235 0
 287 0062 0023     		movs	r3, #0
 288 0064 FB71     		strb	r3, [r7, #7]
 236:Generated_Source\PSoC5/USBUART_drv.c ****                 break;
 289              		.loc 1 236 0
 290 0066 00BF     		nop
 291              	.L20:
 237:Generated_Source\PSoC5/USBUART_drv.c ****         }
 238:Generated_Source\PSoC5/USBUART_drv.c ****         
 239:Generated_Source\PSoC5/USBUART_drv.c ****         /* If request is not recognized. Stall endpoint 0 IN and OUT. */
 240:Generated_Source\PSoC5/USBUART_drv.c ****         if (requestHandled == USBUART_FALSE)
 292              		.loc 1 240 0
 293 0068 FB79     		ldrb	r3, [r7, #7]	@ zero_extendqisi2
 294 006a 002B     		cmp	r3, #0
 295 006c 02D1     		bne	.L13
 241:Generated_Source\PSoC5/USBUART_drv.c ****         {
 242:Generated_Source\PSoC5/USBUART_drv.c ****             USBUART_ep0Mode = USBUART_MODE_STALL_IN_OUT;
 296              		.loc 1 242 0
 297 006e 044B     		ldr	r3, .L22+4
 298 0070 0322     		movs	r2, #3
 299 0072 1A70     		strb	r2, [r3]
 300              	.L13:
 243:Generated_Source\PSoC5/USBUART_drv.c ****         }
 244:Generated_Source\PSoC5/USBUART_drv.c ****     }
 245:Generated_Source\PSoC5/USBUART_drv.c **** }
 301              		.loc 1 245 0
 302 0074 0837     		adds	r7, r7, #8
 303              		.cfi_def_cfa_offset 8
 304 0076 BD46     		mov	sp, r7
 305              		.cfi_def_cfa_register 13
 306              		@ sp needed
 307 0078 80BD     		pop	{r7, pc}
 308              	.L23:
 309 007a 00BF     		.align	2
 310              	.L22:
 311 007c 28600040 		.word	1073766440
 312 0080 00000000 		.word	USBUART_ep0Mode
 313 0084 00600040 		.word	1073766400
 314              		.cfi_endproc
 315              	.LFE1:
 316              		.size	USBUART_HandleSetup, .-USBUART_HandleSetup
 317              		.section	.text.USBUART_HandleIN,"ax",%progbits
 318              		.align	2
 319              		.global	USBUART_HandleIN
 320              		.thumb
 321              		.thumb_func
 322              		.type	USBUART_HandleIN, %function
 323              	USBUART_HandleIN:
 324              	.LFB2:
 246:Generated_Source\PSoC5/USBUART_drv.c **** 
ARM GAS  C:\Users\Greg\AppData\Local\Temp\ccWhExNe.s 			page 11


 247:Generated_Source\PSoC5/USBUART_drv.c **** 
 248:Generated_Source\PSoC5/USBUART_drv.c **** /*******************************************************************************
 249:Generated_Source\PSoC5/USBUART_drv.c **** * Function Name: USBUART_HandleIN
 250:Generated_Source\PSoC5/USBUART_drv.c **** ****************************************************************************//**
 251:Generated_Source\PSoC5/USBUART_drv.c **** *
 252:Generated_Source\PSoC5/USBUART_drv.c **** *  This routine handles EP0 IN transfers.
 253:Generated_Source\PSoC5/USBUART_drv.c **** *
 254:Generated_Source\PSoC5/USBUART_drv.c **** *
 255:Generated_Source\PSoC5/USBUART_drv.c **** * \reentrant
 256:Generated_Source\PSoC5/USBUART_drv.c **** *  No.
 257:Generated_Source\PSoC5/USBUART_drv.c **** *
 258:Generated_Source\PSoC5/USBUART_drv.c **** *******************************************************************************/
 259:Generated_Source\PSoC5/USBUART_drv.c **** void USBUART_HandleIN(void) 
 260:Generated_Source\PSoC5/USBUART_drv.c **** {
 325              		.loc 1 260 0
 326              		.cfi_startproc
 327              		@ args = 0, pretend = 0, frame = 0
 328              		@ frame_needed = 1, uses_anonymous_args = 0
 329 0000 80B5     		push	{r7, lr}
 330              		.cfi_def_cfa_offset 8
 331              		.cfi_offset 7, -8
 332              		.cfi_offset 14, -4
 333 0002 00AF     		add	r7, sp, #0
 334              		.cfi_def_cfa_register 7
 261:Generated_Source\PSoC5/USBUART_drv.c ****     switch (USBUART_transferState)
 335              		.loc 1 261 0
 336 0004 104B     		ldr	r3, .L33
 337 0006 1B78     		ldrb	r3, [r3]
 338 0008 DBB2     		uxtb	r3, r3
 339 000a 062B     		cmp	r3, #6
 340 000c 19D8     		bhi	.L32
 341 000e 01A2     		adr	r2, .L27
 342 0010 52F823F0 		ldr	pc, [r2, r3, lsl #2]
 343              		.p2align 2
 344              	.L27:
 345 0014 43000000 		.word	.L32+1
 346 0018 43000000 		.word	.L32+1
 347 001c 31000000 		.word	.L28+1
 348 0020 43000000 		.word	.L32+1
 349 0024 37000000 		.word	.L29+1
 350 0028 43000000 		.word	.L32+1
 351 002c 3D000000 		.word	.L30+1
 352              		.p2align 1
 353              	.L28:
 262:Generated_Source\PSoC5/USBUART_drv.c ****     {
 263:Generated_Source\PSoC5/USBUART_drv.c ****         case USBUART_TRANS_STATE_IDLE:
 264:Generated_Source\PSoC5/USBUART_drv.c ****             break;
 265:Generated_Source\PSoC5/USBUART_drv.c ****         
 266:Generated_Source\PSoC5/USBUART_drv.c ****         case USBUART_TRANS_STATE_CONTROL_READ:
 267:Generated_Source\PSoC5/USBUART_drv.c ****             USBUART_ControlReadDataStage();
 354              		.loc 1 267 0
 355 0030 FFF7FEFF 		bl	USBUART_ControlReadDataStage
 268:Generated_Source\PSoC5/USBUART_drv.c ****             break;
 356              		.loc 1 268 0
 357 0034 06E0     		b	.L24
 358              	.L29:
 269:Generated_Source\PSoC5/USBUART_drv.c ****             
ARM GAS  C:\Users\Greg\AppData\Local\Temp\ccWhExNe.s 			page 12


 270:Generated_Source\PSoC5/USBUART_drv.c ****         case USBUART_TRANS_STATE_CONTROL_WRITE:
 271:Generated_Source\PSoC5/USBUART_drv.c ****             USBUART_ControlWriteStatusStage();
 359              		.loc 1 271 0
 360 0036 FFF7FEFF 		bl	USBUART_ControlWriteStatusStage
 272:Generated_Source\PSoC5/USBUART_drv.c ****             break;
 361              		.loc 1 272 0
 362 003a 03E0     		b	.L24
 363              	.L30:
 273:Generated_Source\PSoC5/USBUART_drv.c ****             
 274:Generated_Source\PSoC5/USBUART_drv.c ****         case USBUART_TRANS_STATE_NO_DATA_CONTROL:
 275:Generated_Source\PSoC5/USBUART_drv.c ****             USBUART_NoDataControlStatusStage();
 364              		.loc 1 275 0
 365 003c FFF7FEFF 		bl	USBUART_NoDataControlStatusStage
 276:Generated_Source\PSoC5/USBUART_drv.c ****             break;
 366              		.loc 1 276 0
 367 0040 00E0     		b	.L24
 368              	.L32:
 277:Generated_Source\PSoC5/USBUART_drv.c ****             
 278:Generated_Source\PSoC5/USBUART_drv.c ****         default:    /* there are no more states */
 279:Generated_Source\PSoC5/USBUART_drv.c ****             break;
 369              		.loc 1 279 0
 370 0042 00BF     		nop
 371              	.L24:
 280:Generated_Source\PSoC5/USBUART_drv.c ****     }
 281:Generated_Source\PSoC5/USBUART_drv.c **** }
 372              		.loc 1 281 0
 373 0044 80BD     		pop	{r7, pc}
 374              	.L34:
 375 0046 00BF     		.align	2
 376              	.L33:
 377 0048 00000000 		.word	USBUART_transferState
 378              		.cfi_endproc
 379              	.LFE2:
 380              		.size	USBUART_HandleIN, .-USBUART_HandleIN
 381              		.section	.text.USBUART_HandleOUT,"ax",%progbits
 382              		.align	2
 383              		.global	USBUART_HandleOUT
 384              		.thumb
 385              		.thumb_func
 386              		.type	USBUART_HandleOUT, %function
 387              	USBUART_HandleOUT:
 388              	.LFB3:
 282:Generated_Source\PSoC5/USBUART_drv.c **** 
 283:Generated_Source\PSoC5/USBUART_drv.c **** 
 284:Generated_Source\PSoC5/USBUART_drv.c **** /*******************************************************************************
 285:Generated_Source\PSoC5/USBUART_drv.c **** * Function Name: USBUART_HandleOUT
 286:Generated_Source\PSoC5/USBUART_drv.c **** ****************************************************************************//**
 287:Generated_Source\PSoC5/USBUART_drv.c **** *
 288:Generated_Source\PSoC5/USBUART_drv.c **** *  This routine handles EP0 OUT transfers.
 289:Generated_Source\PSoC5/USBUART_drv.c **** *
 290:Generated_Source\PSoC5/USBUART_drv.c **** *
 291:Generated_Source\PSoC5/USBUART_drv.c **** * \reentrant
 292:Generated_Source\PSoC5/USBUART_drv.c **** *  No.
 293:Generated_Source\PSoC5/USBUART_drv.c **** *
 294:Generated_Source\PSoC5/USBUART_drv.c **** *******************************************************************************/
 295:Generated_Source\PSoC5/USBUART_drv.c **** void USBUART_HandleOUT(void) 
 296:Generated_Source\PSoC5/USBUART_drv.c **** {
ARM GAS  C:\Users\Greg\AppData\Local\Temp\ccWhExNe.s 			page 13


 389              		.loc 1 296 0
 390              		.cfi_startproc
 391              		@ args = 0, pretend = 0, frame = 0
 392              		@ frame_needed = 1, uses_anonymous_args = 0
 393 0000 80B5     		push	{r7, lr}
 394              		.cfi_def_cfa_offset 8
 395              		.cfi_offset 7, -8
 396              		.cfi_offset 14, -4
 397 0002 00AF     		add	r7, sp, #0
 398              		.cfi_def_cfa_register 7
 297:Generated_Source\PSoC5/USBUART_drv.c ****     switch (USBUART_transferState)
 399              		.loc 1 297 0
 400 0004 124B     		ldr	r3, .L44
 401 0006 1B78     		ldrb	r3, [r3]
 402 0008 DBB2     		uxtb	r3, r3
 403 000a 062B     		cmp	r3, #6
 404 000c 1DD8     		bhi	.L43
 405 000e 01A2     		adr	r2, .L38
 406 0010 52F823F0 		ldr	pc, [r2, r3, lsl #2]
 407              		.p2align 2
 408              	.L38:
 409 0014 4B000000 		.word	.L43+1
 410 0018 4B000000 		.word	.L43+1
 411 001c 31000000 		.word	.L39+1
 412 0020 4B000000 		.word	.L43+1
 413 0024 37000000 		.word	.L40+1
 414 0028 4B000000 		.word	.L43+1
 415 002c 3D000000 		.word	.L41+1
 416              		.p2align 1
 417              	.L39:
 298:Generated_Source\PSoC5/USBUART_drv.c ****     {
 299:Generated_Source\PSoC5/USBUART_drv.c ****         case USBUART_TRANS_STATE_IDLE:
 300:Generated_Source\PSoC5/USBUART_drv.c ****             break;
 301:Generated_Source\PSoC5/USBUART_drv.c ****         
 302:Generated_Source\PSoC5/USBUART_drv.c ****         case USBUART_TRANS_STATE_CONTROL_READ:
 303:Generated_Source\PSoC5/USBUART_drv.c ****             USBUART_ControlReadStatusStage();
 418              		.loc 1 303 0
 419 0030 FFF7FEFF 		bl	USBUART_ControlReadStatusStage
 304:Generated_Source\PSoC5/USBUART_drv.c ****             break;
 420              		.loc 1 304 0
 421 0034 0AE0     		b	.L35
 422              	.L40:
 305:Generated_Source\PSoC5/USBUART_drv.c ****             
 306:Generated_Source\PSoC5/USBUART_drv.c ****         case USBUART_TRANS_STATE_CONTROL_WRITE:
 307:Generated_Source\PSoC5/USBUART_drv.c ****             USBUART_ControlWriteDataStage();
 423              		.loc 1 307 0
 424 0036 FFF7FEFF 		bl	USBUART_ControlWriteDataStage
 308:Generated_Source\PSoC5/USBUART_drv.c ****             break;
 425              		.loc 1 308 0
 426 003a 07E0     		b	.L35
 427              	.L41:
 309:Generated_Source\PSoC5/USBUART_drv.c ****             
 310:Generated_Source\PSoC5/USBUART_drv.c ****         case USBUART_TRANS_STATE_NO_DATA_CONTROL:
 311:Generated_Source\PSoC5/USBUART_drv.c ****             /* Update the completion block */
 312:Generated_Source\PSoC5/USBUART_drv.c ****             USBUART_UpdateStatusBlock(USBUART_XFER_ERROR);
 428              		.loc 1 312 0
 429 003c 0320     		movs	r0, #3
ARM GAS  C:\Users\Greg\AppData\Local\Temp\ccWhExNe.s 			page 14


 430 003e FFF7FEFF 		bl	USBUART_UpdateStatusBlock
 313:Generated_Source\PSoC5/USBUART_drv.c ****             
 314:Generated_Source\PSoC5/USBUART_drv.c ****             /* We expect no more data, so stall INs and OUTs */
 315:Generated_Source\PSoC5/USBUART_drv.c ****             USBUART_ep0Mode = USBUART_MODE_STALL_IN_OUT;
 431              		.loc 1 315 0
 432 0042 044B     		ldr	r3, .L44+4
 433 0044 0322     		movs	r2, #3
 434 0046 1A70     		strb	r2, [r3]
 316:Generated_Source\PSoC5/USBUART_drv.c ****             break;
 435              		.loc 1 316 0
 436 0048 00E0     		b	.L35
 437              	.L43:
 317:Generated_Source\PSoC5/USBUART_drv.c ****             
 318:Generated_Source\PSoC5/USBUART_drv.c ****         default:    
 319:Generated_Source\PSoC5/USBUART_drv.c ****             /* There are no more states */
 320:Generated_Source\PSoC5/USBUART_drv.c ****             break;
 438              		.loc 1 320 0
 439 004a 00BF     		nop
 440              	.L35:
 321:Generated_Source\PSoC5/USBUART_drv.c ****     }
 322:Generated_Source\PSoC5/USBUART_drv.c **** }
 441              		.loc 1 322 0
 442 004c 80BD     		pop	{r7, pc}
 443              	.L45:
 444 004e 00BF     		.align	2
 445              	.L44:
 446 0050 00000000 		.word	USBUART_transferState
 447 0054 00000000 		.word	USBUART_ep0Mode
 448              		.cfi_endproc
 449              	.LFE3:
 450              		.size	USBUART_HandleOUT, .-USBUART_HandleOUT
 451              		.section	.text.USBUART_LoadEP0,"ax",%progbits
 452              		.align	2
 453              		.global	USBUART_LoadEP0
 454              		.thumb
 455              		.thumb_func
 456              		.type	USBUART_LoadEP0, %function
 457              	USBUART_LoadEP0:
 458              	.LFB4:
 323:Generated_Source\PSoC5/USBUART_drv.c **** 
 324:Generated_Source\PSoC5/USBUART_drv.c **** 
 325:Generated_Source\PSoC5/USBUART_drv.c **** /*******************************************************************************
 326:Generated_Source\PSoC5/USBUART_drv.c **** * Function Name: USBUART_LoadEP0
 327:Generated_Source\PSoC5/USBUART_drv.c **** ****************************************************************************//**
 328:Generated_Source\PSoC5/USBUART_drv.c **** *
 329:Generated_Source\PSoC5/USBUART_drv.c **** *  This routine loads the EP0 data registers for OUT transfers. It uses the
 330:Generated_Source\PSoC5/USBUART_drv.c **** *  currentTD (previously initialized by the _InitControlWrite function and
 331:Generated_Source\PSoC5/USBUART_drv.c **** *  updated for each OUT transfer, and the bLastPacketSize) to determine how
 332:Generated_Source\PSoC5/USBUART_drv.c **** *  many uint8s to transfer on the current OUT.
 333:Generated_Source\PSoC5/USBUART_drv.c **** *
 334:Generated_Source\PSoC5/USBUART_drv.c **** *  If the number of uint8s remaining is zero and the last transfer was full,
 335:Generated_Source\PSoC5/USBUART_drv.c **** *  we need to send a zero length packet.  Otherwise we send the minimum
 336:Generated_Source\PSoC5/USBUART_drv.c **** *  of the control endpoint size (8) or remaining number of uint8s for the
 337:Generated_Source\PSoC5/USBUART_drv.c **** *  transaction.
 338:Generated_Source\PSoC5/USBUART_drv.c **** *
 339:Generated_Source\PSoC5/USBUART_drv.c **** *
 340:Generated_Source\PSoC5/USBUART_drv.c **** * \globalvars
ARM GAS  C:\Users\Greg\AppData\Local\Temp\ccWhExNe.s 			page 15


 341:Generated_Source\PSoC5/USBUART_drv.c **** *  USBUART_transferByteCount - Update the transfer byte count from the
 342:Generated_Source\PSoC5/USBUART_drv.c **** *     last transaction.
 343:Generated_Source\PSoC5/USBUART_drv.c **** *  USBUART_ep0Count - counts the data loaded to the SIE memory in
 344:Generated_Source\PSoC5/USBUART_drv.c **** *     current packet.
 345:Generated_Source\PSoC5/USBUART_drv.c **** *  USBUART_lastPacketSize - remembers the USBFS_ep0Count value for the
 346:Generated_Source\PSoC5/USBUART_drv.c **** *     next packet.
 347:Generated_Source\PSoC5/USBUART_drv.c **** *  USBUART_transferByteCount - sum of the previous bytes transferred
 348:Generated_Source\PSoC5/USBUART_drv.c **** *     on previous packets(sum of USBFS_lastPacketSize)
 349:Generated_Source\PSoC5/USBUART_drv.c **** *  USBUART_ep0Toggle - inverted
 350:Generated_Source\PSoC5/USBUART_drv.c **** *  USBUART_ep0Mode  - prepare for mode register content.
 351:Generated_Source\PSoC5/USBUART_drv.c **** *  USBUART_transferState - set to TRANS_STATE_CONTROL_READ
 352:Generated_Source\PSoC5/USBUART_drv.c **** *
 353:Generated_Source\PSoC5/USBUART_drv.c **** * \reentrant
 354:Generated_Source\PSoC5/USBUART_drv.c **** *  No.
 355:Generated_Source\PSoC5/USBUART_drv.c **** *
 356:Generated_Source\PSoC5/USBUART_drv.c **** *******************************************************************************/
 357:Generated_Source\PSoC5/USBUART_drv.c **** void USBUART_LoadEP0(void) 
 358:Generated_Source\PSoC5/USBUART_drv.c **** {
 459              		.loc 1 358 0
 460              		.cfi_startproc
 461              		@ args = 0, pretend = 0, frame = 8
 462              		@ frame_needed = 1, uses_anonymous_args = 0
 463              		@ link register save eliminated.
 464 0000 80B4     		push	{r7}
 465              		.cfi_def_cfa_offset 4
 466              		.cfi_offset 7, -4
 467 0002 83B0     		sub	sp, sp, #12
 468              		.cfi_def_cfa_offset 16
 469 0004 00AF     		add	r7, sp, #0
 470              		.cfi_def_cfa_register 7
 359:Generated_Source\PSoC5/USBUART_drv.c ****     uint8 ep0Count = 0u;
 471              		.loc 1 359 0
 472 0006 0023     		movs	r3, #0
 473 0008 FB71     		strb	r3, [r7, #7]
 360:Generated_Source\PSoC5/USBUART_drv.c **** 
 361:Generated_Source\PSoC5/USBUART_drv.c ****     /* Update the transfer byte count from the last transaction */
 362:Generated_Source\PSoC5/USBUART_drv.c ****     USBUART_transferByteCount += USBUART_lastPacketSize;
 474              		.loc 1 362 0
 475 000a 294B     		ldr	r3, .L53
 476 000c 1B78     		ldrb	r3, [r3]
 477 000e DBB2     		uxtb	r3, r3
 478 0010 9AB2     		uxth	r2, r3
 479 0012 284B     		ldr	r3, .L53+4
 480 0014 1B88     		ldrh	r3, [r3]	@ movhi
 481 0016 9BB2     		uxth	r3, r3
 482 0018 1344     		add	r3, r3, r2
 483 001a 9AB2     		uxth	r2, r3
 484 001c 254B     		ldr	r3, .L53+4
 485 001e 1A80     		strh	r2, [r3]	@ movhi
 363:Generated_Source\PSoC5/USBUART_drv.c **** 
 364:Generated_Source\PSoC5/USBUART_drv.c ****     /* Now load the next transaction */
 365:Generated_Source\PSoC5/USBUART_drv.c ****     while ((USBUART_currentTD.count > 0u) && (ep0Count < 8u))
 486              		.loc 1 365 0
 487 0020 15E0     		b	.L47
 488              	.L49:
 366:Generated_Source\PSoC5/USBUART_drv.c ****     {
 367:Generated_Source\PSoC5/USBUART_drv.c ****         USBUART_EP0_DR_BASE.epData[ep0Count] = (uint8) *USBUART_currentTD.pData;
ARM GAS  C:\Users\Greg\AppData\Local\Temp\ccWhExNe.s 			page 16


 489              		.loc 1 367 0
 490 0022 2549     		ldr	r1, .L53+8
 491 0024 FB79     		ldrb	r3, [r7, #7]	@ zero_extendqisi2
 492 0026 254A     		ldr	r2, .L53+12
 493 0028 5268     		ldr	r2, [r2, #4]
 494 002a 1278     		ldrb	r2, [r2]
 495 002c D2B2     		uxtb	r2, r2
 496 002e CA54     		strb	r2, [r1, r3]
 368:Generated_Source\PSoC5/USBUART_drv.c ****         USBUART_currentTD.pData = &USBUART_currentTD.pData[1u];
 497              		.loc 1 368 0
 498 0030 224B     		ldr	r3, .L53+12
 499 0032 5B68     		ldr	r3, [r3, #4]
 500 0034 0133     		adds	r3, r3, #1
 501 0036 214A     		ldr	r2, .L53+12
 502 0038 5360     		str	r3, [r2, #4]
 369:Generated_Source\PSoC5/USBUART_drv.c ****         ep0Count++;
 503              		.loc 1 369 0
 504 003a FB79     		ldrb	r3, [r7, #7]	@ zero_extendqisi2
 505 003c 0133     		adds	r3, r3, #1
 506 003e FB71     		strb	r3, [r7, #7]
 370:Generated_Source\PSoC5/USBUART_drv.c ****         USBUART_currentTD.count--;
 507              		.loc 1 370 0
 508 0040 1E4B     		ldr	r3, .L53+12
 509 0042 1B88     		ldrh	r3, [r3]	@ movhi
 510 0044 9BB2     		uxth	r3, r3
 511 0046 013B     		subs	r3, r3, #1
 512 0048 9AB2     		uxth	r2, r3
 513 004a 1C4B     		ldr	r3, .L53+12
 514 004c 1A80     		strh	r2, [r3]	@ movhi
 515              	.L47:
 365:Generated_Source\PSoC5/USBUART_drv.c ****     {
 516              		.loc 1 365 0
 517 004e 1B4B     		ldr	r3, .L53+12
 518 0050 1B88     		ldrh	r3, [r3]	@ movhi
 519 0052 9BB2     		uxth	r3, r3
 520 0054 002B     		cmp	r3, #0
 521 0056 02D0     		beq	.L48
 365:Generated_Source\PSoC5/USBUART_drv.c ****     {
 522              		.loc 1 365 0 is_stmt 0 discriminator 1
 523 0058 FB79     		ldrb	r3, [r7, #7]	@ zero_extendqisi2
 524 005a 072B     		cmp	r3, #7
 525 005c E1D9     		bls	.L49
 526              	.L48:
 371:Generated_Source\PSoC5/USBUART_drv.c ****     }
 372:Generated_Source\PSoC5/USBUART_drv.c **** 
 373:Generated_Source\PSoC5/USBUART_drv.c ****     /* Support zero-length packet */
 374:Generated_Source\PSoC5/USBUART_drv.c ****     if ((USBUART_lastPacketSize == 8u) || (ep0Count > 0u))
 527              		.loc 1 374 0 is_stmt 1
 528 005e 144B     		ldr	r3, .L53
 529 0060 1B78     		ldrb	r3, [r3]
 530 0062 DBB2     		uxtb	r3, r3
 531 0064 082B     		cmp	r3, #8
 532 0066 02D0     		beq	.L50
 533              		.loc 1 374 0 is_stmt 0 discriminator 1
 534 0068 FB79     		ldrb	r3, [r7, #7]	@ zero_extendqisi2
 535 006a 002B     		cmp	r3, #0
 536 006c 0FD0     		beq	.L51
ARM GAS  C:\Users\Greg\AppData\Local\Temp\ccWhExNe.s 			page 17


 537              	.L50:
 375:Generated_Source\PSoC5/USBUART_drv.c ****     {
 376:Generated_Source\PSoC5/USBUART_drv.c ****         /* Update the data toggle */
 377:Generated_Source\PSoC5/USBUART_drv.c ****         USBUART_ep0Toggle ^= USBUART_EP0_CNT_DATA_TOGGLE;
 538              		.loc 1 377 0 is_stmt 1
 539 006e 144B     		ldr	r3, .L53+16
 540 0070 1B78     		ldrb	r3, [r3]
 541 0072 DBB2     		uxtb	r3, r3
 542 0074 83F07F03 		eor	r3, r3, #127
 543 0078 DB43     		mvns	r3, r3
 544 007a DAB2     		uxtb	r2, r3
 545 007c 104B     		ldr	r3, .L53+16
 546 007e 1A70     		strb	r2, [r3]
 378:Generated_Source\PSoC5/USBUART_drv.c ****         /* Set the Mode Register  */
 379:Generated_Source\PSoC5/USBUART_drv.c ****         USBUART_ep0Mode = USBUART_MODE_ACK_IN_STATUS_OUT;
 547              		.loc 1 379 0
 548 0080 104B     		ldr	r3, .L53+20
 549 0082 0F22     		movs	r2, #15
 550 0084 1A70     		strb	r2, [r3]
 380:Generated_Source\PSoC5/USBUART_drv.c ****         /* Update the state (or stay the same) */
 381:Generated_Source\PSoC5/USBUART_drv.c ****         USBUART_transferState = USBUART_TRANS_STATE_CONTROL_READ;
 551              		.loc 1 381 0
 552 0086 104B     		ldr	r3, .L53+24
 553 0088 0222     		movs	r2, #2
 554 008a 1A70     		strb	r2, [r3]
 555 008c 05E0     		b	.L52
 556              	.L51:
 382:Generated_Source\PSoC5/USBUART_drv.c ****     }
 383:Generated_Source\PSoC5/USBUART_drv.c ****     else
 384:Generated_Source\PSoC5/USBUART_drv.c ****     {
 385:Generated_Source\PSoC5/USBUART_drv.c ****         /* Expect Status Stage Out */
 386:Generated_Source\PSoC5/USBUART_drv.c ****         USBUART_ep0Mode = USBUART_MODE_STATUS_OUT_ONLY;
 557              		.loc 1 386 0
 558 008e 0D4B     		ldr	r3, .L53+20
 559 0090 0222     		movs	r2, #2
 560 0092 1A70     		strb	r2, [r3]
 387:Generated_Source\PSoC5/USBUART_drv.c ****         /* Update the state (or stay the same) */
 388:Generated_Source\PSoC5/USBUART_drv.c ****         USBUART_transferState = USBUART_TRANS_STATE_CONTROL_READ;
 561              		.loc 1 388 0
 562 0094 0C4B     		ldr	r3, .L53+24
 563 0096 0222     		movs	r2, #2
 564 0098 1A70     		strb	r2, [r3]
 565              	.L52:
 389:Generated_Source\PSoC5/USBUART_drv.c ****     }
 390:Generated_Source\PSoC5/USBUART_drv.c **** 
 391:Generated_Source\PSoC5/USBUART_drv.c ****     /* Save the packet size for next time */
 392:Generated_Source\PSoC5/USBUART_drv.c ****     USBUART_ep0Count =       (uint8) ep0Count;
 566              		.loc 1 392 0
 567 009a 0C4A     		ldr	r2, .L53+28
 568 009c FB79     		ldrb	r3, [r7, #7]
 569 009e 1370     		strb	r3, [r2]
 393:Generated_Source\PSoC5/USBUART_drv.c ****     USBUART_lastPacketSize = (uint8) ep0Count;
 570              		.loc 1 393 0
 571 00a0 034A     		ldr	r2, .L53
 572 00a2 FB79     		ldrb	r3, [r7, #7]
 573 00a4 1370     		strb	r3, [r2]
 394:Generated_Source\PSoC5/USBUART_drv.c **** }
ARM GAS  C:\Users\Greg\AppData\Local\Temp\ccWhExNe.s 			page 18


 574              		.loc 1 394 0
 575 00a6 0C37     		adds	r7, r7, #12
 576              		.cfi_def_cfa_offset 4
 577 00a8 BD46     		mov	sp, r7
 578              		.cfi_def_cfa_register 13
 579              		@ sp needed
 580 00aa 5DF8047B 		ldr	r7, [sp], #4
 581              		.cfi_restore 7
 582              		.cfi_def_cfa_offset 0
 583 00ae 7047     		bx	lr
 584              	.L54:
 585              		.align	2
 586              	.L53:
 587 00b0 00000000 		.word	USBUART_lastPacketSize
 588 00b4 00000000 		.word	USBUART_transferByteCount
 589 00b8 00600040 		.word	1073766400
 590 00bc 00000000 		.word	USBUART_currentTD
 591 00c0 00000000 		.word	USBUART_ep0Toggle
 592 00c4 00000000 		.word	USBUART_ep0Mode
 593 00c8 00000000 		.word	USBUART_transferState
 594 00cc 00000000 		.word	USBUART_ep0Count
 595              		.cfi_endproc
 596              	.LFE4:
 597              		.size	USBUART_LoadEP0, .-USBUART_LoadEP0
 598              		.section	.text.USBUART_InitControlRead,"ax",%progbits
 599              		.align	2
 600              		.global	USBUART_InitControlRead
 601              		.thumb
 602              		.thumb_func
 603              		.type	USBUART_InitControlRead, %function
 604              	USBUART_InitControlRead:
 605              	.LFB5:
 395:Generated_Source\PSoC5/USBUART_drv.c **** 
 396:Generated_Source\PSoC5/USBUART_drv.c **** 
 397:Generated_Source\PSoC5/USBUART_drv.c **** /*******************************************************************************
 398:Generated_Source\PSoC5/USBUART_drv.c **** * Function Name: USBUART_InitControlRead
 399:Generated_Source\PSoC5/USBUART_drv.c **** ****************************************************************************//**
 400:Generated_Source\PSoC5/USBUART_drv.c **** *
 401:Generated_Source\PSoC5/USBUART_drv.c **** *  Initialize a control read transaction. It is used to send data to the host.
 402:Generated_Source\PSoC5/USBUART_drv.c **** *  The following global variables should be initialized before this function
 403:Generated_Source\PSoC5/USBUART_drv.c **** *  called. To send zero length packet use InitZeroLengthControlTransfer
 404:Generated_Source\PSoC5/USBUART_drv.c **** *  function.
 405:Generated_Source\PSoC5/USBUART_drv.c **** *
 406:Generated_Source\PSoC5/USBUART_drv.c **** *
 407:Generated_Source\PSoC5/USBUART_drv.c **** * \return
 408:Generated_Source\PSoC5/USBUART_drv.c **** *  requestHandled state.
 409:Generated_Source\PSoC5/USBUART_drv.c **** *
 410:Generated_Source\PSoC5/USBUART_drv.c **** * \globalvars
 411:Generated_Source\PSoC5/USBUART_drv.c **** *  USBUART_currentTD.count - counts of data to be sent.
 412:Generated_Source\PSoC5/USBUART_drv.c **** *  USBUART_currentTD.pData - data pointer.
 413:Generated_Source\PSoC5/USBUART_drv.c **** *
 414:Generated_Source\PSoC5/USBUART_drv.c **** * \reentrant
 415:Generated_Source\PSoC5/USBUART_drv.c **** *  No.
 416:Generated_Source\PSoC5/USBUART_drv.c **** *
 417:Generated_Source\PSoC5/USBUART_drv.c **** *******************************************************************************/
 418:Generated_Source\PSoC5/USBUART_drv.c **** uint8 USBUART_InitControlRead(void) 
 419:Generated_Source\PSoC5/USBUART_drv.c **** {
ARM GAS  C:\Users\Greg\AppData\Local\Temp\ccWhExNe.s 			page 19


 606              		.loc 1 419 0
 607              		.cfi_startproc
 608              		@ args = 0, pretend = 0, frame = 8
 609              		@ frame_needed = 1, uses_anonymous_args = 0
 610 0000 80B5     		push	{r7, lr}
 611              		.cfi_def_cfa_offset 8
 612              		.cfi_offset 7, -8
 613              		.cfi_offset 14, -4
 614 0002 82B0     		sub	sp, sp, #8
 615              		.cfi_def_cfa_offset 16
 616 0004 00AF     		add	r7, sp, #0
 617              		.cfi_def_cfa_register 7
 420:Generated_Source\PSoC5/USBUART_drv.c ****     uint16 xferCount;
 421:Generated_Source\PSoC5/USBUART_drv.c **** 
 422:Generated_Source\PSoC5/USBUART_drv.c ****     if (USBUART_currentTD.count == 0u)
 618              		.loc 1 422 0
 619 0006 164B     		ldr	r3, .L60
 620 0008 1B88     		ldrh	r3, [r3]	@ movhi
 621 000a 9BB2     		uxth	r3, r3
 622 000c 002B     		cmp	r3, #0
 623 000e 02D1     		bne	.L56
 423:Generated_Source\PSoC5/USBUART_drv.c ****     {
 424:Generated_Source\PSoC5/USBUART_drv.c ****         (void) USBUART_InitZeroLengthControlTransfer();
 624              		.loc 1 424 0
 625 0010 FFF7FEFF 		bl	USBUART_InitZeroLengthControlTransfer
 626 0014 1EE0     		b	.L57
 627              	.L56:
 425:Generated_Source\PSoC5/USBUART_drv.c ****     }
 426:Generated_Source\PSoC5/USBUART_drv.c ****     else
 427:Generated_Source\PSoC5/USBUART_drv.c ****     {
 428:Generated_Source\PSoC5/USBUART_drv.c ****         /* Set up the state machine */
 429:Generated_Source\PSoC5/USBUART_drv.c ****         USBUART_transferState = USBUART_TRANS_STATE_CONTROL_READ;
 628              		.loc 1 429 0
 629 0016 134B     		ldr	r3, .L60+4
 630 0018 0222     		movs	r2, #2
 631 001a 1A70     		strb	r2, [r3]
 430:Generated_Source\PSoC5/USBUART_drv.c ****         
 431:Generated_Source\PSoC5/USBUART_drv.c ****         /* Set the toggle, it gets updated in LoadEP */
 432:Generated_Source\PSoC5/USBUART_drv.c ****         USBUART_ep0Toggle = 0u;
 632              		.loc 1 432 0
 633 001c 124B     		ldr	r3, .L60+8
 634 001e 0022     		movs	r2, #0
 635 0020 1A70     		strb	r2, [r3]
 433:Generated_Source\PSoC5/USBUART_drv.c ****         
 434:Generated_Source\PSoC5/USBUART_drv.c ****         /* Initialize the Status Block */
 435:Generated_Source\PSoC5/USBUART_drv.c ****         USBUART_InitializeStatusBlock();
 636              		.loc 1 435 0
 637 0022 FFF7FEFF 		bl	USBUART_InitializeStatusBlock
 436:Generated_Source\PSoC5/USBUART_drv.c ****         
 437:Generated_Source\PSoC5/USBUART_drv.c ****         xferCount = ((uint16)((uint16) USBUART_lengthHiReg << 8u) | ((uint16) USBUART_lengthLoReg))
 638              		.loc 1 437 0
 639 0026 114B     		ldr	r3, .L60+12
 640 0028 DB79     		ldrb	r3, [r3, #7]
 641 002a DBB2     		uxtb	r3, r3
 642 002c 9BB2     		uxth	r3, r3
 643 002e 1B02     		lsls	r3, r3, #8
 644 0030 9AB2     		uxth	r2, r3
ARM GAS  C:\Users\Greg\AppData\Local\Temp\ccWhExNe.s 			page 20


 645 0032 0E4B     		ldr	r3, .L60+12
 646 0034 9B79     		ldrb	r3, [r3, #6]
 647 0036 DBB2     		uxtb	r3, r3
 648 0038 9BB2     		uxth	r3, r3
 649 003a 1343     		orrs	r3, r3, r2
 650 003c FB80     		strh	r3, [r7, #6]	@ movhi
 438:Generated_Source\PSoC5/USBUART_drv.c **** 
 439:Generated_Source\PSoC5/USBUART_drv.c ****         if (USBUART_currentTD.count > xferCount)
 651              		.loc 1 439 0
 652 003e 084B     		ldr	r3, .L60
 653 0040 1B88     		ldrh	r3, [r3]	@ movhi
 654 0042 9BB2     		uxth	r3, r3
 655 0044 FA88     		ldrh	r2, [r7, #6]
 656 0046 9A42     		cmp	r2, r3
 657 0048 02D2     		bcs	.L58
 440:Generated_Source\PSoC5/USBUART_drv.c ****         {
 441:Generated_Source\PSoC5/USBUART_drv.c ****             USBUART_currentTD.count = xferCount;
 658              		.loc 1 441 0
 659 004a 054A     		ldr	r2, .L60
 660 004c FB88     		ldrh	r3, [r7, #6]	@ movhi
 661 004e 1380     		strh	r3, [r2]	@ movhi
 662              	.L58:
 442:Generated_Source\PSoC5/USBUART_drv.c ****         }
 443:Generated_Source\PSoC5/USBUART_drv.c ****         
 444:Generated_Source\PSoC5/USBUART_drv.c ****         USBUART_LoadEP0();
 663              		.loc 1 444 0
 664 0050 FFF7FEFF 		bl	USBUART_LoadEP0
 665              	.L57:
 445:Generated_Source\PSoC5/USBUART_drv.c ****     }
 446:Generated_Source\PSoC5/USBUART_drv.c **** 
 447:Generated_Source\PSoC5/USBUART_drv.c ****     return (USBUART_TRUE);
 666              		.loc 1 447 0
 667 0054 0123     		movs	r3, #1
 448:Generated_Source\PSoC5/USBUART_drv.c **** }
 668              		.loc 1 448 0
 669 0056 1846     		mov	r0, r3
 670 0058 0837     		adds	r7, r7, #8
 671              		.cfi_def_cfa_offset 8
 672 005a BD46     		mov	sp, r7
 673              		.cfi_def_cfa_register 13
 674              		@ sp needed
 675 005c 80BD     		pop	{r7, pc}
 676              	.L61:
 677 005e 00BF     		.align	2
 678              	.L60:
 679 0060 00000000 		.word	USBUART_currentTD
 680 0064 00000000 		.word	USBUART_transferState
 681 0068 00000000 		.word	USBUART_ep0Toggle
 682 006c 00600040 		.word	1073766400
 683              		.cfi_endproc
 684              	.LFE5:
 685              		.size	USBUART_InitControlRead, .-USBUART_InitControlRead
 686              		.section	.text.USBUART_InitZeroLengthControlTransfer,"ax",%progbits
 687              		.align	2
 688              		.global	USBUART_InitZeroLengthControlTransfer
 689              		.thumb
 690              		.thumb_func
ARM GAS  C:\Users\Greg\AppData\Local\Temp\ccWhExNe.s 			page 21


 691              		.type	USBUART_InitZeroLengthControlTransfer, %function
 692              	USBUART_InitZeroLengthControlTransfer:
 693              	.LFB6:
 449:Generated_Source\PSoC5/USBUART_drv.c **** 
 450:Generated_Source\PSoC5/USBUART_drv.c **** 
 451:Generated_Source\PSoC5/USBUART_drv.c **** /*******************************************************************************
 452:Generated_Source\PSoC5/USBUART_drv.c **** * Function Name: USBUART_InitZeroLengthControlTransfer
 453:Generated_Source\PSoC5/USBUART_drv.c **** ****************************************************************************//**
 454:Generated_Source\PSoC5/USBUART_drv.c **** *
 455:Generated_Source\PSoC5/USBUART_drv.c **** *  Initialize a zero length data IN transfer.
 456:Generated_Source\PSoC5/USBUART_drv.c **** *
 457:Generated_Source\PSoC5/USBUART_drv.c **** * \return
 458:Generated_Source\PSoC5/USBUART_drv.c **** *  requestHandled state.
 459:Generated_Source\PSoC5/USBUART_drv.c **** *
 460:Generated_Source\PSoC5/USBUART_drv.c **** * \globalvars
 461:Generated_Source\PSoC5/USBUART_drv.c **** *  USBUART_ep0Toggle - set to EP0_CNT_DATA_TOGGLE
 462:Generated_Source\PSoC5/USBUART_drv.c **** *  USBUART_ep0Mode  - prepare for mode register content.
 463:Generated_Source\PSoC5/USBUART_drv.c **** *  USBUART_transferState - set to TRANS_STATE_CONTROL_READ
 464:Generated_Source\PSoC5/USBUART_drv.c **** *  USBUART_ep0Count - cleared, means the zero-length packet.
 465:Generated_Source\PSoC5/USBUART_drv.c **** *  USBUART_lastPacketSize - cleared.
 466:Generated_Source\PSoC5/USBUART_drv.c **** *
 467:Generated_Source\PSoC5/USBUART_drv.c **** * \reentrant
 468:Generated_Source\PSoC5/USBUART_drv.c **** *  No.
 469:Generated_Source\PSoC5/USBUART_drv.c **** *
 470:Generated_Source\PSoC5/USBUART_drv.c **** *******************************************************************************/
 471:Generated_Source\PSoC5/USBUART_drv.c **** uint8 USBUART_InitZeroLengthControlTransfer(void)
 472:Generated_Source\PSoC5/USBUART_drv.c ****                                                 
 473:Generated_Source\PSoC5/USBUART_drv.c **** {
 694              		.loc 1 473 0
 695              		.cfi_startproc
 696              		@ args = 0, pretend = 0, frame = 0
 697              		@ frame_needed = 1, uses_anonymous_args = 0
 698              		@ link register save eliminated.
 699 0000 80B4     		push	{r7}
 700              		.cfi_def_cfa_offset 4
 701              		.cfi_offset 7, -4
 702 0002 00AF     		add	r7, sp, #0
 703              		.cfi_def_cfa_register 7
 474:Generated_Source\PSoC5/USBUART_drv.c ****     /* Update the state */
 475:Generated_Source\PSoC5/USBUART_drv.c ****     USBUART_transferState = USBUART_TRANS_STATE_CONTROL_READ;
 704              		.loc 1 475 0
 705 0004 0A4B     		ldr	r3, .L64
 706 0006 0222     		movs	r2, #2
 707 0008 1A70     		strb	r2, [r3]
 476:Generated_Source\PSoC5/USBUART_drv.c ****     
 477:Generated_Source\PSoC5/USBUART_drv.c ****     /* Set the data toggle */
 478:Generated_Source\PSoC5/USBUART_drv.c ****     USBUART_ep0Toggle = USBUART_EP0_CNT_DATA_TOGGLE;
 708              		.loc 1 478 0
 709 000a 0A4B     		ldr	r3, .L64+4
 710 000c 8022     		movs	r2, #128
 711 000e 1A70     		strb	r2, [r3]
 479:Generated_Source\PSoC5/USBUART_drv.c ****     
 480:Generated_Source\PSoC5/USBUART_drv.c ****     /* Set the Mode Register  */
 481:Generated_Source\PSoC5/USBUART_drv.c ****     USBUART_ep0Mode = USBUART_MODE_ACK_IN_STATUS_OUT;
 712              		.loc 1 481 0
 713 0010 094B     		ldr	r3, .L64+8
 714 0012 0F22     		movs	r2, #15
ARM GAS  C:\Users\Greg\AppData\Local\Temp\ccWhExNe.s 			page 22


 715 0014 1A70     		strb	r2, [r3]
 482:Generated_Source\PSoC5/USBUART_drv.c ****     
 483:Generated_Source\PSoC5/USBUART_drv.c ****     /* Save the packet size for next time */
 484:Generated_Source\PSoC5/USBUART_drv.c ****     USBUART_lastPacketSize = 0u;
 716              		.loc 1 484 0
 717 0016 094B     		ldr	r3, .L64+12
 718 0018 0022     		movs	r2, #0
 719 001a 1A70     		strb	r2, [r3]
 485:Generated_Source\PSoC5/USBUART_drv.c ****     
 486:Generated_Source\PSoC5/USBUART_drv.c ****     USBUART_ep0Count = 0u;
 720              		.loc 1 486 0
 721 001c 084B     		ldr	r3, .L64+16
 722 001e 0022     		movs	r2, #0
 723 0020 1A70     		strb	r2, [r3]
 487:Generated_Source\PSoC5/USBUART_drv.c **** 
 488:Generated_Source\PSoC5/USBUART_drv.c ****     return (USBUART_TRUE);
 724              		.loc 1 488 0
 725 0022 0123     		movs	r3, #1
 489:Generated_Source\PSoC5/USBUART_drv.c **** }
 726              		.loc 1 489 0
 727 0024 1846     		mov	r0, r3
 728 0026 BD46     		mov	sp, r7
 729              		.cfi_def_cfa_register 13
 730              		@ sp needed
 731 0028 5DF8047B 		ldr	r7, [sp], #4
 732              		.cfi_restore 7
 733              		.cfi_def_cfa_offset 0
 734 002c 7047     		bx	lr
 735              	.L65:
 736 002e 00BF     		.align	2
 737              	.L64:
 738 0030 00000000 		.word	USBUART_transferState
 739 0034 00000000 		.word	USBUART_ep0Toggle
 740 0038 00000000 		.word	USBUART_ep0Mode
 741 003c 00000000 		.word	USBUART_lastPacketSize
 742 0040 00000000 		.word	USBUART_ep0Count
 743              		.cfi_endproc
 744              	.LFE6:
 745              		.size	USBUART_InitZeroLengthControlTransfer, .-USBUART_InitZeroLengthControlTransfer
 746              		.section	.text.USBUART_ControlReadDataStage,"ax",%progbits
 747              		.align	2
 748              		.global	USBUART_ControlReadDataStage
 749              		.thumb
 750              		.thumb_func
 751              		.type	USBUART_ControlReadDataStage, %function
 752              	USBUART_ControlReadDataStage:
 753              	.LFB7:
 490:Generated_Source\PSoC5/USBUART_drv.c **** 
 491:Generated_Source\PSoC5/USBUART_drv.c **** 
 492:Generated_Source\PSoC5/USBUART_drv.c **** /*******************************************************************************
 493:Generated_Source\PSoC5/USBUART_drv.c **** * Function Name: USBUART_ControlReadDataStage
 494:Generated_Source\PSoC5/USBUART_drv.c **** ****************************************************************************//**
 495:Generated_Source\PSoC5/USBUART_drv.c **** *
 496:Generated_Source\PSoC5/USBUART_drv.c **** *  Handle the Data Stage of a control read transfer.
 497:Generated_Source\PSoC5/USBUART_drv.c **** *
 498:Generated_Source\PSoC5/USBUART_drv.c **** *
 499:Generated_Source\PSoC5/USBUART_drv.c **** * \reentrant
ARM GAS  C:\Users\Greg\AppData\Local\Temp\ccWhExNe.s 			page 23


 500:Generated_Source\PSoC5/USBUART_drv.c **** *  No.
 501:Generated_Source\PSoC5/USBUART_drv.c **** *
 502:Generated_Source\PSoC5/USBUART_drv.c **** *******************************************************************************/
 503:Generated_Source\PSoC5/USBUART_drv.c **** void USBUART_ControlReadDataStage(void) 
 504:Generated_Source\PSoC5/USBUART_drv.c **** 
 505:Generated_Source\PSoC5/USBUART_drv.c **** {
 754              		.loc 1 505 0
 755              		.cfi_startproc
 756              		@ args = 0, pretend = 0, frame = 0
 757              		@ frame_needed = 1, uses_anonymous_args = 0
 758 0000 80B5     		push	{r7, lr}
 759              		.cfi_def_cfa_offset 8
 760              		.cfi_offset 7, -8
 761              		.cfi_offset 14, -4
 762 0002 00AF     		add	r7, sp, #0
 763              		.cfi_def_cfa_register 7
 506:Generated_Source\PSoC5/USBUART_drv.c ****     USBUART_LoadEP0();
 764              		.loc 1 506 0
 765 0004 FFF7FEFF 		bl	USBUART_LoadEP0
 507:Generated_Source\PSoC5/USBUART_drv.c **** }
 766              		.loc 1 507 0
 767 0008 80BD     		pop	{r7, pc}
 768              		.cfi_endproc
 769              	.LFE7:
 770              		.size	USBUART_ControlReadDataStage, .-USBUART_ControlReadDataStage
 771 000a 00BF     		.section	.text.USBUART_ControlReadStatusStage,"ax",%progbits
 772              		.align	2
 773              		.global	USBUART_ControlReadStatusStage
 774              		.thumb
 775              		.thumb_func
 776              		.type	USBUART_ControlReadStatusStage, %function
 777              	USBUART_ControlReadStatusStage:
 778              	.LFB8:
 508:Generated_Source\PSoC5/USBUART_drv.c **** 
 509:Generated_Source\PSoC5/USBUART_drv.c **** 
 510:Generated_Source\PSoC5/USBUART_drv.c **** /*******************************************************************************
 511:Generated_Source\PSoC5/USBUART_drv.c **** * Function Name: USBUART_ControlReadStatusStage
 512:Generated_Source\PSoC5/USBUART_drv.c **** ****************************************************************************//**
 513:Generated_Source\PSoC5/USBUART_drv.c **** *
 514:Generated_Source\PSoC5/USBUART_drv.c **** *  Handle the Status Stage of a control read transfer.
 515:Generated_Source\PSoC5/USBUART_drv.c **** *
 516:Generated_Source\PSoC5/USBUART_drv.c **** *
 517:Generated_Source\PSoC5/USBUART_drv.c **** * \globalvars
 518:Generated_Source\PSoC5/USBUART_drv.c **** *  USBUART_USBFS_transferByteCount - updated with last packet size.
 519:Generated_Source\PSoC5/USBUART_drv.c **** *  USBUART_transferState - set to TRANS_STATE_IDLE.
 520:Generated_Source\PSoC5/USBUART_drv.c **** *  USBUART_ep0Mode  - set to MODE_STALL_IN_OUT.
 521:Generated_Source\PSoC5/USBUART_drv.c **** *
 522:Generated_Source\PSoC5/USBUART_drv.c **** * \reentrant
 523:Generated_Source\PSoC5/USBUART_drv.c **** *  No.
 524:Generated_Source\PSoC5/USBUART_drv.c **** *
 525:Generated_Source\PSoC5/USBUART_drv.c **** *******************************************************************************/
 526:Generated_Source\PSoC5/USBUART_drv.c **** void USBUART_ControlReadStatusStage(void) 
 527:Generated_Source\PSoC5/USBUART_drv.c **** {
 779              		.loc 1 527 0
 780              		.cfi_startproc
 781              		@ args = 0, pretend = 0, frame = 0
 782              		@ frame_needed = 1, uses_anonymous_args = 0
ARM GAS  C:\Users\Greg\AppData\Local\Temp\ccWhExNe.s 			page 24


 783 0000 80B5     		push	{r7, lr}
 784              		.cfi_def_cfa_offset 8
 785              		.cfi_offset 7, -8
 786              		.cfi_offset 14, -4
 787 0002 00AF     		add	r7, sp, #0
 788              		.cfi_def_cfa_register 7
 528:Generated_Source\PSoC5/USBUART_drv.c ****     /* Update the transfer byte count */
 529:Generated_Source\PSoC5/USBUART_drv.c ****     USBUART_transferByteCount += USBUART_lastPacketSize;
 789              		.loc 1 529 0
 790 0004 0A4B     		ldr	r3, .L68
 791 0006 1B78     		ldrb	r3, [r3]
 792 0008 DBB2     		uxtb	r3, r3
 793 000a 9AB2     		uxth	r2, r3
 794 000c 094B     		ldr	r3, .L68+4
 795 000e 1B88     		ldrh	r3, [r3]	@ movhi
 796 0010 9BB2     		uxth	r3, r3
 797 0012 1344     		add	r3, r3, r2
 798 0014 9AB2     		uxth	r2, r3
 799 0016 074B     		ldr	r3, .L68+4
 800 0018 1A80     		strh	r2, [r3]	@ movhi
 530:Generated_Source\PSoC5/USBUART_drv.c ****     
 531:Generated_Source\PSoC5/USBUART_drv.c ****     /* Go Idle */
 532:Generated_Source\PSoC5/USBUART_drv.c ****     USBUART_transferState = USBUART_TRANS_STATE_IDLE;
 801              		.loc 1 532 0
 802 001a 074B     		ldr	r3, .L68+8
 803 001c 0022     		movs	r2, #0
 804 001e 1A70     		strb	r2, [r3]
 533:Generated_Source\PSoC5/USBUART_drv.c ****     
 534:Generated_Source\PSoC5/USBUART_drv.c ****     /* Update the completion block */
 535:Generated_Source\PSoC5/USBUART_drv.c ****     USBUART_UpdateStatusBlock(USBUART_XFER_STATUS_ACK);
 805              		.loc 1 535 0
 806 0020 0120     		movs	r0, #1
 807 0022 FFF7FEFF 		bl	USBUART_UpdateStatusBlock
 536:Generated_Source\PSoC5/USBUART_drv.c ****     
 537:Generated_Source\PSoC5/USBUART_drv.c ****     /* We expect no more data, so stall INs and OUTs */
 538:Generated_Source\PSoC5/USBUART_drv.c ****     USBUART_ep0Mode = USBUART_MODE_STALL_IN_OUT;
 808              		.loc 1 538 0
 809 0026 054B     		ldr	r3, .L68+12
 810 0028 0322     		movs	r2, #3
 811 002a 1A70     		strb	r2, [r3]
 539:Generated_Source\PSoC5/USBUART_drv.c **** }
 812              		.loc 1 539 0
 813 002c 80BD     		pop	{r7, pc}
 814              	.L69:
 815 002e 00BF     		.align	2
 816              	.L68:
 817 0030 00000000 		.word	USBUART_lastPacketSize
 818 0034 00000000 		.word	USBUART_transferByteCount
 819 0038 00000000 		.word	USBUART_transferState
 820 003c 00000000 		.word	USBUART_ep0Mode
 821              		.cfi_endproc
 822              	.LFE8:
 823              		.size	USBUART_ControlReadStatusStage, .-USBUART_ControlReadStatusStage
 824              		.section	.text.USBUART_InitControlWrite,"ax",%progbits
 825              		.align	2
 826              		.global	USBUART_InitControlWrite
 827              		.thumb
ARM GAS  C:\Users\Greg\AppData\Local\Temp\ccWhExNe.s 			page 25


 828              		.thumb_func
 829              		.type	USBUART_InitControlWrite, %function
 830              	USBUART_InitControlWrite:
 831              	.LFB9:
 540:Generated_Source\PSoC5/USBUART_drv.c **** 
 541:Generated_Source\PSoC5/USBUART_drv.c **** 
 542:Generated_Source\PSoC5/USBUART_drv.c **** /*******************************************************************************
 543:Generated_Source\PSoC5/USBUART_drv.c **** * Function Name: USBUART_InitControlWrite
 544:Generated_Source\PSoC5/USBUART_drv.c **** ****************************************************************************//**
 545:Generated_Source\PSoC5/USBUART_drv.c **** *
 546:Generated_Source\PSoC5/USBUART_drv.c **** *  Initialize a control write transaction
 547:Generated_Source\PSoC5/USBUART_drv.c **** *
 548:Generated_Source\PSoC5/USBUART_drv.c **** * \return
 549:Generated_Source\PSoC5/USBUART_drv.c **** *  requestHandled state.
 550:Generated_Source\PSoC5/USBUART_drv.c **** *
 551:Generated_Source\PSoC5/USBUART_drv.c **** * \globalvars
 552:Generated_Source\PSoC5/USBUART_drv.c **** *  USBUART_USBFS_transferState - set to TRANS_STATE_CONTROL_WRITE
 553:Generated_Source\PSoC5/USBUART_drv.c **** *  USBUART_ep0Toggle - set to EP0_CNT_DATA_TOGGLE
 554:Generated_Source\PSoC5/USBUART_drv.c **** *  USBUART_ep0Mode  - set to MODE_ACK_OUT_STATUS_IN
 555:Generated_Source\PSoC5/USBUART_drv.c **** *
 556:Generated_Source\PSoC5/USBUART_drv.c **** * \reentrant
 557:Generated_Source\PSoC5/USBUART_drv.c **** *  No.
 558:Generated_Source\PSoC5/USBUART_drv.c **** *
 559:Generated_Source\PSoC5/USBUART_drv.c **** *******************************************************************************/
 560:Generated_Source\PSoC5/USBUART_drv.c **** uint8 USBUART_InitControlWrite(void) 
 561:Generated_Source\PSoC5/USBUART_drv.c **** {
 832              		.loc 1 561 0
 833              		.cfi_startproc
 834              		@ args = 0, pretend = 0, frame = 8
 835              		@ frame_needed = 1, uses_anonymous_args = 0
 836 0000 80B5     		push	{r7, lr}
 837              		.cfi_def_cfa_offset 8
 838              		.cfi_offset 7, -8
 839              		.cfi_offset 14, -4
 840 0002 82B0     		sub	sp, sp, #8
 841              		.cfi_def_cfa_offset 16
 842 0004 00AF     		add	r7, sp, #0
 843              		.cfi_def_cfa_register 7
 562:Generated_Source\PSoC5/USBUART_drv.c ****     uint16 xferCount;
 563:Generated_Source\PSoC5/USBUART_drv.c **** 
 564:Generated_Source\PSoC5/USBUART_drv.c ****     /* Set up the state machine */
 565:Generated_Source\PSoC5/USBUART_drv.c ****     USBUART_transferState = USBUART_TRANS_STATE_CONTROL_WRITE;
 844              		.loc 1 565 0
 845 0006 124B     		ldr	r3, .L73
 846 0008 0422     		movs	r2, #4
 847 000a 1A70     		strb	r2, [r3]
 566:Generated_Source\PSoC5/USBUART_drv.c ****     
 567:Generated_Source\PSoC5/USBUART_drv.c ****     /* This might not be necessary */
 568:Generated_Source\PSoC5/USBUART_drv.c ****     USBUART_ep0Toggle = USBUART_EP0_CNT_DATA_TOGGLE;
 848              		.loc 1 568 0
 849 000c 114B     		ldr	r3, .L73+4
 850 000e 8022     		movs	r2, #128
 851 0010 1A70     		strb	r2, [r3]
 569:Generated_Source\PSoC5/USBUART_drv.c ****     
 570:Generated_Source\PSoC5/USBUART_drv.c ****     /* Initialize the Status Block */
 571:Generated_Source\PSoC5/USBUART_drv.c ****     USBUART_InitializeStatusBlock();
 852              		.loc 1 571 0
ARM GAS  C:\Users\Greg\AppData\Local\Temp\ccWhExNe.s 			page 26


 853 0012 FFF7FEFF 		bl	USBUART_InitializeStatusBlock
 572:Generated_Source\PSoC5/USBUART_drv.c **** 
 573:Generated_Source\PSoC5/USBUART_drv.c ****     xferCount = ((uint16)((uint16) USBUART_lengthHiReg << 8u) | ((uint16) USBUART_lengthLoReg));
 854              		.loc 1 573 0
 855 0016 104B     		ldr	r3, .L73+8
 856 0018 DB79     		ldrb	r3, [r3, #7]
 857 001a DBB2     		uxtb	r3, r3
 858 001c 9BB2     		uxth	r3, r3
 859 001e 1B02     		lsls	r3, r3, #8
 860 0020 9AB2     		uxth	r2, r3
 861 0022 0D4B     		ldr	r3, .L73+8
 862 0024 9B79     		ldrb	r3, [r3, #6]
 863 0026 DBB2     		uxtb	r3, r3
 864 0028 9BB2     		uxth	r3, r3
 865 002a 1343     		orrs	r3, r3, r2
 866 002c FB80     		strh	r3, [r7, #6]	@ movhi
 574:Generated_Source\PSoC5/USBUART_drv.c **** 
 575:Generated_Source\PSoC5/USBUART_drv.c ****     if (USBUART_currentTD.count > xferCount)
 867              		.loc 1 575 0
 868 002e 0B4B     		ldr	r3, .L73+12
 869 0030 1B88     		ldrh	r3, [r3]	@ movhi
 870 0032 9BB2     		uxth	r3, r3
 871 0034 FA88     		ldrh	r2, [r7, #6]
 872 0036 9A42     		cmp	r2, r3
 873 0038 02D2     		bcs	.L71
 576:Generated_Source\PSoC5/USBUART_drv.c ****     {
 577:Generated_Source\PSoC5/USBUART_drv.c ****         USBUART_currentTD.count = xferCount;
 874              		.loc 1 577 0
 875 003a 084A     		ldr	r2, .L73+12
 876 003c FB88     		ldrh	r3, [r7, #6]	@ movhi
 877 003e 1380     		strh	r3, [r2]	@ movhi
 878              	.L71:
 578:Generated_Source\PSoC5/USBUART_drv.c ****     }
 579:Generated_Source\PSoC5/USBUART_drv.c **** 
 580:Generated_Source\PSoC5/USBUART_drv.c ****     /* Expect Data or Status Stage */
 581:Generated_Source\PSoC5/USBUART_drv.c ****     USBUART_ep0Mode = USBUART_MODE_ACK_OUT_STATUS_IN;
 879              		.loc 1 581 0
 880 0040 074B     		ldr	r3, .L73+16
 881 0042 0B22     		movs	r2, #11
 882 0044 1A70     		strb	r2, [r3]
 582:Generated_Source\PSoC5/USBUART_drv.c **** 
 583:Generated_Source\PSoC5/USBUART_drv.c ****     return(USBUART_TRUE);
 883              		.loc 1 583 0
 884 0046 0123     		movs	r3, #1
 584:Generated_Source\PSoC5/USBUART_drv.c **** }
 885              		.loc 1 584 0
 886 0048 1846     		mov	r0, r3
 887 004a 0837     		adds	r7, r7, #8
 888              		.cfi_def_cfa_offset 8
 889 004c BD46     		mov	sp, r7
 890              		.cfi_def_cfa_register 13
 891              		@ sp needed
 892 004e 80BD     		pop	{r7, pc}
 893              	.L74:
 894              		.align	2
 895              	.L73:
 896 0050 00000000 		.word	USBUART_transferState
ARM GAS  C:\Users\Greg\AppData\Local\Temp\ccWhExNe.s 			page 27


 897 0054 00000000 		.word	USBUART_ep0Toggle
 898 0058 00600040 		.word	1073766400
 899 005c 00000000 		.word	USBUART_currentTD
 900 0060 00000000 		.word	USBUART_ep0Mode
 901              		.cfi_endproc
 902              	.LFE9:
 903              		.size	USBUART_InitControlWrite, .-USBUART_InitControlWrite
 904              		.section	.text.USBUART_ControlWriteDataStage,"ax",%progbits
 905              		.align	2
 906              		.global	USBUART_ControlWriteDataStage
 907              		.thumb
 908              		.thumb_func
 909              		.type	USBUART_ControlWriteDataStage, %function
 910              	USBUART_ControlWriteDataStage:
 911              	.LFB10:
 585:Generated_Source\PSoC5/USBUART_drv.c **** 
 586:Generated_Source\PSoC5/USBUART_drv.c **** 
 587:Generated_Source\PSoC5/USBUART_drv.c **** /*******************************************************************************
 588:Generated_Source\PSoC5/USBUART_drv.c **** * Function Name: USBUART_ControlWriteDataStage
 589:Generated_Source\PSoC5/USBUART_drv.c **** ****************************************************************************//**
 590:Generated_Source\PSoC5/USBUART_drv.c **** *
 591:Generated_Source\PSoC5/USBUART_drv.c **** *  Handle the Data Stage of a control write transfer
 592:Generated_Source\PSoC5/USBUART_drv.c **** *       1. Get the data (We assume the destination was validated previously)
 593:Generated_Source\PSoC5/USBUART_drv.c **** *       2. Update the count and data toggle
 594:Generated_Source\PSoC5/USBUART_drv.c **** *       3. Update the mode register for the next transaction
 595:Generated_Source\PSoC5/USBUART_drv.c **** *
 596:Generated_Source\PSoC5/USBUART_drv.c **** *
 597:Generated_Source\PSoC5/USBUART_drv.c **** * \globalvars
 598:Generated_Source\PSoC5/USBUART_drv.c **** *  USBUART_transferByteCount - Update the transfer byte count from the
 599:Generated_Source\PSoC5/USBUART_drv.c **** *    last transaction.
 600:Generated_Source\PSoC5/USBUART_drv.c **** *  USBUART_ep0Count - counts the data loaded from the SIE memory
 601:Generated_Source\PSoC5/USBUART_drv.c **** *    in current packet.
 602:Generated_Source\PSoC5/USBUART_drv.c **** *  USBUART_transferByteCount - sum of the previous bytes transferred
 603:Generated_Source\PSoC5/USBUART_drv.c **** *    on previous packets(sum of USBFS_lastPacketSize)
 604:Generated_Source\PSoC5/USBUART_drv.c **** *  USBUART_ep0Toggle - inverted
 605:Generated_Source\PSoC5/USBUART_drv.c **** *  USBUART_ep0Mode  - set to MODE_ACK_OUT_STATUS_IN.
 606:Generated_Source\PSoC5/USBUART_drv.c **** *
 607:Generated_Source\PSoC5/USBUART_drv.c **** * \reentrant
 608:Generated_Source\PSoC5/USBUART_drv.c **** *  No.
 609:Generated_Source\PSoC5/USBUART_drv.c **** *
 610:Generated_Source\PSoC5/USBUART_drv.c **** *******************************************************************************/
 611:Generated_Source\PSoC5/USBUART_drv.c **** void USBUART_ControlWriteDataStage(void) 
 612:Generated_Source\PSoC5/USBUART_drv.c **** {
 912              		.loc 1 612 0
 913              		.cfi_startproc
 914              		@ args = 0, pretend = 0, frame = 8
 915              		@ frame_needed = 1, uses_anonymous_args = 0
 916              		@ link register save eliminated.
 917 0000 80B4     		push	{r7}
 918              		.cfi_def_cfa_offset 4
 919              		.cfi_offset 7, -4
 920 0002 83B0     		sub	sp, sp, #12
 921              		.cfi_def_cfa_offset 16
 922 0004 00AF     		add	r7, sp, #0
 923              		.cfi_def_cfa_register 7
 613:Generated_Source\PSoC5/USBUART_drv.c ****     uint8 ep0Count;
 614:Generated_Source\PSoC5/USBUART_drv.c ****     uint8 regIndex = 0u;
ARM GAS  C:\Users\Greg\AppData\Local\Temp\ccWhExNe.s 			page 28


 924              		.loc 1 614 0
 925 0006 0023     		movs	r3, #0
 926 0008 BB71     		strb	r3, [r7, #6]
 615:Generated_Source\PSoC5/USBUART_drv.c **** 
 616:Generated_Source\PSoC5/USBUART_drv.c ****     ep0Count = (USBUART_EP0_CNT_REG & USBUART_EPX_CNT0_MASK) - USBUART_EPX_CNTX_CRC_COUNT;
 927              		.loc 1 616 0
 928 000a 234B     		ldr	r3, .L79
 929 000c 1B78     		ldrb	r3, [r3]
 930 000e DBB2     		uxtb	r3, r3
 931 0010 03F00F03 		and	r3, r3, #15
 932 0014 DBB2     		uxtb	r3, r3
 933 0016 023B     		subs	r3, r3, #2
 934 0018 FB71     		strb	r3, [r7, #7]
 617:Generated_Source\PSoC5/USBUART_drv.c **** 
 618:Generated_Source\PSoC5/USBUART_drv.c ****     USBUART_transferByteCount += (uint8)ep0Count;
 935              		.loc 1 618 0
 936 001a FB79     		ldrb	r3, [r7, #7]	@ zero_extendqisi2
 937 001c 9AB2     		uxth	r2, r3
 938 001e 1F4B     		ldr	r3, .L79+4
 939 0020 1B88     		ldrh	r3, [r3]	@ movhi
 940 0022 9BB2     		uxth	r3, r3
 941 0024 1344     		add	r3, r3, r2
 942 0026 9AB2     		uxth	r2, r3
 943 0028 1C4B     		ldr	r3, .L79+4
 944 002a 1A80     		strh	r2, [r3]	@ movhi
 619:Generated_Source\PSoC5/USBUART_drv.c **** 
 620:Generated_Source\PSoC5/USBUART_drv.c ****     while ((USBUART_currentTD.count > 0u) && (ep0Count > 0u))
 945              		.loc 1 620 0
 946 002c 18E0     		b	.L76
 947              	.L78:
 621:Generated_Source\PSoC5/USBUART_drv.c ****     {
 622:Generated_Source\PSoC5/USBUART_drv.c ****         *USBUART_currentTD.pData = (uint8) USBUART_EP0_DR_BASE.epData[regIndex];
 948              		.loc 1 622 0
 949 002e 1C4B     		ldr	r3, .L79+8
 950 0030 5B68     		ldr	r3, [r3, #4]
 951 0032 1C49     		ldr	r1, .L79+12
 952 0034 BA79     		ldrb	r2, [r7, #6]	@ zero_extendqisi2
 953 0036 8A5C     		ldrb	r2, [r1, r2]
 954 0038 D2B2     		uxtb	r2, r2
 955 003a 1A70     		strb	r2, [r3]
 623:Generated_Source\PSoC5/USBUART_drv.c ****         USBUART_currentTD.pData = &USBUART_currentTD.pData[1u];
 956              		.loc 1 623 0
 957 003c 184B     		ldr	r3, .L79+8
 958 003e 5B68     		ldr	r3, [r3, #4]
 959 0040 0133     		adds	r3, r3, #1
 960 0042 174A     		ldr	r2, .L79+8
 961 0044 5360     		str	r3, [r2, #4]
 624:Generated_Source\PSoC5/USBUART_drv.c ****         regIndex++;
 962              		.loc 1 624 0
 963 0046 BB79     		ldrb	r3, [r7, #6]	@ zero_extendqisi2
 964 0048 0133     		adds	r3, r3, #1
 965 004a BB71     		strb	r3, [r7, #6]
 625:Generated_Source\PSoC5/USBUART_drv.c ****         ep0Count--;
 966              		.loc 1 625 0
 967 004c FB79     		ldrb	r3, [r7, #7]	@ zero_extendqisi2
 968 004e 013B     		subs	r3, r3, #1
 969 0050 FB71     		strb	r3, [r7, #7]
ARM GAS  C:\Users\Greg\AppData\Local\Temp\ccWhExNe.s 			page 29


 626:Generated_Source\PSoC5/USBUART_drv.c ****         USBUART_currentTD.count--;
 970              		.loc 1 626 0
 971 0052 134B     		ldr	r3, .L79+8
 972 0054 1B88     		ldrh	r3, [r3]	@ movhi
 973 0056 9BB2     		uxth	r3, r3
 974 0058 013B     		subs	r3, r3, #1
 975 005a 9AB2     		uxth	r2, r3
 976 005c 104B     		ldr	r3, .L79+8
 977 005e 1A80     		strh	r2, [r3]	@ movhi
 978              	.L76:
 620:Generated_Source\PSoC5/USBUART_drv.c ****     {
 979              		.loc 1 620 0
 980 0060 0F4B     		ldr	r3, .L79+8
 981 0062 1B88     		ldrh	r3, [r3]	@ movhi
 982 0064 9BB2     		uxth	r3, r3
 983 0066 002B     		cmp	r3, #0
 984 0068 02D0     		beq	.L77
 620:Generated_Source\PSoC5/USBUART_drv.c ****     {
 985              		.loc 1 620 0 is_stmt 0 discriminator 1
 986 006a FB79     		ldrb	r3, [r7, #7]	@ zero_extendqisi2
 987 006c 002B     		cmp	r3, #0
 988 006e DED1     		bne	.L78
 989              	.L77:
 627:Generated_Source\PSoC5/USBUART_drv.c ****     }
 628:Generated_Source\PSoC5/USBUART_drv.c ****     
 629:Generated_Source\PSoC5/USBUART_drv.c ****     USBUART_ep0Count = (uint8)ep0Count;
 990              		.loc 1 629 0 is_stmt 1
 991 0070 0D4A     		ldr	r2, .L79+16
 992 0072 FB79     		ldrb	r3, [r7, #7]
 993 0074 1370     		strb	r3, [r2]
 630:Generated_Source\PSoC5/USBUART_drv.c ****     
 631:Generated_Source\PSoC5/USBUART_drv.c ****     /* Update the data toggle */
 632:Generated_Source\PSoC5/USBUART_drv.c ****     USBUART_ep0Toggle ^= USBUART_EP0_CNT_DATA_TOGGLE;
 994              		.loc 1 632 0
 995 0076 0D4B     		ldr	r3, .L79+20
 996 0078 1B78     		ldrb	r3, [r3]
 997 007a DBB2     		uxtb	r3, r3
 998 007c 83F07F03 		eor	r3, r3, #127
 999 0080 DB43     		mvns	r3, r3
 1000 0082 DAB2     		uxtb	r2, r3
 1001 0084 094B     		ldr	r3, .L79+20
 1002 0086 1A70     		strb	r2, [r3]
 633:Generated_Source\PSoC5/USBUART_drv.c ****     
 634:Generated_Source\PSoC5/USBUART_drv.c ****     /* Expect Data or Status Stage */
 635:Generated_Source\PSoC5/USBUART_drv.c ****     USBUART_ep0Mode = USBUART_MODE_ACK_OUT_STATUS_IN;
 1003              		.loc 1 635 0
 1004 0088 094B     		ldr	r3, .L79+24
 1005 008a 0B22     		movs	r2, #11
 1006 008c 1A70     		strb	r2, [r3]
 636:Generated_Source\PSoC5/USBUART_drv.c **** }
 1007              		.loc 1 636 0
 1008 008e 0C37     		adds	r7, r7, #12
 1009              		.cfi_def_cfa_offset 4
 1010 0090 BD46     		mov	sp, r7
 1011              		.cfi_def_cfa_register 13
 1012              		@ sp needed
 1013 0092 5DF8047B 		ldr	r7, [sp], #4
ARM GAS  C:\Users\Greg\AppData\Local\Temp\ccWhExNe.s 			page 30


 1014              		.cfi_restore 7
 1015              		.cfi_def_cfa_offset 0
 1016 0096 7047     		bx	lr
 1017              	.L80:
 1018              		.align	2
 1019              	.L79:
 1020 0098 29600040 		.word	1073766441
 1021 009c 00000000 		.word	USBUART_transferByteCount
 1022 00a0 00000000 		.word	USBUART_currentTD
 1023 00a4 00600040 		.word	1073766400
 1024 00a8 00000000 		.word	USBUART_ep0Count
 1025 00ac 00000000 		.word	USBUART_ep0Toggle
 1026 00b0 00000000 		.word	USBUART_ep0Mode
 1027              		.cfi_endproc
 1028              	.LFE10:
 1029              		.size	USBUART_ControlWriteDataStage, .-USBUART_ControlWriteDataStage
 1030              		.section	.text.USBUART_ControlWriteStatusStage,"ax",%progbits
 1031              		.align	2
 1032              		.global	USBUART_ControlWriteStatusStage
 1033              		.thumb
 1034              		.thumb_func
 1035              		.type	USBUART_ControlWriteStatusStage, %function
 1036              	USBUART_ControlWriteStatusStage:
 1037              	.LFB11:
 637:Generated_Source\PSoC5/USBUART_drv.c **** 
 638:Generated_Source\PSoC5/USBUART_drv.c **** 
 639:Generated_Source\PSoC5/USBUART_drv.c **** /*******************************************************************************
 640:Generated_Source\PSoC5/USBUART_drv.c **** * Function Name: USBUART_ControlWriteStatusStage
 641:Generated_Source\PSoC5/USBUART_drv.c **** ****************************************************************************//**
 642:Generated_Source\PSoC5/USBUART_drv.c **** *
 643:Generated_Source\PSoC5/USBUART_drv.c **** *  Handle the Status Stage of a control write transfer
 644:Generated_Source\PSoC5/USBUART_drv.c **** *
 645:Generated_Source\PSoC5/USBUART_drv.c **** * \globalvars
 646:Generated_Source\PSoC5/USBUART_drv.c **** *  USBUART_transferState - set to TRANS_STATE_IDLE.
 647:Generated_Source\PSoC5/USBUART_drv.c **** *  USBUART_USBFS_ep0Mode  - set to MODE_STALL_IN_OUT.
 648:Generated_Source\PSoC5/USBUART_drv.c **** *
 649:Generated_Source\PSoC5/USBUART_drv.c **** * \reentrant
 650:Generated_Source\PSoC5/USBUART_drv.c **** *  No.
 651:Generated_Source\PSoC5/USBUART_drv.c **** *
 652:Generated_Source\PSoC5/USBUART_drv.c **** *******************************************************************************/
 653:Generated_Source\PSoC5/USBUART_drv.c **** void USBUART_ControlWriteStatusStage(void) 
 654:Generated_Source\PSoC5/USBUART_drv.c **** {
 1038              		.loc 1 654 0
 1039              		.cfi_startproc
 1040              		@ args = 0, pretend = 0, frame = 0
 1041              		@ frame_needed = 1, uses_anonymous_args = 0
 1042 0000 80B5     		push	{r7, lr}
 1043              		.cfi_def_cfa_offset 8
 1044              		.cfi_offset 7, -8
 1045              		.cfi_offset 14, -4
 1046 0002 00AF     		add	r7, sp, #0
 1047              		.cfi_def_cfa_register 7
 655:Generated_Source\PSoC5/USBUART_drv.c ****     /* Go Idle */
 656:Generated_Source\PSoC5/USBUART_drv.c ****     USBUART_transferState = USBUART_TRANS_STATE_IDLE;
 1048              		.loc 1 656 0
 1049 0004 044B     		ldr	r3, .L82
 1050 0006 0022     		movs	r2, #0
ARM GAS  C:\Users\Greg\AppData\Local\Temp\ccWhExNe.s 			page 31


 1051 0008 1A70     		strb	r2, [r3]
 657:Generated_Source\PSoC5/USBUART_drv.c ****     
 658:Generated_Source\PSoC5/USBUART_drv.c ****     /* Update the completion block */    
 659:Generated_Source\PSoC5/USBUART_drv.c ****     USBUART_UpdateStatusBlock(USBUART_XFER_STATUS_ACK);
 1052              		.loc 1 659 0
 1053 000a 0120     		movs	r0, #1
 1054 000c FFF7FEFF 		bl	USBUART_UpdateStatusBlock
 660:Generated_Source\PSoC5/USBUART_drv.c ****     
 661:Generated_Source\PSoC5/USBUART_drv.c ****     /* We expect no more data, so stall INs and OUTs */
 662:Generated_Source\PSoC5/USBUART_drv.c ****     USBUART_ep0Mode = USBUART_MODE_STALL_IN_OUT;
 1055              		.loc 1 662 0
 1056 0010 024B     		ldr	r3, .L82+4
 1057 0012 0322     		movs	r2, #3
 1058 0014 1A70     		strb	r2, [r3]
 663:Generated_Source\PSoC5/USBUART_drv.c **** }
 1059              		.loc 1 663 0
 1060 0016 80BD     		pop	{r7, pc}
 1061              	.L83:
 1062              		.align	2
 1063              	.L82:
 1064 0018 00000000 		.word	USBUART_transferState
 1065 001c 00000000 		.word	USBUART_ep0Mode
 1066              		.cfi_endproc
 1067              	.LFE11:
 1068              		.size	USBUART_ControlWriteStatusStage, .-USBUART_ControlWriteStatusStage
 1069              		.section	.text.USBUART_InitNoDataControlTransfer,"ax",%progbits
 1070              		.align	2
 1071              		.global	USBUART_InitNoDataControlTransfer
 1072              		.thumb
 1073              		.thumb_func
 1074              		.type	USBUART_InitNoDataControlTransfer, %function
 1075              	USBUART_InitNoDataControlTransfer:
 1076              	.LFB12:
 664:Generated_Source\PSoC5/USBUART_drv.c **** 
 665:Generated_Source\PSoC5/USBUART_drv.c **** 
 666:Generated_Source\PSoC5/USBUART_drv.c **** /*******************************************************************************
 667:Generated_Source\PSoC5/USBUART_drv.c **** * Function Name: USBUART_InitNoDataControlTransfer
 668:Generated_Source\PSoC5/USBUART_drv.c **** ****************************************************************************//**
 669:Generated_Source\PSoC5/USBUART_drv.c **** *
 670:Generated_Source\PSoC5/USBUART_drv.c **** *  Initialize a no data control transfer
 671:Generated_Source\PSoC5/USBUART_drv.c **** *
 672:Generated_Source\PSoC5/USBUART_drv.c **** * \return
 673:Generated_Source\PSoC5/USBUART_drv.c **** *  requestHandled state.
 674:Generated_Source\PSoC5/USBUART_drv.c **** *
 675:Generated_Source\PSoC5/USBUART_drv.c **** * \globalvars
 676:Generated_Source\PSoC5/USBUART_drv.c **** *  USBUART_transferState - set to TRANS_STATE_NO_DATA_CONTROL.
 677:Generated_Source\PSoC5/USBUART_drv.c **** *  USBUART_ep0Mode  - set to MODE_STATUS_IN_ONLY.
 678:Generated_Source\PSoC5/USBUART_drv.c **** *  USBUART_ep0Count - cleared.
 679:Generated_Source\PSoC5/USBUART_drv.c **** *  USBUART_ep0Toggle - set to EP0_CNT_DATA_TOGGLE
 680:Generated_Source\PSoC5/USBUART_drv.c **** *
 681:Generated_Source\PSoC5/USBUART_drv.c **** * \reentrant
 682:Generated_Source\PSoC5/USBUART_drv.c **** *  No.
 683:Generated_Source\PSoC5/USBUART_drv.c **** *
 684:Generated_Source\PSoC5/USBUART_drv.c **** *******************************************************************************/
 685:Generated_Source\PSoC5/USBUART_drv.c **** uint8 USBUART_InitNoDataControlTransfer(void) 
 686:Generated_Source\PSoC5/USBUART_drv.c **** {
 1077              		.loc 1 686 0
ARM GAS  C:\Users\Greg\AppData\Local\Temp\ccWhExNe.s 			page 32


 1078              		.cfi_startproc
 1079              		@ args = 0, pretend = 0, frame = 0
 1080              		@ frame_needed = 1, uses_anonymous_args = 0
 1081              		@ link register save eliminated.
 1082 0000 80B4     		push	{r7}
 1083              		.cfi_def_cfa_offset 4
 1084              		.cfi_offset 7, -4
 1085 0002 00AF     		add	r7, sp, #0
 1086              		.cfi_def_cfa_register 7
 687:Generated_Source\PSoC5/USBUART_drv.c ****     USBUART_transferState = USBUART_TRANS_STATE_NO_DATA_CONTROL;
 1087              		.loc 1 687 0
 1088 0004 084B     		ldr	r3, .L86
 1089 0006 0622     		movs	r2, #6
 1090 0008 1A70     		strb	r2, [r3]
 688:Generated_Source\PSoC5/USBUART_drv.c ****     USBUART_ep0Mode       = USBUART_MODE_STATUS_IN_ONLY;
 1091              		.loc 1 688 0
 1092 000a 084B     		ldr	r3, .L86+4
 1093 000c 0622     		movs	r2, #6
 1094 000e 1A70     		strb	r2, [r3]
 689:Generated_Source\PSoC5/USBUART_drv.c ****     USBUART_ep0Toggle     = USBUART_EP0_CNT_DATA_TOGGLE;
 1095              		.loc 1 689 0
 1096 0010 074B     		ldr	r3, .L86+8
 1097 0012 8022     		movs	r2, #128
 1098 0014 1A70     		strb	r2, [r3]
 690:Generated_Source\PSoC5/USBUART_drv.c ****     USBUART_ep0Count      = 0u;
 1099              		.loc 1 690 0
 1100 0016 074B     		ldr	r3, .L86+12
 1101 0018 0022     		movs	r2, #0
 1102 001a 1A70     		strb	r2, [r3]
 691:Generated_Source\PSoC5/USBUART_drv.c **** 
 692:Generated_Source\PSoC5/USBUART_drv.c ****     return (USBUART_TRUE);
 1103              		.loc 1 692 0
 1104 001c 0123     		movs	r3, #1
 693:Generated_Source\PSoC5/USBUART_drv.c **** }
 1105              		.loc 1 693 0
 1106 001e 1846     		mov	r0, r3
 1107 0020 BD46     		mov	sp, r7
 1108              		.cfi_def_cfa_register 13
 1109              		@ sp needed
 1110 0022 5DF8047B 		ldr	r7, [sp], #4
 1111              		.cfi_restore 7
 1112              		.cfi_def_cfa_offset 0
 1113 0026 7047     		bx	lr
 1114              	.L87:
 1115              		.align	2
 1116              	.L86:
 1117 0028 00000000 		.word	USBUART_transferState
 1118 002c 00000000 		.word	USBUART_ep0Mode
 1119 0030 00000000 		.word	USBUART_ep0Toggle
 1120 0034 00000000 		.word	USBUART_ep0Count
 1121              		.cfi_endproc
 1122              	.LFE12:
 1123              		.size	USBUART_InitNoDataControlTransfer, .-USBUART_InitNoDataControlTransfer
 1124              		.section	.text.USBUART_NoDataControlStatusStage,"ax",%progbits
 1125              		.align	2
 1126              		.global	USBUART_NoDataControlStatusStage
 1127              		.thumb
ARM GAS  C:\Users\Greg\AppData\Local\Temp\ccWhExNe.s 			page 33


 1128              		.thumb_func
 1129              		.type	USBUART_NoDataControlStatusStage, %function
 1130              	USBUART_NoDataControlStatusStage:
 1131              	.LFB13:
 694:Generated_Source\PSoC5/USBUART_drv.c **** 
 695:Generated_Source\PSoC5/USBUART_drv.c **** 
 696:Generated_Source\PSoC5/USBUART_drv.c **** /*******************************************************************************
 697:Generated_Source\PSoC5/USBUART_drv.c **** * Function Name: USBUART_NoDataControlStatusStage
 698:Generated_Source\PSoC5/USBUART_drv.c **** ****************************************************************************//**
 699:Generated_Source\PSoC5/USBUART_drv.c **** *  Handle the Status Stage of a no data control transfer.
 700:Generated_Source\PSoC5/USBUART_drv.c **** *
 701:Generated_Source\PSoC5/USBUART_drv.c **** *  SET_ADDRESS is special, since we need to receive the status stage with
 702:Generated_Source\PSoC5/USBUART_drv.c **** *  the old address.
 703:Generated_Source\PSoC5/USBUART_drv.c **** *
 704:Generated_Source\PSoC5/USBUART_drv.c **** * \globalvars
 705:Generated_Source\PSoC5/USBUART_drv.c **** *  USBUART_transferState - set to TRANS_STATE_IDLE.
 706:Generated_Source\PSoC5/USBUART_drv.c **** *  USBUART_ep0Mode  - set to MODE_STALL_IN_OUT.
 707:Generated_Source\PSoC5/USBUART_drv.c **** *  USBUART_ep0Toggle - set to EP0_CNT_DATA_TOGGLE
 708:Generated_Source\PSoC5/USBUART_drv.c **** *  USBUART_deviceAddress - used to set new address and cleared
 709:Generated_Source\PSoC5/USBUART_drv.c **** *
 710:Generated_Source\PSoC5/USBUART_drv.c **** * \reentrant
 711:Generated_Source\PSoC5/USBUART_drv.c **** *  No.
 712:Generated_Source\PSoC5/USBUART_drv.c **** *
 713:Generated_Source\PSoC5/USBUART_drv.c **** *******************************************************************************/
 714:Generated_Source\PSoC5/USBUART_drv.c **** void USBUART_NoDataControlStatusStage(void) 
 715:Generated_Source\PSoC5/USBUART_drv.c **** {
 1132              		.loc 1 715 0
 1133              		.cfi_startproc
 1134              		@ args = 0, pretend = 0, frame = 0
 1135              		@ frame_needed = 1, uses_anonymous_args = 0
 1136 0000 80B5     		push	{r7, lr}
 1137              		.cfi_def_cfa_offset 8
 1138              		.cfi_offset 7, -8
 1139              		.cfi_offset 14, -4
 1140 0002 00AF     		add	r7, sp, #0
 1141              		.cfi_def_cfa_register 7
 716:Generated_Source\PSoC5/USBUART_drv.c ****     if (0u != USBUART_deviceAddress)
 1142              		.loc 1 716 0
 1143 0004 0C4B     		ldr	r3, .L90
 1144 0006 1B78     		ldrb	r3, [r3]
 1145 0008 DBB2     		uxtb	r3, r3
 1146 000a 002B     		cmp	r3, #0
 1147 000c 0AD0     		beq	.L89
 717:Generated_Source\PSoC5/USBUART_drv.c ****     {
 718:Generated_Source\PSoC5/USBUART_drv.c ****         /* Update device address if we got new address. */
 719:Generated_Source\PSoC5/USBUART_drv.c ****         USBUART_CR0_REG = (uint8) USBUART_deviceAddress | USBUART_CR0_ENABLE;
 1148              		.loc 1 719 0
 1149 000e 0B4A     		ldr	r2, .L90+4
 1150 0010 094B     		ldr	r3, .L90
 1151 0012 1B78     		ldrb	r3, [r3]
 1152 0014 DBB2     		uxtb	r3, r3
 1153 0016 63F07F03 		orn	r3, r3, #127
 1154 001a DBB2     		uxtb	r3, r3
 1155 001c 1370     		strb	r3, [r2]
 720:Generated_Source\PSoC5/USBUART_drv.c ****         USBUART_deviceAddress = 0u;
 1156              		.loc 1 720 0
 1157 001e 064B     		ldr	r3, .L90
ARM GAS  C:\Users\Greg\AppData\Local\Temp\ccWhExNe.s 			page 34


 1158 0020 0022     		movs	r2, #0
 1159 0022 1A70     		strb	r2, [r3]
 1160              	.L89:
 721:Generated_Source\PSoC5/USBUART_drv.c ****     }
 722:Generated_Source\PSoC5/USBUART_drv.c **** 
 723:Generated_Source\PSoC5/USBUART_drv.c ****     USBUART_transferState = USBUART_TRANS_STATE_IDLE;
 1161              		.loc 1 723 0
 1162 0024 064B     		ldr	r3, .L90+8
 1163 0026 0022     		movs	r2, #0
 1164 0028 1A70     		strb	r2, [r3]
 724:Generated_Source\PSoC5/USBUART_drv.c ****     
 725:Generated_Source\PSoC5/USBUART_drv.c ****     /* Update the completion block. */
 726:Generated_Source\PSoC5/USBUART_drv.c ****     USBUART_UpdateStatusBlock(USBUART_XFER_STATUS_ACK);
 1165              		.loc 1 726 0
 1166 002a 0120     		movs	r0, #1
 1167 002c FFF7FEFF 		bl	USBUART_UpdateStatusBlock
 727:Generated_Source\PSoC5/USBUART_drv.c ****     
 728:Generated_Source\PSoC5/USBUART_drv.c ****     /* Stall IN and OUT, no more data is expected. */
 729:Generated_Source\PSoC5/USBUART_drv.c ****     USBUART_ep0Mode = USBUART_MODE_STALL_IN_OUT;
 1168              		.loc 1 729 0
 1169 0030 044B     		ldr	r3, .L90+12
 1170 0032 0322     		movs	r2, #3
 1171 0034 1A70     		strb	r2, [r3]
 730:Generated_Source\PSoC5/USBUART_drv.c **** }
 1172              		.loc 1 730 0
 1173 0036 80BD     		pop	{r7, pc}
 1174              	.L91:
 1175              		.align	2
 1176              	.L90:
 1177 0038 00000000 		.word	USBUART_deviceAddress
 1178 003c 08600040 		.word	1073766408
 1179 0040 00000000 		.word	USBUART_transferState
 1180 0044 00000000 		.word	USBUART_ep0Mode
 1181              		.cfi_endproc
 1182              	.LFE13:
 1183              		.size	USBUART_NoDataControlStatusStage, .-USBUART_NoDataControlStatusStage
 1184              		.section	.text.USBUART_UpdateStatusBlock,"ax",%progbits
 1185              		.align	2
 1186              		.global	USBUART_UpdateStatusBlock
 1187              		.thumb
 1188              		.thumb_func
 1189              		.type	USBUART_UpdateStatusBlock, %function
 1190              	USBUART_UpdateStatusBlock:
 1191              	.LFB14:
 731:Generated_Source\PSoC5/USBUART_drv.c **** 
 732:Generated_Source\PSoC5/USBUART_drv.c **** 
 733:Generated_Source\PSoC5/USBUART_drv.c **** /*******************************************************************************
 734:Generated_Source\PSoC5/USBUART_drv.c **** * Function Name: USBUART_UpdateStatusBlock
 735:Generated_Source\PSoC5/USBUART_drv.c **** ****************************************************************************//**
 736:Generated_Source\PSoC5/USBUART_drv.c **** *
 737:Generated_Source\PSoC5/USBUART_drv.c **** *  Update the Completion Status Block for a Request.  The block is updated
 738:Generated_Source\PSoC5/USBUART_drv.c **** *  with the completion code the USBUART_transferByteCount.  The
 739:Generated_Source\PSoC5/USBUART_drv.c **** *  StatusBlock Pointer is set to NULL.
 740:Generated_Source\PSoC5/USBUART_drv.c **** *
 741:Generated_Source\PSoC5/USBUART_drv.c **** *  completionCode - status.
 742:Generated_Source\PSoC5/USBUART_drv.c **** *
 743:Generated_Source\PSoC5/USBUART_drv.c **** *
ARM GAS  C:\Users\Greg\AppData\Local\Temp\ccWhExNe.s 			page 35


 744:Generated_Source\PSoC5/USBUART_drv.c **** * \globalvars
 745:Generated_Source\PSoC5/USBUART_drv.c **** *  USBUART_currentTD.pStatusBlock->status - updated by the
 746:Generated_Source\PSoC5/USBUART_drv.c **** *    completionCode parameter.
 747:Generated_Source\PSoC5/USBUART_drv.c **** *  USBUART_currentTD.pStatusBlock->length - updated.
 748:Generated_Source\PSoC5/USBUART_drv.c **** *  USBUART_currentTD.pStatusBlock - cleared.
 749:Generated_Source\PSoC5/USBUART_drv.c **** *
 750:Generated_Source\PSoC5/USBUART_drv.c **** * \reentrant
 751:Generated_Source\PSoC5/USBUART_drv.c **** *  No.
 752:Generated_Source\PSoC5/USBUART_drv.c **** *
 753:Generated_Source\PSoC5/USBUART_drv.c **** *******************************************************************************/
 754:Generated_Source\PSoC5/USBUART_drv.c **** void USBUART_UpdateStatusBlock(uint8 completionCode) 
 755:Generated_Source\PSoC5/USBUART_drv.c **** {
 1192              		.loc 1 755 0
 1193              		.cfi_startproc
 1194              		@ args = 0, pretend = 0, frame = 8
 1195              		@ frame_needed = 1, uses_anonymous_args = 0
 1196              		@ link register save eliminated.
 1197 0000 80B4     		push	{r7}
 1198              		.cfi_def_cfa_offset 4
 1199              		.cfi_offset 7, -4
 1200 0002 83B0     		sub	sp, sp, #12
 1201              		.cfi_def_cfa_offset 16
 1202 0004 00AF     		add	r7, sp, #0
 1203              		.cfi_def_cfa_register 7
 1204 0006 0346     		mov	r3, r0
 1205 0008 FB71     		strb	r3, [r7, #7]
 756:Generated_Source\PSoC5/USBUART_drv.c ****     if (USBUART_currentTD.pStatusBlock != NULL)
 1206              		.loc 1 756 0
 1207 000a 0B4B     		ldr	r3, .L94
 1208 000c 9B68     		ldr	r3, [r3, #8]
 1209 000e 002B     		cmp	r3, #0
 1210 0010 0CD0     		beq	.L92
 757:Generated_Source\PSoC5/USBUART_drv.c ****     {
 758:Generated_Source\PSoC5/USBUART_drv.c ****         USBUART_currentTD.pStatusBlock->status = completionCode;
 1211              		.loc 1 758 0
 1212 0012 094B     		ldr	r3, .L94
 1213 0014 9B68     		ldr	r3, [r3, #8]
 1214 0016 FA79     		ldrb	r2, [r7, #7]
 1215 0018 1A70     		strb	r2, [r3]
 759:Generated_Source\PSoC5/USBUART_drv.c ****         USBUART_currentTD.pStatusBlock->length = USBUART_transferByteCount;
 1216              		.loc 1 759 0
 1217 001a 074B     		ldr	r3, .L94
 1218 001c 9B68     		ldr	r3, [r3, #8]
 1219 001e 074A     		ldr	r2, .L94+4
 1220 0020 1288     		ldrh	r2, [r2]	@ movhi
 1221 0022 92B2     		uxth	r2, r2
 1222 0024 5A80     		strh	r2, [r3, #2]	@ movhi
 760:Generated_Source\PSoC5/USBUART_drv.c ****         USBUART_currentTD.pStatusBlock = NULL;
 1223              		.loc 1 760 0
 1224 0026 044B     		ldr	r3, .L94
 1225 0028 0022     		movs	r2, #0
 1226 002a 9A60     		str	r2, [r3, #8]
 1227              	.L92:
 761:Generated_Source\PSoC5/USBUART_drv.c ****     }
 762:Generated_Source\PSoC5/USBUART_drv.c **** }
 1228              		.loc 1 762 0
 1229 002c 0C37     		adds	r7, r7, #12
ARM GAS  C:\Users\Greg\AppData\Local\Temp\ccWhExNe.s 			page 36


 1230              		.cfi_def_cfa_offset 4
 1231 002e BD46     		mov	sp, r7
 1232              		.cfi_def_cfa_register 13
 1233              		@ sp needed
 1234 0030 5DF8047B 		ldr	r7, [sp], #4
 1235              		.cfi_restore 7
 1236              		.cfi_def_cfa_offset 0
 1237 0034 7047     		bx	lr
 1238              	.L95:
 1239 0036 00BF     		.align	2
 1240              	.L94:
 1241 0038 00000000 		.word	USBUART_currentTD
 1242 003c 00000000 		.word	USBUART_transferByteCount
 1243              		.cfi_endproc
 1244              	.LFE14:
 1245              		.size	USBUART_UpdateStatusBlock, .-USBUART_UpdateStatusBlock
 1246              		.section	.text.USBUART_InitializeStatusBlock,"ax",%progbits
 1247              		.align	2
 1248              		.global	USBUART_InitializeStatusBlock
 1249              		.thumb
 1250              		.thumb_func
 1251              		.type	USBUART_InitializeStatusBlock, %function
 1252              	USBUART_InitializeStatusBlock:
 1253              	.LFB15:
 763:Generated_Source\PSoC5/USBUART_drv.c **** 
 764:Generated_Source\PSoC5/USBUART_drv.c **** 
 765:Generated_Source\PSoC5/USBUART_drv.c **** /*******************************************************************************
 766:Generated_Source\PSoC5/USBUART_drv.c **** * Function Name: USBUART_InitializeStatusBlock
 767:Generated_Source\PSoC5/USBUART_drv.c **** ****************************************************************************//**
 768:Generated_Source\PSoC5/USBUART_drv.c **** *
 769:Generated_Source\PSoC5/USBUART_drv.c **** *  Initialize the Completion Status Block for a Request.  The completion
 770:Generated_Source\PSoC5/USBUART_drv.c **** *  code is set to USB_XFER_IDLE.
 771:Generated_Source\PSoC5/USBUART_drv.c **** *
 772:Generated_Source\PSoC5/USBUART_drv.c **** *  Also, initializes USBUART_transferByteCount.  Save some space,
 773:Generated_Source\PSoC5/USBUART_drv.c **** *  this is the only consumer.
 774:Generated_Source\PSoC5/USBUART_drv.c **** *
 775:Generated_Source\PSoC5/USBUART_drv.c **** * \globalvars
 776:Generated_Source\PSoC5/USBUART_drv.c **** *  USBUART_currentTD.pStatusBlock->status - set to XFER_IDLE.
 777:Generated_Source\PSoC5/USBUART_drv.c **** *  USBUART_currentTD.pStatusBlock->length - cleared.
 778:Generated_Source\PSoC5/USBUART_drv.c **** *  USBUART_transferByteCount - cleared.
 779:Generated_Source\PSoC5/USBUART_drv.c **** *
 780:Generated_Source\PSoC5/USBUART_drv.c **** * \reentrant
 781:Generated_Source\PSoC5/USBUART_drv.c **** *  No.
 782:Generated_Source\PSoC5/USBUART_drv.c **** *
 783:Generated_Source\PSoC5/USBUART_drv.c **** *******************************************************************************/
 784:Generated_Source\PSoC5/USBUART_drv.c **** void USBUART_InitializeStatusBlock(void) 
 785:Generated_Source\PSoC5/USBUART_drv.c **** {
 1254              		.loc 1 785 0
 1255              		.cfi_startproc
 1256              		@ args = 0, pretend = 0, frame = 0
 1257              		@ frame_needed = 1, uses_anonymous_args = 0
 1258              		@ link register save eliminated.
 1259 0000 80B4     		push	{r7}
 1260              		.cfi_def_cfa_offset 4
 1261              		.cfi_offset 7, -4
 1262 0002 00AF     		add	r7, sp, #0
 1263              		.cfi_def_cfa_register 7
ARM GAS  C:\Users\Greg\AppData\Local\Temp\ccWhExNe.s 			page 37


 786:Generated_Source\PSoC5/USBUART_drv.c ****     USBUART_transferByteCount = 0u;
 1264              		.loc 1 786 0
 1265 0004 094B     		ldr	r3, .L98
 1266 0006 0022     		movs	r2, #0
 1267 0008 1A80     		strh	r2, [r3]	@ movhi
 787:Generated_Source\PSoC5/USBUART_drv.c ****     
 788:Generated_Source\PSoC5/USBUART_drv.c ****     if (USBUART_currentTD.pStatusBlock != NULL)
 1268              		.loc 1 788 0
 1269 000a 094B     		ldr	r3, .L98+4
 1270 000c 9B68     		ldr	r3, [r3, #8]
 1271 000e 002B     		cmp	r3, #0
 1272 0010 07D0     		beq	.L96
 789:Generated_Source\PSoC5/USBUART_drv.c ****     {
 790:Generated_Source\PSoC5/USBUART_drv.c ****         USBUART_currentTD.pStatusBlock->status = USBUART_XFER_IDLE;
 1273              		.loc 1 790 0
 1274 0012 074B     		ldr	r3, .L98+4
 1275 0014 9B68     		ldr	r3, [r3, #8]
 1276 0016 0022     		movs	r2, #0
 1277 0018 1A70     		strb	r2, [r3]
 791:Generated_Source\PSoC5/USBUART_drv.c ****         USBUART_currentTD.pStatusBlock->length = 0u;
 1278              		.loc 1 791 0
 1279 001a 054B     		ldr	r3, .L98+4
 1280 001c 9B68     		ldr	r3, [r3, #8]
 1281 001e 0022     		movs	r2, #0
 1282 0020 5A80     		strh	r2, [r3, #2]	@ movhi
 1283              	.L96:
 792:Generated_Source\PSoC5/USBUART_drv.c ****     }
 793:Generated_Source\PSoC5/USBUART_drv.c **** }
 1284              		.loc 1 793 0
 1285 0022 BD46     		mov	sp, r7
 1286              		.cfi_def_cfa_register 13
 1287              		@ sp needed
 1288 0024 5DF8047B 		ldr	r7, [sp], #4
 1289              		.cfi_restore 7
 1290              		.cfi_def_cfa_offset 0
 1291 0028 7047     		bx	lr
 1292              	.L99:
 1293 002a 00BF     		.align	2
 1294              	.L98:
 1295 002c 00000000 		.word	USBUART_transferByteCount
 1296 0030 00000000 		.word	USBUART_currentTD
 1297              		.cfi_endproc
 1298              	.LFE15:
 1299              		.size	USBUART_InitializeStatusBlock, .-USBUART_InitializeStatusBlock
 1300              		.text
 1301              	.Letext0:
 1302              		.file 2 "Generated_Source\\PSoC5\\cytypes.h"
 1303              		.file 3 "Generated_Source\\PSoC5\\USBUART.h"