ARM GAS  C:\Users\Greg\AppData\Local\Temp\ccDYSYHP.s 			page 1


   1              		.syntax unified
   2              		.cpu cortex-m3
   3              		.fpu softvfp
   4              		.eabi_attribute 20, 1
   5              		.eabi_attribute 21, 1
   6              		.eabi_attribute 23, 3
   7              		.eabi_attribute 24, 1
   8              		.eabi_attribute 25, 1
   9              		.eabi_attribute 26, 1
  10              		.eabi_attribute 30, 6
  11              		.eabi_attribute 34, 1
  12              		.eabi_attribute 18, 4
  13              		.thumb
  14              		.file	"USBUART_cdc.c"
  15              		.text
  16              	.Ltext0:
  17              		.cfi_sections	.debug_frame
  18              		.global	USBUART_linesCoding
  19              		.data
  20              		.align	2
  21              		.type	USBUART_linesCoding, %object
  22              		.size	USBUART_linesCoding, 14
  23              	USBUART_linesCoding:
  24 0000 00       		.byte	0
  25 0001 C2       		.byte	-62
  26 0002 01       		.byte	1
  27 0003 00       		.byte	0
  28 0004 00       		.byte	0
  29 0005 00       		.byte	0
  30 0006 08       		.byte	8
  31 0007 00       		.byte	0
  32 0008 C2       		.byte	-62
  33 0009 01       		.byte	1
  34 000a 00       		.byte	0
  35 000b 00       		.byte	0
  36 000c 00       		.byte	0
  37 000d 08       		.byte	8
  38              		.comm	USBUART_linesChanged,2,4
  39              		.comm	USBUART_linesControlBitmap,4,4
  40              		.comm	USBUART_serialStateBitmap,4,4
  41              		.comm	USBUART_cdcDataInEp,2,4
  42              		.comm	USBUART_cdcDataOutEp,2,4
  43              		.comm	USBUART_cdcCommInInterruptEp,2,4
  44 000e 0000     		.align	2
  45              		.type	USBUART_serialStateNotification, %object
  46              		.size	USBUART_serialStateNotification, 10
  47              	USBUART_serialStateNotification:
  48 0010 A1       		.byte	-95
  49 0011 20       		.byte	32
  50 0012 00       		.byte	0
  51 0013 00       		.byte	0
  52 0014 00       		.byte	0
  53 0015 00       		.byte	0
  54 0016 02       		.byte	2
  55 0017 00       		.byte	0
  56 0018 00       		.byte	0
  57 0019 00       		.byte	0
ARM GAS  C:\Users\Greg\AppData\Local\Temp\ccDYSYHP.s 			page 2


  58 001a 0000     		.bss
  59              	USBUART_activeCom:
  60 0000 00       		.space	1
  61              		.section	.text.USBUART_DispatchCDCClassRqst,"ax",%progbits
  62              		.align	2
  63              		.global	USBUART_DispatchCDCClassRqst
  64              		.thumb
  65              		.thumb_func
  66              		.type	USBUART_DispatchCDCClassRqst, %function
  67              	USBUART_DispatchCDCClassRqst:
  68              	.LFB0:
  69              		.file 1 "Generated_Source\\PSoC5\\USBUART_cdc.c"
   1:Generated_Source\PSoC5/USBUART_cdc.c **** /***************************************************************************//**
   2:Generated_Source\PSoC5/USBUART_cdc.c **** * \file USBUART_cdc.c
   3:Generated_Source\PSoC5/USBUART_cdc.c **** * \version 3.10
   4:Generated_Source\PSoC5/USBUART_cdc.c **** *
   5:Generated_Source\PSoC5/USBUART_cdc.c **** * \brief
   6:Generated_Source\PSoC5/USBUART_cdc.c **** *  This file contains the USB CDC class request handler.
   7:Generated_Source\PSoC5/USBUART_cdc.c **** *
   8:Generated_Source\PSoC5/USBUART_cdc.c **** * Related Document:
   9:Generated_Source\PSoC5/USBUART_cdc.c **** *  Universal Serial Bus Class Definitions for Communication Devices Version 1.1
  10:Generated_Source\PSoC5/USBUART_cdc.c **** *
  11:Generated_Source\PSoC5/USBUART_cdc.c **** ********************************************************************************
  12:Generated_Source\PSoC5/USBUART_cdc.c **** * \copyright
  13:Generated_Source\PSoC5/USBUART_cdc.c **** * Copyright 2012-2016, Cypress Semiconductor Corporation.  All rights reserved.
  14:Generated_Source\PSoC5/USBUART_cdc.c **** * You may use this file only in accordance with the license, terms, conditions,
  15:Generated_Source\PSoC5/USBUART_cdc.c **** * disclaimers, and limitations in the end user license agreement accompanying
  16:Generated_Source\PSoC5/USBUART_cdc.c **** * the software package with which this file was provided.
  17:Generated_Source\PSoC5/USBUART_cdc.c **** *******************************************************************************/
  18:Generated_Source\PSoC5/USBUART_cdc.c **** 
  19:Generated_Source\PSoC5/USBUART_cdc.c **** #include "USBUART_cdc.h"
  20:Generated_Source\PSoC5/USBUART_cdc.c **** #include "USBUART_pvt.h"
  21:Generated_Source\PSoC5/USBUART_cdc.c **** 
  22:Generated_Source\PSoC5/USBUART_cdc.c **** 
  23:Generated_Source\PSoC5/USBUART_cdc.c **** #if defined(USBUART_ENABLE_CDC_CLASS)
  24:Generated_Source\PSoC5/USBUART_cdc.c **** 
  25:Generated_Source\PSoC5/USBUART_cdc.c **** /*******************************************************************************
  26:Generated_Source\PSoC5/USBUART_cdc.c **** *    CDC Variables
  27:Generated_Source\PSoC5/USBUART_cdc.c **** *******************************************************************************/
  28:Generated_Source\PSoC5/USBUART_cdc.c **** 
  29:Generated_Source\PSoC5/USBUART_cdc.c **** /*PUBLIC*/
  30:Generated_Source\PSoC5/USBUART_cdc.c **** /** Contains the current line coding structure. The host sets it using a
  31:Generated_Source\PSoC5/USBUART_cdc.c ****  * SET_LINE_CODING request and returns it to the user code using the
  32:Generated_Source\PSoC5/USBUART_cdc.c ****  * USBUART_GetDTERate(), USBUART_GetCharFormat(),
  33:Generated_Source\PSoC5/USBUART_cdc.c ****  * USBUART_GetParityType(), and USBUART_GetDataBits() APIs.
  34:Generated_Source\PSoC5/USBUART_cdc.c ****  * It is an array of 2 elements for COM port 1 and COM port 2 for MultiCOM port
  35:Generated_Source\PSoC5/USBUART_cdc.c ****  * support. In case of 1 COM port, data is in 0 element.*/
  36:Generated_Source\PSoC5/USBUART_cdc.c **** volatile uint8 USBUART_linesCoding[USBUART_MAX_MULTI_COM_NUM][USBUART_LINE_CODING_SIZE] =
  37:Generated_Source\PSoC5/USBUART_cdc.c **** {
  38:Generated_Source\PSoC5/USBUART_cdc.c ****     /*COM Port 1*/
  39:Generated_Source\PSoC5/USBUART_cdc.c ****     {
  40:Generated_Source\PSoC5/USBUART_cdc.c ****     0x00u, 0xC2u, 0x01u, 0x00u,     /* Data terminal rate 115200 */
  41:Generated_Source\PSoC5/USBUART_cdc.c ****     0x00u,                          /* 1 Stop bit */
  42:Generated_Source\PSoC5/USBUART_cdc.c ****     0x00u,                          /* None parity */
  43:Generated_Source\PSoC5/USBUART_cdc.c ****     0x08u                           /* 8 data bits */
  44:Generated_Source\PSoC5/USBUART_cdc.c ****     },
  45:Generated_Source\PSoC5/USBUART_cdc.c ****     /*COM Port 2*/
ARM GAS  C:\Users\Greg\AppData\Local\Temp\ccDYSYHP.s 			page 3


  46:Generated_Source\PSoC5/USBUART_cdc.c ****     {
  47:Generated_Source\PSoC5/USBUART_cdc.c ****     0x00u, 0xC2u, 0x01u, 0x00u,     /* Data terminal rate 115200 */
  48:Generated_Source\PSoC5/USBUART_cdc.c ****     0x00u,                          /* 1 Stop bit */
  49:Generated_Source\PSoC5/USBUART_cdc.c ****     0x00u,                          /* None parity */
  50:Generated_Source\PSoC5/USBUART_cdc.c ****     0x08u                           /* 8 data bits */
  51:Generated_Source\PSoC5/USBUART_cdc.c ****     }
  52:Generated_Source\PSoC5/USBUART_cdc.c **** };
  53:Generated_Source\PSoC5/USBUART_cdc.c **** 
  54:Generated_Source\PSoC5/USBUART_cdc.c **** /**Used as a flag for the USBUART_IsLineChanged() API, to inform it that the
  55:Generated_Source\PSoC5/USBUART_cdc.c ****  * host has been sent a request to change line coding or control bitmap. It is 
  56:Generated_Source\PSoC5/USBUART_cdc.c ****  * an array of 2 elements for COM port 1 and COM port 2 for MultiCOM port 
  57:Generated_Source\PSoC5/USBUART_cdc.c ****  * support. In case of 1 COM port, data is in 0 element.*/
  58:Generated_Source\PSoC5/USBUART_cdc.c **** volatile uint8  USBUART_linesChanged[USBUART_MAX_MULTI_COM_NUM];
  59:Generated_Source\PSoC5/USBUART_cdc.c **** /** Contains the current control-signal bitmap. The host sets it using a
  60:Generated_Source\PSoC5/USBUART_cdc.c ****  * SET_CONTROL_LINE request and returns it to the user code using the 
  61:Generated_Source\PSoC5/USBUART_cdc.c ****  * USBUART_GetLineControl() API. It is an array of 2 elements for COM 
  62:Generated_Source\PSoC5/USBUART_cdc.c ****  * port 1 and COM port 2 for MultiCOM port support. In case of 1 COM port, data 
  63:Generated_Source\PSoC5/USBUART_cdc.c ****  * is in 0 element.*/
  64:Generated_Source\PSoC5/USBUART_cdc.c **** volatile uint16 USBUART_linesControlBitmap[USBUART_MAX_MULTI_COM_NUM];
  65:Generated_Source\PSoC5/USBUART_cdc.c **** /** Contains the 16-bit serial state value that was sent using the 
  66:Generated_Source\PSoC5/USBUART_cdc.c ****  * \ref USBUART_SendSerialState() API. . It is an array of 2 elements 
  67:Generated_Source\PSoC5/USBUART_cdc.c ****  * for COM port 1 and COM port 2 for MultiCOM port support. In case of 1 COM 
  68:Generated_Source\PSoC5/USBUART_cdc.c ****  * port, data is in 0 element.*/
  69:Generated_Source\PSoC5/USBUART_cdc.c **** volatile uint16 USBUART_serialStateBitmap[USBUART_MAX_MULTI_COM_NUM];
  70:Generated_Source\PSoC5/USBUART_cdc.c **** /** Contains the data IN endpoint number. It is initialized after a 
  71:Generated_Source\PSoC5/USBUART_cdc.c ****  * SET_CONFIGURATION request based on a user descriptor. It is used in CDC APIs 
  72:Generated_Source\PSoC5/USBUART_cdc.c ****  * to send data to the PC. It is an array of 2 elements for COM port 1 and COM 
  73:Generated_Source\PSoC5/USBUART_cdc.c ****  * port 2 for MultiCOM port support. In case of 1 COM port, data is in 0 element.*/
  74:Generated_Source\PSoC5/USBUART_cdc.c **** volatile uint8  USBUART_cdcDataInEp[USBUART_MAX_MULTI_COM_NUM];
  75:Generated_Source\PSoC5/USBUART_cdc.c **** /** Contains the data OUT endpoint number. It is initialized after a 
  76:Generated_Source\PSoC5/USBUART_cdc.c ****  * SET_CONFIGURATION request based on user descriptor. It is used in CDC APIs to 
  77:Generated_Source\PSoC5/USBUART_cdc.c ****  * receive data from the PC. It is an array of 2 elements for COM port 1 and COM  
  78:Generated_Source\PSoC5/USBUART_cdc.c ****  * port 2 for MultiCOM port support. In case of 1 COM port, data is in 0 element.*/
  79:Generated_Source\PSoC5/USBUART_cdc.c **** volatile uint8  USBUART_cdcDataOutEp[USBUART_MAX_MULTI_COM_NUM];
  80:Generated_Source\PSoC5/USBUART_cdc.c **** /** Contains the data IN endpoint number for COMMUNICATION interface. It is 
  81:Generated_Source\PSoC5/USBUART_cdc.c ****  * initialized after a SET_CONFIGURATION request based on a user descriptor. It 
  82:Generated_Source\PSoC5/USBUART_cdc.c ****  * is used in CDC APIs to send data to the PC. It is an array of 2 elements for 
  83:Generated_Source\PSoC5/USBUART_cdc.c ****  * COM port 1 and COM port 2 for MultiCOM port support. In case of 1 COM port, 
  84:Generated_Source\PSoC5/USBUART_cdc.c ****  * data is in 0 element.*/
  85:Generated_Source\PSoC5/USBUART_cdc.c **** volatile uint8  USBUART_cdcCommInInterruptEp[USBUART_MAX_MULTI_COM_NUM];
  86:Generated_Source\PSoC5/USBUART_cdc.c **** 
  87:Generated_Source\PSoC5/USBUART_cdc.c **** /*PRIVATE*/
  88:Generated_Source\PSoC5/USBUART_cdc.c **** 
  89:Generated_Source\PSoC5/USBUART_cdc.c **** #define USBUART_CDC_IN_EP      (0u)
  90:Generated_Source\PSoC5/USBUART_cdc.c **** #define USBUART_CDC_OUT_EP     (1u)
  91:Generated_Source\PSoC5/USBUART_cdc.c **** #define USBUART_CDC_NOTE_EP    (2u)
  92:Generated_Source\PSoC5/USBUART_cdc.c **** 
  93:Generated_Source\PSoC5/USBUART_cdc.c **** #define USBUART_CDC_EP_MASK    (0x01u)
  94:Generated_Source\PSoC5/USBUART_cdc.c **** 
  95:Generated_Source\PSoC5/USBUART_cdc.c **** #define USBUART_GET_EP_COM_NUM(cdcComNums, epType) (((cdcComNums) >> (epType)) & USBUART_CDC_EP_MAS
  96:Generated_Source\PSoC5/USBUART_cdc.c **** 
  97:Generated_Source\PSoC5/USBUART_cdc.c **** 
  98:Generated_Source\PSoC5/USBUART_cdc.c **** /***************************************
  99:Generated_Source\PSoC5/USBUART_cdc.c **** *     Static Function Prototypes
 100:Generated_Source\PSoC5/USBUART_cdc.c **** ***************************************/
 101:Generated_Source\PSoC5/USBUART_cdc.c **** #if (USBUART_ENABLE_CDC_CLASS_API != 0u)
 102:Generated_Source\PSoC5/USBUART_cdc.c ****     static uint16 USBUART_StrLen(const char8 string[]) ;
ARM GAS  C:\Users\Greg\AppData\Local\Temp\ccDYSYHP.s 			page 4


 103:Generated_Source\PSoC5/USBUART_cdc.c ****     static t_USBUART_cdc_notification USBUART_serialStateNotification =
 104:Generated_Source\PSoC5/USBUART_cdc.c ****     {
 105:Generated_Source\PSoC5/USBUART_cdc.c **** 
 106:Generated_Source\PSoC5/USBUART_cdc.c ****         USBUART_SERIAL_STATE_REQUEST_TYPE, /* bRequestType    */
 107:Generated_Source\PSoC5/USBUART_cdc.c ****         USBUART_SERIAL_STATE,              /* bNotification   */
 108:Generated_Source\PSoC5/USBUART_cdc.c ****         0u,                                         /* wValue          */
 109:Generated_Source\PSoC5/USBUART_cdc.c ****         0u,                                         /* wValueMSB       */
 110:Generated_Source\PSoC5/USBUART_cdc.c ****         0u,                                         /* wIndex          */
 111:Generated_Source\PSoC5/USBUART_cdc.c ****         0u,                                         /* wIndexMSB       */
 112:Generated_Source\PSoC5/USBUART_cdc.c ****         USBUART_SERIAL_STATE_LENGTH,       /* wLength         */
 113:Generated_Source\PSoC5/USBUART_cdc.c ****         0u,                                         /* wLengthMSB      */
 114:Generated_Source\PSoC5/USBUART_cdc.c ****         0u,                                         /* wSerialState    */
 115:Generated_Source\PSoC5/USBUART_cdc.c ****         0u,                                         /* wSerialStateMSB */
 116:Generated_Source\PSoC5/USBUART_cdc.c ****     };
 117:Generated_Source\PSoC5/USBUART_cdc.c ****     static uint8 USBUART_activeCom = 0u;
 118:Generated_Source\PSoC5/USBUART_cdc.c **** #endif /* (USBUART_ENABLE_CDC_CLASS_API != 0u) */
 119:Generated_Source\PSoC5/USBUART_cdc.c **** 
 120:Generated_Source\PSoC5/USBUART_cdc.c **** 
 121:Generated_Source\PSoC5/USBUART_cdc.c **** /***************************************
 122:Generated_Source\PSoC5/USBUART_cdc.c **** * Custom Declarations
 123:Generated_Source\PSoC5/USBUART_cdc.c **** ***************************************/
 124:Generated_Source\PSoC5/USBUART_cdc.c **** 
 125:Generated_Source\PSoC5/USBUART_cdc.c **** /* `#START CDC_CUSTOM_DECLARATIONS` Place your declaration here */
 126:Generated_Source\PSoC5/USBUART_cdc.c **** 
 127:Generated_Source\PSoC5/USBUART_cdc.c **** /* `#END` */
 128:Generated_Source\PSoC5/USBUART_cdc.c **** 
 129:Generated_Source\PSoC5/USBUART_cdc.c **** 
 130:Generated_Source\PSoC5/USBUART_cdc.c **** /*******************************************************************************
 131:Generated_Source\PSoC5/USBUART_cdc.c **** * Function Name: USBUART_DispatchCDCClassRqst
 132:Generated_Source\PSoC5/USBUART_cdc.c **** ****************************************************************************//**
 133:Generated_Source\PSoC5/USBUART_cdc.c **** *
 134:Generated_Source\PSoC5/USBUART_cdc.c **** *  This routine dispatches CDC class requests.
 135:Generated_Source\PSoC5/USBUART_cdc.c **** *
 136:Generated_Source\PSoC5/USBUART_cdc.c **** * \return
 137:Generated_Source\PSoC5/USBUART_cdc.c **** *  requestHandled
 138:Generated_Source\PSoC5/USBUART_cdc.c **** *
 139:Generated_Source\PSoC5/USBUART_cdc.c **** * \globalvars
 140:Generated_Source\PSoC5/USBUART_cdc.c **** *   USBUART_linesCoding: Contains the current line coding structure.
 141:Generated_Source\PSoC5/USBUART_cdc.c **** *     It is set by the Host using SET_LINE_CODING request and returned to the
 142:Generated_Source\PSoC5/USBUART_cdc.c **** *     user code by the USBFS_GetDTERate(), USBFS_GetCharFormat(),
 143:Generated_Source\PSoC5/USBUART_cdc.c **** *     USBFS_GetParityType(), USBFS_GetDataBits() APIs.
 144:Generated_Source\PSoC5/USBUART_cdc.c **** *   USBUART_linesControlBitmap: Contains the current control signal
 145:Generated_Source\PSoC5/USBUART_cdc.c **** *     bitmap. It is set by the Host using SET_CONTROL_LINE request and returned
 146:Generated_Source\PSoC5/USBUART_cdc.c **** *     to the user code by the USBFS_GetLineControl() API.
 147:Generated_Source\PSoC5/USBUART_cdc.c **** *   USBUART_linesChanged: This variable is used as a flag for the
 148:Generated_Source\PSoC5/USBUART_cdc.c **** *     USBFS_IsLineChanged() API, to be aware that Host has been sent request
 149:Generated_Source\PSoC5/USBUART_cdc.c **** *     for changing Line Coding or Control Bitmap.
 150:Generated_Source\PSoC5/USBUART_cdc.c **** *
 151:Generated_Source\PSoC5/USBUART_cdc.c **** * \reentrant
 152:Generated_Source\PSoC5/USBUART_cdc.c **** *  No.
 153:Generated_Source\PSoC5/USBUART_cdc.c **** *
 154:Generated_Source\PSoC5/USBUART_cdc.c **** *******************************************************************************/
 155:Generated_Source\PSoC5/USBUART_cdc.c **** uint8 USBUART_DispatchCDCClassRqst(void) 
 156:Generated_Source\PSoC5/USBUART_cdc.c **** {
  70              		.loc 1 156 0
  71              		.cfi_startproc
  72              		@ args = 0, pretend = 0, frame = 8
ARM GAS  C:\Users\Greg\AppData\Local\Temp\ccDYSYHP.s 			page 5


  73              		@ frame_needed = 1, uses_anonymous_args = 0
  74 0000 80B5     		push	{r7, lr}
  75              		.cfi_def_cfa_offset 8
  76              		.cfi_offset 7, -8
  77              		.cfi_offset 14, -4
  78 0002 82B0     		sub	sp, sp, #8
  79              		.cfi_def_cfa_offset 16
  80 0004 00AF     		add	r7, sp, #0
  81              		.cfi_def_cfa_register 7
 157:Generated_Source\PSoC5/USBUART_cdc.c ****     uint8 requestHandled = USBUART_FALSE;
  82              		.loc 1 157 0
  83 0006 0023     		movs	r3, #0
  84 0008 FB71     		strb	r3, [r7, #7]
 158:Generated_Source\PSoC5/USBUART_cdc.c ****     uint8 comPort;
 159:Generated_Source\PSoC5/USBUART_cdc.c **** 
 160:Generated_Source\PSoC5/USBUART_cdc.c ****     comPort = USBUART_GetInterfaceComPort((uint8)USBUART_wIndexLoReg);
  85              		.loc 1 160 0
  86 000a 324B     		ldr	r3, .L11
  87 000c 1B79     		ldrb	r3, [r3, #4]
  88 000e DBB2     		uxtb	r3, r3
  89 0010 1846     		mov	r0, r3
  90 0012 FFF7FEFF 		bl	USBUART_GetInterfaceComPort
  91 0016 0346     		mov	r3, r0
  92 0018 BB71     		strb	r3, [r7, #6]
 161:Generated_Source\PSoC5/USBUART_cdc.c **** 
 162:Generated_Source\PSoC5/USBUART_cdc.c ****     /* Check request direction: D2H or H2D. */
 163:Generated_Source\PSoC5/USBUART_cdc.c ****     if (0u != (USBUART_bmRequestTypeReg & USBUART_RQST_DIR_D2H))
  93              		.loc 1 163 0
  94 001a 2E4B     		ldr	r3, .L11
  95 001c 1B78     		ldrb	r3, [r3]
  96 001e DBB2     		uxtb	r3, r3
  97 0020 DBB2     		uxtb	r3, r3
  98 0022 5BB2     		sxtb	r3, r3
  99 0024 002B     		cmp	r3, #0
 100 0026 16DA     		bge	.L2
 164:Generated_Source\PSoC5/USBUART_cdc.c ****     {
 165:Generated_Source\PSoC5/USBUART_cdc.c ****         /* Handle direction from device to host. */
 166:Generated_Source\PSoC5/USBUART_cdc.c **** 
 167:Generated_Source\PSoC5/USBUART_cdc.c ****         switch (USBUART_bRequestReg)
 101              		.loc 1 167 0
 102 0028 2A4B     		ldr	r3, .L11
 103 002a 5B78     		ldrb	r3, [r3, #1]
 104 002c DBB2     		uxtb	r3, r3
 105 002e 212B     		cmp	r3, #33
 106 0030 00D0     		beq	.L4
 168:Generated_Source\PSoC5/USBUART_cdc.c ****         {
 169:Generated_Source\PSoC5/USBUART_cdc.c ****             case USBUART_CDC_GET_LINE_CODING:
 170:Generated_Source\PSoC5/USBUART_cdc.c ****                 USBUART_currentTD.count = USBUART_LINE_CODING_SIZE;
 171:Generated_Source\PSoC5/USBUART_cdc.c ****                 USBUART_currentTD.pData = USBUART_linesCoding[comPort];
 172:Generated_Source\PSoC5/USBUART_cdc.c ****                 requestHandled  = USBUART_InitControlRead();
 173:Generated_Source\PSoC5/USBUART_cdc.c ****                 break;
 174:Generated_Source\PSoC5/USBUART_cdc.c **** 
 175:Generated_Source\PSoC5/USBUART_cdc.c ****             /* `#START CDC_READ_REQUESTS` Place other request handler here */
 176:Generated_Source\PSoC5/USBUART_cdc.c **** 
 177:Generated_Source\PSoC5/USBUART_cdc.c ****             /* `#END` */
 178:Generated_Source\PSoC5/USBUART_cdc.c **** 
 179:Generated_Source\PSoC5/USBUART_cdc.c ****             default:
ARM GAS  C:\Users\Greg\AppData\Local\Temp\ccDYSYHP.s 			page 6


 180:Generated_Source\PSoC5/USBUART_cdc.c ****             /* Do not handle this request unless callback is defined. */
 181:Generated_Source\PSoC5/USBUART_cdc.c ****             #ifdef USBUART_DISPATCH_CDC_CLASS_CDC_READ_REQUESTS_CALLBACK
 182:Generated_Source\PSoC5/USBUART_cdc.c ****                 requestHandled = USBUART_DispatchCDCClass_CDC_READ_REQUESTS_Callback();
 183:Generated_Source\PSoC5/USBUART_cdc.c ****             #endif /* (USBUART_DISPATCH_CDC_CLASS_CDC_READ_REQUESTS_CALLBACK) */
 184:Generated_Source\PSoC5/USBUART_cdc.c ****                 break;
 107              		.loc 1 184 0
 108 0032 0FE0     		b	.L5
 109              	.L4:
 170:Generated_Source\PSoC5/USBUART_cdc.c ****                 USBUART_currentTD.pData = USBUART_linesCoding[comPort];
 110              		.loc 1 170 0
 111 0034 284B     		ldr	r3, .L11+4
 112 0036 0722     		movs	r2, #7
 113 0038 1A80     		strh	r2, [r3]	@ movhi
 171:Generated_Source\PSoC5/USBUART_cdc.c ****                 requestHandled  = USBUART_InitControlRead();
 114              		.loc 1 171 0
 115 003a BA79     		ldrb	r2, [r7, #6]	@ zero_extendqisi2
 116 003c 1346     		mov	r3, r2
 117 003e DB00     		lsls	r3, r3, #3
 118 0040 9B1A     		subs	r3, r3, r2
 119 0042 264A     		ldr	r2, .L11+8
 120 0044 1344     		add	r3, r3, r2
 121 0046 244A     		ldr	r2, .L11+4
 122 0048 5360     		str	r3, [r2, #4]
 172:Generated_Source\PSoC5/USBUART_cdc.c ****                 break;
 123              		.loc 1 172 0
 124 004a FFF7FEFF 		bl	USBUART_InitControlRead
 125 004e 0346     		mov	r3, r0
 126 0050 FB71     		strb	r3, [r7, #7]
 173:Generated_Source\PSoC5/USBUART_cdc.c **** 
 127              		.loc 1 173 0
 128 0052 00BF     		nop
 129              	.L5:
 130 0054 38E0     		b	.L6
 131              	.L2:
 185:Generated_Source\PSoC5/USBUART_cdc.c ****         }
 186:Generated_Source\PSoC5/USBUART_cdc.c ****     }
 187:Generated_Source\PSoC5/USBUART_cdc.c ****     else
 188:Generated_Source\PSoC5/USBUART_cdc.c ****     {
 189:Generated_Source\PSoC5/USBUART_cdc.c ****         /* Handle direction from host to device. */
 190:Generated_Source\PSoC5/USBUART_cdc.c **** 
 191:Generated_Source\PSoC5/USBUART_cdc.c ****         switch (USBUART_bRequestReg)
 132              		.loc 1 191 0
 133 0056 1F4B     		ldr	r3, .L11
 134 0058 5B78     		ldrb	r3, [r3, #1]
 135 005a DBB2     		uxtb	r3, r3
 136 005c 202B     		cmp	r3, #32
 137 005e 02D0     		beq	.L8
 138 0060 222B     		cmp	r3, #34
 139 0062 1AD0     		beq	.L9
 192:Generated_Source\PSoC5/USBUART_cdc.c ****         {
 193:Generated_Source\PSoC5/USBUART_cdc.c ****             case USBUART_CDC_SET_LINE_CODING:
 194:Generated_Source\PSoC5/USBUART_cdc.c ****                 USBUART_currentTD.count  = USBUART_LINE_CODING_SIZE;
 195:Generated_Source\PSoC5/USBUART_cdc.c ****                 USBUART_currentTD.pData  = USBUART_linesCoding[comPort];
 196:Generated_Source\PSoC5/USBUART_cdc.c ****                 USBUART_linesChanged[comPort] |= USBUART_LINE_CODING_CHANGED;
 197:Generated_Source\PSoC5/USBUART_cdc.c **** 
 198:Generated_Source\PSoC5/USBUART_cdc.c ****                 requestHandled = USBUART_InitControlWrite();
 199:Generated_Source\PSoC5/USBUART_cdc.c ****                 break;
ARM GAS  C:\Users\Greg\AppData\Local\Temp\ccDYSYHP.s 			page 7


 200:Generated_Source\PSoC5/USBUART_cdc.c **** 
 201:Generated_Source\PSoC5/USBUART_cdc.c ****             case USBUART_CDC_SET_CONTROL_LINE_STATE:
 202:Generated_Source\PSoC5/USBUART_cdc.c ****                 USBUART_linesControlBitmap[comPort] = (uint8) USBUART_wValueLoReg;
 203:Generated_Source\PSoC5/USBUART_cdc.c ****                 USBUART_linesChanged[comPort]      |= USBUART_LINE_CONTROL_CHANGED;
 204:Generated_Source\PSoC5/USBUART_cdc.c **** 
 205:Generated_Source\PSoC5/USBUART_cdc.c ****                 requestHandled = USBUART_InitNoDataControlTransfer();
 206:Generated_Source\PSoC5/USBUART_cdc.c ****                 break;
 207:Generated_Source\PSoC5/USBUART_cdc.c **** 
 208:Generated_Source\PSoC5/USBUART_cdc.c ****             /* `#START CDC_WRITE_REQUESTS` Place other request handler here */
 209:Generated_Source\PSoC5/USBUART_cdc.c **** 
 210:Generated_Source\PSoC5/USBUART_cdc.c ****             /* `#END` */
 211:Generated_Source\PSoC5/USBUART_cdc.c **** 
 212:Generated_Source\PSoC5/USBUART_cdc.c ****             default:
 213:Generated_Source\PSoC5/USBUART_cdc.c ****                 /* Do not handle this request unless callback is defined. */
 214:Generated_Source\PSoC5/USBUART_cdc.c ****             #ifdef USBUART_DISPATCH_CDC_CLASS_CDC_WRITE_REQUESTS_CALLBACK
 215:Generated_Source\PSoC5/USBUART_cdc.c ****                 requestHandled = USBUART_DispatchCDCClass_CDC_WRITE_REQUESTS_Callback();
 216:Generated_Source\PSoC5/USBUART_cdc.c ****             #endif /* (USBUART_DISPATCH_CDC_CLASS_CDC_WRITE_REQUESTS_CALLBACK) */
 217:Generated_Source\PSoC5/USBUART_cdc.c ****                 break;
 140              		.loc 1 217 0
 141 0064 30E0     		b	.L6
 142              	.L8:
 194:Generated_Source\PSoC5/USBUART_cdc.c ****                 USBUART_currentTD.pData  = USBUART_linesCoding[comPort];
 143              		.loc 1 194 0
 144 0066 1C4B     		ldr	r3, .L11+4
 145 0068 0722     		movs	r2, #7
 146 006a 1A80     		strh	r2, [r3]	@ movhi
 195:Generated_Source\PSoC5/USBUART_cdc.c ****                 USBUART_linesChanged[comPort] |= USBUART_LINE_CODING_CHANGED;
 147              		.loc 1 195 0
 148 006c BA79     		ldrb	r2, [r7, #6]	@ zero_extendqisi2
 149 006e 1346     		mov	r3, r2
 150 0070 DB00     		lsls	r3, r3, #3
 151 0072 9B1A     		subs	r3, r3, r2
 152 0074 194A     		ldr	r2, .L11+8
 153 0076 1344     		add	r3, r3, r2
 154 0078 174A     		ldr	r2, .L11+4
 155 007a 5360     		str	r3, [r2, #4]
 196:Generated_Source\PSoC5/USBUART_cdc.c **** 
 156              		.loc 1 196 0
 157 007c BB79     		ldrb	r3, [r7, #6]	@ zero_extendqisi2
 158 007e BA79     		ldrb	r2, [r7, #6]	@ zero_extendqisi2
 159 0080 1749     		ldr	r1, .L11+12
 160 0082 8A5C     		ldrb	r2, [r1, r2]
 161 0084 D2B2     		uxtb	r2, r2
 162 0086 42F00102 		orr	r2, r2, #1
 163 008a D1B2     		uxtb	r1, r2
 164 008c 144A     		ldr	r2, .L11+12
 165 008e D154     		strb	r1, [r2, r3]
 198:Generated_Source\PSoC5/USBUART_cdc.c ****                 break;
 166              		.loc 1 198 0
 167 0090 FFF7FEFF 		bl	USBUART_InitControlWrite
 168 0094 0346     		mov	r3, r0
 169 0096 FB71     		strb	r3, [r7, #7]
 199:Generated_Source\PSoC5/USBUART_cdc.c **** 
 170              		.loc 1 199 0
 171 0098 16E0     		b	.L6
 172              	.L9:
 202:Generated_Source\PSoC5/USBUART_cdc.c ****                 USBUART_linesChanged[comPort]      |= USBUART_LINE_CONTROL_CHANGED;
ARM GAS  C:\Users\Greg\AppData\Local\Temp\ccDYSYHP.s 			page 8


 173              		.loc 1 202 0
 174 009a BB79     		ldrb	r3, [r7, #6]	@ zero_extendqisi2
 175 009c 0D4A     		ldr	r2, .L11
 176 009e 9278     		ldrb	r2, [r2, #2]
 177 00a0 D2B2     		uxtb	r2, r2
 178 00a2 91B2     		uxth	r1, r2
 179 00a4 0F4A     		ldr	r2, .L11+16
 180 00a6 22F81310 		strh	r1, [r2, r3, lsl #1]	@ movhi
 203:Generated_Source\PSoC5/USBUART_cdc.c **** 
 181              		.loc 1 203 0
 182 00aa BB79     		ldrb	r3, [r7, #6]	@ zero_extendqisi2
 183 00ac BA79     		ldrb	r2, [r7, #6]	@ zero_extendqisi2
 184 00ae 0C49     		ldr	r1, .L11+12
 185 00b0 8A5C     		ldrb	r2, [r1, r2]
 186 00b2 D2B2     		uxtb	r2, r2
 187 00b4 42F00202 		orr	r2, r2, #2
 188 00b8 D1B2     		uxtb	r1, r2
 189 00ba 094A     		ldr	r2, .L11+12
 190 00bc D154     		strb	r1, [r2, r3]
 205:Generated_Source\PSoC5/USBUART_cdc.c ****                 break;
 191              		.loc 1 205 0
 192 00be FFF7FEFF 		bl	USBUART_InitNoDataControlTransfer
 193 00c2 0346     		mov	r3, r0
 194 00c4 FB71     		strb	r3, [r7, #7]
 206:Generated_Source\PSoC5/USBUART_cdc.c **** 
 195              		.loc 1 206 0
 196 00c6 00BF     		nop
 197              	.L6:
 218:Generated_Source\PSoC5/USBUART_cdc.c ****         }
 219:Generated_Source\PSoC5/USBUART_cdc.c ****     }
 220:Generated_Source\PSoC5/USBUART_cdc.c **** 
 221:Generated_Source\PSoC5/USBUART_cdc.c ****     return(requestHandled);
 198              		.loc 1 221 0
 199 00c8 FB79     		ldrb	r3, [r7, #7]	@ zero_extendqisi2
 222:Generated_Source\PSoC5/USBUART_cdc.c **** }
 200              		.loc 1 222 0
 201 00ca 1846     		mov	r0, r3
 202 00cc 0837     		adds	r7, r7, #8
 203              		.cfi_def_cfa_offset 8
 204 00ce BD46     		mov	sp, r7
 205              		.cfi_def_cfa_register 13
 206              		@ sp needed
 207 00d0 80BD     		pop	{r7, pc}
 208              	.L12:
 209 00d2 00BF     		.align	2
 210              	.L11:
 211 00d4 00600040 		.word	1073766400
 212 00d8 00000000 		.word	USBUART_currentTD
 213 00dc 00000000 		.word	USBUART_linesCoding
 214 00e0 00000000 		.word	USBUART_linesChanged
 215 00e4 00000000 		.word	USBUART_linesControlBitmap
 216              		.cfi_endproc
 217              	.LFE0:
 218              		.size	USBUART_DispatchCDCClassRqst, .-USBUART_DispatchCDCClassRqst
 219              		.section	.text.USBUART_GetInterfaceComPort,"ax",%progbits
 220              		.align	2
 221              		.global	USBUART_GetInterfaceComPort
ARM GAS  C:\Users\Greg\AppData\Local\Temp\ccDYSYHP.s 			page 9


 222              		.thumb
 223              		.thumb_func
 224              		.type	USBUART_GetInterfaceComPort, %function
 225              	USBUART_GetInterfaceComPort:
 226              	.LFB1:
 223:Generated_Source\PSoC5/USBUART_cdc.c **** 
 224:Generated_Source\PSoC5/USBUART_cdc.c **** 
 225:Generated_Source\PSoC5/USBUART_cdc.c **** /***************************************************************************
 226:Generated_Source\PSoC5/USBUART_cdc.c **** * Function Name: USBUART_GetInterfaceComPort
 227:Generated_Source\PSoC5/USBUART_cdc.c **** ************************************************************************//**
 228:Generated_Source\PSoC5/USBUART_cdc.c **** *   \internal
 229:Generated_Source\PSoC5/USBUART_cdc.c **** *  Internal function which gets number of COM port by specified interface
 230:Generated_Source\PSoC5/USBUART_cdc.c **** *   number.
 231:Generated_Source\PSoC5/USBUART_cdc.c **** *
 232:Generated_Source\PSoC5/USBUART_cdc.c **** * \param uint8 interface
 233:Generated_Source\PSoC5/USBUART_cdc.c **** *  Interface number
 234:Generated_Source\PSoC5/USBUART_cdc.c **** *
 235:Generated_Source\PSoC5/USBUART_cdc.c **** * \return
 236:Generated_Source\PSoC5/USBUART_cdc.c **** *  COM port number (0 or 1) or error 0xFF
 237:Generated_Source\PSoC5/USBUART_cdc.c **** *
 238:Generated_Source\PSoC5/USBUART_cdc.c **** ***************************************************************************/
 239:Generated_Source\PSoC5/USBUART_cdc.c **** uint8 USBUART_GetInterfaceComPort(uint8 interface) 
 240:Generated_Source\PSoC5/USBUART_cdc.c **** {
 227              		.loc 1 240 0
 228              		.cfi_startproc
 229              		@ args = 0, pretend = 0, frame = 16
 230              		@ frame_needed = 1, uses_anonymous_args = 0
 231              		@ link register save eliminated.
 232 0000 80B4     		push	{r7}
 233              		.cfi_def_cfa_offset 4
 234              		.cfi_offset 7, -4
 235 0002 85B0     		sub	sp, sp, #20
 236              		.cfi_def_cfa_offset 24
 237 0004 00AF     		add	r7, sp, #0
 238              		.cfi_def_cfa_register 7
 239 0006 0346     		mov	r3, r0
 240 0008 FB71     		strb	r3, [r7, #7]
 241:Generated_Source\PSoC5/USBUART_cdc.c ****     uint8 comPort = 0u;
 241              		.loc 1 241 0
 242 000a 0023     		movs	r3, #0
 243 000c FB73     		strb	r3, [r7, #15]
 242:Generated_Source\PSoC5/USBUART_cdc.c ****     uint8 res = 0xFFu;
 244              		.loc 1 242 0
 245 000e FF23     		movs	r3, #255
 246 0010 BB73     		strb	r3, [r7, #14]
 243:Generated_Source\PSoC5/USBUART_cdc.c ****     uint8 notEp;
 244:Generated_Source\PSoC5/USBUART_cdc.c **** 
 245:Generated_Source\PSoC5/USBUART_cdc.c ****     while (comPort < USBUART_MAX_MULTI_COM_NUM)
 247              		.loc 1 245 0
 248 0012 17E0     		b	.L14
 249              	.L16:
 246:Generated_Source\PSoC5/USBUART_cdc.c ****     {
 247:Generated_Source\PSoC5/USBUART_cdc.c ****         notEp = USBUART_cdcCommInInterruptEp[comPort];
 250              		.loc 1 247 0
 251 0014 FB7B     		ldrb	r3, [r7, #15]	@ zero_extendqisi2
 252 0016 104A     		ldr	r2, .L18
 253 0018 D35C     		ldrb	r3, [r2, r3]
ARM GAS  C:\Users\Greg\AppData\Local\Temp\ccDYSYHP.s 			page 10


 254 001a 7B73     		strb	r3, [r7, #13]
 248:Generated_Source\PSoC5/USBUART_cdc.c **** 
 249:Generated_Source\PSoC5/USBUART_cdc.c ****         if (USBUART_EP[notEp].interface == interface)
 255              		.loc 1 249 0
 256 001c 7A7B     		ldrb	r2, [r7, #13]	@ zero_extendqisi2
 257 001e 0F49     		ldr	r1, .L18+4
 258 0020 1346     		mov	r3, r2
 259 0022 5B00     		lsls	r3, r3, #1
 260 0024 1344     		add	r3, r3, r2
 261 0026 9B00     		lsls	r3, r3, #2
 262 0028 0B44     		add	r3, r3, r1
 263 002a 0833     		adds	r3, r3, #8
 264 002c 9B78     		ldrb	r3, [r3, #2]
 265 002e DBB2     		uxtb	r3, r3
 266 0030 FA79     		ldrb	r2, [r7, #7]	@ zero_extendqisi2
 267 0032 9A42     		cmp	r2, r3
 268 0034 03D1     		bne	.L15
 250:Generated_Source\PSoC5/USBUART_cdc.c ****         {
 251:Generated_Source\PSoC5/USBUART_cdc.c ****             res = comPort;
 269              		.loc 1 251 0
 270 0036 FB7B     		ldrb	r3, [r7, #15]
 271 0038 BB73     		strb	r3, [r7, #14]
 252:Generated_Source\PSoC5/USBUART_cdc.c ****             comPort = USBUART_MAX_MULTI_COM_NUM;
 272              		.loc 1 252 0
 273 003a 0223     		movs	r3, #2
 274 003c FB73     		strb	r3, [r7, #15]
 275              	.L15:
 253:Generated_Source\PSoC5/USBUART_cdc.c ****         }
 254:Generated_Source\PSoC5/USBUART_cdc.c **** 
 255:Generated_Source\PSoC5/USBUART_cdc.c ****         comPort++;
 276              		.loc 1 255 0
 277 003e FB7B     		ldrb	r3, [r7, #15]	@ zero_extendqisi2
 278 0040 0133     		adds	r3, r3, #1
 279 0042 FB73     		strb	r3, [r7, #15]
 280              	.L14:
 245:Generated_Source\PSoC5/USBUART_cdc.c ****     {
 281              		.loc 1 245 0
 282 0044 FB7B     		ldrb	r3, [r7, #15]	@ zero_extendqisi2
 283 0046 012B     		cmp	r3, #1
 284 0048 E4D9     		bls	.L16
 256:Generated_Source\PSoC5/USBUART_cdc.c ****     }
 257:Generated_Source\PSoC5/USBUART_cdc.c ****     return (res);
 285              		.loc 1 257 0
 286 004a BB7B     		ldrb	r3, [r7, #14]	@ zero_extendqisi2
 258:Generated_Source\PSoC5/USBUART_cdc.c **** }
 287              		.loc 1 258 0
 288 004c 1846     		mov	r0, r3
 289 004e 1437     		adds	r7, r7, #20
 290              		.cfi_def_cfa_offset 4
 291 0050 BD46     		mov	sp, r7
 292              		.cfi_def_cfa_register 13
 293              		@ sp needed
 294 0052 5DF8047B 		ldr	r7, [sp], #4
 295              		.cfi_restore 7
 296              		.cfi_def_cfa_offset 0
 297 0056 7047     		bx	lr
 298              	.L19:
ARM GAS  C:\Users\Greg\AppData\Local\Temp\ccDYSYHP.s 			page 11


 299              		.align	2
 300              	.L18:
 301 0058 00000000 		.word	USBUART_cdcCommInInterruptEp
 302 005c 00000000 		.word	USBUART_EP
 303              		.cfi_endproc
 304              	.LFE1:
 305              		.size	USBUART_GetInterfaceComPort, .-USBUART_GetInterfaceComPort
 306              		.section	.text.USBUART_CDC_Init,"ax",%progbits
 307              		.align	2
 308              		.global	USBUART_CDC_Init
 309              		.thumb
 310              		.thumb_func
 311              		.type	USBUART_CDC_Init, %function
 312              	USBUART_CDC_Init:
 313              	.LFB2:
 259:Generated_Source\PSoC5/USBUART_cdc.c **** 
 260:Generated_Source\PSoC5/USBUART_cdc.c **** 
 261:Generated_Source\PSoC5/USBUART_cdc.c **** /***************************************
 262:Generated_Source\PSoC5/USBUART_cdc.c **** * Optional CDC APIs
 263:Generated_Source\PSoC5/USBUART_cdc.c **** ***************************************/
 264:Generated_Source\PSoC5/USBUART_cdc.c **** #if (USBUART_ENABLE_CDC_CLASS_API != 0u)
 265:Generated_Source\PSoC5/USBUART_cdc.c **** /***************************************************************************
 266:Generated_Source\PSoC5/USBUART_cdc.c **** * Function Name: USBUART_CDC_Init
 267:Generated_Source\PSoC5/USBUART_cdc.c **** ************************************************************************//**
 268:Generated_Source\PSoC5/USBUART_cdc.c **** *
 269:Generated_Source\PSoC5/USBUART_cdc.c **** *  This function initializes the CDC interface to be ready to receive data
 270:Generated_Source\PSoC5/USBUART_cdc.c **** *  from the PC. The API set active communication port to 0 in the case of 
 271:Generated_Source\PSoC5/USBUART_cdc.c **** *  multiple communication port support.This API should be called after the 
 272:Generated_Source\PSoC5/USBUART_cdc.c **** *  device has been started and configured using USBUART_Start() API to 
 273:Generated_Source\PSoC5/USBUART_cdc.c **** *  initialize and start the USBFS component operation. Then call the 
 274:Generated_Source\PSoC5/USBUART_cdc.c **** *  USBUART_GetConfiguration() API to wait until the host has enumerated and 
 275:Generated_Source\PSoC5/USBUART_cdc.c **** *  configured the device. For example:
 276:Generated_Source\PSoC5/USBUART_cdc.c **** *
 277:Generated_Source\PSoC5/USBUART_cdc.c **** *  \snippet /USBFS_sut_02.cydsn/main.c wait for enumeration
 278:Generated_Source\PSoC5/USBUART_cdc.c **** *
 279:Generated_Source\PSoC5/USBUART_cdc.c **** * \return
 280:Generated_Source\PSoC5/USBUART_cdc.c **** *  cystatus:
 281:Generated_Source\PSoC5/USBUART_cdc.c **** *   Return Value    Description
 282:Generated_Source\PSoC5/USBUART_cdc.c **** *   USBUART_SUCCESS   CDC interface was initialized correctly
 283:Generated_Source\PSoC5/USBUART_cdc.c **** *   USBUART_FAILURE   CDC interface was not initialized
 284:Generated_Source\PSoC5/USBUART_cdc.c **** *
 285:Generated_Source\PSoC5/USBUART_cdc.c **** * \globalvars
 286:Generated_Source\PSoC5/USBUART_cdc.c **** *   USBUART_linesChanged: Initialized to zero.
 287:Generated_Source\PSoC5/USBUART_cdc.c **** *   USBUART_cdcDataOutEp: Used as an OUT endpoint number.
 288:Generated_Source\PSoC5/USBUART_cdc.c **** *
 289:Generated_Source\PSoC5/USBUART_cdc.c **** * \reentrant
 290:Generated_Source\PSoC5/USBUART_cdc.c **** *  No.
 291:Generated_Source\PSoC5/USBUART_cdc.c **** *
 292:Generated_Source\PSoC5/USBUART_cdc.c **** *******************************************************************************/
 293:Generated_Source\PSoC5/USBUART_cdc.c **** uint8 USBUART_CDC_Init(void) 
 294:Generated_Source\PSoC5/USBUART_cdc.c **** {
 314              		.loc 1 294 0
 315              		.cfi_startproc
 316              		@ args = 0, pretend = 0, frame = 8
 317              		@ frame_needed = 1, uses_anonymous_args = 0
 318 0000 80B5     		push	{r7, lr}
 319              		.cfi_def_cfa_offset 8
ARM GAS  C:\Users\Greg\AppData\Local\Temp\ccDYSYHP.s 			page 12


 320              		.cfi_offset 7, -8
 321              		.cfi_offset 14, -4
 322 0002 82B0     		sub	sp, sp, #8
 323              		.cfi_def_cfa_offset 16
 324 0004 00AF     		add	r7, sp, #0
 325              		.cfi_def_cfa_register 7
 295:Generated_Source\PSoC5/USBUART_cdc.c ****     uint8 comPort;
 296:Generated_Source\PSoC5/USBUART_cdc.c ****     uint8 outEp;
 297:Generated_Source\PSoC5/USBUART_cdc.c ****     uint8 ret = USBUART_SUCCESS;
 326              		.loc 1 297 0
 327 0006 0023     		movs	r3, #0
 328 0008 BB71     		strb	r3, [r7, #6]
 298:Generated_Source\PSoC5/USBUART_cdc.c **** 
 299:Generated_Source\PSoC5/USBUART_cdc.c ****     USBUART_activeCom = 0u;
 329              		.loc 1 299 0
 330 000a 224B     		ldr	r3, .L27
 331 000c 0022     		movs	r2, #0
 332 000e 1A70     		strb	r2, [r3]
 300:Generated_Source\PSoC5/USBUART_cdc.c ****     USBUART_linesChanged[USBUART_COM_PORT1] = 0u;
 333              		.loc 1 300 0
 334 0010 214B     		ldr	r3, .L27+4
 335 0012 0022     		movs	r2, #0
 336 0014 1A70     		strb	r2, [r3]
 301:Generated_Source\PSoC5/USBUART_cdc.c ****     USBUART_linesChanged[USBUART_COM_PORT2] = 0u;
 337              		.loc 1 301 0
 338 0016 204B     		ldr	r3, .L27+4
 339 0018 0022     		movs	r2, #0
 340 001a 5A70     		strb	r2, [r3, #1]
 302:Generated_Source\PSoC5/USBUART_cdc.c **** 
 303:Generated_Source\PSoC5/USBUART_cdc.c ****     for(comPort = 0u; comPort<USBUART_MAX_MULTI_COM_NUM; comPort++)
 341              		.loc 1 303 0
 342 001c 0023     		movs	r3, #0
 343 001e FB71     		strb	r3, [r7, #7]
 344 0020 10E0     		b	.L21
 345              	.L23:
 304:Generated_Source\PSoC5/USBUART_cdc.c ****     {
 305:Generated_Source\PSoC5/USBUART_cdc.c ****         outEp = USBUART_cdcDataOutEp[comPort];
 346              		.loc 1 305 0
 347 0022 FB79     		ldrb	r3, [r7, #7]	@ zero_extendqisi2
 348 0024 1D4A     		ldr	r2, .L27+8
 349 0026 D35C     		ldrb	r3, [r2, r3]
 350 0028 7B71     		strb	r3, [r7, #5]
 306:Generated_Source\PSoC5/USBUART_cdc.c ****         if((0u != outEp) && (USBUART_MAX_EP > outEp))
 351              		.loc 1 306 0
 352 002a 7B79     		ldrb	r3, [r7, #5]	@ zero_extendqisi2
 353 002c 002B     		cmp	r3, #0
 354 002e 06D0     		beq	.L22
 355              		.loc 1 306 0 is_stmt 0 discriminator 1
 356 0030 7B79     		ldrb	r3, [r7, #5]	@ zero_extendqisi2
 357 0032 082B     		cmp	r3, #8
 358 0034 03D8     		bhi	.L22
 307:Generated_Source\PSoC5/USBUART_cdc.c ****         {
 308:Generated_Source\PSoC5/USBUART_cdc.c ****             USBUART_EnableOutEP(outEp);
 359              		.loc 1 308 0 is_stmt 1
 360 0036 7B79     		ldrb	r3, [r7, #5]	@ zero_extendqisi2
 361 0038 1846     		mov	r0, r3
 362 003a FFF7FEFF 		bl	USBUART_EnableOutEP
ARM GAS  C:\Users\Greg\AppData\Local\Temp\ccDYSYHP.s 			page 13


 363              	.L22:
 303:Generated_Source\PSoC5/USBUART_cdc.c ****     {
 364              		.loc 1 303 0 discriminator 2
 365 003e FB79     		ldrb	r3, [r7, #7]	@ zero_extendqisi2
 366 0040 0133     		adds	r3, r3, #1
 367 0042 FB71     		strb	r3, [r7, #7]
 368              	.L21:
 303:Generated_Source\PSoC5/USBUART_cdc.c ****     {
 369              		.loc 1 303 0 is_stmt 0 discriminator 1
 370 0044 FB79     		ldrb	r3, [r7, #7]	@ zero_extendqisi2
 371 0046 012B     		cmp	r3, #1
 372 0048 EBD9     		bls	.L23
 309:Generated_Source\PSoC5/USBUART_cdc.c ****         }
 310:Generated_Source\PSoC5/USBUART_cdc.c **** 
 311:Generated_Source\PSoC5/USBUART_cdc.c ****     }
 312:Generated_Source\PSoC5/USBUART_cdc.c **** 
 313:Generated_Source\PSoC5/USBUART_cdc.c ****     /* COM Port 1 should be correct to proceed. */
 314:Generated_Source\PSoC5/USBUART_cdc.c ****     if ((0u == USBUART_cdcDataInEp[USBUART_COM_PORT1]) \
 373              		.loc 1 314 0 is_stmt 1
 374 004a 154B     		ldr	r3, .L27+12
 375 004c 1B78     		ldrb	r3, [r3]
 376 004e DBB2     		uxtb	r3, r3
 377 0050 002B     		cmp	r3, #0
 378 0052 18D0     		beq	.L24
 315:Generated_Source\PSoC5/USBUART_cdc.c ****             || (0u == USBUART_cdcDataOutEp[USBUART_COM_PORT1]) \
 379              		.loc 1 315 0
 380 0054 114B     		ldr	r3, .L27+8
 381 0056 1B78     		ldrb	r3, [r3]
 382 0058 DBB2     		uxtb	r3, r3
 383 005a 002B     		cmp	r3, #0
 384 005c 13D0     		beq	.L24
 316:Generated_Source\PSoC5/USBUART_cdc.c ****             || (0u ==  USBUART_cdcCommInInterruptEp[USBUART_COM_PORT1])
 385              		.loc 1 316 0
 386 005e 114B     		ldr	r3, .L27+16
 387 0060 1B78     		ldrb	r3, [r3]
 388 0062 DBB2     		uxtb	r3, r3
 389 0064 002B     		cmp	r3, #0
 390 0066 0ED0     		beq	.L24
 317:Generated_Source\PSoC5/USBUART_cdc.c ****             || (USBUART_cdcDataInEp[USBUART_COM_PORT1] >= USBUART_MAX_EP)
 391              		.loc 1 317 0
 392 0068 0D4B     		ldr	r3, .L27+12
 393 006a 1B78     		ldrb	r3, [r3]
 394 006c DBB2     		uxtb	r3, r3
 395 006e 082B     		cmp	r3, #8
 396 0070 09D8     		bhi	.L24
 318:Generated_Source\PSoC5/USBUART_cdc.c ****             || (USBUART_cdcDataOutEp[USBUART_COM_PORT1] >= USBUART_MAX_EP)
 397              		.loc 1 318 0
 398 0072 0A4B     		ldr	r3, .L27+8
 399 0074 1B78     		ldrb	r3, [r3]
 400 0076 DBB2     		uxtb	r3, r3
 401 0078 082B     		cmp	r3, #8
 402 007a 04D8     		bhi	.L24
 319:Generated_Source\PSoC5/USBUART_cdc.c ****             || (USBUART_cdcCommInInterruptEp[USBUART_COM_PORT1] >= USBUART_MAX_EP))
 403              		.loc 1 319 0
 404 007c 094B     		ldr	r3, .L27+16
 405 007e 1B78     		ldrb	r3, [r3]
 406 0080 DBB2     		uxtb	r3, r3
ARM GAS  C:\Users\Greg\AppData\Local\Temp\ccDYSYHP.s 			page 14


 407 0082 082B     		cmp	r3, #8
 408 0084 01D9     		bls	.L25
 409              	.L24:
 320:Generated_Source\PSoC5/USBUART_cdc.c ****     {
 321:Generated_Source\PSoC5/USBUART_cdc.c ****         ret = USBUART_FAILURE;
 410              		.loc 1 321 0
 411 0086 0123     		movs	r3, #1
 412 0088 BB71     		strb	r3, [r7, #6]
 413              	.L25:
 322:Generated_Source\PSoC5/USBUART_cdc.c ****     }
 323:Generated_Source\PSoC5/USBUART_cdc.c **** 
 324:Generated_Source\PSoC5/USBUART_cdc.c ****     return (ret);
 414              		.loc 1 324 0
 415 008a BB79     		ldrb	r3, [r7, #6]	@ zero_extendqisi2
 325:Generated_Source\PSoC5/USBUART_cdc.c **** }
 416              		.loc 1 325 0
 417 008c 1846     		mov	r0, r3
 418 008e 0837     		adds	r7, r7, #8
 419              		.cfi_def_cfa_offset 8
 420 0090 BD46     		mov	sp, r7
 421              		.cfi_def_cfa_register 13
 422              		@ sp needed
 423 0092 80BD     		pop	{r7, pc}
 424              	.L28:
 425              		.align	2
 426              	.L27:
 427 0094 00000000 		.word	USBUART_activeCom
 428 0098 00000000 		.word	USBUART_linesChanged
 429 009c 00000000 		.word	USBUART_cdcDataOutEp
 430 00a0 00000000 		.word	USBUART_cdcDataInEp
 431 00a4 00000000 		.word	USBUART_cdcCommInInterruptEp
 432              		.cfi_endproc
 433              	.LFE2:
 434              		.size	USBUART_CDC_Init, .-USBUART_CDC_Init
 435              		.section	.text.USBUART_PutData,"ax",%progbits
 436              		.align	2
 437              		.global	USBUART_PutData
 438              		.thumb
 439              		.thumb_func
 440              		.type	USBUART_PutData, %function
 441              	USBUART_PutData:
 442              	.LFB3:
 326:Generated_Source\PSoC5/USBUART_cdc.c **** 
 327:Generated_Source\PSoC5/USBUART_cdc.c **** 
 328:Generated_Source\PSoC5/USBUART_cdc.c **** /*******************************************************************************
 329:Generated_Source\PSoC5/USBUART_cdc.c **** * Function Name: USBUART_PutData
 330:Generated_Source\PSoC5/USBUART_cdc.c **** ****************************************************************************//**
 331:Generated_Source\PSoC5/USBUART_cdc.c **** *
 332:Generated_Source\PSoC5/USBUART_cdc.c **** *  This function sends a specified number of bytes from the location specified
 333:Generated_Source\PSoC5/USBUART_cdc.c **** *  by a pointer to the PC. The USBUART_CDCIsReady() function should be
 334:Generated_Source\PSoC5/USBUART_cdc.c **** *  called before sending new data, to be sure that the previous data has
 335:Generated_Source\PSoC5/USBUART_cdc.c **** *  finished sending.
 336:Generated_Source\PSoC5/USBUART_cdc.c **** *  If the last sent packet is less than maximum packet size the USB transfer
 337:Generated_Source\PSoC5/USBUART_cdc.c **** *  of this short packet will identify the end of the segment. If the last sent
 338:Generated_Source\PSoC5/USBUART_cdc.c **** *  packet is exactly maximum packet size, it shall be followed by a zero-length
 339:Generated_Source\PSoC5/USBUART_cdc.c **** *  packet (which is a short packet) to assure the end of segment is properly
 340:Generated_Source\PSoC5/USBUART_cdc.c **** *  identified. To send zero-length packet, use USBUART_PutData() API
ARM GAS  C:\Users\Greg\AppData\Local\Temp\ccDYSYHP.s 			page 15


 341:Generated_Source\PSoC5/USBUART_cdc.c **** *  with length parameter set to zero.
 342:Generated_Source\PSoC5/USBUART_cdc.c **** *
 343:Generated_Source\PSoC5/USBUART_cdc.c **** *  \param pData: pointer to the buffer containing data to be sent.
 344:Generated_Source\PSoC5/USBUART_cdc.c **** *  \param length: Specifies the number of bytes to send from the pData
 345:Generated_Source\PSoC5/USBUART_cdc.c **** *  buffer. Maximum length will be limited by the maximum packet
 346:Generated_Source\PSoC5/USBUART_cdc.c **** *  size for the endpoint. Data will be lost if length is greater than Max
 347:Generated_Source\PSoC5/USBUART_cdc.c **** *  Packet Size.
 348:Generated_Source\PSoC5/USBUART_cdc.c **** *
 349:Generated_Source\PSoC5/USBUART_cdc.c **** * \globalvars
 350:Generated_Source\PSoC5/USBUART_cdc.c **** *
 351:Generated_Source\PSoC5/USBUART_cdc.c **** *   USBUART_cdcDataInEp: CDC IN endpoint number used for sending
 352:Generated_Source\PSoC5/USBUART_cdc.c **** *     data.
 353:Generated_Source\PSoC5/USBUART_cdc.c **** *
 354:Generated_Source\PSoC5/USBUART_cdc.c **** * \reentrant
 355:Generated_Source\PSoC5/USBUART_cdc.c **** *  No.
 356:Generated_Source\PSoC5/USBUART_cdc.c **** *
 357:Generated_Source\PSoC5/USBUART_cdc.c **** *******************************************************************************/
 358:Generated_Source\PSoC5/USBUART_cdc.c **** void USBUART_PutData(const uint8* pData, uint16 length) 
 359:Generated_Source\PSoC5/USBUART_cdc.c **** {
 443              		.loc 1 359 0
 444              		.cfi_startproc
 445              		@ args = 0, pretend = 0, frame = 16
 446              		@ frame_needed = 1, uses_anonymous_args = 0
 447 0000 80B5     		push	{r7, lr}
 448              		.cfi_def_cfa_offset 8
 449              		.cfi_offset 7, -8
 450              		.cfi_offset 14, -4
 451 0002 84B0     		sub	sp, sp, #16
 452              		.cfi_def_cfa_offset 24
 453 0004 00AF     		add	r7, sp, #0
 454              		.cfi_def_cfa_register 7
 455 0006 7860     		str	r0, [r7, #4]
 456 0008 0B46     		mov	r3, r1
 457 000a 7B80     		strh	r3, [r7, #2]	@ movhi
 360:Generated_Source\PSoC5/USBUART_cdc.c ****     uint8 epNumber = USBUART_cdcDataInEp[USBUART_activeCom];
 458              		.loc 1 360 0
 459 000c 144B     		ldr	r3, .L31
 460 000e 1B78     		ldrb	r3, [r3]	@ zero_extendqisi2
 461 0010 1A46     		mov	r2, r3
 462 0012 144B     		ldr	r3, .L31+4
 463 0014 9B5C     		ldrb	r3, [r3, r2]
 464 0016 FB73     		strb	r3, [r7, #15]
 361:Generated_Source\PSoC5/USBUART_cdc.c **** 
 362:Generated_Source\PSoC5/USBUART_cdc.c ****     /* Limit length to maximum packet size for endpoint. */
 363:Generated_Source\PSoC5/USBUART_cdc.c ****     if (length > USBUART_EP[epNumber].bufferSize)
 465              		.loc 1 363 0
 466 0018 FA7B     		ldrb	r2, [r7, #15]	@ zero_extendqisi2
 467 001a 1349     		ldr	r1, .L31+8
 468 001c 1346     		mov	r3, r2
 469 001e 5B00     		lsls	r3, r3, #1
 470 0020 1344     		add	r3, r3, r2
 471 0022 9B00     		lsls	r3, r3, #2
 472 0024 0B44     		add	r3, r3, r1
 473 0026 0833     		adds	r3, r3, #8
 474 0028 1B88     		ldrh	r3, [r3]	@ movhi
 475 002a 9BB2     		uxth	r3, r3
 476 002c 7A88     		ldrh	r2, [r7, #2]
ARM GAS  C:\Users\Greg\AppData\Local\Temp\ccDYSYHP.s 			page 16


 477 002e 9A42     		cmp	r2, r3
 478 0030 0CD9     		bls	.L30
 364:Generated_Source\PSoC5/USBUART_cdc.c ****     {
 365:Generated_Source\PSoC5/USBUART_cdc.c ****         /* Caution: Data will be lost if length is greater than Max Packet Size. */
 366:Generated_Source\PSoC5/USBUART_cdc.c ****         length = USBUART_EP[epNumber].bufferSize;
 479              		.loc 1 366 0
 480 0032 FA7B     		ldrb	r2, [r7, #15]	@ zero_extendqisi2
 481 0034 0C49     		ldr	r1, .L31+8
 482 0036 1346     		mov	r3, r2
 483 0038 5B00     		lsls	r3, r3, #1
 484 003a 1344     		add	r3, r3, r2
 485 003c 9B00     		lsls	r3, r3, #2
 486 003e 0B44     		add	r3, r3, r1
 487 0040 0833     		adds	r3, r3, #8
 488 0042 1B88     		ldrh	r3, [r3]	@ movhi
 489 0044 7B80     		strh	r3, [r7, #2]	@ movhi
 367:Generated_Source\PSoC5/USBUART_cdc.c **** 
 368:Generated_Source\PSoC5/USBUART_cdc.c ****         /* Halt CPU in debug mode */
 369:Generated_Source\PSoC5/USBUART_cdc.c ****         CYASSERT(0u != 0u);
 490              		.loc 1 369 0
 491 0046 0020     		movs	r0, #0
 492 0048 FFF7FEFF 		bl	CyHalt
 493              	.L30:
 370:Generated_Source\PSoC5/USBUART_cdc.c ****     }
 371:Generated_Source\PSoC5/USBUART_cdc.c **** 
 372:Generated_Source\PSoC5/USBUART_cdc.c ****     USBUART_LoadInEP(epNumber, pData, length);
 494              		.loc 1 372 0
 495 004c FA7B     		ldrb	r2, [r7, #15]	@ zero_extendqisi2
 496 004e 7B88     		ldrh	r3, [r7, #2]
 497 0050 1046     		mov	r0, r2
 498 0052 7968     		ldr	r1, [r7, #4]
 499 0054 1A46     		mov	r2, r3
 500 0056 FFF7FEFF 		bl	USBUART_LoadInEP
 373:Generated_Source\PSoC5/USBUART_cdc.c **** }
 501              		.loc 1 373 0
 502 005a 1037     		adds	r7, r7, #16
 503              		.cfi_def_cfa_offset 8
 504 005c BD46     		mov	sp, r7
 505              		.cfi_def_cfa_register 13
 506              		@ sp needed
 507 005e 80BD     		pop	{r7, pc}
 508              	.L32:
 509              		.align	2
 510              	.L31:
 511 0060 00000000 		.word	USBUART_activeCom
 512 0064 00000000 		.word	USBUART_cdcDataInEp
 513 0068 00000000 		.word	USBUART_EP
 514              		.cfi_endproc
 515              	.LFE3:
 516              		.size	USBUART_PutData, .-USBUART_PutData
 517              		.section	.text.USBUART_StrLen,"ax",%progbits
 518              		.align	2
 519              		.thumb
 520              		.thumb_func
 521              		.type	USBUART_StrLen, %function
 522              	USBUART_StrLen:
 523              	.LFB4:
ARM GAS  C:\Users\Greg\AppData\Local\Temp\ccDYSYHP.s 			page 17


 374:Generated_Source\PSoC5/USBUART_cdc.c **** 
 375:Generated_Source\PSoC5/USBUART_cdc.c **** 
 376:Generated_Source\PSoC5/USBUART_cdc.c **** /*******************************************************************************
 377:Generated_Source\PSoC5/USBUART_cdc.c **** * Function Name: USBUART_StrLen
 378:Generated_Source\PSoC5/USBUART_cdc.c **** ****************************************************************************//**
 379:Generated_Source\PSoC5/USBUART_cdc.c **** *
 380:Generated_Source\PSoC5/USBUART_cdc.c **** *  Calculates length of a null terminated string.
 381:Generated_Source\PSoC5/USBUART_cdc.c **** *
 382:Generated_Source\PSoC5/USBUART_cdc.c **** *  \param string: pointer to the string.
 383:Generated_Source\PSoC5/USBUART_cdc.c **** *
 384:Generated_Source\PSoC5/USBUART_cdc.c **** * \return
 385:Generated_Source\PSoC5/USBUART_cdc.c **** *  Length of the string
 386:Generated_Source\PSoC5/USBUART_cdc.c **** *
 387:Generated_Source\PSoC5/USBUART_cdc.c **** *******************************************************************************/
 388:Generated_Source\PSoC5/USBUART_cdc.c **** static uint16 USBUART_StrLen(const char8 string[]) 
 389:Generated_Source\PSoC5/USBUART_cdc.c **** {
 524              		.loc 1 389 0
 525              		.cfi_startproc
 526              		@ args = 0, pretend = 0, frame = 16
 527              		@ frame_needed = 1, uses_anonymous_args = 0
 528              		@ link register save eliminated.
 529 0000 80B4     		push	{r7}
 530              		.cfi_def_cfa_offset 4
 531              		.cfi_offset 7, -4
 532 0002 85B0     		sub	sp, sp, #20
 533              		.cfi_def_cfa_offset 24
 534 0004 00AF     		add	r7, sp, #0
 535              		.cfi_def_cfa_register 7
 536 0006 7860     		str	r0, [r7, #4]
 390:Generated_Source\PSoC5/USBUART_cdc.c ****     uint16 len = 0u;
 537              		.loc 1 390 0
 538 0008 0023     		movs	r3, #0
 539 000a FB81     		strh	r3, [r7, #14]	@ movhi
 391:Generated_Source\PSoC5/USBUART_cdc.c **** 
 392:Generated_Source\PSoC5/USBUART_cdc.c ****     while (string[len] != (char8)0)
 540              		.loc 1 392 0
 541 000c 02E0     		b	.L34
 542              	.L35:
 393:Generated_Source\PSoC5/USBUART_cdc.c ****     {
 394:Generated_Source\PSoC5/USBUART_cdc.c ****         len++;
 543              		.loc 1 394 0
 544 000e FB89     		ldrh	r3, [r7, #14]
 545 0010 0133     		adds	r3, r3, #1
 546 0012 FB81     		strh	r3, [r7, #14]	@ movhi
 547              	.L34:
 392:Generated_Source\PSoC5/USBUART_cdc.c ****     {
 548              		.loc 1 392 0
 549 0014 FB89     		ldrh	r3, [r7, #14]
 550 0016 7A68     		ldr	r2, [r7, #4]
 551 0018 1344     		add	r3, r3, r2
 552 001a 1B78     		ldrb	r3, [r3]	@ zero_extendqisi2
 553 001c 002B     		cmp	r3, #0
 554 001e F6D1     		bne	.L35
 395:Generated_Source\PSoC5/USBUART_cdc.c ****     }
 396:Generated_Source\PSoC5/USBUART_cdc.c **** 
 397:Generated_Source\PSoC5/USBUART_cdc.c ****     return ((uint16) len);
 555              		.loc 1 397 0
ARM GAS  C:\Users\Greg\AppData\Local\Temp\ccDYSYHP.s 			page 18


 556 0020 FB89     		ldrh	r3, [r7, #14]
 398:Generated_Source\PSoC5/USBUART_cdc.c **** }
 557              		.loc 1 398 0
 558 0022 1846     		mov	r0, r3
 559 0024 1437     		adds	r7, r7, #20
 560              		.cfi_def_cfa_offset 4
 561 0026 BD46     		mov	sp, r7
 562              		.cfi_def_cfa_register 13
 563              		@ sp needed
 564 0028 5DF8047B 		ldr	r7, [sp], #4
 565              		.cfi_restore 7
 566              		.cfi_def_cfa_offset 0
 567 002c 7047     		bx	lr
 568              		.cfi_endproc
 569              	.LFE4:
 570              		.size	USBUART_StrLen, .-USBUART_StrLen
 571 002e 00BF     		.section	.text.USBUART_PutString,"ax",%progbits
 572              		.align	2
 573              		.global	USBUART_PutString
 574              		.thumb
 575              		.thumb_func
 576              		.type	USBUART_PutString, %function
 577              	USBUART_PutString:
 578              	.LFB5:
 399:Generated_Source\PSoC5/USBUART_cdc.c **** 
 400:Generated_Source\PSoC5/USBUART_cdc.c **** 
 401:Generated_Source\PSoC5/USBUART_cdc.c **** /***************************************************************************
 402:Generated_Source\PSoC5/USBUART_cdc.c **** * Function Name: USBUART_PutString
 403:Generated_Source\PSoC5/USBUART_cdc.c **** ************************************************************************//**
 404:Generated_Source\PSoC5/USBUART_cdc.c **** *
 405:Generated_Source\PSoC5/USBUART_cdc.c **** *  This function sends a null terminated string to the PC. This function will
 406:Generated_Source\PSoC5/USBUART_cdc.c **** *  block if there is not enough memory to place the whole string. It will block
 407:Generated_Source\PSoC5/USBUART_cdc.c **** *  until the entire string has been written to the transmit buffer.
 408:Generated_Source\PSoC5/USBUART_cdc.c **** *  The USBUART_CDCIsReady() function should be called before
 409:Generated_Source\PSoC5/USBUART_cdc.c **** *  sending data with a new call to USBUART_PutString(), to be sure
 410:Generated_Source\PSoC5/USBUART_cdc.c **** *  that the previous data has finished sending. This function sends
 411:Generated_Source\PSoC5/USBUART_cdc.c **** *  zero-length packet automatically, if the length of the last packet, sent
 412:Generated_Source\PSoC5/USBUART_cdc.c **** *  by this API, is equal to Max Packet Size
 413:Generated_Source\PSoC5/USBUART_cdc.c **** *
 414:Generated_Source\PSoC5/USBUART_cdc.c **** *  \param string: pointer to the string to be sent to the PC.
 415:Generated_Source\PSoC5/USBUART_cdc.c **** *
 416:Generated_Source\PSoC5/USBUART_cdc.c **** * \globalvars
 417:Generated_Source\PSoC5/USBUART_cdc.c **** *
 418:Generated_Source\PSoC5/USBUART_cdc.c **** *   USBUART_cdcDataInEp: CDC IN endpoint number used for sending
 419:Generated_Source\PSoC5/USBUART_cdc.c **** *     data.
 420:Generated_Source\PSoC5/USBUART_cdc.c **** *
 421:Generated_Source\PSoC5/USBUART_cdc.c **** * \reentrant
 422:Generated_Source\PSoC5/USBUART_cdc.c **** *  No.
 423:Generated_Source\PSoC5/USBUART_cdc.c **** *
 424:Generated_Source\PSoC5/USBUART_cdc.c **** ***************************************************************************/
 425:Generated_Source\PSoC5/USBUART_cdc.c **** void USBUART_PutString(const char8 string[]) 
 426:Generated_Source\PSoC5/USBUART_cdc.c **** {
 579              		.loc 1 426 0
 580              		.cfi_startproc
 581              		@ args = 0, pretend = 0, frame = 16
 582              		@ frame_needed = 1, uses_anonymous_args = 0
 583 0000 80B5     		push	{r7, lr}
ARM GAS  C:\Users\Greg\AppData\Local\Temp\ccDYSYHP.s 			page 19


 584              		.cfi_def_cfa_offset 8
 585              		.cfi_offset 7, -8
 586              		.cfi_offset 14, -4
 587 0002 84B0     		sub	sp, sp, #16
 588              		.cfi_def_cfa_offset 24
 589 0004 00AF     		add	r7, sp, #0
 590              		.cfi_def_cfa_register 7
 591 0006 7860     		str	r0, [r7, #4]
 427:Generated_Source\PSoC5/USBUART_cdc.c ****     uint16 strLength;
 428:Generated_Source\PSoC5/USBUART_cdc.c ****     uint16 sendLength;
 429:Generated_Source\PSoC5/USBUART_cdc.c ****     uint16 bufIndex = 0u;
 592              		.loc 1 429 0
 593 0008 0023     		movs	r3, #0
 594 000a BB81     		strh	r3, [r7, #12]	@ movhi
 430:Generated_Source\PSoC5/USBUART_cdc.c **** 
 431:Generated_Source\PSoC5/USBUART_cdc.c ****     uint8  epNumber = USBUART_cdcDataInEp[USBUART_activeCom];
 595              		.loc 1 431 0
 596 000c 304B     		ldr	r3, .L44
 597 000e 1B78     		ldrb	r3, [r3]	@ zero_extendqisi2
 598 0010 1A46     		mov	r2, r3
 599 0012 304B     		ldr	r3, .L44+4
 600 0014 9B5C     		ldrb	r3, [r3, r2]
 601 0016 FB72     		strb	r3, [r7, #11]
 432:Generated_Source\PSoC5/USBUART_cdc.c **** 
 433:Generated_Source\PSoC5/USBUART_cdc.c ****     /* Get length string length (it is terminated with zero). */
 434:Generated_Source\PSoC5/USBUART_cdc.c ****     strLength = USBUART_StrLen(string);
 602              		.loc 1 434 0
 603 0018 7868     		ldr	r0, [r7, #4]
 604 001a FFF7FEFF 		bl	USBUART_StrLen
 605 001e 0346     		mov	r3, r0
 606 0020 FB81     		strh	r3, [r7, #14]	@ movhi
 607              	.L43:
 435:Generated_Source\PSoC5/USBUART_cdc.c **** 
 436:Generated_Source\PSoC5/USBUART_cdc.c ****     do
 437:Generated_Source\PSoC5/USBUART_cdc.c ****     {
 438:Generated_Source\PSoC5/USBUART_cdc.c ****         /* Limit length to maximum packet size of endpoint. */
 439:Generated_Source\PSoC5/USBUART_cdc.c ****         sendLength = (strLength > USBUART_EP[epNumber].bufferSize) ?
 608              		.loc 1 439 0
 609 0022 FA7A     		ldrb	r2, [r7, #11]	@ zero_extendqisi2
 610 0024 2C49     		ldr	r1, .L44+8
 611 0026 1346     		mov	r3, r2
 612 0028 5B00     		lsls	r3, r3, #1
 613 002a 1344     		add	r3, r3, r2
 614 002c 9B00     		lsls	r3, r3, #2
 615 002e 0B44     		add	r3, r3, r1
 616 0030 0833     		adds	r3, r3, #8
 617 0032 1B88     		ldrh	r3, [r3]	@ movhi
 618 0034 9BB2     		uxth	r3, r3
 619 0036 FA89     		ldrh	r2, [r7, #14]
 620 0038 9A42     		cmp	r2, r3
 621 003a 0AD9     		bls	.L38
 440:Generated_Source\PSoC5/USBUART_cdc.c ****                                   USBUART_EP[epNumber].bufferSize : strLength;
 622              		.loc 1 440 0 discriminator 1
 623 003c FA7A     		ldrb	r2, [r7, #11]	@ zero_extendqisi2
 439:Generated_Source\PSoC5/USBUART_cdc.c ****                                   USBUART_EP[epNumber].bufferSize : strLength;
 624              		.loc 1 439 0 discriminator 1
 625 003e 2649     		ldr	r1, .L44+8
ARM GAS  C:\Users\Greg\AppData\Local\Temp\ccDYSYHP.s 			page 20


 626 0040 1346     		mov	r3, r2
 627 0042 5B00     		lsls	r3, r3, #1
 628 0044 1344     		add	r3, r3, r2
 629 0046 9B00     		lsls	r3, r3, #2
 630 0048 0B44     		add	r3, r3, r1
 631 004a 0833     		adds	r3, r3, #8
 632 004c 1B88     		ldrh	r3, [r3]	@ movhi
 633 004e 9BB2     		uxth	r3, r3
 634 0050 00E0     		b	.L39
 635              	.L38:
 439:Generated_Source\PSoC5/USBUART_cdc.c ****                                   USBUART_EP[epNumber].bufferSize : strLength;
 636              		.loc 1 439 0 is_stmt 0 discriminator 2
 637 0052 FB89     		ldrh	r3, [r7, #14]
 638              	.L39:
 439:Generated_Source\PSoC5/USBUART_cdc.c ****                                   USBUART_EP[epNumber].bufferSize : strLength;
 639              		.loc 1 439 0 discriminator 4
 640 0054 3B81     		strh	r3, [r7, #8]	@ movhi
 441:Generated_Source\PSoC5/USBUART_cdc.c **** 
 442:Generated_Source\PSoC5/USBUART_cdc.c ****         /* Load IN endpoint and expose it to host. */
 443:Generated_Source\PSoC5/USBUART_cdc.c ****         USBUART_LoadInEP(epNumber, (const uint8 *)&string[bufIndex], sendLength);
 641              		.loc 1 443 0 is_stmt 1 discriminator 4
 642 0056 BB89     		ldrh	r3, [r7, #12]
 643 0058 7A68     		ldr	r2, [r7, #4]
 644 005a 1A44     		add	r2, r2, r3
 645 005c F97A     		ldrb	r1, [r7, #11]	@ zero_extendqisi2
 646 005e 3B89     		ldrh	r3, [r7, #8]
 647 0060 0846     		mov	r0, r1
 648 0062 1146     		mov	r1, r2
 649 0064 1A46     		mov	r2, r3
 650 0066 FFF7FEFF 		bl	USBUART_LoadInEP
 444:Generated_Source\PSoC5/USBUART_cdc.c ****         strLength -= sendLength;
 651              		.loc 1 444 0 discriminator 4
 652 006a FA89     		ldrh	r2, [r7, #14]	@ movhi
 653 006c 3B89     		ldrh	r3, [r7, #8]	@ movhi
 654 006e D31A     		subs	r3, r2, r3
 655 0070 FB81     		strh	r3, [r7, #14]	@ movhi
 445:Generated_Source\PSoC5/USBUART_cdc.c **** 
 446:Generated_Source\PSoC5/USBUART_cdc.c ****         /* If more data are present to send or full packet was sent */
 447:Generated_Source\PSoC5/USBUART_cdc.c ****         if ((strLength > 0u) || (sendLength == USBUART_EP[epNumber].bufferSize))
 656              		.loc 1 447 0 discriminator 4
 657 0072 FB89     		ldrh	r3, [r7, #14]
 658 0074 002B     		cmp	r3, #0
 659 0076 0CD1     		bne	.L40
 660              		.loc 1 447 0 is_stmt 0 discriminator 1
 661 0078 FA7A     		ldrb	r2, [r7, #11]	@ zero_extendqisi2
 662 007a 1749     		ldr	r1, .L44+8
 663 007c 1346     		mov	r3, r2
 664 007e 5B00     		lsls	r3, r3, #1
 665 0080 1344     		add	r3, r3, r2
 666 0082 9B00     		lsls	r3, r3, #2
 667 0084 0B44     		add	r3, r3, r1
 668 0086 0833     		adds	r3, r3, #8
 669 0088 1B88     		ldrh	r3, [r3]	@ movhi
 670 008a 9BB2     		uxth	r3, r3
 671 008c 3A89     		ldrh	r2, [r7, #8]
 672 008e 9A42     		cmp	r2, r3
 673 0090 18D1     		bne	.L41
ARM GAS  C:\Users\Greg\AppData\Local\Temp\ccDYSYHP.s 			page 21


 674              	.L40:
 448:Generated_Source\PSoC5/USBUART_cdc.c ****         {
 449:Generated_Source\PSoC5/USBUART_cdc.c ****             bufIndex += sendLength;
 675              		.loc 1 449 0 is_stmt 1
 676 0092 BA89     		ldrh	r2, [r7, #12]	@ movhi
 677 0094 3B89     		ldrh	r3, [r7, #8]	@ movhi
 678 0096 1344     		add	r3, r3, r2
 679 0098 BB81     		strh	r3, [r7, #12]	@ movhi
 450:Generated_Source\PSoC5/USBUART_cdc.c **** 
 451:Generated_Source\PSoC5/USBUART_cdc.c ****             /* Wait until host read data from IN endpoint buffer. */
 452:Generated_Source\PSoC5/USBUART_cdc.c ****             while (USBUART_IN_BUFFER_FULL == USBUART_EP[epNumber].apiEpState)
 680              		.loc 1 452 0
 681 009a 00BF     		nop
 682              	.L42:
 683              		.loc 1 452 0 is_stmt 0 discriminator 1
 684 009c FA7A     		ldrb	r2, [r7, #11]	@ zero_extendqisi2
 685 009e 0E49     		ldr	r1, .L44+8
 686 00a0 1346     		mov	r3, r2
 687 00a2 5B00     		lsls	r3, r3, #1
 688 00a4 1344     		add	r3, r3, r2
 689 00a6 9B00     		lsls	r3, r3, #2
 690 00a8 0B44     		add	r3, r3, r1
 691 00aa 5B78     		ldrb	r3, [r3, #1]
 692 00ac DBB2     		uxtb	r3, r3
 693 00ae 002B     		cmp	r3, #0
 694 00b0 F4D0     		beq	.L42
 453:Generated_Source\PSoC5/USBUART_cdc.c ****             {
 454:Generated_Source\PSoC5/USBUART_cdc.c ****             }
 455:Generated_Source\PSoC5/USBUART_cdc.c **** 
 456:Generated_Source\PSoC5/USBUART_cdc.c ****             /* If last packet is exactly maximum packet size, it shall be followed
 457:Generated_Source\PSoC5/USBUART_cdc.c ****             * by a zero-length packet to assure the end of segment is properly
 458:Generated_Source\PSoC5/USBUART_cdc.c ****             * identified by the terminal.
 459:Generated_Source\PSoC5/USBUART_cdc.c ****             */
 460:Generated_Source\PSoC5/USBUART_cdc.c ****             if (0u == strLength)
 695              		.loc 1 460 0 is_stmt 1
 696 00b2 FB89     		ldrh	r3, [r7, #14]
 697 00b4 002B     		cmp	r3, #0
 698 00b6 05D1     		bne	.L41
 461:Generated_Source\PSoC5/USBUART_cdc.c ****             {
 462:Generated_Source\PSoC5/USBUART_cdc.c ****                 USBUART_LoadInEP(epNumber, NULL, 0u);
 699              		.loc 1 462 0
 700 00b8 FB7A     		ldrb	r3, [r7, #11]	@ zero_extendqisi2
 701 00ba 1846     		mov	r0, r3
 702 00bc 0021     		movs	r1, #0
 703 00be 0022     		movs	r2, #0
 704 00c0 FFF7FEFF 		bl	USBUART_LoadInEP
 705              	.L41:
 463:Generated_Source\PSoC5/USBUART_cdc.c ****             }
 464:Generated_Source\PSoC5/USBUART_cdc.c ****         }
 465:Generated_Source\PSoC5/USBUART_cdc.c ****     }
 466:Generated_Source\PSoC5/USBUART_cdc.c ****     while (strLength > 0u);
 706              		.loc 1 466 0
 707 00c4 FB89     		ldrh	r3, [r7, #14]
 708 00c6 002B     		cmp	r3, #0
 709 00c8 ABD1     		bne	.L43
 467:Generated_Source\PSoC5/USBUART_cdc.c **** }
 710              		.loc 1 467 0
ARM GAS  C:\Users\Greg\AppData\Local\Temp\ccDYSYHP.s 			page 22


 711 00ca 1037     		adds	r7, r7, #16
 712              		.cfi_def_cfa_offset 8
 713 00cc BD46     		mov	sp, r7
 714              		.cfi_def_cfa_register 13
 715              		@ sp needed
 716 00ce 80BD     		pop	{r7, pc}
 717              	.L45:
 718              		.align	2
 719              	.L44:
 720 00d0 00000000 		.word	USBUART_activeCom
 721 00d4 00000000 		.word	USBUART_cdcDataInEp
 722 00d8 00000000 		.word	USBUART_EP
 723              		.cfi_endproc
 724              	.LFE5:
 725              		.size	USBUART_PutString, .-USBUART_PutString
 726              		.section	.text.USBUART_PutChar,"ax",%progbits
 727              		.align	2
 728              		.global	USBUART_PutChar
 729              		.thumb
 730              		.thumb_func
 731              		.type	USBUART_PutChar, %function
 732              	USBUART_PutChar:
 733              	.LFB6:
 468:Generated_Source\PSoC5/USBUART_cdc.c **** 
 469:Generated_Source\PSoC5/USBUART_cdc.c **** 
 470:Generated_Source\PSoC5/USBUART_cdc.c **** /***************************************************************************
 471:Generated_Source\PSoC5/USBUART_cdc.c **** * Function Name: USBUART_PutChar
 472:Generated_Source\PSoC5/USBUART_cdc.c **** ************************************************************************//**
 473:Generated_Source\PSoC5/USBUART_cdc.c **** *
 474:Generated_Source\PSoC5/USBUART_cdc.c **** *  This function writes a single character to the PC at a time. This is an
 475:Generated_Source\PSoC5/USBUART_cdc.c **** *  inefficient way to send large amounts of data.
 476:Generated_Source\PSoC5/USBUART_cdc.c **** *
 477:Generated_Source\PSoC5/USBUART_cdc.c **** *  \param txDataByte: Character to be sent to the PC.
 478:Generated_Source\PSoC5/USBUART_cdc.c **** *
 479:Generated_Source\PSoC5/USBUART_cdc.c **** *  \globalvars
 480:Generated_Source\PSoC5/USBUART_cdc.c **** *
 481:Generated_Source\PSoC5/USBUART_cdc.c **** *   USBUART_cdcDataInEp: CDC IN endpoint number used for sending
 482:Generated_Source\PSoC5/USBUART_cdc.c **** *     data.
 483:Generated_Source\PSoC5/USBUART_cdc.c **** *
 484:Generated_Source\PSoC5/USBUART_cdc.c **** *  \reentrant
 485:Generated_Source\PSoC5/USBUART_cdc.c **** *  No.
 486:Generated_Source\PSoC5/USBUART_cdc.c **** *
 487:Generated_Source\PSoC5/USBUART_cdc.c **** ***************************************************************************/
 488:Generated_Source\PSoC5/USBUART_cdc.c **** void USBUART_PutChar(char8 txDataByte) 
 489:Generated_Source\PSoC5/USBUART_cdc.c **** {
 734              		.loc 1 489 0
 735              		.cfi_startproc
 736              		@ args = 0, pretend = 0, frame = 16
 737              		@ frame_needed = 1, uses_anonymous_args = 0
 738 0000 80B5     		push	{r7, lr}
 739              		.cfi_def_cfa_offset 8
 740              		.cfi_offset 7, -8
 741              		.cfi_offset 14, -4
 742 0002 84B0     		sub	sp, sp, #16
 743              		.cfi_def_cfa_offset 24
 744 0004 00AF     		add	r7, sp, #0
 745              		.cfi_def_cfa_register 7
ARM GAS  C:\Users\Greg\AppData\Local\Temp\ccDYSYHP.s 			page 23


 746 0006 0346     		mov	r3, r0
 747 0008 FB71     		strb	r3, [r7, #7]
 490:Generated_Source\PSoC5/USBUART_cdc.c ****     uint8 dataByte;
 491:Generated_Source\PSoC5/USBUART_cdc.c ****     dataByte = (uint8) txDataByte;
 748              		.loc 1 491 0
 749 000a FB79     		ldrb	r3, [r7, #7]
 750 000c FB73     		strb	r3, [r7, #15]
 492:Generated_Source\PSoC5/USBUART_cdc.c **** 
 493:Generated_Source\PSoC5/USBUART_cdc.c ****     USBUART_LoadInEP(USBUART_cdcDataInEp[USBUART_activeCom], &dataByte, 1u);
 751              		.loc 1 493 0
 752 000e 084B     		ldr	r3, .L47
 753 0010 1B78     		ldrb	r3, [r3]	@ zero_extendqisi2
 754 0012 1A46     		mov	r2, r3
 755 0014 074B     		ldr	r3, .L47+4
 756 0016 9B5C     		ldrb	r3, [r3, r2]
 757 0018 DAB2     		uxtb	r2, r3
 758 001a 07F10F03 		add	r3, r7, #15
 759 001e 1046     		mov	r0, r2
 760 0020 1946     		mov	r1, r3
 761 0022 0122     		movs	r2, #1
 762 0024 FFF7FEFF 		bl	USBUART_LoadInEP
 494:Generated_Source\PSoC5/USBUART_cdc.c **** }
 763              		.loc 1 494 0
 764 0028 1037     		adds	r7, r7, #16
 765              		.cfi_def_cfa_offset 8
 766 002a BD46     		mov	sp, r7
 767              		.cfi_def_cfa_register 13
 768              		@ sp needed
 769 002c 80BD     		pop	{r7, pc}
 770              	.L48:
 771 002e 00BF     		.align	2
 772              	.L47:
 773 0030 00000000 		.word	USBUART_activeCom
 774 0034 00000000 		.word	USBUART_cdcDataInEp
 775              		.cfi_endproc
 776              	.LFE6:
 777              		.size	USBUART_PutChar, .-USBUART_PutChar
 778              		.section	.rodata
 779              		.align	2
 780              	.LC0:
 781 0000 0D       		.byte	13
 782 0001 0A       		.byte	10
 783 0002 0000     		.section	.text.USBUART_PutCRLF,"ax",%progbits
 784              		.align	2
 785              		.global	USBUART_PutCRLF
 786              		.thumb
 787              		.thumb_func
 788              		.type	USBUART_PutCRLF, %function
 789              	USBUART_PutCRLF:
 790              	.LFB7:
 495:Generated_Source\PSoC5/USBUART_cdc.c **** 
 496:Generated_Source\PSoC5/USBUART_cdc.c **** 
 497:Generated_Source\PSoC5/USBUART_cdc.c **** /*******************************************************************************
 498:Generated_Source\PSoC5/USBUART_cdc.c **** * Function Name: USBUART_PutCRLF
 499:Generated_Source\PSoC5/USBUART_cdc.c **** ****************************************************************************//**
 500:Generated_Source\PSoC5/USBUART_cdc.c **** *
 501:Generated_Source\PSoC5/USBUART_cdc.c **** *  This function sends a carriage return (0x0D) and line feed (0x0A) to the
ARM GAS  C:\Users\Greg\AppData\Local\Temp\ccDYSYHP.s 			page 24


 502:Generated_Source\PSoC5/USBUART_cdc.c **** *  PC. This APIis provided to mimic API provided by our other UART components
 503:Generated_Source\PSoC5/USBUART_cdc.c **** *
 504:Generated_Source\PSoC5/USBUART_cdc.c **** * \globalvars
 505:Generated_Source\PSoC5/USBUART_cdc.c **** *
 506:Generated_Source\PSoC5/USBUART_cdc.c **** *   USBUART_cdcDataInEp: CDC IN endpoint number used for sending
 507:Generated_Source\PSoC5/USBUART_cdc.c **** *     data.
 508:Generated_Source\PSoC5/USBUART_cdc.c **** *
 509:Generated_Source\PSoC5/USBUART_cdc.c **** * \reentrant
 510:Generated_Source\PSoC5/USBUART_cdc.c **** *  No.
 511:Generated_Source\PSoC5/USBUART_cdc.c **** *
 512:Generated_Source\PSoC5/USBUART_cdc.c **** *******************************************************************************/
 513:Generated_Source\PSoC5/USBUART_cdc.c **** void USBUART_PutCRLF(void) 
 514:Generated_Source\PSoC5/USBUART_cdc.c **** {
 791              		.loc 1 514 0
 792              		.cfi_startproc
 793              		@ args = 0, pretend = 0, frame = 8
 794              		@ frame_needed = 1, uses_anonymous_args = 0
 795 0000 80B5     		push	{r7, lr}
 796              		.cfi_def_cfa_offset 8
 797              		.cfi_offset 7, -8
 798              		.cfi_offset 14, -4
 799 0002 82B0     		sub	sp, sp, #8
 800              		.cfi_def_cfa_offset 16
 801 0004 00AF     		add	r7, sp, #0
 802              		.cfi_def_cfa_register 7
 515:Generated_Source\PSoC5/USBUART_cdc.c ****     const uint8 CYCODE txData[] = {0x0Du, 0x0Au};
 803              		.loc 1 515 0
 804 0006 094A     		ldr	r2, .L50
 805 0008 3B1D     		adds	r3, r7, #4
 806 000a 1288     		ldrh	r2, [r2]	@ unaligned
 807 000c 1A80     		strh	r2, [r3]	@ unaligned
 516:Generated_Source\PSoC5/USBUART_cdc.c **** 
 517:Generated_Source\PSoC5/USBUART_cdc.c ****     USBUART_LoadInEP(USBUART_cdcDataInEp[USBUART_activeCom], (const uint8 *)txData, 2u);
 808              		.loc 1 517 0
 809 000e 084B     		ldr	r3, .L50+4
 810 0010 1B78     		ldrb	r3, [r3]	@ zero_extendqisi2
 811 0012 1A46     		mov	r2, r3
 812 0014 074B     		ldr	r3, .L50+8
 813 0016 9B5C     		ldrb	r3, [r3, r2]
 814 0018 DAB2     		uxtb	r2, r3
 815 001a 3B1D     		adds	r3, r7, #4
 816 001c 1046     		mov	r0, r2
 817 001e 1946     		mov	r1, r3
 818 0020 0222     		movs	r2, #2
 819 0022 FFF7FEFF 		bl	USBUART_LoadInEP
 518:Generated_Source\PSoC5/USBUART_cdc.c **** }
 820              		.loc 1 518 0
 821 0026 0837     		adds	r7, r7, #8
 822              		.cfi_def_cfa_offset 8
 823 0028 BD46     		mov	sp, r7
 824              		.cfi_def_cfa_register 13
 825              		@ sp needed
 826 002a 80BD     		pop	{r7, pc}
 827              	.L51:
 828              		.align	2
 829              	.L50:
 830 002c 00000000 		.word	.LC0
ARM GAS  C:\Users\Greg\AppData\Local\Temp\ccDYSYHP.s 			page 25


 831 0030 00000000 		.word	USBUART_activeCom
 832 0034 00000000 		.word	USBUART_cdcDataInEp
 833              		.cfi_endproc
 834              	.LFE7:
 835              		.size	USBUART_PutCRLF, .-USBUART_PutCRLF
 836              		.section	.text.USBUART_GetCount,"ax",%progbits
 837              		.align	2
 838              		.global	USBUART_GetCount
 839              		.thumb
 840              		.thumb_func
 841              		.type	USBUART_GetCount, %function
 842              	USBUART_GetCount:
 843              	.LFB8:
 519:Generated_Source\PSoC5/USBUART_cdc.c **** 
 520:Generated_Source\PSoC5/USBUART_cdc.c **** 
 521:Generated_Source\PSoC5/USBUART_cdc.c **** /*******************************************************************************
 522:Generated_Source\PSoC5/USBUART_cdc.c **** * Function Name: USBUART_GetCount
 523:Generated_Source\PSoC5/USBUART_cdc.c **** ****************************************************************************//**
 524:Generated_Source\PSoC5/USBUART_cdc.c **** *
 525:Generated_Source\PSoC5/USBUART_cdc.c **** *  This function returns the number of bytes that were received from the PC.
 526:Generated_Source\PSoC5/USBUART_cdc.c **** *  The returned length value should be passed to USBUART_GetData() as
 527:Generated_Source\PSoC5/USBUART_cdc.c **** *  a parameter to read all received data. If all of the received data is not
 528:Generated_Source\PSoC5/USBUART_cdc.c **** *  read at one time by the USBUART_GetData() API, the unread data will
 529:Generated_Source\PSoC5/USBUART_cdc.c **** *  be lost.
 530:Generated_Source\PSoC5/USBUART_cdc.c **** *
 531:Generated_Source\PSoC5/USBUART_cdc.c **** * \return
 532:Generated_Source\PSoC5/USBUART_cdc.c **** *  Returns the number of received bytes. The maximum amount of received data at
 533:Generated_Source\PSoC5/USBUART_cdc.c **** *  a time is limited by the maximum packet size for the endpoint.
 534:Generated_Source\PSoC5/USBUART_cdc.c **** *
 535:Generated_Source\PSoC5/USBUART_cdc.c **** * \globalvars
 536:Generated_Source\PSoC5/USBUART_cdc.c **** *   USBUART_cdcDataOutEp: CDC OUT endpoint number used.
 537:Generated_Source\PSoC5/USBUART_cdc.c **** *
 538:Generated_Source\PSoC5/USBUART_cdc.c **** *******************************************************************************/
 539:Generated_Source\PSoC5/USBUART_cdc.c **** uint16 USBUART_GetCount(void) 
 540:Generated_Source\PSoC5/USBUART_cdc.c **** {
 844              		.loc 1 540 0
 845              		.cfi_startproc
 846              		@ args = 0, pretend = 0, frame = 8
 847              		@ frame_needed = 1, uses_anonymous_args = 0
 848 0000 80B5     		push	{r7, lr}
 849              		.cfi_def_cfa_offset 8
 850              		.cfi_offset 7, -8
 851              		.cfi_offset 14, -4
 852 0002 82B0     		sub	sp, sp, #8
 853              		.cfi_def_cfa_offset 16
 854 0004 00AF     		add	r7, sp, #0
 855              		.cfi_def_cfa_register 7
 541:Generated_Source\PSoC5/USBUART_cdc.c ****     uint16 bytesCount;
 542:Generated_Source\PSoC5/USBUART_cdc.c **** 
 543:Generated_Source\PSoC5/USBUART_cdc.c ****     uint8  epNumber = USBUART_cdcDataOutEp[USBUART_activeCom];
 856              		.loc 1 543 0
 857 0006 0F4B     		ldr	r3, .L56
 858 0008 1B78     		ldrb	r3, [r3]	@ zero_extendqisi2
 859 000a 1A46     		mov	r2, r3
 860 000c 0E4B     		ldr	r3, .L56+4
 861 000e 9B5C     		ldrb	r3, [r3, r2]
 862 0010 7B71     		strb	r3, [r7, #5]
ARM GAS  C:\Users\Greg\AppData\Local\Temp\ccDYSYHP.s 			page 26


 544:Generated_Source\PSoC5/USBUART_cdc.c **** 
 545:Generated_Source\PSoC5/USBUART_cdc.c ****     if (USBUART_OUT_BUFFER_FULL == USBUART_EP[epNumber].apiEpState)
 863              		.loc 1 545 0
 864 0012 7A79     		ldrb	r2, [r7, #5]	@ zero_extendqisi2
 865 0014 0D49     		ldr	r1, .L56+8
 866 0016 1346     		mov	r3, r2
 867 0018 5B00     		lsls	r3, r3, #1
 868 001a 1344     		add	r3, r3, r2
 869 001c 9B00     		lsls	r3, r3, #2
 870 001e 0B44     		add	r3, r3, r1
 871 0020 5B78     		ldrb	r3, [r3, #1]
 872 0022 DBB2     		uxtb	r3, r3
 873 0024 012B     		cmp	r3, #1
 874 0026 06D1     		bne	.L53
 546:Generated_Source\PSoC5/USBUART_cdc.c ****     {
 547:Generated_Source\PSoC5/USBUART_cdc.c ****         bytesCount = USBUART_GetEPCount(epNumber);
 875              		.loc 1 547 0
 876 0028 7B79     		ldrb	r3, [r7, #5]	@ zero_extendqisi2
 877 002a 1846     		mov	r0, r3
 878 002c FFF7FEFF 		bl	USBUART_GetEPCount
 879 0030 0346     		mov	r3, r0
 880 0032 FB80     		strh	r3, [r7, #6]	@ movhi
 881 0034 01E0     		b	.L54
 882              	.L53:
 548:Generated_Source\PSoC5/USBUART_cdc.c ****     }
 549:Generated_Source\PSoC5/USBUART_cdc.c ****     else
 550:Generated_Source\PSoC5/USBUART_cdc.c ****     {
 551:Generated_Source\PSoC5/USBUART_cdc.c ****         bytesCount = 0u;
 883              		.loc 1 551 0
 884 0036 0023     		movs	r3, #0
 885 0038 FB80     		strh	r3, [r7, #6]	@ movhi
 886              	.L54:
 552:Generated_Source\PSoC5/USBUART_cdc.c ****     }
 553:Generated_Source\PSoC5/USBUART_cdc.c **** 
 554:Generated_Source\PSoC5/USBUART_cdc.c ****     return (bytesCount);
 887              		.loc 1 554 0
 888 003a FB88     		ldrh	r3, [r7, #6]
 555:Generated_Source\PSoC5/USBUART_cdc.c **** }
 889              		.loc 1 555 0
 890 003c 1846     		mov	r0, r3
 891 003e 0837     		adds	r7, r7, #8
 892              		.cfi_def_cfa_offset 8
 893 0040 BD46     		mov	sp, r7
 894              		.cfi_def_cfa_register 13
 895              		@ sp needed
 896 0042 80BD     		pop	{r7, pc}
 897              	.L57:
 898              		.align	2
 899              	.L56:
 900 0044 00000000 		.word	USBUART_activeCom
 901 0048 00000000 		.word	USBUART_cdcDataOutEp
 902 004c 00000000 		.word	USBUART_EP
 903              		.cfi_endproc
 904              	.LFE8:
 905              		.size	USBUART_GetCount, .-USBUART_GetCount
 906              		.section	.text.USBUART_DataIsReady,"ax",%progbits
 907              		.align	2
ARM GAS  C:\Users\Greg\AppData\Local\Temp\ccDYSYHP.s 			page 27


 908              		.global	USBUART_DataIsReady
 909              		.thumb
 910              		.thumb_func
 911              		.type	USBUART_DataIsReady, %function
 912              	USBUART_DataIsReady:
 913              	.LFB9:
 556:Generated_Source\PSoC5/USBUART_cdc.c **** 
 557:Generated_Source\PSoC5/USBUART_cdc.c **** 
 558:Generated_Source\PSoC5/USBUART_cdc.c **** /*******************************************************************************
 559:Generated_Source\PSoC5/USBUART_cdc.c **** * Function Name: USBUART_DataIsReady
 560:Generated_Source\PSoC5/USBUART_cdc.c **** ****************************************************************************//**
 561:Generated_Source\PSoC5/USBUART_cdc.c **** *
 562:Generated_Source\PSoC5/USBUART_cdc.c **** *  This function returns a non-zero value if the component received data or
 563:Generated_Source\PSoC5/USBUART_cdc.c **** *  received zero-length packet. The USBUART_GetAll() or
 564:Generated_Source\PSoC5/USBUART_cdc.c **** *  USBUART_GetData() API should be called to read data from the buffer
 565:Generated_Source\PSoC5/USBUART_cdc.c **** *  and reinitialize the OUT endpoint even when a zero-length packet is
 566:Generated_Source\PSoC5/USBUART_cdc.c **** *  received. These APIs will return zero value when zero-length packet is
 567:Generated_Source\PSoC5/USBUART_cdc.c **** *  received.
 568:Generated_Source\PSoC5/USBUART_cdc.c **** *
 569:Generated_Source\PSoC5/USBUART_cdc.c **** * \return
 570:Generated_Source\PSoC5/USBUART_cdc.c **** *  If the OUT packet is received, this function returns a non-zero value.
 571:Generated_Source\PSoC5/USBUART_cdc.c **** *  Otherwise, it returns zero.
 572:Generated_Source\PSoC5/USBUART_cdc.c **** *
 573:Generated_Source\PSoC5/USBUART_cdc.c **** * \globalvars
 574:Generated_Source\PSoC5/USBUART_cdc.c **** *   USBUART_cdcDataOutEp: CDC OUT endpoint number used.
 575:Generated_Source\PSoC5/USBUART_cdc.c **** *
 576:Generated_Source\PSoC5/USBUART_cdc.c **** *******************************************************************************/
 577:Generated_Source\PSoC5/USBUART_cdc.c **** uint8 USBUART_DataIsReady(void) 
 578:Generated_Source\PSoC5/USBUART_cdc.c **** {
 914              		.loc 1 578 0
 915              		.cfi_startproc
 916              		@ args = 0, pretend = 0, frame = 0
 917              		@ frame_needed = 1, uses_anonymous_args = 0
 918 0000 80B5     		push	{r7, lr}
 919              		.cfi_def_cfa_offset 8
 920              		.cfi_offset 7, -8
 921              		.cfi_offset 14, -4
 922 0002 00AF     		add	r7, sp, #0
 923              		.cfi_def_cfa_register 7
 579:Generated_Source\PSoC5/USBUART_cdc.c ****     return (USBUART_GetEPState(USBUART_cdcDataOutEp[USBUART_activeCom]));
 924              		.loc 1 579 0
 925 0004 054B     		ldr	r3, .L60
 926 0006 1B78     		ldrb	r3, [r3]	@ zero_extendqisi2
 927 0008 1A46     		mov	r2, r3
 928 000a 054B     		ldr	r3, .L60+4
 929 000c 9B5C     		ldrb	r3, [r3, r2]
 930 000e DBB2     		uxtb	r3, r3
 931 0010 1846     		mov	r0, r3
 932 0012 FFF7FEFF 		bl	USBUART_GetEPState
 933 0016 0346     		mov	r3, r0
 580:Generated_Source\PSoC5/USBUART_cdc.c **** }
 934              		.loc 1 580 0
 935 0018 1846     		mov	r0, r3
 936 001a 80BD     		pop	{r7, pc}
 937              	.L61:
 938              		.align	2
 939              	.L60:
ARM GAS  C:\Users\Greg\AppData\Local\Temp\ccDYSYHP.s 			page 28


 940 001c 00000000 		.word	USBUART_activeCom
 941 0020 00000000 		.word	USBUART_cdcDataOutEp
 942              		.cfi_endproc
 943              	.LFE9:
 944              		.size	USBUART_DataIsReady, .-USBUART_DataIsReady
 945              		.section	.text.USBUART_CDCIsReady,"ax",%progbits
 946              		.align	2
 947              		.global	USBUART_CDCIsReady
 948              		.thumb
 949              		.thumb_func
 950              		.type	USBUART_CDCIsReady, %function
 951              	USBUART_CDCIsReady:
 952              	.LFB10:
 581:Generated_Source\PSoC5/USBUART_cdc.c **** 
 582:Generated_Source\PSoC5/USBUART_cdc.c **** 
 583:Generated_Source\PSoC5/USBUART_cdc.c **** /*******************************************************************************
 584:Generated_Source\PSoC5/USBUART_cdc.c **** * Function Name: USBUART_CDCIsReady
 585:Generated_Source\PSoC5/USBUART_cdc.c **** ****************************************************************************//**
 586:Generated_Source\PSoC5/USBUART_cdc.c **** *
 587:Generated_Source\PSoC5/USBUART_cdc.c **** *  This function returns a non-zero value if the component is ready to send more
 588:Generated_Source\PSoC5/USBUART_cdc.c **** *  data to the PC; otherwise, it returns zero. The function should be called
 589:Generated_Source\PSoC5/USBUART_cdc.c **** *  before sending new data when using any of the following APIs:
 590:Generated_Source\PSoC5/USBUART_cdc.c **** *  USBUART_PutData(),USBUART_PutString(),
 591:Generated_Source\PSoC5/USBUART_cdc.c **** *  USBUART_PutChar or USBUART_PutCRLF(),
 592:Generated_Source\PSoC5/USBUART_cdc.c **** *  to be sure that the previous data has finished sending.
 593:Generated_Source\PSoC5/USBUART_cdc.c **** *
 594:Generated_Source\PSoC5/USBUART_cdc.c **** * \return
 595:Generated_Source\PSoC5/USBUART_cdc.c **** *  If the buffer can accept new data, this function returns a non-zero value.
 596:Generated_Source\PSoC5/USBUART_cdc.c **** *  Otherwise, it returns zero.
 597:Generated_Source\PSoC5/USBUART_cdc.c **** *
 598:Generated_Source\PSoC5/USBUART_cdc.c **** * \globalvars
 599:Generated_Source\PSoC5/USBUART_cdc.c **** *   USBUART_cdcDataInEp: CDC IN endpoint number used.
 600:Generated_Source\PSoC5/USBUART_cdc.c **** *
 601:Generated_Source\PSoC5/USBUART_cdc.c **** *******************************************************************************/
 602:Generated_Source\PSoC5/USBUART_cdc.c **** uint8 USBUART_CDCIsReady(void) 
 603:Generated_Source\PSoC5/USBUART_cdc.c **** {
 953              		.loc 1 603 0
 954              		.cfi_startproc
 955              		@ args = 0, pretend = 0, frame = 0
 956              		@ frame_needed = 1, uses_anonymous_args = 0
 957 0000 80B5     		push	{r7, lr}
 958              		.cfi_def_cfa_offset 8
 959              		.cfi_offset 7, -8
 960              		.cfi_offset 14, -4
 961 0002 00AF     		add	r7, sp, #0
 962              		.cfi_def_cfa_register 7
 604:Generated_Source\PSoC5/USBUART_cdc.c ****     return (USBUART_GetEPState(USBUART_cdcDataInEp[USBUART_activeCom]));
 963              		.loc 1 604 0
 964 0004 054B     		ldr	r3, .L64
 965 0006 1B78     		ldrb	r3, [r3]	@ zero_extendqisi2
 966 0008 1A46     		mov	r2, r3
 967 000a 054B     		ldr	r3, .L64+4
 968 000c 9B5C     		ldrb	r3, [r3, r2]
 969 000e DBB2     		uxtb	r3, r3
 970 0010 1846     		mov	r0, r3
 971 0012 FFF7FEFF 		bl	USBUART_GetEPState
 972 0016 0346     		mov	r3, r0
ARM GAS  C:\Users\Greg\AppData\Local\Temp\ccDYSYHP.s 			page 29


 605:Generated_Source\PSoC5/USBUART_cdc.c **** }
 973              		.loc 1 605 0
 974 0018 1846     		mov	r0, r3
 975 001a 80BD     		pop	{r7, pc}
 976              	.L65:
 977              		.align	2
 978              	.L64:
 979 001c 00000000 		.word	USBUART_activeCom
 980 0020 00000000 		.word	USBUART_cdcDataInEp
 981              		.cfi_endproc
 982              	.LFE10:
 983              		.size	USBUART_CDCIsReady, .-USBUART_CDCIsReady
 984              		.section	.text.USBUART_GetData,"ax",%progbits
 985              		.align	2
 986              		.global	USBUART_GetData
 987              		.thumb
 988              		.thumb_func
 989              		.type	USBUART_GetData, %function
 990              	USBUART_GetData:
 991              	.LFB11:
 606:Generated_Source\PSoC5/USBUART_cdc.c **** 
 607:Generated_Source\PSoC5/USBUART_cdc.c **** 
 608:Generated_Source\PSoC5/USBUART_cdc.c **** /***************************************************************************
 609:Generated_Source\PSoC5/USBUART_cdc.c **** * Function Name: USBUART_GetData
 610:Generated_Source\PSoC5/USBUART_cdc.c **** ************************************************************************//**
 611:Generated_Source\PSoC5/USBUART_cdc.c **** *
 612:Generated_Source\PSoC5/USBUART_cdc.c **** *  This function gets a specified number of bytes from the input buffer and
 613:Generated_Source\PSoC5/USBUART_cdc.c **** *  places them in a data array specified by the passed pointer.
 614:Generated_Source\PSoC5/USBUART_cdc.c **** *  The USBUART_DataIsReady() API should be called first, to be sure
 615:Generated_Source\PSoC5/USBUART_cdc.c **** *  that data is received from the host. If all received data will not be read at
 616:Generated_Source\PSoC5/USBUART_cdc.c **** *  once, the unread data will be lost. The USBUART_GetData() API should
 617:Generated_Source\PSoC5/USBUART_cdc.c **** *  be called to get the number of bytes that were received.
 618:Generated_Source\PSoC5/USBUART_cdc.c **** *
 619:Generated_Source\PSoC5/USBUART_cdc.c **** *  \param pData: Pointer to the data array where data will be placed.
 620:Generated_Source\PSoC5/USBUART_cdc.c **** *  \param Length: Number of bytes to read into the data array from the RX buffer.
 621:Generated_Source\PSoC5/USBUART_cdc.c **** *          Maximum length is limited by the the number of received bytes
 622:Generated_Source\PSoC5/USBUART_cdc.c **** *          or 64 bytes.
 623:Generated_Source\PSoC5/USBUART_cdc.c **** *
 624:Generated_Source\PSoC5/USBUART_cdc.c **** * \return
 625:Generated_Source\PSoC5/USBUART_cdc.c **** *         Number of bytes which function moves from endpoint RAM into the
 626:Generated_Source\PSoC5/USBUART_cdc.c **** *         data array. The function moves fewer than the requested number
 627:Generated_Source\PSoC5/USBUART_cdc.c **** *         of bytes if the host sends fewer bytes than requested or sends
 628:Generated_Source\PSoC5/USBUART_cdc.c **** *         zero-length packet.
 629:Generated_Source\PSoC5/USBUART_cdc.c **** *
 630:Generated_Source\PSoC5/USBUART_cdc.c **** * \globalvars
 631:Generated_Source\PSoC5/USBUART_cdc.c **** *   USBUART_cdcDataOutEp: CDC OUT endpoint number used.
 632:Generated_Source\PSoC5/USBUART_cdc.c **** *
 633:Generated_Source\PSoC5/USBUART_cdc.c **** * \reentrant
 634:Generated_Source\PSoC5/USBUART_cdc.c **** *  No.
 635:Generated_Source\PSoC5/USBUART_cdc.c **** *
 636:Generated_Source\PSoC5/USBUART_cdc.c **** ***************************************************************************/
 637:Generated_Source\PSoC5/USBUART_cdc.c **** uint16 USBUART_GetData(uint8* pData, uint16 length) 
 638:Generated_Source\PSoC5/USBUART_cdc.c **** {
 992              		.loc 1 638 0
 993              		.cfi_startproc
 994              		@ args = 0, pretend = 0, frame = 16
 995              		@ frame_needed = 1, uses_anonymous_args = 0
ARM GAS  C:\Users\Greg\AppData\Local\Temp\ccDYSYHP.s 			page 30


 996 0000 80B5     		push	{r7, lr}
 997              		.cfi_def_cfa_offset 8
 998              		.cfi_offset 7, -8
 999              		.cfi_offset 14, -4
 1000 0002 84B0     		sub	sp, sp, #16
 1001              		.cfi_def_cfa_offset 24
 1002 0004 00AF     		add	r7, sp, #0
 1003              		.cfi_def_cfa_register 7
 1004 0006 7860     		str	r0, [r7, #4]
 1005 0008 0B46     		mov	r3, r1
 1006 000a 7B80     		strh	r3, [r7, #2]	@ movhi
 639:Generated_Source\PSoC5/USBUART_cdc.c ****     uint8 epNumber = USBUART_cdcDataOutEp[USBUART_activeCom];
 1007              		.loc 1 639 0
 1008 000c 094B     		ldr	r3, .L68
 1009 000e 1B78     		ldrb	r3, [r3]	@ zero_extendqisi2
 1010 0010 1A46     		mov	r2, r3
 1011 0012 094B     		ldr	r3, .L68+4
 1012 0014 9B5C     		ldrb	r3, [r3, r2]
 1013 0016 FB73     		strb	r3, [r7, #15]
 640:Generated_Source\PSoC5/USBUART_cdc.c **** 
 641:Generated_Source\PSoC5/USBUART_cdc.c ****     /* Read data from OUT endpoint buffer. */
 642:Generated_Source\PSoC5/USBUART_cdc.c ****     length = USBUART_ReadOutEP(epNumber, pData, length);
 1014              		.loc 1 642 0
 1015 0018 FA7B     		ldrb	r2, [r7, #15]	@ zero_extendqisi2
 1016 001a 7B88     		ldrh	r3, [r7, #2]
 1017 001c 1046     		mov	r0, r2
 1018 001e 7968     		ldr	r1, [r7, #4]
 1019 0020 1A46     		mov	r2, r3
 1020 0022 FFF7FEFF 		bl	USBUART_ReadOutEP
 1021 0026 0346     		mov	r3, r0
 1022 0028 7B80     		strh	r3, [r7, #2]	@ movhi
 643:Generated_Source\PSoC5/USBUART_cdc.c **** 
 644:Generated_Source\PSoC5/USBUART_cdc.c **** #if (USBUART_EP_MANAGEMENT_DMA_MANUAL)
 645:Generated_Source\PSoC5/USBUART_cdc.c ****     /* Wait until DMA complete transferring data from OUT endpoint buffer. */
 646:Generated_Source\PSoC5/USBUART_cdc.c ****     while (USBUART_OUT_BUFFER_FULL == USBUART_GetEPState(epNumber))
 647:Generated_Source\PSoC5/USBUART_cdc.c ****     {
 648:Generated_Source\PSoC5/USBUART_cdc.c ****     }
 649:Generated_Source\PSoC5/USBUART_cdc.c **** 
 650:Generated_Source\PSoC5/USBUART_cdc.c ****     /* Enable OUT endpoint to communicate with host. */
 651:Generated_Source\PSoC5/USBUART_cdc.c ****     USBUART_EnableOutEP(epNumber);
 652:Generated_Source\PSoC5/USBUART_cdc.c **** #endif /* (USBUART_EP_MANAGEMENT_DMA_MANUAL) */
 653:Generated_Source\PSoC5/USBUART_cdc.c **** 
 654:Generated_Source\PSoC5/USBUART_cdc.c ****     return (length);
 1023              		.loc 1 654 0
 1024 002a 7B88     		ldrh	r3, [r7, #2]
 655:Generated_Source\PSoC5/USBUART_cdc.c **** }
 1025              		.loc 1 655 0
 1026 002c 1846     		mov	r0, r3
 1027 002e 1037     		adds	r7, r7, #16
 1028              		.cfi_def_cfa_offset 8
 1029 0030 BD46     		mov	sp, r7
 1030              		.cfi_def_cfa_register 13
 1031              		@ sp needed
 1032 0032 80BD     		pop	{r7, pc}
 1033              	.L69:
 1034              		.align	2
 1035              	.L68:
ARM GAS  C:\Users\Greg\AppData\Local\Temp\ccDYSYHP.s 			page 31


 1036 0034 00000000 		.word	USBUART_activeCom
 1037 0038 00000000 		.word	USBUART_cdcDataOutEp
 1038              		.cfi_endproc
 1039              	.LFE11:
 1040              		.size	USBUART_GetData, .-USBUART_GetData
 1041              		.section	.text.USBUART_GetAll,"ax",%progbits
 1042              		.align	2
 1043              		.global	USBUART_GetAll
 1044              		.thumb
 1045              		.thumb_func
 1046              		.type	USBUART_GetAll, %function
 1047              	USBUART_GetAll:
 1048              	.LFB12:
 656:Generated_Source\PSoC5/USBUART_cdc.c **** 
 657:Generated_Source\PSoC5/USBUART_cdc.c **** 
 658:Generated_Source\PSoC5/USBUART_cdc.c **** /*******************************************************************************
 659:Generated_Source\PSoC5/USBUART_cdc.c **** * Function Name: USBUART_GetAll
 660:Generated_Source\PSoC5/USBUART_cdc.c **** ****************************************************************************//**
 661:Generated_Source\PSoC5/USBUART_cdc.c **** *
 662:Generated_Source\PSoC5/USBUART_cdc.c **** *  This function gets all bytes of received data from the input buffer and
 663:Generated_Source\PSoC5/USBUART_cdc.c **** *  places them into a specified data array. The
 664:Generated_Source\PSoC5/USBUART_cdc.c **** *  USBUART_DataIsReady() API should be called first, to be sure
 665:Generated_Source\PSoC5/USBUART_cdc.c **** *  that data is received from the host.
 666:Generated_Source\PSoC5/USBUART_cdc.c **** *
 667:Generated_Source\PSoC5/USBUART_cdc.c **** *  \param pData: Pointer to the data array where data will be placed.
 668:Generated_Source\PSoC5/USBUART_cdc.c **** *
 669:Generated_Source\PSoC5/USBUART_cdc.c **** * \return
 670:Generated_Source\PSoC5/USBUART_cdc.c **** *  Number of bytes received. The maximum amount of the received at a time
 671:Generated_Source\PSoC5/USBUART_cdc.c **** *  data is 64 bytes.
 672:Generated_Source\PSoC5/USBUART_cdc.c **** *
 673:Generated_Source\PSoC5/USBUART_cdc.c **** * \globalvars
 674:Generated_Source\PSoC5/USBUART_cdc.c **** *   - \ref USBUART_cdcDataOutEp: CDC OUT endpoint number used.
 675:Generated_Source\PSoC5/USBUART_cdc.c **** *   - \ref USBUART_EP[].bufferSize: EP max packet size is used as a
 676:Generated_Source\PSoC5/USBUART_cdc.c **** *     length to read all data from the EP buffer.
 677:Generated_Source\PSoC5/USBUART_cdc.c **** *
 678:Generated_Source\PSoC5/USBUART_cdc.c **** * \reentrant
 679:Generated_Source\PSoC5/USBUART_cdc.c **** *  No.
 680:Generated_Source\PSoC5/USBUART_cdc.c **** *
 681:Generated_Source\PSoC5/USBUART_cdc.c **** *******************************************************************************/
 682:Generated_Source\PSoC5/USBUART_cdc.c **** uint16 USBUART_GetAll(uint8* pData) 
 683:Generated_Source\PSoC5/USBUART_cdc.c **** {
 1049              		.loc 1 683 0
 1050              		.cfi_startproc
 1051              		@ args = 0, pretend = 0, frame = 16
 1052              		@ frame_needed = 1, uses_anonymous_args = 0
 1053 0000 80B5     		push	{r7, lr}
 1054              		.cfi_def_cfa_offset 8
 1055              		.cfi_offset 7, -8
 1056              		.cfi_offset 14, -4
 1057 0002 84B0     		sub	sp, sp, #16
 1058              		.cfi_def_cfa_offset 24
 1059 0004 00AF     		add	r7, sp, #0
 1060              		.cfi_def_cfa_register 7
 1061 0006 7860     		str	r0, [r7, #4]
 684:Generated_Source\PSoC5/USBUART_cdc.c ****     uint8 epNumber = USBUART_cdcDataOutEp[USBUART_activeCom];
 1062              		.loc 1 684 0
 1063 0008 0E4B     		ldr	r3, .L72
ARM GAS  C:\Users\Greg\AppData\Local\Temp\ccDYSYHP.s 			page 32


 1064 000a 1B78     		ldrb	r3, [r3]	@ zero_extendqisi2
 1065 000c 1A46     		mov	r2, r3
 1066 000e 0E4B     		ldr	r3, .L72+4
 1067 0010 9B5C     		ldrb	r3, [r3, r2]
 1068 0012 FB73     		strb	r3, [r7, #15]
 685:Generated_Source\PSoC5/USBUART_cdc.c ****     uint16 dataLength;
 686:Generated_Source\PSoC5/USBUART_cdc.c **** 
 687:Generated_Source\PSoC5/USBUART_cdc.c ****     /* Read data from OUT endpoint buffer. */
 688:Generated_Source\PSoC5/USBUART_cdc.c ****     dataLength = USBUART_ReadOutEP(epNumber, pData, USBUART_EP[epNumber].bufferSize);
 1069              		.loc 1 688 0
 1070 0014 FA7B     		ldrb	r2, [r7, #15]	@ zero_extendqisi2
 1071 0016 0D49     		ldr	r1, .L72+8
 1072 0018 1346     		mov	r3, r2
 1073 001a 5B00     		lsls	r3, r3, #1
 1074 001c 1344     		add	r3, r3, r2
 1075 001e 9B00     		lsls	r3, r3, #2
 1076 0020 0B44     		add	r3, r3, r1
 1077 0022 0833     		adds	r3, r3, #8
 1078 0024 1B88     		ldrh	r3, [r3]	@ movhi
 1079 0026 9BB2     		uxth	r3, r3
 1080 0028 FA7B     		ldrb	r2, [r7, #15]	@ zero_extendqisi2
 1081 002a 1046     		mov	r0, r2
 1082 002c 7968     		ldr	r1, [r7, #4]
 1083 002e 1A46     		mov	r2, r3
 1084 0030 FFF7FEFF 		bl	USBUART_ReadOutEP
 1085 0034 0346     		mov	r3, r0
 1086 0036 BB81     		strh	r3, [r7, #12]	@ movhi
 689:Generated_Source\PSoC5/USBUART_cdc.c **** 
 690:Generated_Source\PSoC5/USBUART_cdc.c **** #if (USBUART_EP_MANAGEMENT_DMA_MANUAL)
 691:Generated_Source\PSoC5/USBUART_cdc.c ****     /* Wait until DMA complete transferring data from OUT endpoint buffer. */
 692:Generated_Source\PSoC5/USBUART_cdc.c ****     while (USBUART_OUT_BUFFER_FULL == USBUART_GetEPState(epNumber))
 693:Generated_Source\PSoC5/USBUART_cdc.c ****     {
 694:Generated_Source\PSoC5/USBUART_cdc.c ****     }
 695:Generated_Source\PSoC5/USBUART_cdc.c **** 
 696:Generated_Source\PSoC5/USBUART_cdc.c ****     /* Enable OUT endpoint to communicate with host. */
 697:Generated_Source\PSoC5/USBUART_cdc.c ****     USBUART_EnableOutEP(epNumber);
 698:Generated_Source\PSoC5/USBUART_cdc.c **** #endif /* (USBUART_EP_MANAGEMENT_DMA_MANUAL) */
 699:Generated_Source\PSoC5/USBUART_cdc.c **** 
 700:Generated_Source\PSoC5/USBUART_cdc.c ****     return (dataLength);
 1087              		.loc 1 700 0
 1088 0038 BB89     		ldrh	r3, [r7, #12]
 701:Generated_Source\PSoC5/USBUART_cdc.c **** }
 1089              		.loc 1 701 0
 1090 003a 1846     		mov	r0, r3
 1091 003c 1037     		adds	r7, r7, #16
 1092              		.cfi_def_cfa_offset 8
 1093 003e BD46     		mov	sp, r7
 1094              		.cfi_def_cfa_register 13
 1095              		@ sp needed
 1096 0040 80BD     		pop	{r7, pc}
 1097              	.L73:
 1098 0042 00BF     		.align	2
 1099              	.L72:
 1100 0044 00000000 		.word	USBUART_activeCom
 1101 0048 00000000 		.word	USBUART_cdcDataOutEp
 1102 004c 00000000 		.word	USBUART_EP
 1103              		.cfi_endproc
ARM GAS  C:\Users\Greg\AppData\Local\Temp\ccDYSYHP.s 			page 33


 1104              	.LFE12:
 1105              		.size	USBUART_GetAll, .-USBUART_GetAll
 1106              		.section	.text.USBUART_GetChar,"ax",%progbits
 1107              		.align	2
 1108              		.global	USBUART_GetChar
 1109              		.thumb
 1110              		.thumb_func
 1111              		.type	USBUART_GetChar, %function
 1112              	USBUART_GetChar:
 1113              	.LFB13:
 702:Generated_Source\PSoC5/USBUART_cdc.c **** 
 703:Generated_Source\PSoC5/USBUART_cdc.c **** 
 704:Generated_Source\PSoC5/USBUART_cdc.c **** /***************************************************************************
 705:Generated_Source\PSoC5/USBUART_cdc.c **** * Function Name: USBUART_GetChar
 706:Generated_Source\PSoC5/USBUART_cdc.c **** ************************************************************************//**
 707:Generated_Source\PSoC5/USBUART_cdc.c **** *
 708:Generated_Source\PSoC5/USBUART_cdc.c **** *  This function reads one byte of received data from the buffer. If more than
 709:Generated_Source\PSoC5/USBUART_cdc.c **** *  one byte has been received from the host, the rest of the data will be lost.
 710:Generated_Source\PSoC5/USBUART_cdc.c **** *
 711:Generated_Source\PSoC5/USBUART_cdc.c **** * \return
 712:Generated_Source\PSoC5/USBUART_cdc.c **** *  Received one character.
 713:Generated_Source\PSoC5/USBUART_cdc.c **** *
 714:Generated_Source\PSoC5/USBUART_cdc.c **** * \globalvars
 715:Generated_Source\PSoC5/USBUART_cdc.c **** *   USBUART_cdcDataOutEp: CDC OUT endpoint number used.
 716:Generated_Source\PSoC5/USBUART_cdc.c **** *
 717:Generated_Source\PSoC5/USBUART_cdc.c **** * \reentrant
 718:Generated_Source\PSoC5/USBUART_cdc.c **** *  No.
 719:Generated_Source\PSoC5/USBUART_cdc.c **** *
 720:Generated_Source\PSoC5/USBUART_cdc.c **** ***************************************************************************/
 721:Generated_Source\PSoC5/USBUART_cdc.c **** uint8 USBUART_GetChar(void) 
 722:Generated_Source\PSoC5/USBUART_cdc.c **** {
 1114              		.loc 1 722 0
 1115              		.cfi_startproc
 1116              		@ args = 0, pretend = 0, frame = 8
 1117              		@ frame_needed = 1, uses_anonymous_args = 0
 1118 0000 80B5     		push	{r7, lr}
 1119              		.cfi_def_cfa_offset 8
 1120              		.cfi_offset 7, -8
 1121              		.cfi_offset 14, -4
 1122 0002 82B0     		sub	sp, sp, #8
 1123              		.cfi_def_cfa_offset 16
 1124 0004 00AF     		add	r7, sp, #0
 1125              		.cfi_def_cfa_register 7
 723:Generated_Source\PSoC5/USBUART_cdc.c ****      uint8 rxData;
 724:Generated_Source\PSoC5/USBUART_cdc.c ****      uint8 epNumber = USBUART_cdcDataOutEp[USBUART_activeCom];
 1126              		.loc 1 724 0
 1127 0006 094B     		ldr	r3, .L76
 1128 0008 1B78     		ldrb	r3, [r3]	@ zero_extendqisi2
 1129 000a 1A46     		mov	r2, r3
 1130 000c 084B     		ldr	r3, .L76+4
 1131 000e 9B5C     		ldrb	r3, [r3, r2]
 1132 0010 FB71     		strb	r3, [r7, #7]
 725:Generated_Source\PSoC5/USBUART_cdc.c **** 
 726:Generated_Source\PSoC5/USBUART_cdc.c ****     (void) USBUART_ReadOutEP(epNumber, &rxData, 1u);
 1133              		.loc 1 726 0
 1134 0012 FA79     		ldrb	r2, [r7, #7]	@ zero_extendqisi2
 1135 0014 BB1D     		adds	r3, r7, #6
ARM GAS  C:\Users\Greg\AppData\Local\Temp\ccDYSYHP.s 			page 34


 1136 0016 1046     		mov	r0, r2
 1137 0018 1946     		mov	r1, r3
 1138 001a 0122     		movs	r2, #1
 1139 001c FFF7FEFF 		bl	USBUART_ReadOutEP
 727:Generated_Source\PSoC5/USBUART_cdc.c **** 
 728:Generated_Source\PSoC5/USBUART_cdc.c **** #if (USBUART_EP_MANAGEMENT_DMA_MANUAL)
 729:Generated_Source\PSoC5/USBUART_cdc.c ****     /* Wait until DMA complete transferring data from OUT endpoint buffer. */
 730:Generated_Source\PSoC5/USBUART_cdc.c ****     while (USBUART_OUT_BUFFER_FULL == USBUART_GetEPState(epNumber))
 731:Generated_Source\PSoC5/USBUART_cdc.c ****     {
 732:Generated_Source\PSoC5/USBUART_cdc.c ****     }
 733:Generated_Source\PSoC5/USBUART_cdc.c **** 
 734:Generated_Source\PSoC5/USBUART_cdc.c ****     /* Enable OUT endpoint to communicate with host. */
 735:Generated_Source\PSoC5/USBUART_cdc.c ****     USBUART_EnableOutEP(epNumber);
 736:Generated_Source\PSoC5/USBUART_cdc.c **** #endif /* (USBUART_EP_MANAGEMENT_DMA_MANUAL) */
 737:Generated_Source\PSoC5/USBUART_cdc.c **** 
 738:Generated_Source\PSoC5/USBUART_cdc.c ****     return (rxData);
 1140              		.loc 1 738 0
 1141 0020 BB79     		ldrb	r3, [r7, #6]	@ zero_extendqisi2
 739:Generated_Source\PSoC5/USBUART_cdc.c **** }
 1142              		.loc 1 739 0
 1143 0022 1846     		mov	r0, r3
 1144 0024 0837     		adds	r7, r7, #8
 1145              		.cfi_def_cfa_offset 8
 1146 0026 BD46     		mov	sp, r7
 1147              		.cfi_def_cfa_register 13
 1148              		@ sp needed
 1149 0028 80BD     		pop	{r7, pc}
 1150              	.L77:
 1151 002a 00BF     		.align	2
 1152              	.L76:
 1153 002c 00000000 		.word	USBUART_activeCom
 1154 0030 00000000 		.word	USBUART_cdcDataOutEp
 1155              		.cfi_endproc
 1156              	.LFE13:
 1157              		.size	USBUART_GetChar, .-USBUART_GetChar
 1158              		.section	.text.USBUART_IsLineChanged,"ax",%progbits
 1159              		.align	2
 1160              		.global	USBUART_IsLineChanged
 1161              		.thumb
 1162              		.thumb_func
 1163              		.type	USBUART_IsLineChanged, %function
 1164              	USBUART_IsLineChanged:
 1165              	.LFB14:
 740:Generated_Source\PSoC5/USBUART_cdc.c **** 
 741:Generated_Source\PSoC5/USBUART_cdc.c **** 
 742:Generated_Source\PSoC5/USBUART_cdc.c **** /*******************************************************************************
 743:Generated_Source\PSoC5/USBUART_cdc.c **** * Function Name: USBUART_IsLineChanged
 744:Generated_Source\PSoC5/USBUART_cdc.c **** ****************************************************************************//**
 745:Generated_Source\PSoC5/USBUART_cdc.c **** *
 746:Generated_Source\PSoC5/USBUART_cdc.c **** *  This function returns clear on read status of the line. It returns not zero
 747:Generated_Source\PSoC5/USBUART_cdc.c **** *  value when the host sends updated coding or control information to the
 748:Generated_Source\PSoC5/USBUART_cdc.c **** *  device. The USBUART_GetDTERate(), USBUART_GetCharFormat()
 749:Generated_Source\PSoC5/USBUART_cdc.c **** *  or USBUART_GetParityType() or USBUART_GetDataBits() API
 750:Generated_Source\PSoC5/USBUART_cdc.c **** *  should be called to read data coding information.
 751:Generated_Source\PSoC5/USBUART_cdc.c **** *  The USBUART_GetLineControl() API should be called to read line
 752:Generated_Source\PSoC5/USBUART_cdc.c **** *  control information.
 753:Generated_Source\PSoC5/USBUART_cdc.c **** *
ARM GAS  C:\Users\Greg\AppData\Local\Temp\ccDYSYHP.s 			page 35


 754:Generated_Source\PSoC5/USBUART_cdc.c **** * \return
 755:Generated_Source\PSoC5/USBUART_cdc.c **** *  If SET_LINE_CODING or CDC_SET_CONTROL_LINE_STATE requests are received, it
 756:Generated_Source\PSoC5/USBUART_cdc.c **** *  returns a non-zero value. Otherwise, it returns zero.
 757:Generated_Source\PSoC5/USBUART_cdc.c **** *  Return Value                 | Description
 758:Generated_Source\PSoC5/USBUART_cdc.c **** *  -----------------------------|--------------------------
 759:Generated_Source\PSoC5/USBUART_cdc.c **** *  USBUART_LINE_CODING_CHANGED  | Line coding changed
 760:Generated_Source\PSoC5/USBUART_cdc.c **** *  USBUART_LINE_CONTROL_CHANGED |   Line control changed
 761:Generated_Source\PSoC5/USBUART_cdc.c **** *
 762:Generated_Source\PSoC5/USBUART_cdc.c **** * \globalvars
 763:Generated_Source\PSoC5/USBUART_cdc.c **** *  - \ref USBUART_transferState: it is checked to be sure then OUT
 764:Generated_Source\PSoC5/USBUART_cdc.c **** *    data phase has been complete, and data written to the lineCoding or
 765:Generated_Source\PSoC5/USBUART_cdc.c **** *    Control Bitmap buffer.
 766:Generated_Source\PSoC5/USBUART_cdc.c **** *  - \ref USBUART_linesChanged: used as a flag to be aware that
 767:Generated_Source\PSoC5/USBUART_cdc.c **** *    Host has been sent request for changing Line Coding or Control Bitmap.
 768:Generated_Source\PSoC5/USBUART_cdc.c **** *
 769:Generated_Source\PSoC5/USBUART_cdc.c **** *******************************************************************************/
 770:Generated_Source\PSoC5/USBUART_cdc.c **** uint8 USBUART_IsLineChanged(void) 
 771:Generated_Source\PSoC5/USBUART_cdc.c **** {
 1166              		.loc 1 771 0
 1167              		.cfi_startproc
 1168              		@ args = 0, pretend = 0, frame = 8
 1169              		@ frame_needed = 1, uses_anonymous_args = 0
 1170              		@ link register save eliminated.
 1171 0000 80B4     		push	{r7}
 1172              		.cfi_def_cfa_offset 4
 1173              		.cfi_offset 7, -4
 1174 0002 83B0     		sub	sp, sp, #12
 1175              		.cfi_def_cfa_offset 16
 1176 0004 00AF     		add	r7, sp, #0
 1177              		.cfi_def_cfa_register 7
 772:Generated_Source\PSoC5/USBUART_cdc.c ****     uint8 state = 0u;
 1178              		.loc 1 772 0
 1179 0006 0023     		movs	r3, #0
 1180 0008 FB71     		strb	r3, [r7, #7]
 773:Generated_Source\PSoC5/USBUART_cdc.c **** 
 774:Generated_Source\PSoC5/USBUART_cdc.c ****     /* transferState is checked to be sure then OUT data phase has been complete */
 775:Generated_Source\PSoC5/USBUART_cdc.c ****     if (USBUART_transferState == USBUART_TRANS_STATE_IDLE)
 1181              		.loc 1 775 0
 1182 000a 104B     		ldr	r3, .L81
 1183 000c 1B78     		ldrb	r3, [r3]
 1184 000e DBB2     		uxtb	r3, r3
 1185 0010 002B     		cmp	r3, #0
 1186 0012 13D1     		bne	.L79
 776:Generated_Source\PSoC5/USBUART_cdc.c ****     {
 777:Generated_Source\PSoC5/USBUART_cdc.c ****         if (USBUART_linesChanged[USBUART_activeCom] != 0u)
 1187              		.loc 1 777 0
 1188 0014 0E4B     		ldr	r3, .L81+4
 1189 0016 1B78     		ldrb	r3, [r3]	@ zero_extendqisi2
 1190 0018 1A46     		mov	r2, r3
 1191 001a 0E4B     		ldr	r3, .L81+8
 1192 001c 9B5C     		ldrb	r3, [r3, r2]
 1193 001e DBB2     		uxtb	r3, r3
 1194 0020 002B     		cmp	r3, #0
 1195 0022 0BD0     		beq	.L79
 778:Generated_Source\PSoC5/USBUART_cdc.c ****         {
 779:Generated_Source\PSoC5/USBUART_cdc.c ****             state = USBUART_linesChanged[USBUART_activeCom];
 1196              		.loc 1 779 0
ARM GAS  C:\Users\Greg\AppData\Local\Temp\ccDYSYHP.s 			page 36


 1197 0024 0A4B     		ldr	r3, .L81+4
 1198 0026 1B78     		ldrb	r3, [r3]	@ zero_extendqisi2
 1199 0028 1A46     		mov	r2, r3
 1200 002a 0A4B     		ldr	r3, .L81+8
 1201 002c 9B5C     		ldrb	r3, [r3, r2]
 1202 002e FB71     		strb	r3, [r7, #7]
 780:Generated_Source\PSoC5/USBUART_cdc.c ****             USBUART_linesChanged[USBUART_activeCom] = 0u;
 1203              		.loc 1 780 0
 1204 0030 074B     		ldr	r3, .L81+4
 1205 0032 1B78     		ldrb	r3, [r3]	@ zero_extendqisi2
 1206 0034 1A46     		mov	r2, r3
 1207 0036 074B     		ldr	r3, .L81+8
 1208 0038 0021     		movs	r1, #0
 1209 003a 9954     		strb	r1, [r3, r2]
 1210              	.L79:
 781:Generated_Source\PSoC5/USBUART_cdc.c ****         }
 782:Generated_Source\PSoC5/USBUART_cdc.c ****     }
 783:Generated_Source\PSoC5/USBUART_cdc.c **** 
 784:Generated_Source\PSoC5/USBUART_cdc.c ****     return (state);
 1211              		.loc 1 784 0
 1212 003c FB79     		ldrb	r3, [r7, #7]	@ zero_extendqisi2
 785:Generated_Source\PSoC5/USBUART_cdc.c **** }
 1213              		.loc 1 785 0
 1214 003e 1846     		mov	r0, r3
 1215 0040 0C37     		adds	r7, r7, #12
 1216              		.cfi_def_cfa_offset 4
 1217 0042 BD46     		mov	sp, r7
 1218              		.cfi_def_cfa_register 13
 1219              		@ sp needed
 1220 0044 5DF8047B 		ldr	r7, [sp], #4
 1221              		.cfi_restore 7
 1222              		.cfi_def_cfa_offset 0
 1223 0048 7047     		bx	lr
 1224              	.L82:
 1225 004a 00BF     		.align	2
 1226              	.L81:
 1227 004c 00000000 		.word	USBUART_transferState
 1228 0050 00000000 		.word	USBUART_activeCom
 1229 0054 00000000 		.word	USBUART_linesChanged
 1230              		.cfi_endproc
 1231              	.LFE14:
 1232              		.size	USBUART_IsLineChanged, .-USBUART_IsLineChanged
 1233              		.section	.text.USBUART_GetDTERate,"ax",%progbits
 1234              		.align	2
 1235              		.global	USBUART_GetDTERate
 1236              		.thumb
 1237              		.thumb_func
 1238              		.type	USBUART_GetDTERate, %function
 1239              	USBUART_GetDTERate:
 1240              	.LFB15:
 786:Generated_Source\PSoC5/USBUART_cdc.c **** 
 787:Generated_Source\PSoC5/USBUART_cdc.c **** 
 788:Generated_Source\PSoC5/USBUART_cdc.c **** /***************************************************************************
 789:Generated_Source\PSoC5/USBUART_cdc.c **** * Function Name: USBUART_GetDTERate
 790:Generated_Source\PSoC5/USBUART_cdc.c **** ************************************************************************//**
 791:Generated_Source\PSoC5/USBUART_cdc.c **** *
 792:Generated_Source\PSoC5/USBUART_cdc.c **** *  This function returns the data terminal rate set for this port in bits
ARM GAS  C:\Users\Greg\AppData\Local\Temp\ccDYSYHP.s 			page 37


 793:Generated_Source\PSoC5/USBUART_cdc.c **** *  per second.
 794:Generated_Source\PSoC5/USBUART_cdc.c **** *
 795:Generated_Source\PSoC5/USBUART_cdc.c **** * \return
 796:Generated_Source\PSoC5/USBUART_cdc.c **** *  Returns a uint32 value of the data rate in bits per second.
 797:Generated_Source\PSoC5/USBUART_cdc.c **** *
 798:Generated_Source\PSoC5/USBUART_cdc.c **** * \globalvars
 799:Generated_Source\PSoC5/USBUART_cdc.c **** *  USBUART_linesCoding: First four bytes converted to uint32
 800:Generated_Source\PSoC5/USBUART_cdc.c **** *    depend on compiler, and returned as a data rate.
 801:Generated_Source\PSoC5/USBUART_cdc.c **** *
 802:Generated_Source\PSoC5/USBUART_cdc.c **** *******************************************************************************/
 803:Generated_Source\PSoC5/USBUART_cdc.c **** uint32 USBUART_GetDTERate(void) 
 804:Generated_Source\PSoC5/USBUART_cdc.c **** {
 1241              		.loc 1 804 0
 1242              		.cfi_startproc
 1243              		@ args = 0, pretend = 0, frame = 8
 1244              		@ frame_needed = 1, uses_anonymous_args = 0
 1245              		@ link register save eliminated.
 1246 0000 80B4     		push	{r7}
 1247              		.cfi_def_cfa_offset 4
 1248              		.cfi_offset 7, -4
 1249 0002 83B0     		sub	sp, sp, #12
 1250              		.cfi_def_cfa_offset 16
 1251 0004 00AF     		add	r7, sp, #0
 1252              		.cfi_def_cfa_register 7
 805:Generated_Source\PSoC5/USBUART_cdc.c ****     uint32 rate;
 806:Generated_Source\PSoC5/USBUART_cdc.c **** 
 807:Generated_Source\PSoC5/USBUART_cdc.c ****     rate = USBUART_linesCoding[USBUART_activeCom][USBUART_LINE_CODING_RATE + 3u];
 1253              		.loc 1 807 0
 1254 0006 1F4B     		ldr	r3, .L85
 1255 0008 1B78     		ldrb	r3, [r3]	@ zero_extendqisi2
 1256 000a 1946     		mov	r1, r3
 1257 000c 1E4A     		ldr	r2, .L85+4
 1258 000e 0B46     		mov	r3, r1
 1259 0010 DB00     		lsls	r3, r3, #3
 1260 0012 5B1A     		subs	r3, r3, r1
 1261 0014 1344     		add	r3, r3, r2
 1262 0016 0333     		adds	r3, r3, #3
 1263 0018 1B78     		ldrb	r3, [r3]
 1264 001a DBB2     		uxtb	r3, r3
 1265 001c 7B60     		str	r3, [r7, #4]
 808:Generated_Source\PSoC5/USBUART_cdc.c ****     rate = (rate << 8u) | USBUART_linesCoding[USBUART_activeCom][USBUART_LINE_CODING_RATE + 2u];
 1266              		.loc 1 808 0
 1267 001e 7B68     		ldr	r3, [r7, #4]
 1268 0020 1A02     		lsls	r2, r3, #8
 1269 0022 184B     		ldr	r3, .L85
 1270 0024 1B78     		ldrb	r3, [r3]	@ zero_extendqisi2
 1271 0026 1846     		mov	r0, r3
 1272 0028 1749     		ldr	r1, .L85+4
 1273 002a 0346     		mov	r3, r0
 1274 002c DB00     		lsls	r3, r3, #3
 1275 002e 1B1A     		subs	r3, r3, r0
 1276 0030 0B44     		add	r3, r3, r1
 1277 0032 0233     		adds	r3, r3, #2
 1278 0034 1B78     		ldrb	r3, [r3]
 1279 0036 DBB2     		uxtb	r3, r3
 1280 0038 1343     		orrs	r3, r3, r2
 1281 003a 7B60     		str	r3, [r7, #4]
ARM GAS  C:\Users\Greg\AppData\Local\Temp\ccDYSYHP.s 			page 38


 809:Generated_Source\PSoC5/USBUART_cdc.c ****     rate = (rate << 8u) | USBUART_linesCoding[USBUART_activeCom][USBUART_LINE_CODING_RATE + 1u];
 1282              		.loc 1 809 0
 1283 003c 7B68     		ldr	r3, [r7, #4]
 1284 003e 1A02     		lsls	r2, r3, #8
 1285 0040 104B     		ldr	r3, .L85
 1286 0042 1B78     		ldrb	r3, [r3]	@ zero_extendqisi2
 1287 0044 1846     		mov	r0, r3
 1288 0046 1049     		ldr	r1, .L85+4
 1289 0048 0346     		mov	r3, r0
 1290 004a DB00     		lsls	r3, r3, #3
 1291 004c 1B1A     		subs	r3, r3, r0
 1292 004e 0B44     		add	r3, r3, r1
 1293 0050 0133     		adds	r3, r3, #1
 1294 0052 1B78     		ldrb	r3, [r3]
 1295 0054 DBB2     		uxtb	r3, r3
 1296 0056 1343     		orrs	r3, r3, r2
 1297 0058 7B60     		str	r3, [r7, #4]
 810:Generated_Source\PSoC5/USBUART_cdc.c ****     rate = (rate << 8u) | USBUART_linesCoding[USBUART_activeCom][USBUART_LINE_CODING_RATE];
 1298              		.loc 1 810 0
 1299 005a 7B68     		ldr	r3, [r7, #4]
 1300 005c 1A02     		lsls	r2, r3, #8
 1301 005e 094B     		ldr	r3, .L85
 1302 0060 1B78     		ldrb	r3, [r3]	@ zero_extendqisi2
 1303 0062 1846     		mov	r0, r3
 1304 0064 0849     		ldr	r1, .L85+4
 1305 0066 0346     		mov	r3, r0
 1306 0068 DB00     		lsls	r3, r3, #3
 1307 006a 1B1A     		subs	r3, r3, r0
 1308 006c 0B44     		add	r3, r3, r1
 1309 006e 1B78     		ldrb	r3, [r3]
 1310 0070 DBB2     		uxtb	r3, r3
 1311 0072 1343     		orrs	r3, r3, r2
 1312 0074 7B60     		str	r3, [r7, #4]
 811:Generated_Source\PSoC5/USBUART_cdc.c **** 
 812:Generated_Source\PSoC5/USBUART_cdc.c ****     return (rate);
 1313              		.loc 1 812 0
 1314 0076 7B68     		ldr	r3, [r7, #4]
 813:Generated_Source\PSoC5/USBUART_cdc.c **** }
 1315              		.loc 1 813 0
 1316 0078 1846     		mov	r0, r3
 1317 007a 0C37     		adds	r7, r7, #12
 1318              		.cfi_def_cfa_offset 4
 1319 007c BD46     		mov	sp, r7
 1320              		.cfi_def_cfa_register 13
 1321              		@ sp needed
 1322 007e 5DF8047B 		ldr	r7, [sp], #4
 1323              		.cfi_restore 7
 1324              		.cfi_def_cfa_offset 0
 1325 0082 7047     		bx	lr
 1326              	.L86:
 1327              		.align	2
 1328              	.L85:
 1329 0084 00000000 		.word	USBUART_activeCom
 1330 0088 00000000 		.word	USBUART_linesCoding
 1331              		.cfi_endproc
 1332              	.LFE15:
 1333              		.size	USBUART_GetDTERate, .-USBUART_GetDTERate
ARM GAS  C:\Users\Greg\AppData\Local\Temp\ccDYSYHP.s 			page 39


 1334              		.section	.text.USBUART_GetCharFormat,"ax",%progbits
 1335              		.align	2
 1336              		.global	USBUART_GetCharFormat
 1337              		.thumb
 1338              		.thumb_func
 1339              		.type	USBUART_GetCharFormat, %function
 1340              	USBUART_GetCharFormat:
 1341              	.LFB16:
 814:Generated_Source\PSoC5/USBUART_cdc.c **** 
 815:Generated_Source\PSoC5/USBUART_cdc.c **** 
 816:Generated_Source\PSoC5/USBUART_cdc.c **** /*******************************************************************************
 817:Generated_Source\PSoC5/USBUART_cdc.c **** * Function Name: USBUART_GetCharFormat
 818:Generated_Source\PSoC5/USBUART_cdc.c **** ****************************************************************************//**
 819:Generated_Source\PSoC5/USBUART_cdc.c **** *
 820:Generated_Source\PSoC5/USBUART_cdc.c **** *  Returns the number of stop bits.
 821:Generated_Source\PSoC5/USBUART_cdc.c **** *
 822:Generated_Source\PSoC5/USBUART_cdc.c **** * \return
 823:Generated_Source\PSoC5/USBUART_cdc.c **** *  Returns the number of stop bits.
 824:Generated_Source\PSoC5/USBUART_cdc.c **** *  Return               |Value Description
 825:Generated_Source\PSoC5/USBUART_cdc.c **** *  ---------------------|-------------------
 826:Generated_Source\PSoC5/USBUART_cdc.c **** *  USBUART_1_STOPBIT    | 1 stop bit
 827:Generated_Source\PSoC5/USBUART_cdc.c **** *  USBUART_1_5_STOPBITS | 1,5 stop bits
 828:Generated_Source\PSoC5/USBUART_cdc.c **** *  USBUART_2_STOPBITS   | 2 stop bits
 829:Generated_Source\PSoC5/USBUART_cdc.c **** *
 830:Generated_Source\PSoC5/USBUART_cdc.c **** *
 831:Generated_Source\PSoC5/USBUART_cdc.c **** * \globalvars
 832:Generated_Source\PSoC5/USBUART_cdc.c **** *  USBUART_linesCoding: used to get a parameter.
 833:Generated_Source\PSoC5/USBUART_cdc.c **** *
 834:Generated_Source\PSoC5/USBUART_cdc.c **** *******************************************************************************/
 835:Generated_Source\PSoC5/USBUART_cdc.c **** uint8 USBUART_GetCharFormat(void) 
 836:Generated_Source\PSoC5/USBUART_cdc.c **** {
 1342              		.loc 1 836 0
 1343              		.cfi_startproc
 1344              		@ args = 0, pretend = 0, frame = 0
 1345              		@ frame_needed = 1, uses_anonymous_args = 0
 1346              		@ link register save eliminated.
 1347 0000 80B4     		push	{r7}
 1348              		.cfi_def_cfa_offset 4
 1349              		.cfi_offset 7, -4
 1350 0002 00AF     		add	r7, sp, #0
 1351              		.cfi_def_cfa_register 7
 837:Generated_Source\PSoC5/USBUART_cdc.c ****     return (USBUART_linesCoding[USBUART_activeCom][USBUART_LINE_CODING_STOP_BITS]);
 1352              		.loc 1 837 0
 1353 0004 074B     		ldr	r3, .L89
 1354 0006 1B78     		ldrb	r3, [r3]	@ zero_extendqisi2
 1355 0008 1946     		mov	r1, r3
 1356 000a 074A     		ldr	r2, .L89+4
 1357 000c 0B46     		mov	r3, r1
 1358 000e DB00     		lsls	r3, r3, #3
 1359 0010 5B1A     		subs	r3, r3, r1
 1360 0012 1344     		add	r3, r3, r2
 1361 0014 0433     		adds	r3, r3, #4
 1362 0016 1B78     		ldrb	r3, [r3]
 1363 0018 DBB2     		uxtb	r3, r3
 838:Generated_Source\PSoC5/USBUART_cdc.c **** }
 1364              		.loc 1 838 0
 1365 001a 1846     		mov	r0, r3
ARM GAS  C:\Users\Greg\AppData\Local\Temp\ccDYSYHP.s 			page 40


 1366 001c BD46     		mov	sp, r7
 1367              		.cfi_def_cfa_register 13
 1368              		@ sp needed
 1369 001e 5DF8047B 		ldr	r7, [sp], #4
 1370              		.cfi_restore 7
 1371              		.cfi_def_cfa_offset 0
 1372 0022 7047     		bx	lr
 1373              	.L90:
 1374              		.align	2
 1375              	.L89:
 1376 0024 00000000 		.word	USBUART_activeCom
 1377 0028 00000000 		.word	USBUART_linesCoding
 1378              		.cfi_endproc
 1379              	.LFE16:
 1380              		.size	USBUART_GetCharFormat, .-USBUART_GetCharFormat
 1381              		.section	.text.USBUART_GetParityType,"ax",%progbits
 1382              		.align	2
 1383              		.global	USBUART_GetParityType
 1384              		.thumb
 1385              		.thumb_func
 1386              		.type	USBUART_GetParityType, %function
 1387              	USBUART_GetParityType:
 1388              	.LFB17:
 839:Generated_Source\PSoC5/USBUART_cdc.c **** 
 840:Generated_Source\PSoC5/USBUART_cdc.c **** 
 841:Generated_Source\PSoC5/USBUART_cdc.c **** /*******************************************************************************
 842:Generated_Source\PSoC5/USBUART_cdc.c **** * Function Name: USBUART_GetParityType
 843:Generated_Source\PSoC5/USBUART_cdc.c **** ****************************************************************************//**
 844:Generated_Source\PSoC5/USBUART_cdc.c **** *
 845:Generated_Source\PSoC5/USBUART_cdc.c **** *  This function returns the parity type for the CDC port.
 846:Generated_Source\PSoC5/USBUART_cdc.c **** *
 847:Generated_Source\PSoC5/USBUART_cdc.c **** * \return
 848:Generated_Source\PSoC5/USBUART_cdc.c **** *  Returns the parity type.
 849:Generated_Source\PSoC5/USBUART_cdc.c **** *   Return               | Value Description
 850:Generated_Source\PSoC5/USBUART_cdc.c **** *  ----------------------|-------------------
 851:Generated_Source\PSoC5/USBUART_cdc.c **** *  USBUART_PARITY_NONE   | 1 stop bit
 852:Generated_Source\PSoC5/USBUART_cdc.c **** *  USBUART_PARITY_ODD    | 1,5 stop bits
 853:Generated_Source\PSoC5/USBUART_cdc.c **** *  USBUART_PARITY_EVEN   | 2 stop bits
 854:Generated_Source\PSoC5/USBUART_cdc.c **** *  USBUART_PARITY_MARK   | Mark
 855:Generated_Source\PSoC5/USBUART_cdc.c **** *  USBUART_PARITY_SPACE  | Space
 856:Generated_Source\PSoC5/USBUART_cdc.c **** *
 857:Generated_Source\PSoC5/USBUART_cdc.c **** * \globalvars
 858:Generated_Source\PSoC5/USBUART_cdc.c **** *  USBUART_linesCoding: used to get a parameter.
 859:Generated_Source\PSoC5/USBUART_cdc.c **** *
 860:Generated_Source\PSoC5/USBUART_cdc.c **** *******************************************************************************/
 861:Generated_Source\PSoC5/USBUART_cdc.c **** uint8 USBUART_GetParityType(void) 
 862:Generated_Source\PSoC5/USBUART_cdc.c **** {
 1389              		.loc 1 862 0
 1390              		.cfi_startproc
 1391              		@ args = 0, pretend = 0, frame = 0
 1392              		@ frame_needed = 1, uses_anonymous_args = 0
 1393              		@ link register save eliminated.
 1394 0000 80B4     		push	{r7}
 1395              		.cfi_def_cfa_offset 4
 1396              		.cfi_offset 7, -4
 1397 0002 00AF     		add	r7, sp, #0
 1398              		.cfi_def_cfa_register 7
ARM GAS  C:\Users\Greg\AppData\Local\Temp\ccDYSYHP.s 			page 41


 863:Generated_Source\PSoC5/USBUART_cdc.c ****     return (USBUART_linesCoding[USBUART_activeCom][USBUART_LINE_CODING_PARITY]);
 1399              		.loc 1 863 0
 1400 0004 074B     		ldr	r3, .L93
 1401 0006 1B78     		ldrb	r3, [r3]	@ zero_extendqisi2
 1402 0008 1946     		mov	r1, r3
 1403 000a 074A     		ldr	r2, .L93+4
 1404 000c 0B46     		mov	r3, r1
 1405 000e DB00     		lsls	r3, r3, #3
 1406 0010 5B1A     		subs	r3, r3, r1
 1407 0012 1344     		add	r3, r3, r2
 1408 0014 0533     		adds	r3, r3, #5
 1409 0016 1B78     		ldrb	r3, [r3]
 1410 0018 DBB2     		uxtb	r3, r3
 864:Generated_Source\PSoC5/USBUART_cdc.c **** }
 1411              		.loc 1 864 0
 1412 001a 1846     		mov	r0, r3
 1413 001c BD46     		mov	sp, r7
 1414              		.cfi_def_cfa_register 13
 1415              		@ sp needed
 1416 001e 5DF8047B 		ldr	r7, [sp], #4
 1417              		.cfi_restore 7
 1418              		.cfi_def_cfa_offset 0
 1419 0022 7047     		bx	lr
 1420              	.L94:
 1421              		.align	2
 1422              	.L93:
 1423 0024 00000000 		.word	USBUART_activeCom
 1424 0028 00000000 		.word	USBUART_linesCoding
 1425              		.cfi_endproc
 1426              	.LFE17:
 1427              		.size	USBUART_GetParityType, .-USBUART_GetParityType
 1428              		.section	.text.USBUART_GetDataBits,"ax",%progbits
 1429              		.align	2
 1430              		.global	USBUART_GetDataBits
 1431              		.thumb
 1432              		.thumb_func
 1433              		.type	USBUART_GetDataBits, %function
 1434              	USBUART_GetDataBits:
 1435              	.LFB18:
 865:Generated_Source\PSoC5/USBUART_cdc.c **** 
 866:Generated_Source\PSoC5/USBUART_cdc.c **** 
 867:Generated_Source\PSoC5/USBUART_cdc.c **** /***************************************************************************
 868:Generated_Source\PSoC5/USBUART_cdc.c **** * Function Name: USBUART_GetDataBits
 869:Generated_Source\PSoC5/USBUART_cdc.c **** ************************************************************************//**
 870:Generated_Source\PSoC5/USBUART_cdc.c **** *
 871:Generated_Source\PSoC5/USBUART_cdc.c **** *  This function returns the number of data bits for the CDC port.
 872:Generated_Source\PSoC5/USBUART_cdc.c **** *
 873:Generated_Source\PSoC5/USBUART_cdc.c **** * \return
 874:Generated_Source\PSoC5/USBUART_cdc.c **** *  Returns the number of data bits.
 875:Generated_Source\PSoC5/USBUART_cdc.c **** *  The number of data bits can be 5, 6, 7, 8 or 16.
 876:Generated_Source\PSoC5/USBUART_cdc.c **** *
 877:Generated_Source\PSoC5/USBUART_cdc.c **** * \globalvars
 878:Generated_Source\PSoC5/USBUART_cdc.c **** *  USBUART_linesCoding: used to get a parameter.
 879:Generated_Source\PSoC5/USBUART_cdc.c **** *
 880:Generated_Source\PSoC5/USBUART_cdc.c **** *******************************************************************************/
 881:Generated_Source\PSoC5/USBUART_cdc.c **** uint8 USBUART_GetDataBits(void) 
 882:Generated_Source\PSoC5/USBUART_cdc.c **** {
ARM GAS  C:\Users\Greg\AppData\Local\Temp\ccDYSYHP.s 			page 42


 1436              		.loc 1 882 0
 1437              		.cfi_startproc
 1438              		@ args = 0, pretend = 0, frame = 0
 1439              		@ frame_needed = 1, uses_anonymous_args = 0
 1440              		@ link register save eliminated.
 1441 0000 80B4     		push	{r7}
 1442              		.cfi_def_cfa_offset 4
 1443              		.cfi_offset 7, -4
 1444 0002 00AF     		add	r7, sp, #0
 1445              		.cfi_def_cfa_register 7
 883:Generated_Source\PSoC5/USBUART_cdc.c ****     return (USBUART_linesCoding[USBUART_activeCom][USBUART_LINE_CODING_DATA_BITS]);
 1446              		.loc 1 883 0
 1447 0004 074B     		ldr	r3, .L97
 1448 0006 1B78     		ldrb	r3, [r3]	@ zero_extendqisi2
 1449 0008 1946     		mov	r1, r3
 1450 000a 074A     		ldr	r2, .L97+4
 1451 000c 0B46     		mov	r3, r1
 1452 000e DB00     		lsls	r3, r3, #3
 1453 0010 5B1A     		subs	r3, r3, r1
 1454 0012 1344     		add	r3, r3, r2
 1455 0014 0633     		adds	r3, r3, #6
 1456 0016 1B78     		ldrb	r3, [r3]
 1457 0018 DBB2     		uxtb	r3, r3
 884:Generated_Source\PSoC5/USBUART_cdc.c **** }
 1458              		.loc 1 884 0
 1459 001a 1846     		mov	r0, r3
 1460 001c BD46     		mov	sp, r7
 1461              		.cfi_def_cfa_register 13
 1462              		@ sp needed
 1463 001e 5DF8047B 		ldr	r7, [sp], #4
 1464              		.cfi_restore 7
 1465              		.cfi_def_cfa_offset 0
 1466 0022 7047     		bx	lr
 1467              	.L98:
 1468              		.align	2
 1469              	.L97:
 1470 0024 00000000 		.word	USBUART_activeCom
 1471 0028 00000000 		.word	USBUART_linesCoding
 1472              		.cfi_endproc
 1473              	.LFE18:
 1474              		.size	USBUART_GetDataBits, .-USBUART_GetDataBits
 1475              		.section	.text.USBUART_GetLineControl,"ax",%progbits
 1476              		.align	2
 1477              		.global	USBUART_GetLineControl
 1478              		.thumb
 1479              		.thumb_func
 1480              		.type	USBUART_GetLineControl, %function
 1481              	USBUART_GetLineControl:
 1482              	.LFB19:
 885:Generated_Source\PSoC5/USBUART_cdc.c **** 
 886:Generated_Source\PSoC5/USBUART_cdc.c **** 
 887:Generated_Source\PSoC5/USBUART_cdc.c **** /***************************************************************************
 888:Generated_Source\PSoC5/USBUART_cdc.c **** * Function Name: USBUART_GetLineControl
 889:Generated_Source\PSoC5/USBUART_cdc.c **** ************************************************************************//**
 890:Generated_Source\PSoC5/USBUART_cdc.c **** *
 891:Generated_Source\PSoC5/USBUART_cdc.c **** *  This function returns Line control bitmap that the host sends to the
 892:Generated_Source\PSoC5/USBUART_cdc.c **** *  device.
ARM GAS  C:\Users\Greg\AppData\Local\Temp\ccDYSYHP.s 			page 43


 893:Generated_Source\PSoC5/USBUART_cdc.c **** *
 894:Generated_Source\PSoC5/USBUART_cdc.c **** * \return
 895:Generated_Source\PSoC5/USBUART_cdc.c **** *  Returns Line control bitmap.
 896:Generated_Source\PSoC5/USBUART_cdc.c **** *  Return                   |Value Notes
 897:Generated_Source\PSoC5/USBUART_cdc.c **** *  -------------------------|-----------------------------------------------
 898:Generated_Source\PSoC5/USBUART_cdc.c **** *  USBUART_LINE_CONTROL_DTR |Indicates that a DTR signal is present. This signal corresponds to V.2
 899:Generated_Source\PSoC5/USBUART_cdc.c **** *  USBUART_LINE_CONTROL_RTS |Carrier control for half-duplex modems. This signal corresponds to V.2
 900:Generated_Source\PSoC5/USBUART_cdc.c **** *  RESERVED                 |The rest of the bits are reserved.
 901:Generated_Source\PSoC5/USBUART_cdc.c **** *
 902:Generated_Source\PSoC5/USBUART_cdc.c **** *  *Note* Some terminal emulation programs do not properly handle these
 903:Generated_Source\PSoC5/USBUART_cdc.c **** *  control signals. They update information about DTR and RTS state only
 904:Generated_Source\PSoC5/USBUART_cdc.c **** *  when the RTS signal changes the state.
 905:Generated_Source\PSoC5/USBUART_cdc.c **** *
 906:Generated_Source\PSoC5/USBUART_cdc.c **** * \globalvars
 907:Generated_Source\PSoC5/USBUART_cdc.c **** *  USBUART_linesControlBitmap: used to get a parameter.
 908:Generated_Source\PSoC5/USBUART_cdc.c **** *
 909:Generated_Source\PSoC5/USBUART_cdc.c **** *******************************************************************************/
 910:Generated_Source\PSoC5/USBUART_cdc.c **** uint16 USBUART_GetLineControl(void) 
 911:Generated_Source\PSoC5/USBUART_cdc.c **** {
 1483              		.loc 1 911 0
 1484              		.cfi_startproc
 1485              		@ args = 0, pretend = 0, frame = 0
 1486              		@ frame_needed = 1, uses_anonymous_args = 0
 1487              		@ link register save eliminated.
 1488 0000 80B4     		push	{r7}
 1489              		.cfi_def_cfa_offset 4
 1490              		.cfi_offset 7, -4
 1491 0002 00AF     		add	r7, sp, #0
 1492              		.cfi_def_cfa_register 7
 912:Generated_Source\PSoC5/USBUART_cdc.c ****     return (USBUART_linesControlBitmap[USBUART_activeCom]);
 1493              		.loc 1 912 0
 1494 0004 054B     		ldr	r3, .L101
 1495 0006 1B78     		ldrb	r3, [r3]	@ zero_extendqisi2
 1496 0008 1A46     		mov	r2, r3
 1497 000a 054B     		ldr	r3, .L101+4
 1498 000c 33F81230 		ldrh	r3, [r3, r2, lsl #1]	@ movhi
 1499 0010 9BB2     		uxth	r3, r3
 913:Generated_Source\PSoC5/USBUART_cdc.c **** }
 1500              		.loc 1 913 0
 1501 0012 1846     		mov	r0, r3
 1502 0014 BD46     		mov	sp, r7
 1503              		.cfi_def_cfa_register 13
 1504              		@ sp needed
 1505 0016 5DF8047B 		ldr	r7, [sp], #4
 1506              		.cfi_restore 7
 1507              		.cfi_def_cfa_offset 0
 1508 001a 7047     		bx	lr
 1509              	.L102:
 1510              		.align	2
 1511              	.L101:
 1512 001c 00000000 		.word	USBUART_activeCom
 1513 0020 00000000 		.word	USBUART_linesControlBitmap
 1514              		.cfi_endproc
 1515              	.LFE19:
 1516              		.size	USBUART_GetLineControl, .-USBUART_GetLineControl
 1517              		.section	.text.USBUART_SendSerialState,"ax",%progbits
 1518              		.align	2
ARM GAS  C:\Users\Greg\AppData\Local\Temp\ccDYSYHP.s 			page 44


 1519              		.global	USBUART_SendSerialState
 1520              		.thumb
 1521              		.thumb_func
 1522              		.type	USBUART_SendSerialState, %function
 1523              	USBUART_SendSerialState:
 1524              	.LFB20:
 914:Generated_Source\PSoC5/USBUART_cdc.c **** 
 915:Generated_Source\PSoC5/USBUART_cdc.c **** 
 916:Generated_Source\PSoC5/USBUART_cdc.c **** /*******************************************************************************
 917:Generated_Source\PSoC5/USBUART_cdc.c **** * Function Name: USBUART_SendSerialState
 918:Generated_Source\PSoC5/USBUART_cdc.c **** ****************************************************************************//**
 919:Generated_Source\PSoC5/USBUART_cdc.c **** *
 920:Generated_Source\PSoC5/USBUART_cdc.c **** *  Sends the serial state notification to the host using the interrupt
 921:Generated_Source\PSoC5/USBUART_cdc.c **** *  endpoint for the COM port selected using the API SetComPort().The
 922:Generated_Source\PSoC5/USBUART_cdc.c **** *  USBUART_NotificationIsReady() API must be called to check if the
 923:Generated_Source\PSoC5/USBUART_cdc.c **** *  Component is ready to send more serial state to the host. The API will
 924:Generated_Source\PSoC5/USBUART_cdc.c **** *  not send the notification data if the interrupt endpoint Max Packet Size
 925:Generated_Source\PSoC5/USBUART_cdc.c **** *  is less than the required 10 bytes.
 926:Generated_Source\PSoC5/USBUART_cdc.c **** *
 927:Generated_Source\PSoC5/USBUART_cdc.c **** * \param uint16 serialState
 928:Generated_Source\PSoC5/USBUART_cdc.c **** *  16-bit value that will be sent from the device to the
 929:Generated_Source\PSoC5/USBUART_cdc.c **** *  host as SERIAL_STATE notification using the IN interrupt endpoint. Refer
 930:Generated_Source\PSoC5/USBUART_cdc.c **** *  to revision 1.2 of the CDC PSTN Subclass specification for bit field
 931:Generated_Source\PSoC5/USBUART_cdc.c **** *  definitions of the 16-bit serial state value.
 932:Generated_Source\PSoC5/USBUART_cdc.c **** *
 933:Generated_Source\PSoC5/USBUART_cdc.c **** *******************************************************************************/
 934:Generated_Source\PSoC5/USBUART_cdc.c **** void USBUART_SendSerialState (uint16 serialState) 
 935:Generated_Source\PSoC5/USBUART_cdc.c **** {
 1525              		.loc 1 935 0
 1526              		.cfi_startproc
 1527              		@ args = 0, pretend = 0, frame = 16
 1528              		@ frame_needed = 1, uses_anonymous_args = 0
 1529 0000 80B5     		push	{r7, lr}
 1530              		.cfi_def_cfa_offset 8
 1531              		.cfi_offset 7, -8
 1532              		.cfi_offset 14, -4
 1533 0002 84B0     		sub	sp, sp, #16
 1534              		.cfi_def_cfa_offset 24
 1535 0004 00AF     		add	r7, sp, #0
 1536              		.cfi_def_cfa_register 7
 1537 0006 0346     		mov	r3, r0
 1538 0008 FB80     		strh	r3, [r7, #6]	@ movhi
 936:Generated_Source\PSoC5/USBUART_cdc.c ****     uint8 epNumber = USBUART_cdcCommInInterruptEp[USBUART_activeCom];
 1539              		.loc 1 936 0
 1540 000a 224B     		ldr	r3, .L105
 1541 000c 1B78     		ldrb	r3, [r3]	@ zero_extendqisi2
 1542 000e 1A46     		mov	r2, r3
 1543 0010 214B     		ldr	r3, .L105+4
 1544 0012 9B5C     		ldrb	r3, [r3, r2]
 1545 0014 FB73     		strb	r3, [r7, #15]
 937:Generated_Source\PSoC5/USBUART_cdc.c **** 
 938:Generated_Source\PSoC5/USBUART_cdc.c ****     if(USBUART_SERIAL_STATE_SIZE <= USBUART_EP[epNumber].bufferSize)
 1546              		.loc 1 938 0
 1547 0016 FA7B     		ldrb	r2, [r7, #15]	@ zero_extendqisi2
 1548 0018 2049     		ldr	r1, .L105+8
 1549 001a 1346     		mov	r3, r2
 1550 001c 5B00     		lsls	r3, r3, #1
ARM GAS  C:\Users\Greg\AppData\Local\Temp\ccDYSYHP.s 			page 45


 1551 001e 1344     		add	r3, r3, r2
 1552 0020 9B00     		lsls	r3, r3, #2
 1553 0022 0B44     		add	r3, r3, r1
 1554 0024 0833     		adds	r3, r3, #8
 1555 0026 1B88     		ldrh	r3, [r3]	@ movhi
 1556 0028 9BB2     		uxth	r3, r3
 1557 002a 092B     		cmp	r3, #9
 1558 002c 2ED9     		bls	.L103
 939:Generated_Source\PSoC5/USBUART_cdc.c ****     {
 940:Generated_Source\PSoC5/USBUART_cdc.c ****         /* Save current SERIAL_STATE bitmap. */
 941:Generated_Source\PSoC5/USBUART_cdc.c ****         USBUART_serialStateBitmap[USBUART_activeCom] = serialState;
 1559              		.loc 1 941 0
 1560 002e 194B     		ldr	r3, .L105
 1561 0030 1B78     		ldrb	r3, [r3]	@ zero_extendqisi2
 1562 0032 1946     		mov	r1, r3
 1563 0034 1A4A     		ldr	r2, .L105+12
 1564 0036 FB88     		ldrh	r3, [r7, #6]	@ movhi
 1565 0038 22F81130 		strh	r3, [r2, r1, lsl #1]	@ movhi
 942:Generated_Source\PSoC5/USBUART_cdc.c **** 
 943:Generated_Source\PSoC5/USBUART_cdc.c ****         /* Add interface number */
 944:Generated_Source\PSoC5/USBUART_cdc.c ****         USBUART_serialStateNotification.wIndex = USBUART_EP[epNumber].interface;
 1566              		.loc 1 944 0
 1567 003c FA7B     		ldrb	r2, [r7, #15]	@ zero_extendqisi2
 1568 003e 1749     		ldr	r1, .L105+8
 1569 0040 1346     		mov	r3, r2
 1570 0042 5B00     		lsls	r3, r3, #1
 1571 0044 1344     		add	r3, r3, r2
 1572 0046 9B00     		lsls	r3, r3, #2
 1573 0048 0B44     		add	r3, r3, r1
 1574 004a 0833     		adds	r3, r3, #8
 1575 004c 9B78     		ldrb	r3, [r3, #2]
 1576 004e DAB2     		uxtb	r2, r3
 1577 0050 144B     		ldr	r3, .L105+16
 1578 0052 1A71     		strb	r2, [r3, #4]
 945:Generated_Source\PSoC5/USBUART_cdc.c **** 
 946:Generated_Source\PSoC5/USBUART_cdc.c ****         /*Form SERIAL_STATE data*/
 947:Generated_Source\PSoC5/USBUART_cdc.c ****         USBUART_serialStateNotification.wSerialState =    LO8(USBUART_serialStateBitmap[USBUART_act
 1579              		.loc 1 947 0
 1580 0054 0F4B     		ldr	r3, .L105
 1581 0056 1B78     		ldrb	r3, [r3]	@ zero_extendqisi2
 1582 0058 1A46     		mov	r2, r3
 1583 005a 114B     		ldr	r3, .L105+12
 1584 005c 33F81230 		ldrh	r3, [r3, r2, lsl #1]	@ movhi
 1585 0060 9BB2     		uxth	r3, r3
 1586 0062 DAB2     		uxtb	r2, r3
 1587 0064 0F4B     		ldr	r3, .L105+16
 1588 0066 1A72     		strb	r2, [r3, #8]
 948:Generated_Source\PSoC5/USBUART_cdc.c ****         USBUART_serialStateNotification.wSerialStateMSB = HI8(USBUART_serialStateBitmap[USBUART_act
 1589              		.loc 1 948 0
 1590 0068 0A4B     		ldr	r3, .L105
 1591 006a 1B78     		ldrb	r3, [r3]	@ zero_extendqisi2
 1592 006c 1A46     		mov	r2, r3
 1593 006e 0C4B     		ldr	r3, .L105+12
 1594 0070 33F81230 		ldrh	r3, [r3, r2, lsl #1]	@ movhi
 1595 0074 9BB2     		uxth	r3, r3
 1596 0076 1B0A     		lsrs	r3, r3, #8
 1597 0078 9BB2     		uxth	r3, r3
ARM GAS  C:\Users\Greg\AppData\Local\Temp\ccDYSYHP.s 			page 46


 1598 007a DAB2     		uxtb	r2, r3
 1599 007c 094B     		ldr	r3, .L105+16
 1600 007e 5A72     		strb	r2, [r3, #9]
 949:Generated_Source\PSoC5/USBUART_cdc.c **** 
 950:Generated_Source\PSoC5/USBUART_cdc.c ****         USBUART_LoadInEP(epNumber, (uint8 *) &USBUART_serialStateNotification, sizeof(USBUART_seria
 1601              		.loc 1 950 0
 1602 0080 FB7B     		ldrb	r3, [r7, #15]	@ zero_extendqisi2
 1603 0082 1846     		mov	r0, r3
 1604 0084 0749     		ldr	r1, .L105+16
 1605 0086 0A22     		movs	r2, #10
 1606 0088 FFF7FEFF 		bl	USBUART_LoadInEP
 1607              	.L103:
 951:Generated_Source\PSoC5/USBUART_cdc.c ****     }
 952:Generated_Source\PSoC5/USBUART_cdc.c **** }
 1608              		.loc 1 952 0
 1609 008c 1037     		adds	r7, r7, #16
 1610              		.cfi_def_cfa_offset 8
 1611 008e BD46     		mov	sp, r7
 1612              		.cfi_def_cfa_register 13
 1613              		@ sp needed
 1614 0090 80BD     		pop	{r7, pc}
 1615              	.L106:
 1616 0092 00BF     		.align	2
 1617              	.L105:
 1618 0094 00000000 		.word	USBUART_activeCom
 1619 0098 00000000 		.word	USBUART_cdcCommInInterruptEp
 1620 009c 00000000 		.word	USBUART_EP
 1621 00a0 00000000 		.word	USBUART_serialStateBitmap
 1622 00a4 10000000 		.word	USBUART_serialStateNotification
 1623              		.cfi_endproc
 1624              	.LFE20:
 1625              		.size	USBUART_SendSerialState, .-USBUART_SendSerialState
 1626              		.section	.text.USBUART_GetSerialState,"ax",%progbits
 1627              		.align	2
 1628              		.global	USBUART_GetSerialState
 1629              		.thumb
 1630              		.thumb_func
 1631              		.type	USBUART_GetSerialState, %function
 1632              	USBUART_GetSerialState:
 1633              	.LFB21:
 953:Generated_Source\PSoC5/USBUART_cdc.c **** 
 954:Generated_Source\PSoC5/USBUART_cdc.c **** 
 955:Generated_Source\PSoC5/USBUART_cdc.c **** /*******************************************************************************
 956:Generated_Source\PSoC5/USBUART_cdc.c **** * Function Name: USBUART_GetSerialState
 957:Generated_Source\PSoC5/USBUART_cdc.c **** ****************************************************************************//**
 958:Generated_Source\PSoC5/USBUART_cdc.c **** *
 959:Generated_Source\PSoC5/USBUART_cdc.c **** *  This function returns the current serial state value for the COM port
 960:Generated_Source\PSoC5/USBUART_cdc.c **** *  selected using the API SetComPort().
 961:Generated_Source\PSoC5/USBUART_cdc.c **** *
 962:Generated_Source\PSoC5/USBUART_cdc.c **** * \return
 963:Generated_Source\PSoC5/USBUART_cdc.c **** *  16-bit serial state value. Refer to revision 1.2 of the CDC PSTN Subclass
 964:Generated_Source\PSoC5/USBUART_cdc.c **** *  specification for bit field definitions of the 16-bit serial state value.
 965:Generated_Source\PSoC5/USBUART_cdc.c **** *
 966:Generated_Source\PSoC5/USBUART_cdc.c **** *******************************************************************************/
 967:Generated_Source\PSoC5/USBUART_cdc.c **** uint16 USBUART_GetSerialState(void) 
 968:Generated_Source\PSoC5/USBUART_cdc.c **** {
 1634              		.loc 1 968 0
ARM GAS  C:\Users\Greg\AppData\Local\Temp\ccDYSYHP.s 			page 47


 1635              		.cfi_startproc
 1636              		@ args = 0, pretend = 0, frame = 0
 1637              		@ frame_needed = 1, uses_anonymous_args = 0
 1638              		@ link register save eliminated.
 1639 0000 80B4     		push	{r7}
 1640              		.cfi_def_cfa_offset 4
 1641              		.cfi_offset 7, -4
 1642 0002 00AF     		add	r7, sp, #0
 1643              		.cfi_def_cfa_register 7
 969:Generated_Source\PSoC5/USBUART_cdc.c ****     return USBUART_serialStateBitmap[USBUART_activeCom];
 1644              		.loc 1 969 0
 1645 0004 054B     		ldr	r3, .L109
 1646 0006 1B78     		ldrb	r3, [r3]	@ zero_extendqisi2
 1647 0008 1A46     		mov	r2, r3
 1648 000a 054B     		ldr	r3, .L109+4
 1649 000c 33F81230 		ldrh	r3, [r3, r2, lsl #1]	@ movhi
 1650 0010 9BB2     		uxth	r3, r3
 970:Generated_Source\PSoC5/USBUART_cdc.c **** }
 1651              		.loc 1 970 0
 1652 0012 1846     		mov	r0, r3
 1653 0014 BD46     		mov	sp, r7
 1654              		.cfi_def_cfa_register 13
 1655              		@ sp needed
 1656 0016 5DF8047B 		ldr	r7, [sp], #4
 1657              		.cfi_restore 7
 1658              		.cfi_def_cfa_offset 0
 1659 001a 7047     		bx	lr
 1660              	.L110:
 1661              		.align	2
 1662              	.L109:
 1663 001c 00000000 		.word	USBUART_activeCom
 1664 0020 00000000 		.word	USBUART_serialStateBitmap
 1665              		.cfi_endproc
 1666              	.LFE21:
 1667              		.size	USBUART_GetSerialState, .-USBUART_GetSerialState
 1668              		.section	.text.USBUART_NotificationIsReady,"ax",%progbits
 1669              		.align	2
 1670              		.global	USBUART_NotificationIsReady
 1671              		.thumb
 1672              		.thumb_func
 1673              		.type	USBUART_NotificationIsReady, %function
 1674              	USBUART_NotificationIsReady:
 1675              	.LFB22:
 971:Generated_Source\PSoC5/USBUART_cdc.c **** 
 972:Generated_Source\PSoC5/USBUART_cdc.c **** 
 973:Generated_Source\PSoC5/USBUART_cdc.c **** /*******************************************************************************
 974:Generated_Source\PSoC5/USBUART_cdc.c **** * Function Name: USBUART_NotificationIsReady
 975:Generated_Source\PSoC5/USBUART_cdc.c **** ****************************************************************************//**
 976:Generated_Source\PSoC5/USBUART_cdc.c **** *
 977:Generated_Source\PSoC5/USBUART_cdc.c **** *  This function returns a non-zero value if the Component is ready to send
 978:Generated_Source\PSoC5/USBUART_cdc.c **** *  more notifications to the host; otherwise, it returns zero. The function
 979:Generated_Source\PSoC5/USBUART_cdc.c **** *  should be called before sending new notifications when using
 980:Generated_Source\PSoC5/USBUART_cdc.c **** *  USBUART_SendSerialState() to ensure that any previous
 981:Generated_Source\PSoC5/USBUART_cdc.c **** *  notification data has been already sent to the host.
 982:Generated_Source\PSoC5/USBUART_cdc.c **** *
 983:Generated_Source\PSoC5/USBUART_cdc.c **** * \return
 984:Generated_Source\PSoC5/USBUART_cdc.c **** *  If the buffer can accept new data(endpoint buffer not full), this
ARM GAS  C:\Users\Greg\AppData\Local\Temp\ccDYSYHP.s 			page 48


 985:Generated_Source\PSoC5/USBUART_cdc.c **** *  function returns a non-zero value. Otherwise, it returns zero.
 986:Generated_Source\PSoC5/USBUART_cdc.c **** *
 987:Generated_Source\PSoC5/USBUART_cdc.c **** * \globalvars
 988:Generated_Source\PSoC5/USBUART_cdc.c **** *   USBUART_cdcDataInEp: CDC IN endpoint number used.
 989:Generated_Source\PSoC5/USBUART_cdc.c **** *
 990:Generated_Source\PSoC5/USBUART_cdc.c **** *******************************************************************************/
 991:Generated_Source\PSoC5/USBUART_cdc.c **** uint8 USBUART_NotificationIsReady(void) 
 992:Generated_Source\PSoC5/USBUART_cdc.c **** {
 1676              		.loc 1 992 0
 1677              		.cfi_startproc
 1678              		@ args = 0, pretend = 0, frame = 0
 1679              		@ frame_needed = 1, uses_anonymous_args = 0
 1680              		@ link register save eliminated.
 1681 0000 80B4     		push	{r7}
 1682              		.cfi_def_cfa_offset 4
 1683              		.cfi_offset 7, -4
 1684 0002 00AF     		add	r7, sp, #0
 1685              		.cfi_def_cfa_register 7
 993:Generated_Source\PSoC5/USBUART_cdc.c ****     return (USBUART_EP[USBUART_cdcCommInInterruptEp[USBUART_activeCom]].apiEpState);
 1686              		.loc 1 993 0
 1687 0004 094B     		ldr	r3, .L113
 1688 0006 1B78     		ldrb	r3, [r3]	@ zero_extendqisi2
 1689 0008 1A46     		mov	r2, r3
 1690 000a 094B     		ldr	r3, .L113+4
 1691 000c 9B5C     		ldrb	r3, [r3, r2]
 1692 000e DBB2     		uxtb	r3, r3
 1693 0010 1946     		mov	r1, r3
 1694 0012 084A     		ldr	r2, .L113+8
 1695 0014 0B46     		mov	r3, r1
 1696 0016 5B00     		lsls	r3, r3, #1
 1697 0018 0B44     		add	r3, r3, r1
 1698 001a 9B00     		lsls	r3, r3, #2
 1699 001c 1344     		add	r3, r3, r2
 1700 001e 5B78     		ldrb	r3, [r3, #1]
 1701 0020 DBB2     		uxtb	r3, r3
 994:Generated_Source\PSoC5/USBUART_cdc.c **** }
 1702              		.loc 1 994 0
 1703 0022 1846     		mov	r0, r3
 1704 0024 BD46     		mov	sp, r7
 1705              		.cfi_def_cfa_register 13
 1706              		@ sp needed
 1707 0026 5DF8047B 		ldr	r7, [sp], #4
 1708              		.cfi_restore 7
 1709              		.cfi_def_cfa_offset 0
 1710 002a 7047     		bx	lr
 1711              	.L114:
 1712              		.align	2
 1713              	.L113:
 1714 002c 00000000 		.word	USBUART_activeCom
 1715 0030 00000000 		.word	USBUART_cdcCommInInterruptEp
 1716 0034 00000000 		.word	USBUART_EP
 1717              		.cfi_endproc
 1718              	.LFE22:
 1719              		.size	USBUART_NotificationIsReady, .-USBUART_NotificationIsReady
 1720              		.section	.text.USBUART_SetComPort,"ax",%progbits
 1721              		.align	2
 1722              		.global	USBUART_SetComPort
ARM GAS  C:\Users\Greg\AppData\Local\Temp\ccDYSYHP.s 			page 49


 1723              		.thumb
 1724              		.thumb_func
 1725              		.type	USBUART_SetComPort, %function
 1726              	USBUART_SetComPort:
 1727              	.LFB23:
 995:Generated_Source\PSoC5/USBUART_cdc.c **** 
 996:Generated_Source\PSoC5/USBUART_cdc.c **** 
 997:Generated_Source\PSoC5/USBUART_cdc.c **** /*******************************************************************************
 998:Generated_Source\PSoC5/USBUART_cdc.c **** * Function Name: USBUART_SetComPort
 999:Generated_Source\PSoC5/USBUART_cdc.c **** ****************************************************************************//**
1000:Generated_Source\PSoC5/USBUART_cdc.c **** *
1001:Generated_Source\PSoC5/USBUART_cdc.c **** *  This function allows the user to select from one of the two COM ports
1002:Generated_Source\PSoC5/USBUART_cdc.c **** *  they wish to address in the instance of having multiple COM ports
1003:Generated_Source\PSoC5/USBUART_cdc.c **** *  instantiated though the use of a composite device. Once set, all future
1004:Generated_Source\PSoC5/USBUART_cdc.c **** *  function calls related to the USBUART will be affected. This addressed
1005:Generated_Source\PSoC5/USBUART_cdc.c **** *  COM port can be changed during run time.
1006:Generated_Source\PSoC5/USBUART_cdc.c **** *
1007:Generated_Source\PSoC5/USBUART_cdc.c **** * \param comNumber
1008:Generated_Source\PSoC5/USBUART_cdc.c **** *  Contains the COM interface the user wishes to address. Value can either
1009:Generated_Source\PSoC5/USBUART_cdc.c **** *  be 0 or 1 since a maximum of only 2 COM ports can be supported. Note that
1010:Generated_Source\PSoC5/USBUART_cdc.c **** *  this COM port number is not the COM port number assigned on the PC side
1011:Generated_Source\PSoC5/USBUART_cdc.c **** *  for the UART communication. If a value greater than 1 is passed, the
1012:Generated_Source\PSoC5/USBUART_cdc.c **** *  function returns without performing any action.
1013:Generated_Source\PSoC5/USBUART_cdc.c **** *
1014:Generated_Source\PSoC5/USBUART_cdc.c **** *******************************************************************************/
1015:Generated_Source\PSoC5/USBUART_cdc.c **** void USBUART_SetComPort(uint8 comNumber) 
1016:Generated_Source\PSoC5/USBUART_cdc.c **** {
 1728              		.loc 1 1016 0
 1729              		.cfi_startproc
 1730              		@ args = 0, pretend = 0, frame = 8
 1731              		@ frame_needed = 1, uses_anonymous_args = 0
 1732              		@ link register save eliminated.
 1733 0000 80B4     		push	{r7}
 1734              		.cfi_def_cfa_offset 4
 1735              		.cfi_offset 7, -4
 1736 0002 83B0     		sub	sp, sp, #12
 1737              		.cfi_def_cfa_offset 16
 1738 0004 00AF     		add	r7, sp, #0
 1739              		.cfi_def_cfa_register 7
 1740 0006 0346     		mov	r3, r0
 1741 0008 FB71     		strb	r3, [r7, #7]
1017:Generated_Source\PSoC5/USBUART_cdc.c ****     if ((USBUART_activeCom != comNumber) && \
 1742              		.loc 1 1017 0
 1743 000a 084B     		ldr	r3, .L117
 1744 000c 1B78     		ldrb	r3, [r3]	@ zero_extendqisi2
 1745 000e FA79     		ldrb	r2, [r7, #7]	@ zero_extendqisi2
 1746 0010 9A42     		cmp	r2, r3
 1747 0012 05D0     		beq	.L115
 1748              		.loc 1 1017 0 is_stmt 0 discriminator 1
 1749 0014 FB79     		ldrb	r3, [r7, #7]	@ zero_extendqisi2
 1750 0016 012B     		cmp	r3, #1
 1751 0018 02D8     		bhi	.L115
1018:Generated_Source\PSoC5/USBUART_cdc.c ****             (comNumber < USBUART_MAX_MULTI_COM_NUM ))
1019:Generated_Source\PSoC5/USBUART_cdc.c ****     {
1020:Generated_Source\PSoC5/USBUART_cdc.c ****         USBUART_activeCom = comNumber;
 1752              		.loc 1 1020 0 is_stmt 1
 1753 001a 044A     		ldr	r2, .L117
ARM GAS  C:\Users\Greg\AppData\Local\Temp\ccDYSYHP.s 			page 50


 1754 001c FB79     		ldrb	r3, [r7, #7]
 1755 001e 1370     		strb	r3, [r2]
 1756              	.L115:
1021:Generated_Source\PSoC5/USBUART_cdc.c ****     }
1022:Generated_Source\PSoC5/USBUART_cdc.c **** }
 1757              		.loc 1 1022 0
 1758 0020 0C37     		adds	r7, r7, #12
 1759              		.cfi_def_cfa_offset 4
 1760 0022 BD46     		mov	sp, r7
 1761              		.cfi_def_cfa_register 13
 1762              		@ sp needed
 1763 0024 5DF8047B 		ldr	r7, [sp], #4
 1764              		.cfi_restore 7
 1765              		.cfi_def_cfa_offset 0
 1766 0028 7047     		bx	lr
 1767              	.L118:
 1768 002a 00BF     		.align	2
 1769              	.L117:
 1770 002c 00000000 		.word	USBUART_activeCom
 1771              		.cfi_endproc
 1772              	.LFE23:
 1773              		.size	USBUART_SetComPort, .-USBUART_SetComPort
 1774              		.section	.text.USBUART_GetComPort,"ax",%progbits
 1775              		.align	2
 1776              		.global	USBUART_GetComPort
 1777              		.thumb
 1778              		.thumb_func
 1779              		.type	USBUART_GetComPort, %function
 1780              	USBUART_GetComPort:
 1781              	.LFB24:
1023:Generated_Source\PSoC5/USBUART_cdc.c **** 
1024:Generated_Source\PSoC5/USBUART_cdc.c **** 
1025:Generated_Source\PSoC5/USBUART_cdc.c **** /*******************************************************************************
1026:Generated_Source\PSoC5/USBUART_cdc.c **** * Function Name: USBUART_GetComPort
1027:Generated_Source\PSoC5/USBUART_cdc.c **** ****************************************************************************//**
1028:Generated_Source\PSoC5/USBUART_cdc.c **** *
1029:Generated_Source\PSoC5/USBUART_cdc.c **** *  This function returns the current selected COM port that the user is
1030:Generated_Source\PSoC5/USBUART_cdc.c **** *  currently addressing in the instance of having multiple COM ports
1031:Generated_Source\PSoC5/USBUART_cdc.c **** *  instantiated though the use of a composite device.
1032:Generated_Source\PSoC5/USBUART_cdc.c **** *
1033:Generated_Source\PSoC5/USBUART_cdc.c **** * \return
1034:Generated_Source\PSoC5/USBUART_cdc.c **** *  Returns the currently selected COM port. Value can either be 0 or 1 since
1035:Generated_Source\PSoC5/USBUART_cdc.c **** *  a maximum of only 2 COM ports can be supported. . Note that this COM port
1036:Generated_Source\PSoC5/USBUART_cdc.c **** *  number is not the COM port number assigned on the PC side for the UART
1037:Generated_Source\PSoC5/USBUART_cdc.c **** *  communication.
1038:Generated_Source\PSoC5/USBUART_cdc.c **** *
1039:Generated_Source\PSoC5/USBUART_cdc.c **** *******************************************************************************/
1040:Generated_Source\PSoC5/USBUART_cdc.c **** uint8 USBUART_GetComPort(void) 
1041:Generated_Source\PSoC5/USBUART_cdc.c **** {
 1782              		.loc 1 1041 0
 1783              		.cfi_startproc
 1784              		@ args = 0, pretend = 0, frame = 0
 1785              		@ frame_needed = 1, uses_anonymous_args = 0
 1786              		@ link register save eliminated.
 1787 0000 80B4     		push	{r7}
 1788              		.cfi_def_cfa_offset 4
 1789              		.cfi_offset 7, -4
ARM GAS  C:\Users\Greg\AppData\Local\Temp\ccDYSYHP.s 			page 51


 1790 0002 00AF     		add	r7, sp, #0
 1791              		.cfi_def_cfa_register 7
1042:Generated_Source\PSoC5/USBUART_cdc.c ****     return (USBUART_activeCom);
 1792              		.loc 1 1042 0
 1793 0004 034B     		ldr	r3, .L121
 1794 0006 1B78     		ldrb	r3, [r3]	@ zero_extendqisi2
1043:Generated_Source\PSoC5/USBUART_cdc.c **** }
 1795              		.loc 1 1043 0
 1796 0008 1846     		mov	r0, r3
 1797 000a BD46     		mov	sp, r7
 1798              		.cfi_def_cfa_register 13
 1799              		@ sp needed
 1800 000c 5DF8047B 		ldr	r7, [sp], #4
 1801              		.cfi_restore 7
 1802              		.cfi_def_cfa_offset 0
 1803 0010 7047     		bx	lr
 1804              	.L122:
 1805 0012 00BF     		.align	2
 1806              	.L121:
 1807 0014 00000000 		.word	USBUART_activeCom
 1808              		.cfi_endproc
 1809              	.LFE24:
 1810              		.size	USBUART_GetComPort, .-USBUART_GetComPort
 1811              		.section	.text.USBUART_Cdc_EpInit,"ax",%progbits
 1812              		.align	2
 1813              		.global	USBUART_Cdc_EpInit
 1814              		.thumb
 1815              		.thumb_func
 1816              		.type	USBUART_Cdc_EpInit, %function
 1817              	USBUART_Cdc_EpInit:
 1818              	.LFB25:
1044:Generated_Source\PSoC5/USBUART_cdc.c **** 
1045:Generated_Source\PSoC5/USBUART_cdc.c **** 
1046:Generated_Source\PSoC5/USBUART_cdc.c **** #endif  /* (USBUART_ENABLE_CDC_CLASS_API) */
1047:Generated_Source\PSoC5/USBUART_cdc.c **** 
1048:Generated_Source\PSoC5/USBUART_cdc.c **** 
1049:Generated_Source\PSoC5/USBUART_cdc.c **** /***************************************************************************
1050:Generated_Source\PSoC5/USBUART_cdc.c **** * Function Name: USBUART_Cdc_EpInit
1051:Generated_Source\PSoC5/USBUART_cdc.c **** ************************************************************************//**
1052:Generated_Source\PSoC5/USBUART_cdc.c **** *
1053:Generated_Source\PSoC5/USBUART_cdc.c **** *  \internal
1054:Generated_Source\PSoC5/USBUART_cdc.c **** *  This routine decide type of endpoint (IN, OUT, Notification) and same to
1055:Generated_Source\PSoC5/USBUART_cdc.c **** *   appropriate global variables  according to COM port number.
1056:Generated_Source\PSoC5/USBUART_cdc.c **** *   USBUART_cdcDataInEp[], USBUART_cdcCommInInterruptEp[],
1057:Generated_Source\PSoC5/USBUART_cdc.c **** *   USBUART_cdcDataOutEp[]
1058:Generated_Source\PSoC5/USBUART_cdc.c **** *
1059:Generated_Source\PSoC5/USBUART_cdc.c **** * \param pEP: Pointer to structure with current EP description.
1060:Generated_Source\PSoC5/USBUART_cdc.c **** * \param epNum: EP number
1061:Generated_Source\PSoC5/USBUART_cdc.c **** * \param cdcComNums: Bit array of current COM ports for CDC IN, OUT,
1062:Generated_Source\PSoC5/USBUART_cdc.c **** *        and notification EPs(0 - COM port 1, 1- COM port 2)
1063:Generated_Source\PSoC5/USBUART_cdc.c **** *
1064:Generated_Source\PSoC5/USBUART_cdc.c **** * \return
1065:Generated_Source\PSoC5/USBUART_cdc.c **** *  Updated cdcComNums
1066:Generated_Source\PSoC5/USBUART_cdc.c **** *
1067:Generated_Source\PSoC5/USBUART_cdc.c **** * \reentrant
1068:Generated_Source\PSoC5/USBUART_cdc.c **** *  No.
1069:Generated_Source\PSoC5/USBUART_cdc.c **** *
ARM GAS  C:\Users\Greg\AppData\Local\Temp\ccDYSYHP.s 			page 52


1070:Generated_Source\PSoC5/USBUART_cdc.c **** ***************************************************************************/
1071:Generated_Source\PSoC5/USBUART_cdc.c **** uint8 USBUART_Cdc_EpInit(const T_USBUART_EP_SETTINGS_BLOCK CYCODE *pEP, uint8 epNum, uint8 cdcComNu
1072:Generated_Source\PSoC5/USBUART_cdc.c **** {
 1819              		.loc 1 1072 0
 1820              		.cfi_startproc
 1821              		@ args = 0, pretend = 0, frame = 16
 1822              		@ frame_needed = 1, uses_anonymous_args = 0
 1823              		@ link register save eliminated.
 1824 0000 80B4     		push	{r7}
 1825              		.cfi_def_cfa_offset 4
 1826              		.cfi_offset 7, -4
 1827 0002 85B0     		sub	sp, sp, #20
 1828              		.cfi_def_cfa_offset 24
 1829 0004 00AF     		add	r7, sp, #0
 1830              		.cfi_def_cfa_register 7
 1831 0006 7860     		str	r0, [r7, #4]
 1832 0008 0B46     		mov	r3, r1
 1833 000a FB70     		strb	r3, [r7, #3]
 1834 000c 1346     		mov	r3, r2
 1835 000e BB70     		strb	r3, [r7, #2]
1073:Generated_Source\PSoC5/USBUART_cdc.c ****     uint8 epType;
1074:Generated_Source\PSoC5/USBUART_cdc.c **** 
1075:Generated_Source\PSoC5/USBUART_cdc.c ****     epType = pEP->attributes & USBUART_EP_TYPE_MASK;
 1836              		.loc 1 1075 0
 1837 0010 7B68     		ldr	r3, [r7, #4]
 1838 0012 DB78     		ldrb	r3, [r3, #3]	@ zero_extendqisi2
 1839 0014 03F00303 		and	r3, r3, #3
 1840 0018 FB73     		strb	r3, [r7, #15]
1076:Generated_Source\PSoC5/USBUART_cdc.c **** 
1077:Generated_Source\PSoC5/USBUART_cdc.c ****     if (0u != (pEP->addr & USBUART_DIR_IN))
 1841              		.loc 1 1077 0
 1842 001a 7B68     		ldr	r3, [r7, #4]
 1843 001c 9B78     		ldrb	r3, [r3, #2]	@ zero_extendqisi2
 1844 001e DBB2     		uxtb	r3, r3
 1845 0020 5BB2     		sxtb	r3, r3
 1846 0022 002B     		cmp	r3, #0
 1847 0024 1ADA     		bge	.L124
1078:Generated_Source\PSoC5/USBUART_cdc.c ****     {
1079:Generated_Source\PSoC5/USBUART_cdc.c ****         if (epType != USBUART_EP_TYPE_INT)
 1848              		.loc 1 1079 0
 1849 0026 FB7B     		ldrb	r3, [r7, #15]	@ zero_extendqisi2
 1850 0028 032B     		cmp	r3, #3
 1851 002a 0AD0     		beq	.L125
1080:Generated_Source\PSoC5/USBUART_cdc.c ****         {
1081:Generated_Source\PSoC5/USBUART_cdc.c ****             USBUART_cdcDataInEp[USBUART_GET_EP_COM_NUM(cdcComNums, USBUART_CDC_IN_EP)] = epNum;
 1852              		.loc 1 1081 0
 1853 002c BB78     		ldrb	r3, [r7, #2]	@ zero_extendqisi2
 1854 002e 03F00103 		and	r3, r3, #1
 1855 0032 1549     		ldr	r1, .L129
 1856 0034 FA78     		ldrb	r2, [r7, #3]
 1857 0036 CA54     		strb	r2, [r1, r3]
1082:Generated_Source\PSoC5/USBUART_cdc.c ****             cdcComNums |= (uint8)(USBUART_COM_PORT2 << USBUART_CDC_IN_EP);
 1858              		.loc 1 1082 0
 1859 0038 BB78     		ldrb	r3, [r7, #2]
 1860 003a 43F00103 		orr	r3, r3, #1
 1861 003e BB70     		strb	r3, [r7, #2]
 1862 0040 1BE0     		b	.L127
ARM GAS  C:\Users\Greg\AppData\Local\Temp\ccDYSYHP.s 			page 53


 1863              	.L125:
1083:Generated_Source\PSoC5/USBUART_cdc.c ****         }
1084:Generated_Source\PSoC5/USBUART_cdc.c ****         else
1085:Generated_Source\PSoC5/USBUART_cdc.c ****         {
1086:Generated_Source\PSoC5/USBUART_cdc.c **** 
1087:Generated_Source\PSoC5/USBUART_cdc.c ****             USBUART_cdcCommInInterruptEp[USBUART_GET_EP_COM_NUM(cdcComNums, USBUART_CDC_NOTE_EP)] =
 1864              		.loc 1 1087 0
 1865 0042 BB78     		ldrb	r3, [r7, #2]	@ zero_extendqisi2
 1866 0044 9B08     		lsrs	r3, r3, #2
 1867 0046 DBB2     		uxtb	r3, r3
 1868 0048 03F00103 		and	r3, r3, #1
 1869 004c 0F49     		ldr	r1, .L129+4
 1870 004e FA78     		ldrb	r2, [r7, #3]
 1871 0050 CA54     		strb	r2, [r1, r3]
1088:Generated_Source\PSoC5/USBUART_cdc.c ****             cdcComNums |= (uint8)(USBUART_COM_PORT2 << USBUART_CDC_NOTE_EP);
 1872              		.loc 1 1088 0
 1873 0052 BB78     		ldrb	r3, [r7, #2]
 1874 0054 43F00403 		orr	r3, r3, #4
 1875 0058 BB70     		strb	r3, [r7, #2]
 1876 005a 0EE0     		b	.L127
 1877              	.L124:
1089:Generated_Source\PSoC5/USBUART_cdc.c ****         }
1090:Generated_Source\PSoC5/USBUART_cdc.c ****     }
1091:Generated_Source\PSoC5/USBUART_cdc.c ****     else
1092:Generated_Source\PSoC5/USBUART_cdc.c ****     {
1093:Generated_Source\PSoC5/USBUART_cdc.c ****         if (epType != USBUART_EP_TYPE_INT)
 1878              		.loc 1 1093 0
 1879 005c FB7B     		ldrb	r3, [r7, #15]	@ zero_extendqisi2
 1880 005e 032B     		cmp	r3, #3
 1881 0060 0BD0     		beq	.L127
1094:Generated_Source\PSoC5/USBUART_cdc.c ****         {
1095:Generated_Source\PSoC5/USBUART_cdc.c ****             USBUART_cdcDataOutEp[USBUART_GET_EP_COM_NUM(cdcComNums, USBUART_CDC_OUT_EP)] = epNum;
 1882              		.loc 1 1095 0
 1883 0062 BB78     		ldrb	r3, [r7, #2]	@ zero_extendqisi2
 1884 0064 5B08     		lsrs	r3, r3, #1
 1885 0066 DBB2     		uxtb	r3, r3
 1886 0068 03F00103 		and	r3, r3, #1
 1887 006c 0849     		ldr	r1, .L129+8
 1888 006e FA78     		ldrb	r2, [r7, #3]
 1889 0070 CA54     		strb	r2, [r1, r3]
1096:Generated_Source\PSoC5/USBUART_cdc.c ****             cdcComNums |= (uint8)(USBUART_COM_PORT2 << USBUART_CDC_OUT_EP);
 1890              		.loc 1 1096 0
 1891 0072 BB78     		ldrb	r3, [r7, #2]
 1892 0074 43F00203 		orr	r3, r3, #2
 1893 0078 BB70     		strb	r3, [r7, #2]
 1894              	.L127:
1097:Generated_Source\PSoC5/USBUART_cdc.c ****         }
1098:Generated_Source\PSoC5/USBUART_cdc.c ****     }
1099:Generated_Source\PSoC5/USBUART_cdc.c ****     return (cdcComNums);
 1895              		.loc 1 1099 0
 1896 007a BB78     		ldrb	r3, [r7, #2]	@ zero_extendqisi2
1100:Generated_Source\PSoC5/USBUART_cdc.c **** }
 1897              		.loc 1 1100 0
 1898 007c 1846     		mov	r0, r3
 1899 007e 1437     		adds	r7, r7, #20
 1900              		.cfi_def_cfa_offset 4
 1901 0080 BD46     		mov	sp, r7
ARM GAS  C:\Users\Greg\AppData\Local\Temp\ccDYSYHP.s 			page 54


 1902              		.cfi_def_cfa_register 13
 1903              		@ sp needed
 1904 0082 5DF8047B 		ldr	r7, [sp], #4
 1905              		.cfi_restore 7
 1906              		.cfi_def_cfa_offset 0
 1907 0086 7047     		bx	lr
 1908              	.L130:
 1909              		.align	2
 1910              	.L129:
 1911 0088 00000000 		.word	USBUART_cdcDataInEp
 1912 008c 00000000 		.word	USBUART_cdcCommInInterruptEp
 1913 0090 00000000 		.word	USBUART_cdcDataOutEp
 1914              		.cfi_endproc
 1915              	.LFE25:
 1916              		.size	USBUART_Cdc_EpInit, .-USBUART_Cdc_EpInit
 1917              		.text
 1918              	.Letext0:
 1919              		.file 2 "Generated_Source\\PSoC5\\cytypes.h"
 1920              		.file 3 "Generated_Source\\PSoC5\\USBUART.h"
 1921              		.file 4 "Generated_Source\\PSoC5\\USBUART_pvt.h"
 1922              		.section	.debug_info,"",%progbits
 1923              	.Ldebug_info0:
 1924 0000 FF080000 		.4byte	0x8ff
 1925 0004 0400     		.2byte	0x4
 1926 0006 00000000 		.4byte	.Ldebug_abbrev0
 1927 000a 04       		.byte	0x4
 1928 000b 01       		.uleb128 0x1
 1929 000c BE030000 		.4byte	.LASF109
 1930 0010 01       		.byte	0x1
 1931 0011 56030000 		.4byte	.LASF110
 1932 0015 DF040000 		.4byte	.LASF111
 1933 0019 00000000 		.4byte	.Ldebug_ranges0+0
 1934 001d 00000000 		.4byte	0
 1935 0021 00000000 		.4byte	.Ldebug_line0
 1936 0025 02       		.uleb128 0x2
 1937 0026 01       		.byte	0x1
 1938 0027 06       		.byte	0x6
 1939 0028 1C010000 		.4byte	.LASF0
 1940 002c 02       		.uleb128 0x2
 1941 002d 01       		.byte	0x1
 1942 002e 08       		.byte	0x8
 1943 002f B0040000 		.4byte	.LASF1
 1944 0033 02       		.uleb128 0x2
 1945 0034 02       		.byte	0x2
 1946 0035 05       		.byte	0x5
 1947 0036 D5040000 		.4byte	.LASF2
 1948 003a 02       		.uleb128 0x2
 1949 003b 02       		.byte	0x2
 1950 003c 07       		.byte	0x7
 1951 003d DD020000 		.4byte	.LASF3
 1952 0041 02       		.uleb128 0x2
 1953 0042 04       		.byte	0x4
 1954 0043 05       		.byte	0x5
 1955 0044 69010000 		.4byte	.LASF4
 1956 0048 02       		.uleb128 0x2
 1957 0049 04       		.byte	0x4
 1958 004a 07       		.byte	0x7
ARM GAS  C:\Users\Greg\AppData\Local\Temp\ccDYSYHP.s 			page 55


 1959 004b AC020000 		.4byte	.LASF5
 1960 004f 02       		.uleb128 0x2
 1961 0050 08       		.byte	0x8
 1962 0051 05       		.byte	0x5
 1963 0052 0E010000 		.4byte	.LASF6
 1964 0056 02       		.uleb128 0x2
 1965 0057 08       		.byte	0x8
 1966 0058 07       		.byte	0x7
 1967 0059 94000000 		.4byte	.LASF7
 1968 005d 03       		.uleb128 0x3
 1969 005e 04       		.byte	0x4
 1970 005f 05       		.byte	0x5
 1971 0060 696E7400 		.ascii	"int\000"
 1972 0064 02       		.uleb128 0x2
 1973 0065 04       		.byte	0x4
 1974 0066 07       		.byte	0x7
 1975 0067 8B020000 		.4byte	.LASF8
 1976 006b 04       		.uleb128 0x4
 1977 006c 92010000 		.4byte	.LASF9
 1978 0070 02       		.byte	0x2
 1979 0071 9201     		.2byte	0x192
 1980 0073 2C000000 		.4byte	0x2c
 1981 0077 04       		.uleb128 0x4
 1982 0078 26000000 		.4byte	.LASF10
 1983 007c 02       		.byte	0x2
 1984 007d 9301     		.2byte	0x193
 1985 007f 3A000000 		.4byte	0x3a
 1986 0083 04       		.uleb128 0x4
 1987 0084 EE010000 		.4byte	.LASF11
 1988 0088 02       		.byte	0x2
 1989 0089 9401     		.2byte	0x194
 1990 008b 48000000 		.4byte	0x48
 1991 008f 02       		.uleb128 0x2
 1992 0090 04       		.byte	0x4
 1993 0091 04       		.byte	0x4
 1994 0092 8F040000 		.4byte	.LASF12
 1995 0096 02       		.uleb128 0x2
 1996 0097 08       		.byte	0x8
 1997 0098 04       		.byte	0x4
 1998 0099 A8010000 		.4byte	.LASF13
 1999 009d 04       		.uleb128 0x4
 2000 009e 0C060000 		.4byte	.LASF14
 2001 00a2 02       		.byte	0x2
 2002 00a3 A301     		.2byte	0x1a3
 2003 00a5 A9000000 		.4byte	0xa9
 2004 00a9 02       		.uleb128 0x2
 2005 00aa 01       		.byte	0x1
 2006 00ab 08       		.byte	0x8
 2007 00ac CB050000 		.4byte	.LASF15
 2008 00b0 05       		.uleb128 0x5
 2009 00b1 6B000000 		.4byte	0x6b
 2010 00b5 02       		.uleb128 0x2
 2011 00b6 04       		.byte	0x4
 2012 00b7 07       		.byte	0x7
 2013 00b8 85030000 		.4byte	.LASF16
 2014 00bc 06       		.uleb128 0x6
 2015 00bd 0C       		.byte	0xc
ARM GAS  C:\Users\Greg\AppData\Local\Temp\ccDYSYHP.s 			page 56


 2016 00be 03       		.byte	0x3
 2017 00bf 8E       		.byte	0x8e
 2018 00c0 31010000 		.4byte	0x131
 2019 00c4 07       		.uleb128 0x7
 2020 00c5 8E030000 		.4byte	.LASF17
 2021 00c9 03       		.byte	0x3
 2022 00ca 90       		.byte	0x90
 2023 00cb 6B000000 		.4byte	0x6b
 2024 00cf 00       		.byte	0
 2025 00d0 07       		.uleb128 0x7
 2026 00d1 A5040000 		.4byte	.LASF18
 2027 00d5 03       		.byte	0x3
 2028 00d6 91       		.byte	0x91
 2029 00d7 6B000000 		.4byte	0x6b
 2030 00db 01       		.byte	0x1
 2031 00dc 07       		.uleb128 0x7
 2032 00dd 7B030000 		.4byte	.LASF19
 2033 00e1 03       		.byte	0x3
 2034 00e2 92       		.byte	0x92
 2035 00e3 6B000000 		.4byte	0x6b
 2036 00e7 02       		.byte	0x2
 2037 00e8 07       		.uleb128 0x7
 2038 00e9 98010000 		.4byte	.LASF20
 2039 00ed 03       		.byte	0x3
 2040 00ee 93       		.byte	0x93
 2041 00ef 6B000000 		.4byte	0x6b
 2042 00f3 03       		.byte	0x3
 2043 00f4 07       		.uleb128 0x7
 2044 00f5 AB000000 		.4byte	.LASF21
 2045 00f9 03       		.byte	0x3
 2046 00fa 94       		.byte	0x94
 2047 00fb 6B000000 		.4byte	0x6b
 2048 00ff 04       		.byte	0x4
 2049 0100 07       		.uleb128 0x7
 2050 0101 38020000 		.4byte	.LASF22
 2051 0105 03       		.byte	0x3
 2052 0106 95       		.byte	0x95
 2053 0107 6B000000 		.4byte	0x6b
 2054 010b 05       		.byte	0x5
 2055 010c 07       		.uleb128 0x7
 2056 010d 01060000 		.4byte	.LASF23
 2057 0111 03       		.byte	0x3
 2058 0112 96       		.byte	0x96
 2059 0113 77000000 		.4byte	0x77
 2060 0117 06       		.byte	0x6
 2061 0118 07       		.uleb128 0x7
 2062 0119 D0050000 		.4byte	.LASF24
 2063 011d 03       		.byte	0x3
 2064 011e 97       		.byte	0x97
 2065 011f 77000000 		.4byte	0x77
 2066 0123 08       		.byte	0x8
 2067 0124 07       		.uleb128 0x7
 2068 0125 3A030000 		.4byte	.LASF25
 2069 0129 03       		.byte	0x3
 2070 012a 98       		.byte	0x98
 2071 012b 6B000000 		.4byte	0x6b
 2072 012f 0A       		.byte	0xa
ARM GAS  C:\Users\Greg\AppData\Local\Temp\ccDYSYHP.s 			page 57


 2073 0130 00       		.byte	0
 2074 0131 08       		.uleb128 0x8
 2075 0132 EA050000 		.4byte	.LASF26
 2076 0136 03       		.byte	0x3
 2077 0137 99       		.byte	0x99
 2078 0138 BC000000 		.4byte	0xbc
 2079 013c 06       		.uleb128 0x6
 2080 013d 08       		.byte	0x8
 2081 013e 03       		.byte	0x3
 2082 013f 9B       		.byte	0x9b
 2083 0140 8D010000 		.4byte	0x18d
 2084 0144 07       		.uleb128 0x7
 2085 0145 3A030000 		.4byte	.LASF25
 2086 0149 03       		.byte	0x3
 2087 014a 9D       		.byte	0x9d
 2088 014b 6B000000 		.4byte	0x6b
 2089 014f 00       		.byte	0
 2090 0150 07       		.uleb128 0x7
 2091 0151 C0050000 		.4byte	.LASF27
 2092 0155 03       		.byte	0x3
 2093 0156 9E       		.byte	0x9e
 2094 0157 6B000000 		.4byte	0x6b
 2095 015b 01       		.byte	0x1
 2096 015c 07       		.uleb128 0x7
 2097 015d AB000000 		.4byte	.LASF21
 2098 0161 03       		.byte	0x3
 2099 0162 9F       		.byte	0x9f
 2100 0163 6B000000 		.4byte	0x6b
 2101 0167 02       		.byte	0x2
 2102 0168 07       		.uleb128 0x7
 2103 0169 80050000 		.4byte	.LASF28
 2104 016d 03       		.byte	0x3
 2105 016e A0       		.byte	0xa0
 2106 016f 6B000000 		.4byte	0x6b
 2107 0173 03       		.byte	0x3
 2108 0174 07       		.uleb128 0x7
 2109 0175 D0050000 		.4byte	.LASF24
 2110 0179 03       		.byte	0x3
 2111 017a A1       		.byte	0xa1
 2112 017b 77000000 		.4byte	0x77
 2113 017f 04       		.byte	0x4
 2114 0180 07       		.uleb128 0x7
 2115 0181 7B060000 		.4byte	.LASF29
 2116 0185 03       		.byte	0x3
 2117 0186 A2       		.byte	0xa2
 2118 0187 6B000000 		.4byte	0x6b
 2119 018b 06       		.byte	0x6
 2120 018c 00       		.byte	0
 2121 018d 08       		.uleb128 0x8
 2122 018e 12060000 		.4byte	.LASF30
 2123 0192 03       		.byte	0x3
 2124 0193 A3       		.byte	0xa3
 2125 0194 3C010000 		.4byte	0x13c
 2126 0198 06       		.uleb128 0x6
 2127 0199 04       		.byte	0x4
 2128 019a 03       		.byte	0x3
 2129 019b A5       		.byte	0xa5
ARM GAS  C:\Users\Greg\AppData\Local\Temp\ccDYSYHP.s 			page 58


 2130 019c B9010000 		.4byte	0x1b9
 2131 01a0 07       		.uleb128 0x7
 2132 01a1 54060000 		.4byte	.LASF31
 2133 01a5 03       		.byte	0x3
 2134 01a6 A7       		.byte	0xa7
 2135 01a7 6B000000 		.4byte	0x6b
 2136 01ab 00       		.byte	0
 2137 01ac 07       		.uleb128 0x7
 2138 01ad 4D060000 		.4byte	.LASF32
 2139 01b1 03       		.byte	0x3
 2140 01b2 A8       		.byte	0xa8
 2141 01b3 77000000 		.4byte	0x77
 2142 01b7 02       		.byte	0x2
 2143 01b8 00       		.byte	0
 2144 01b9 08       		.uleb128 0x8
 2145 01ba DE000000 		.4byte	.LASF33
 2146 01be 03       		.byte	0x3
 2147 01bf A9       		.byte	0xa9
 2148 01c0 98010000 		.4byte	0x198
 2149 01c4 06       		.uleb128 0x6
 2150 01c5 0C       		.byte	0xc
 2151 01c6 03       		.byte	0x3
 2152 01c7 AB       		.byte	0xab
 2153 01c8 F1010000 		.4byte	0x1f1
 2154 01cc 07       		.uleb128 0x7
 2155 01cd 0D000000 		.4byte	.LASF34
 2156 01d1 03       		.byte	0x3
 2157 01d2 AD       		.byte	0xad
 2158 01d3 77000000 		.4byte	0x77
 2159 01d7 00       		.byte	0
 2160 01d8 07       		.uleb128 0x7
 2161 01d9 32020000 		.4byte	.LASF35
 2162 01dd 03       		.byte	0x3
 2163 01de AE       		.byte	0xae
 2164 01df F1010000 		.4byte	0x1f1
 2165 01e3 04       		.byte	0x4
 2166 01e4 07       		.uleb128 0x7
 2167 01e5 00000000 		.4byte	.LASF36
 2168 01e9 03       		.byte	0x3
 2169 01ea AF       		.byte	0xaf
 2170 01eb F7010000 		.4byte	0x1f7
 2171 01ef 08       		.byte	0x8
 2172 01f0 00       		.byte	0
 2173 01f1 09       		.uleb128 0x9
 2174 01f2 04       		.byte	0x4
 2175 01f3 B0000000 		.4byte	0xb0
 2176 01f7 09       		.uleb128 0x9
 2177 01f8 04       		.byte	0x4
 2178 01f9 B9010000 		.4byte	0x1b9
 2179 01fd 08       		.uleb128 0x8
 2180 01fe 43050000 		.4byte	.LASF37
 2181 0202 03       		.byte	0x3
 2182 0203 B0       		.byte	0xb0
 2183 0204 C4010000 		.4byte	0x1c4
 2184 0208 06       		.uleb128 0x6
 2185 0209 08       		.byte	0x8
 2186 020a 03       		.byte	0x3
ARM GAS  C:\Users\Greg\AppData\Local\Temp\ccDYSYHP.s 			page 59


 2187 020b C6       		.byte	0xc6
 2188 020c 1D020000 		.4byte	0x21d
 2189 0210 07       		.uleb128 0x7
 2190 0211 74060000 		.4byte	.LASF38
 2191 0215 03       		.byte	0x3
 2192 0216 C8       		.byte	0xc8
 2193 0217 1D020000 		.4byte	0x21d
 2194 021b 00       		.byte	0
 2195 021c 00       		.byte	0
 2196 021d 0A       		.uleb128 0xa
 2197 021e 6B000000 		.4byte	0x6b
 2198 0222 2D020000 		.4byte	0x22d
 2199 0226 0B       		.uleb128 0xb
 2200 0227 B5000000 		.4byte	0xb5
 2201 022b 07       		.byte	0x7
 2202 022c 00       		.byte	0
 2203 022d 08       		.uleb128 0x8
 2204 022e 51010000 		.4byte	.LASF39
 2205 0232 03       		.byte	0x3
 2206 0233 C9       		.byte	0xc9
 2207 0234 08020000 		.4byte	0x208
 2208 0238 0C       		.uleb128 0xc
 2209 0239 0A       		.byte	0xa
 2210 023a 04       		.byte	0x4
 2211 023b 6C01     		.2byte	0x16c
 2212 023d C4020000 		.4byte	0x2c4
 2213 0241 0D       		.uleb128 0xd
 2214 0242 B0000000 		.4byte	.LASF40
 2215 0246 04       		.byte	0x4
 2216 0247 6E01     		.2byte	0x16e
 2217 0249 6B000000 		.4byte	0x6b
 2218 024d 00       		.byte	0
 2219 024e 0D       		.uleb128 0xd
 2220 024f 66060000 		.4byte	.LASF41
 2221 0253 04       		.byte	0x4
 2222 0254 6F01     		.2byte	0x16f
 2223 0256 6B000000 		.4byte	0x6b
 2224 025a 01       		.byte	0x1
 2225 025b 0D       		.uleb128 0xd
 2226 025c A1010000 		.4byte	.LASF42
 2227 0260 04       		.byte	0x4
 2228 0261 7001     		.2byte	0x170
 2229 0263 6B000000 		.4byte	0x6b
 2230 0267 02       		.byte	0x2
 2231 0268 0D       		.uleb128 0xd
 2232 0269 39050000 		.4byte	.LASF43
 2233 026d 04       		.byte	0x4
 2234 026e 7101     		.2byte	0x171
 2235 0270 6B000000 		.4byte	0x6b
 2236 0274 03       		.byte	0x3
 2237 0275 0D       		.uleb128 0xd
 2238 0276 C8040000 		.4byte	.LASF44
 2239 027a 04       		.byte	0x4
 2240 027b 7201     		.2byte	0x172
 2241 027d 6B000000 		.4byte	0x6b
 2242 0281 04       		.byte	0x4
 2243 0282 0D       		.uleb128 0xd
ARM GAS  C:\Users\Greg\AppData\Local\Temp\ccDYSYHP.s 			page 60


 2244 0283 16070000 		.4byte	.LASF45
 2245 0287 04       		.byte	0x4
 2246 0288 7301     		.2byte	0x173
 2247 028a 6B000000 		.4byte	0x6b
 2248 028e 05       		.byte	0x5
 2249 028f 0D       		.uleb128 0xd
 2250 0290 4D060000 		.4byte	.LASF32
 2251 0294 04       		.byte	0x4
 2252 0295 7401     		.2byte	0x174
 2253 0297 6B000000 		.4byte	0x6b
 2254 029b 06       		.byte	0x6
 2255 029c 0D       		.uleb128 0xd
 2256 029d 5B060000 		.4byte	.LASF46
 2257 02a1 04       		.byte	0x4
 2258 02a2 7501     		.2byte	0x175
 2259 02a4 6B000000 		.4byte	0x6b
 2260 02a8 07       		.byte	0x7
 2261 02a9 0D       		.uleb128 0xd
 2262 02aa F5010000 		.4byte	.LASF47
 2263 02ae 04       		.byte	0x4
 2264 02af 7601     		.2byte	0x176
 2265 02b1 6B000000 		.4byte	0x6b
 2266 02b5 08       		.byte	0x8
 2267 02b6 0D       		.uleb128 0xd
 2268 02b7 C3000000 		.4byte	.LASF48
 2269 02bb 04       		.byte	0x4
 2270 02bc 7701     		.2byte	0x177
 2271 02be 6B000000 		.4byte	0x6b
 2272 02c2 09       		.byte	0x9
 2273 02c3 00       		.byte	0
 2274 02c4 04       		.uleb128 0x4
 2275 02c5 9E060000 		.4byte	.LASF49
 2276 02c9 04       		.byte	0x4
 2277 02ca 7801     		.2byte	0x178
 2278 02cc 38020000 		.4byte	0x238
 2279 02d0 0E       		.uleb128 0xe
 2280 02d1 81060000 		.4byte	.LASF52
 2281 02d5 01       		.byte	0x1
 2282 02d6 9B       		.byte	0x9b
 2283 02d7 6B000000 		.4byte	0x6b
 2284 02db 00000000 		.4byte	.LFB0
 2285 02df E8000000 		.4byte	.LFE0-.LFB0
 2286 02e3 01       		.uleb128 0x1
 2287 02e4 9C       		.byte	0x9c
 2288 02e5 06030000 		.4byte	0x306
 2289 02e9 0F       		.uleb128 0xf
 2290 02ea DB050000 		.4byte	.LASF50
 2291 02ee 01       		.byte	0x1
 2292 02ef 9D       		.byte	0x9d
 2293 02f0 6B000000 		.4byte	0x6b
 2294 02f4 02       		.uleb128 0x2
 2295 02f5 91       		.byte	0x91
 2296 02f6 77       		.sleb128 -9
 2297 02f7 0F       		.uleb128 0xf
 2298 02f8 4C040000 		.4byte	.LASF51
 2299 02fc 01       		.byte	0x1
 2300 02fd 9E       		.byte	0x9e
ARM GAS  C:\Users\Greg\AppData\Local\Temp\ccDYSYHP.s 			page 61


 2301 02fe 6B000000 		.4byte	0x6b
 2302 0302 02       		.uleb128 0x2
 2303 0303 91       		.byte	0x91
 2304 0304 76       		.sleb128 -10
 2305 0305 00       		.byte	0
 2306 0306 10       		.uleb128 0x10
 2307 0307 2D000000 		.4byte	.LASF53
 2308 030b 01       		.byte	0x1
 2309 030c EF       		.byte	0xef
 2310 030d 6B000000 		.4byte	0x6b
 2311 0311 00000000 		.4byte	.LFB1
 2312 0315 60000000 		.4byte	.LFE1-.LFB1
 2313 0319 01       		.uleb128 0x1
 2314 031a 9C       		.byte	0x9c
 2315 031b 58030000 		.4byte	0x358
 2316 031f 11       		.uleb128 0x11
 2317 0320 3A030000 		.4byte	.LASF25
 2318 0324 01       		.byte	0x1
 2319 0325 EF       		.byte	0xef
 2320 0326 6B000000 		.4byte	0x6b
 2321 032a 02       		.uleb128 0x2
 2322 032b 91       		.byte	0x91
 2323 032c 6F       		.sleb128 -17
 2324 032d 0F       		.uleb128 0xf
 2325 032e 4C040000 		.4byte	.LASF51
 2326 0332 01       		.byte	0x1
 2327 0333 F1       		.byte	0xf1
 2328 0334 6B000000 		.4byte	0x6b
 2329 0338 02       		.uleb128 0x2
 2330 0339 91       		.byte	0x91
 2331 033a 77       		.sleb128 -9
 2332 033b 12       		.uleb128 0x12
 2333 033c 72657300 		.ascii	"res\000"
 2334 0340 01       		.byte	0x1
 2335 0341 F2       		.byte	0xf2
 2336 0342 6B000000 		.4byte	0x6b
 2337 0346 02       		.uleb128 0x2
 2338 0347 91       		.byte	0x91
 2339 0348 76       		.sleb128 -10
 2340 0349 0F       		.uleb128 0xf
 2341 034a 33050000 		.4byte	.LASF54
 2342 034e 01       		.byte	0x1
 2343 034f F3       		.byte	0xf3
 2344 0350 6B000000 		.4byte	0x6b
 2345 0354 02       		.uleb128 0x2
 2346 0355 91       		.byte	0x91
 2347 0356 75       		.sleb128 -11
 2348 0357 00       		.byte	0
 2349 0358 13       		.uleb128 0x13
 2350 0359 9C050000 		.4byte	.LASF55
 2351 035d 01       		.byte	0x1
 2352 035e 2501     		.2byte	0x125
 2353 0360 6B000000 		.4byte	0x6b
 2354 0364 00000000 		.4byte	.LFB2
 2355 0368 A8000000 		.4byte	.LFE2-.LFB2
 2356 036c 01       		.uleb128 0x1
 2357 036d 9C       		.byte	0x9c
ARM GAS  C:\Users\Greg\AppData\Local\Temp\ccDYSYHP.s 			page 62


 2358 036e A0030000 		.4byte	0x3a0
 2359 0372 14       		.uleb128 0x14
 2360 0373 4C040000 		.4byte	.LASF51
 2361 0377 01       		.byte	0x1
 2362 0378 2701     		.2byte	0x127
 2363 037a 6B000000 		.4byte	0x6b
 2364 037e 02       		.uleb128 0x2
 2365 037f 91       		.byte	0x91
 2366 0380 77       		.sleb128 -9
 2367 0381 14       		.uleb128 0x14
 2368 0382 CF040000 		.4byte	.LASF56
 2369 0386 01       		.byte	0x1
 2370 0387 2801     		.2byte	0x128
 2371 0389 6B000000 		.4byte	0x6b
 2372 038d 02       		.uleb128 0x2
 2373 038e 91       		.byte	0x91
 2374 038f 75       		.sleb128 -11
 2375 0390 15       		.uleb128 0x15
 2376 0391 72657400 		.ascii	"ret\000"
 2377 0395 01       		.byte	0x1
 2378 0396 2901     		.2byte	0x129
 2379 0398 6B000000 		.4byte	0x6b
 2380 039c 02       		.uleb128 0x2
 2381 039d 91       		.byte	0x91
 2382 039e 76       		.sleb128 -10
 2383 039f 00       		.byte	0
 2384 03a0 16       		.uleb128 0x16
 2385 03a1 82010000 		.4byte	.LASF59
 2386 03a5 01       		.byte	0x1
 2387 03a6 6601     		.2byte	0x166
 2388 03a8 00000000 		.4byte	.LFB3
 2389 03ac 6C000000 		.4byte	.LFE3-.LFB3
 2390 03b0 01       		.uleb128 0x1
 2391 03b1 9C       		.byte	0x9c
 2392 03b2 E4030000 		.4byte	0x3e4
 2393 03b6 17       		.uleb128 0x17
 2394 03b7 32020000 		.4byte	.LASF35
 2395 03bb 01       		.byte	0x1
 2396 03bc 6601     		.2byte	0x166
 2397 03be E4030000 		.4byte	0x3e4
 2398 03c2 02       		.uleb128 0x2
 2399 03c3 91       		.byte	0x91
 2400 03c4 6C       		.sleb128 -20
 2401 03c5 17       		.uleb128 0x17
 2402 03c6 4D060000 		.4byte	.LASF32
 2403 03ca 01       		.byte	0x1
 2404 03cb 6601     		.2byte	0x166
 2405 03cd 77000000 		.4byte	0x77
 2406 03d1 02       		.uleb128 0x2
 2407 03d2 91       		.byte	0x91
 2408 03d3 6A       		.sleb128 -22
 2409 03d4 14       		.uleb128 0x14
 2410 03d5 BE020000 		.4byte	.LASF57
 2411 03d9 01       		.byte	0x1
 2412 03da 6801     		.2byte	0x168
 2413 03dc 6B000000 		.4byte	0x6b
 2414 03e0 02       		.uleb128 0x2
ARM GAS  C:\Users\Greg\AppData\Local\Temp\ccDYSYHP.s 			page 63


 2415 03e1 91       		.byte	0x91
 2416 03e2 77       		.sleb128 -9
 2417 03e3 00       		.byte	0
 2418 03e4 09       		.uleb128 0x9
 2419 03e5 04       		.byte	0x4
 2420 03e6 EA030000 		.4byte	0x3ea
 2421 03ea 18       		.uleb128 0x18
 2422 03eb 6B000000 		.4byte	0x6b
 2423 03ef 19       		.uleb128 0x19
 2424 03f0 3E060000 		.4byte	.LASF112
 2425 03f4 01       		.byte	0x1
 2426 03f5 8401     		.2byte	0x184
 2427 03f7 77000000 		.4byte	0x77
 2428 03fb 00000000 		.4byte	.LFB4
 2429 03ff 2E000000 		.4byte	.LFE4-.LFB4
 2430 0403 01       		.uleb128 0x1
 2431 0404 9C       		.byte	0x9c
 2432 0405 28040000 		.4byte	0x428
 2433 0409 17       		.uleb128 0x17
 2434 040a 5D000000 		.4byte	.LASF58
 2435 040e 01       		.byte	0x1
 2436 040f 8401     		.2byte	0x184
 2437 0411 28040000 		.4byte	0x428
 2438 0415 02       		.uleb128 0x2
 2439 0416 91       		.byte	0x91
 2440 0417 6C       		.sleb128 -20
 2441 0418 15       		.uleb128 0x15
 2442 0419 6C656E00 		.ascii	"len\000"
 2443 041d 01       		.byte	0x1
 2444 041e 8601     		.2byte	0x186
 2445 0420 77000000 		.4byte	0x77
 2446 0424 02       		.uleb128 0x2
 2447 0425 91       		.byte	0x91
 2448 0426 76       		.sleb128 -10
 2449 0427 00       		.byte	0
 2450 0428 09       		.uleb128 0x9
 2451 0429 04       		.byte	0x4
 2452 042a 2E040000 		.4byte	0x42e
 2453 042e 18       		.uleb128 0x18
 2454 042f 9D000000 		.4byte	0x9d
 2455 0433 16       		.uleb128 0x16
 2456 0434 7D040000 		.4byte	.LASF60
 2457 0438 01       		.byte	0x1
 2458 0439 A901     		.2byte	0x1a9
 2459 043b 00000000 		.4byte	.LFB5
 2460 043f DC000000 		.4byte	.LFE5-.LFB5
 2461 0443 01       		.uleb128 0x1
 2462 0444 9C       		.byte	0x9c
 2463 0445 95040000 		.4byte	0x495
 2464 0449 17       		.uleb128 0x17
 2465 044a 5D000000 		.4byte	.LASF58
 2466 044e 01       		.byte	0x1
 2467 044f A901     		.2byte	0x1a9
 2468 0451 28040000 		.4byte	0x428
 2469 0455 02       		.uleb128 0x2
 2470 0456 91       		.byte	0x91
 2471 0457 6C       		.sleb128 -20
ARM GAS  C:\Users\Greg\AppData\Local\Temp\ccDYSYHP.s 			page 64


 2472 0458 14       		.uleb128 0x14
 2473 0459 92050000 		.4byte	.LASF61
 2474 045d 01       		.byte	0x1
 2475 045e AB01     		.2byte	0x1ab
 2476 0460 77000000 		.4byte	0x77
 2477 0464 02       		.uleb128 0x2
 2478 0465 91       		.byte	0x91
 2479 0466 76       		.sleb128 -10
 2480 0467 14       		.uleb128 0x14
 2481 0468 DA060000 		.4byte	.LASF62
 2482 046c 01       		.byte	0x1
 2483 046d AC01     		.2byte	0x1ac
 2484 046f 77000000 		.4byte	0x77
 2485 0473 02       		.uleb128 0x2
 2486 0474 91       		.byte	0x91
 2487 0475 70       		.sleb128 -16
 2488 0476 14       		.uleb128 0x14
 2489 0477 FC020000 		.4byte	.LASF63
 2490 047b 01       		.byte	0x1
 2491 047c AD01     		.2byte	0x1ad
 2492 047e 77000000 		.4byte	0x77
 2493 0482 02       		.uleb128 0x2
 2494 0483 91       		.byte	0x91
 2495 0484 74       		.sleb128 -12
 2496 0485 14       		.uleb128 0x14
 2497 0486 BE020000 		.4byte	.LASF57
 2498 048a 01       		.byte	0x1
 2499 048b AF01     		.2byte	0x1af
 2500 048d 6B000000 		.4byte	0x6b
 2501 0491 02       		.uleb128 0x2
 2502 0492 91       		.byte	0x91
 2503 0493 73       		.sleb128 -13
 2504 0494 00       		.byte	0
 2505 0495 16       		.uleb128 0x16
 2506 0496 95040000 		.4byte	.LASF64
 2507 049a 01       		.byte	0x1
 2508 049b E801     		.2byte	0x1e8
 2509 049d 00000000 		.4byte	.LFB6
 2510 04a1 38000000 		.4byte	.LFE6-.LFB6
 2511 04a5 01       		.uleb128 0x1
 2512 04a6 9C       		.byte	0x9c
 2513 04a7 CA040000 		.4byte	0x4ca
 2514 04ab 17       		.uleb128 0x17
 2515 04ac 49000000 		.4byte	.LASF65
 2516 04b0 01       		.byte	0x1
 2517 04b1 E801     		.2byte	0x1e8
 2518 04b3 9D000000 		.4byte	0x9d
 2519 04b7 02       		.uleb128 0x2
 2520 04b8 91       		.byte	0x91
 2521 04b9 6F       		.sleb128 -17
 2522 04ba 14       		.uleb128 0x14
 2523 04bb 54000000 		.4byte	.LASF66
 2524 04bf 01       		.byte	0x1
 2525 04c0 EA01     		.2byte	0x1ea
 2526 04c2 6B000000 		.4byte	0x6b
 2527 04c6 02       		.uleb128 0x2
 2528 04c7 91       		.byte	0x91
ARM GAS  C:\Users\Greg\AppData\Local\Temp\ccDYSYHP.s 			page 65


 2529 04c8 77       		.sleb128 -9
 2530 04c9 00       		.byte	0
 2531 04ca 16       		.uleb128 0x16
 2532 04cb 70050000 		.4byte	.LASF67
 2533 04cf 01       		.byte	0x1
 2534 04d0 0102     		.2byte	0x201
 2535 04d2 00000000 		.4byte	.LFB7
 2536 04d6 38000000 		.4byte	.LFE7-.LFB7
 2537 04da 01       		.uleb128 0x1
 2538 04db 9C       		.byte	0x9c
 2539 04dc F0040000 		.4byte	0x4f0
 2540 04e0 14       		.uleb128 0x14
 2541 04e1 F8060000 		.4byte	.LASF68
 2542 04e5 01       		.byte	0x1
 2543 04e6 0302     		.2byte	0x203
 2544 04e8 00050000 		.4byte	0x500
 2545 04ec 02       		.uleb128 0x2
 2546 04ed 91       		.byte	0x91
 2547 04ee 74       		.sleb128 -12
 2548 04ef 00       		.byte	0
 2549 04f0 0A       		.uleb128 0xa
 2550 04f1 6B000000 		.4byte	0x6b
 2551 04f5 00050000 		.4byte	0x500
 2552 04f9 0B       		.uleb128 0xb
 2553 04fa B5000000 		.4byte	0xb5
 2554 04fe 01       		.byte	0x1
 2555 04ff 00       		.byte	0
 2556 0500 18       		.uleb128 0x18
 2557 0501 F0040000 		.4byte	0x4f0
 2558 0505 13       		.uleb128 0x13
 2559 0506 95030000 		.4byte	.LASF69
 2560 050a 01       		.byte	0x1
 2561 050b 1B02     		.2byte	0x21b
 2562 050d 77000000 		.4byte	0x77
 2563 0511 00000000 		.4byte	.LFB8
 2564 0515 50000000 		.4byte	.LFE8-.LFB8
 2565 0519 01       		.uleb128 0x1
 2566 051a 9C       		.byte	0x9c
 2567 051b 3E050000 		.4byte	0x53e
 2568 051f 14       		.uleb128 0x14
 2569 0520 2D010000 		.4byte	.LASF70
 2570 0524 01       		.byte	0x1
 2571 0525 1D02     		.2byte	0x21d
 2572 0527 77000000 		.4byte	0x77
 2573 052b 02       		.uleb128 0x2
 2574 052c 91       		.byte	0x91
 2575 052d 76       		.sleb128 -10
 2576 052e 14       		.uleb128 0x14
 2577 052f BE020000 		.4byte	.LASF57
 2578 0533 01       		.byte	0x1
 2579 0534 1F02     		.2byte	0x21f
 2580 0536 6B000000 		.4byte	0x6b
 2581 053a 02       		.uleb128 0x2
 2582 053b 91       		.byte	0x91
 2583 053c 75       		.sleb128 -11
 2584 053d 00       		.byte	0
 2585 053e 1A       		.uleb128 0x1a
ARM GAS  C:\Users\Greg\AppData\Local\Temp\ccDYSYHP.s 			page 66


 2586 053f 98020000 		.4byte	.LASF71
 2587 0543 01       		.byte	0x1
 2588 0544 4102     		.2byte	0x241
 2589 0546 6B000000 		.4byte	0x6b
 2590 054a 00000000 		.4byte	.LFB9
 2591 054e 24000000 		.4byte	.LFE9-.LFB9
 2592 0552 01       		.uleb128 0x1
 2593 0553 9C       		.byte	0x9c
 2594 0554 1A       		.uleb128 0x1a
 2595 0555 38010000 		.4byte	.LASF72
 2596 0559 01       		.byte	0x1
 2597 055a 5A02     		.2byte	0x25a
 2598 055c 6B000000 		.4byte	0x6b
 2599 0560 00000000 		.4byte	.LFB10
 2600 0564 24000000 		.4byte	.LFE10-.LFB10
 2601 0568 01       		.uleb128 0x1
 2602 0569 9C       		.byte	0x9c
 2603 056a 13       		.uleb128 0x13
 2604 056b 2E060000 		.4byte	.LASF73
 2605 056f 01       		.byte	0x1
 2606 0570 7D02     		.2byte	0x27d
 2607 0572 77000000 		.4byte	0x77
 2608 0576 00000000 		.4byte	.LFB11
 2609 057a 3C000000 		.4byte	.LFE11-.LFB11
 2610 057e 01       		.uleb128 0x1
 2611 057f 9C       		.byte	0x9c
 2612 0580 B2050000 		.4byte	0x5b2
 2613 0584 17       		.uleb128 0x17
 2614 0585 32020000 		.4byte	.LASF35
 2615 0589 01       		.byte	0x1
 2616 058a 7D02     		.2byte	0x27d
 2617 058c B2050000 		.4byte	0x5b2
 2618 0590 02       		.uleb128 0x2
 2619 0591 91       		.byte	0x91
 2620 0592 6C       		.sleb128 -20
 2621 0593 17       		.uleb128 0x17
 2622 0594 4D060000 		.4byte	.LASF32
 2623 0598 01       		.byte	0x1
 2624 0599 7D02     		.2byte	0x27d
 2625 059b 77000000 		.4byte	0x77
 2626 059f 02       		.uleb128 0x2
 2627 05a0 91       		.byte	0x91
 2628 05a1 6A       		.sleb128 -22
 2629 05a2 14       		.uleb128 0x14
 2630 05a3 BE020000 		.4byte	.LASF57
 2631 05a7 01       		.byte	0x1
 2632 05a8 7F02     		.2byte	0x27f
 2633 05aa 6B000000 		.4byte	0x6b
 2634 05ae 02       		.uleb128 0x2
 2635 05af 91       		.byte	0x91
 2636 05b0 77       		.sleb128 -9
 2637 05b1 00       		.byte	0
 2638 05b2 09       		.uleb128 0x9
 2639 05b3 04       		.byte	0x4
 2640 05b4 6B000000 		.4byte	0x6b
 2641 05b8 13       		.uleb128 0x13
 2642 05b9 05030000 		.4byte	.LASF74
ARM GAS  C:\Users\Greg\AppData\Local\Temp\ccDYSYHP.s 			page 67


 2643 05bd 01       		.byte	0x1
 2644 05be AA02     		.2byte	0x2aa
 2645 05c0 77000000 		.4byte	0x77
 2646 05c4 00000000 		.4byte	.LFB12
 2647 05c8 50000000 		.4byte	.LFE12-.LFB12
 2648 05cc 01       		.uleb128 0x1
 2649 05cd 9C       		.byte	0x9c
 2650 05ce 00060000 		.4byte	0x600
 2651 05d2 17       		.uleb128 0x17
 2652 05d3 32020000 		.4byte	.LASF35
 2653 05d7 01       		.byte	0x1
 2654 05d8 AA02     		.2byte	0x2aa
 2655 05da B2050000 		.4byte	0x5b2
 2656 05de 02       		.uleb128 0x2
 2657 05df 91       		.byte	0x91
 2658 05e0 6C       		.sleb128 -20
 2659 05e1 14       		.uleb128 0x14
 2660 05e2 BE020000 		.4byte	.LASF57
 2661 05e6 01       		.byte	0x1
 2662 05e7 AC02     		.2byte	0x2ac
 2663 05e9 6B000000 		.4byte	0x6b
 2664 05ed 02       		.uleb128 0x2
 2665 05ee 91       		.byte	0x91
 2666 05ef 77       		.sleb128 -9
 2667 05f0 14       		.uleb128 0x14
 2668 05f1 AF010000 		.4byte	.LASF75
 2669 05f5 01       		.byte	0x1
 2670 05f6 AD02     		.2byte	0x2ad
 2671 05f8 77000000 		.4byte	0x77
 2672 05fc 02       		.uleb128 0x2
 2673 05fd 91       		.byte	0x91
 2674 05fe 74       		.sleb128 -12
 2675 05ff 00       		.byte	0
 2676 0600 13       		.uleb128 0x13
 2677 0601 72010000 		.4byte	.LASF76
 2678 0605 01       		.byte	0x1
 2679 0606 D102     		.2byte	0x2d1
 2680 0608 6B000000 		.4byte	0x6b
 2681 060c 00000000 		.4byte	.LFB13
 2682 0610 34000000 		.4byte	.LFE13-.LFB13
 2683 0614 01       		.uleb128 0x1
 2684 0615 9C       		.byte	0x9c
 2685 0616 39060000 		.4byte	0x639
 2686 061a 14       		.uleb128 0x14
 2687 061b 8B050000 		.4byte	.LASF77
 2688 061f 01       		.byte	0x1
 2689 0620 D302     		.2byte	0x2d3
 2690 0622 6B000000 		.4byte	0x6b
 2691 0626 02       		.uleb128 0x2
 2692 0627 91       		.byte	0x91
 2693 0628 76       		.sleb128 -10
 2694 0629 14       		.uleb128 0x14
 2695 062a BE020000 		.4byte	.LASF57
 2696 062e 01       		.byte	0x1
 2697 062f D402     		.2byte	0x2d4
 2698 0631 6B000000 		.4byte	0x6b
 2699 0635 02       		.uleb128 0x2
ARM GAS  C:\Users\Greg\AppData\Local\Temp\ccDYSYHP.s 			page 68


 2700 0636 91       		.byte	0x91
 2701 0637 77       		.sleb128 -9
 2702 0638 00       		.byte	0
 2703 0639 1B       		.uleb128 0x1b
 2704 063a 75020000 		.4byte	.LASF78
 2705 063e 01       		.byte	0x1
 2706 063f 0203     		.2byte	0x302
 2707 0641 6B000000 		.4byte	0x6b
 2708 0645 00000000 		.4byte	.LFB14
 2709 0649 58000000 		.4byte	.LFE14-.LFB14
 2710 064d 01       		.uleb128 0x1
 2711 064e 9C       		.byte	0x9c
 2712 064f 63060000 		.4byte	0x663
 2713 0653 14       		.uleb128 0x14
 2714 0654 4B010000 		.4byte	.LASF79
 2715 0658 01       		.byte	0x1
 2716 0659 0403     		.2byte	0x304
 2717 065b 6B000000 		.4byte	0x6b
 2718 065f 02       		.uleb128 0x2
 2719 0660 91       		.byte	0x91
 2720 0661 77       		.sleb128 -9
 2721 0662 00       		.byte	0
 2722 0663 1B       		.uleb128 0x1b
 2723 0664 62020000 		.4byte	.LASF80
 2724 0668 01       		.byte	0x1
 2725 0669 2303     		.2byte	0x323
 2726 066b 83000000 		.4byte	0x83
 2727 066f 00000000 		.4byte	.LFB15
 2728 0673 8C000000 		.4byte	.LFE15-.LFB15
 2729 0677 01       		.uleb128 0x1
 2730 0678 9C       		.byte	0x9c
 2731 0679 8D060000 		.4byte	0x68d
 2732 067d 14       		.uleb128 0x14
 2733 067e 28010000 		.4byte	.LASF81
 2734 0682 01       		.byte	0x1
 2735 0683 2503     		.2byte	0x325
 2736 0685 83000000 		.4byte	0x83
 2737 0689 02       		.uleb128 0x2
 2738 068a 91       		.byte	0x91
 2739 068b 74       		.sleb128 -12
 2740 068c 00       		.byte	0
 2741 068d 1C       		.uleb128 0x1c
 2742 068e 7E000000 		.4byte	.LASF82
 2743 0692 01       		.byte	0x1
 2744 0693 4303     		.2byte	0x343
 2745 0695 6B000000 		.4byte	0x6b
 2746 0699 00000000 		.4byte	.LFB16
 2747 069d 2C000000 		.4byte	.LFE16-.LFB16
 2748 06a1 01       		.uleb128 0x1
 2749 06a2 9C       		.byte	0x9c
 2750 06a3 1C       		.uleb128 0x1c
 2751 06a4 C7020000 		.4byte	.LASF83
 2752 06a8 01       		.byte	0x1
 2753 06a9 5D03     		.2byte	0x35d
 2754 06ab 6B000000 		.4byte	0x6b
 2755 06af 00000000 		.4byte	.LFB17
 2756 06b3 2C000000 		.4byte	.LFE17-.LFB17
ARM GAS  C:\Users\Greg\AppData\Local\Temp\ccDYSYHP.s 			page 69


 2757 06b7 01       		.uleb128 0x1
 2758 06b8 9C       		.byte	0x9c
 2759 06b9 1C       		.uleb128 0x1c
 2760 06ba 54040000 		.4byte	.LASF84
 2761 06be 01       		.byte	0x1
 2762 06bf 7103     		.2byte	0x371
 2763 06c1 6B000000 		.4byte	0x6b
 2764 06c5 00000000 		.4byte	.LFB18
 2765 06c9 2C000000 		.4byte	.LFE18-.LFB18
 2766 06cd 01       		.uleb128 0x1
 2767 06ce 9C       		.byte	0x9c
 2768 06cf 1C       		.uleb128 0x1c
 2769 06d0 BA010000 		.4byte	.LASF85
 2770 06d4 01       		.byte	0x1
 2771 06d5 8E03     		.2byte	0x38e
 2772 06d7 77000000 		.4byte	0x77
 2773 06db 00000000 		.4byte	.LFB19
 2774 06df 24000000 		.4byte	.LFE19-.LFB19
 2775 06e3 01       		.uleb128 0x1
 2776 06e4 9C       		.byte	0x9c
 2777 06e5 16       		.uleb128 0x16
 2778 06e6 A6030000 		.4byte	.LASF86
 2779 06ea 01       		.byte	0x1
 2780 06eb A603     		.2byte	0x3a6
 2781 06ed 00000000 		.4byte	.LFB20
 2782 06f1 A8000000 		.4byte	.LFE20-.LFB20
 2783 06f5 01       		.uleb128 0x1
 2784 06f6 9C       		.byte	0x9c
 2785 06f7 1A070000 		.4byte	0x71a
 2786 06fb 17       		.uleb128 0x17
 2787 06fc F0020000 		.4byte	.LASF87
 2788 0700 01       		.byte	0x1
 2789 0701 A603     		.2byte	0x3a6
 2790 0703 77000000 		.4byte	0x77
 2791 0707 02       		.uleb128 0x2
 2792 0708 91       		.byte	0x91
 2793 0709 6E       		.sleb128 -18
 2794 070a 14       		.uleb128 0x14
 2795 070b BE020000 		.4byte	.LASF57
 2796 070f 01       		.byte	0x1
 2797 0710 A803     		.2byte	0x3a8
 2798 0712 6B000000 		.4byte	0x6b
 2799 0716 02       		.uleb128 0x2
 2800 0717 91       		.byte	0x91
 2801 0718 77       		.sleb128 -9
 2802 0719 00       		.byte	0
 2803 071a 1C       		.uleb128 0x1c
 2804 071b FF060000 		.4byte	.LASF88
 2805 071f 01       		.byte	0x1
 2806 0720 C703     		.2byte	0x3c7
 2807 0722 77000000 		.4byte	0x77
 2808 0726 00000000 		.4byte	.LFB21
 2809 072a 24000000 		.4byte	.LFE21-.LFB21
 2810 072e 01       		.uleb128 0x1
 2811 072f 9C       		.byte	0x9c
 2812 0730 1C       		.uleb128 0x1c
 2813 0731 46020000 		.4byte	.LASF89
ARM GAS  C:\Users\Greg\AppData\Local\Temp\ccDYSYHP.s 			page 70


 2814 0735 01       		.byte	0x1
 2815 0736 DF03     		.2byte	0x3df
 2816 0738 6B000000 		.4byte	0x6b
 2817 073c 00000000 		.4byte	.LFB22
 2818 0740 38000000 		.4byte	.LFE22-.LFB22
 2819 0744 01       		.uleb128 0x1
 2820 0745 9C       		.byte	0x9c
 2821 0746 1D       		.uleb128 0x1d
 2822 0747 AD050000 		.4byte	.LASF90
 2823 074b 01       		.byte	0x1
 2824 074c F703     		.2byte	0x3f7
 2825 074e 00000000 		.4byte	.LFB23
 2826 0752 30000000 		.4byte	.LFE23-.LFB23
 2827 0756 01       		.uleb128 0x1
 2828 0757 9C       		.byte	0x9c
 2829 0758 6C070000 		.4byte	0x76c
 2830 075c 17       		.uleb128 0x17
 2831 075d BE040000 		.4byte	.LASF91
 2832 0761 01       		.byte	0x1
 2833 0762 F703     		.2byte	0x3f7
 2834 0764 6B000000 		.4byte	0x6b
 2835 0768 02       		.uleb128 0x2
 2836 0769 91       		.byte	0x91
 2837 076a 77       		.sleb128 -9
 2838 076b 00       		.byte	0
 2839 076c 1C       		.uleb128 0x1c
 2840 076d 13000000 		.4byte	.LASF92
 2841 0771 01       		.byte	0x1
 2842 0772 1004     		.2byte	0x410
 2843 0774 6B000000 		.4byte	0x6b
 2844 0778 00000000 		.4byte	.LFB24
 2845 077c 18000000 		.4byte	.LFE24-.LFB24
 2846 0780 01       		.uleb128 0x1
 2847 0781 9C       		.byte	0x9c
 2848 0782 1B       		.uleb128 0x1b
 2849 0783 E5060000 		.4byte	.LASF93
 2850 0787 01       		.byte	0x1
 2851 0788 2F04     		.2byte	0x42f
 2852 078a 6B000000 		.4byte	0x6b
 2853 078e 00000000 		.4byte	.LFB25
 2854 0792 94000000 		.4byte	.LFE25-.LFB25
 2855 0796 01       		.uleb128 0x1
 2856 0797 9C       		.byte	0x9c
 2857 0798 D9070000 		.4byte	0x7d9
 2858 079c 1E       		.uleb128 0x1e
 2859 079d 70455000 		.ascii	"pEP\000"
 2860 07a1 01       		.byte	0x1
 2861 07a2 2F04     		.2byte	0x42f
 2862 07a4 D9070000 		.4byte	0x7d9
 2863 07a8 02       		.uleb128 0x2
 2864 07a9 91       		.byte	0x91
 2865 07aa 6C       		.sleb128 -20
 2866 07ab 17       		.uleb128 0x17
 2867 07ac BD000000 		.4byte	.LASF94
 2868 07b0 01       		.byte	0x1
 2869 07b1 2F04     		.2byte	0x42f
 2870 07b3 6B000000 		.4byte	0x6b
ARM GAS  C:\Users\Greg\AppData\Local\Temp\ccDYSYHP.s 			page 71


 2871 07b7 02       		.uleb128 0x2
 2872 07b8 91       		.byte	0x91
 2873 07b9 6B       		.sleb128 -21
 2874 07ba 17       		.uleb128 0x17
 2875 07bb B9060000 		.4byte	.LASF95
 2876 07bf 01       		.byte	0x1
 2877 07c0 2F04     		.2byte	0x42f
 2878 07c2 6B000000 		.4byte	0x6b
 2879 07c6 02       		.uleb128 0x2
 2880 07c7 91       		.byte	0x91
 2881 07c8 6A       		.sleb128 -22
 2882 07c9 14       		.uleb128 0x14
 2883 07ca 3F020000 		.4byte	.LASF96
 2884 07ce 01       		.byte	0x1
 2885 07cf 3104     		.2byte	0x431
 2886 07d1 6B000000 		.4byte	0x6b
 2887 07d5 02       		.uleb128 0x2
 2888 07d6 91       		.byte	0x91
 2889 07d7 77       		.sleb128 -9
 2890 07d8 00       		.byte	0
 2891 07d9 09       		.uleb128 0x9
 2892 07da 04       		.byte	0x4
 2893 07db DF070000 		.4byte	0x7df
 2894 07df 18       		.uleb128 0x18
 2895 07e0 8D010000 		.4byte	0x18d
 2896 07e4 0F       		.uleb128 0xf
 2897 07e5 50050000 		.4byte	.LASF97
 2898 07e9 01       		.byte	0x1
 2899 07ea 67       		.byte	0x67
 2900 07eb C4020000 		.4byte	0x2c4
 2901 07ef 05       		.uleb128 0x5
 2902 07f0 03       		.byte	0x3
 2903 07f1 10000000 		.4byte	USBUART_serialStateNotification
 2904 07f5 0F       		.uleb128 0xf
 2905 07f6 44030000 		.4byte	.LASF98
 2906 07fa 01       		.byte	0x1
 2907 07fb 75       		.byte	0x75
 2908 07fc 6B000000 		.4byte	0x6b
 2909 0800 05       		.uleb128 0x5
 2910 0801 03       		.byte	0x3
 2911 0802 00000000 		.4byte	USBUART_activeCom
 2912 0806 1F       		.uleb128 0x1f
 2913 0807 C4060000 		.4byte	.LASF99
 2914 080b 03       		.byte	0x3
 2915 080c D402     		.2byte	0x2d4
 2916 080e B0000000 		.4byte	0xb0
 2917 0812 0A       		.uleb128 0xa
 2918 0813 6B000000 		.4byte	0x6b
 2919 0817 28080000 		.4byte	0x828
 2920 081b 0B       		.uleb128 0xb
 2921 081c B5000000 		.4byte	0xb5
 2922 0820 01       		.byte	0x1
 2923 0821 0B       		.uleb128 0xb
 2924 0822 B5000000 		.4byte	0xb5
 2925 0826 06       		.byte	0x6
 2926 0827 00       		.byte	0
 2927 0828 20       		.uleb128 0x20
ARM GAS  C:\Users\Greg\AppData\Local\Temp\ccDYSYHP.s 			page 72


 2928 0829 FA000000 		.4byte	.LASF100
 2929 082d 01       		.byte	0x1
 2930 082e 24       		.byte	0x24
 2931 082f 39080000 		.4byte	0x839
 2932 0833 05       		.uleb128 0x5
 2933 0834 03       		.byte	0x3
 2934 0835 00000000 		.4byte	USBUART_linesCoding
 2935 0839 05       		.uleb128 0x5
 2936 083a 12080000 		.4byte	0x812
 2937 083e 20       		.uleb128 0x20
 2938 083f 68040000 		.4byte	.LASF101
 2939 0843 01       		.byte	0x1
 2940 0844 3A       		.byte	0x3a
 2941 0845 4F080000 		.4byte	0x84f
 2942 0849 05       		.uleb128 0x5
 2943 084a 03       		.byte	0x3
 2944 084b 00000000 		.4byte	USBUART_linesChanged
 2945 084f 05       		.uleb128 0x5
 2946 0850 F0040000 		.4byte	0x4f0
 2947 0854 0A       		.uleb128 0xa
 2948 0855 77000000 		.4byte	0x77
 2949 0859 64080000 		.4byte	0x864
 2950 085d 0B       		.uleb128 0xb
 2951 085e B5000000 		.4byte	0xb5
 2952 0862 01       		.byte	0x1
 2953 0863 00       		.byte	0
 2954 0864 20       		.uleb128 0x20
 2955 0865 02020000 		.4byte	.LASF102
 2956 0869 01       		.byte	0x1
 2957 086a 40       		.byte	0x40
 2958 086b 75080000 		.4byte	0x875
 2959 086f 05       		.uleb128 0x5
 2960 0870 03       		.byte	0x3
 2961 0871 00000000 		.4byte	USBUART_linesControlBitmap
 2962 0875 05       		.uleb128 0x5
 2963 0876 54080000 		.4byte	0x854
 2964 087a 20       		.uleb128 0x20
 2965 087b 64000000 		.4byte	.LASF103
 2966 087f 01       		.byte	0x1
 2967 0880 45       		.byte	0x45
 2968 0881 8B080000 		.4byte	0x88b
 2969 0885 05       		.uleb128 0x5
 2970 0886 03       		.byte	0x3
 2971 0887 00000000 		.4byte	USBUART_serialStateBitmap
 2972 088b 05       		.uleb128 0x5
 2973 088c 54080000 		.4byte	0x854
 2974 0890 20       		.uleb128 0x20
 2975 0891 26030000 		.4byte	.LASF104
 2976 0895 01       		.byte	0x1
 2977 0896 4A       		.byte	0x4a
 2978 0897 A1080000 		.4byte	0x8a1
 2979 089b 05       		.uleb128 0x5
 2980 089c 03       		.byte	0x3
 2981 089d 00000000 		.4byte	USBUART_cdcDataInEp
 2982 08a1 05       		.uleb128 0x5
 2983 08a2 F0040000 		.4byte	0x4f0
 2984 08a6 20       		.uleb128 0x20
ARM GAS  C:\Users\Greg\AppData\Local\Temp\ccDYSYHP.s 			page 73


 2985 08a7 1D020000 		.4byte	.LASF105
 2986 08ab 01       		.byte	0x1
 2987 08ac 4F       		.byte	0x4f
 2988 08ad B7080000 		.4byte	0x8b7
 2989 08b1 05       		.uleb128 0x5
 2990 08b2 03       		.byte	0x3
 2991 08b3 00000000 		.4byte	USBUART_cdcDataOutEp
 2992 08b7 05       		.uleb128 0x5
 2993 08b8 F0040000 		.4byte	0x4f0
 2994 08bc 20       		.uleb128 0x20
 2995 08bd D1010000 		.4byte	.LASF106
 2996 08c1 01       		.byte	0x1
 2997 08c2 55       		.byte	0x55
 2998 08c3 CD080000 		.4byte	0x8cd
 2999 08c7 05       		.uleb128 0x5
 3000 08c8 03       		.byte	0x3
 3001 08c9 00000000 		.4byte	USBUART_cdcCommInInterruptEp
 3002 08cd 05       		.uleb128 0x5
 3003 08ce F0040000 		.4byte	0x4f0
 3004 08d2 0A       		.uleb128 0xa
 3005 08d3 31010000 		.4byte	0x131
 3006 08d7 E2080000 		.4byte	0x8e2
 3007 08db 0B       		.uleb128 0xb
 3008 08dc B5000000 		.4byte	0xb5
 3009 08e0 08       		.byte	0x8
 3010 08e1 00       		.byte	0
 3011 08e2 21       		.uleb128 0x21
 3012 08e3 D3000000 		.4byte	.LASF107
 3013 08e7 04       		.byte	0x4
 3014 08e8 79       		.byte	0x79
 3015 08e9 ED080000 		.4byte	0x8ed
 3016 08ed 05       		.uleb128 0x5
 3017 08ee D2080000 		.4byte	0x8d2
 3018 08f2 21       		.uleb128 0x21
 3019 08f3 14030000 		.4byte	.LASF108
 3020 08f7 04       		.byte	0x4
 3021 08f8 7A       		.byte	0x7a
 3022 08f9 FD080000 		.4byte	0x8fd
 3023 08fd 05       		.uleb128 0x5
 3024 08fe FD010000 		.4byte	0x1fd
 3025 0902 00       		.byte	0
 3026              		.section	.debug_abbrev,"",%progbits
 3027              	.Ldebug_abbrev0:
 3028 0000 01       		.uleb128 0x1
 3029 0001 11       		.uleb128 0x11
 3030 0002 01       		.byte	0x1
 3031 0003 25       		.uleb128 0x25
 3032 0004 0E       		.uleb128 0xe
 3033 0005 13       		.uleb128 0x13
 3034 0006 0B       		.uleb128 0xb
 3035 0007 03       		.uleb128 0x3
 3036 0008 0E       		.uleb128 0xe
 3037 0009 1B       		.uleb128 0x1b
 3038 000a 0E       		.uleb128 0xe
 3039 000b 55       		.uleb128 0x55
 3040 000c 17       		.uleb128 0x17
 3041 000d 11       		.uleb128 0x11
ARM GAS  C:\Users\Greg\AppData\Local\Temp\ccDYSYHP.s 			page 74


 3042 000e 01       		.uleb128 0x1
 3043 000f 10       		.uleb128 0x10
 3044 0010 17       		.uleb128 0x17
 3045 0011 00       		.byte	0
 3046 0012 00       		.byte	0
 3047 0013 02       		.uleb128 0x2
 3048 0014 24       		.uleb128 0x24
 3049 0015 00       		.byte	0
 3050 0016 0B       		.uleb128 0xb
 3051 0017 0B       		.uleb128 0xb
 3052 0018 3E       		.uleb128 0x3e
 3053 0019 0B       		.uleb128 0xb
 3054 001a 03       		.uleb128 0x3
 3055 001b 0E       		.uleb128 0xe
 3056 001c 00       		.byte	0
 3057 001d 00       		.byte	0
 3058 001e 03       		.uleb128 0x3
 3059 001f 24       		.uleb128 0x24
 3060 0020 00       		.byte	0
 3061 0021 0B       		.uleb128 0xb
 3062 0022 0B       		.uleb128 0xb
 3063 0023 3E       		.uleb128 0x3e
 3064 0024 0B       		.uleb128 0xb
 3065 0025 03       		.uleb128 0x3
 3066 0026 08       		.uleb128 0x8
 3067 0027 00       		.byte	0
 3068 0028 00       		.byte	0
 3069 0029 04       		.uleb128 0x4
 3070 002a 16       		.uleb128 0x16
 3071 002b 00       		.byte	0
 3072 002c 03       		.uleb128 0x3
 3073 002d 0E       		.uleb128 0xe
 3074 002e 3A       		.uleb128 0x3a
 3075 002f 0B       		.uleb128 0xb
 3076 0030 3B       		.uleb128 0x3b
 3077 0031 05       		.uleb128 0x5
 3078 0032 49       		.uleb128 0x49
 3079 0033 13       		.uleb128 0x13
 3080 0034 00       		.byte	0
 3081 0035 00       		.byte	0
 3082 0036 05       		.uleb128 0x5
 3083 0037 35       		.uleb128 0x35
 3084 0038 00       		.byte	0
 3085 0039 49       		.uleb128 0x49
 3086 003a 13       		.uleb128 0x13
 3087 003b 00       		.byte	0
 3088 003c 00       		.byte	0
 3089 003d 06       		.uleb128 0x6
 3090 003e 13       		.uleb128 0x13
 3091 003f 01       		.byte	0x1
 3092 0040 0B       		.uleb128 0xb
 3093 0041 0B       		.uleb128 0xb
 3094 0042 3A       		.uleb128 0x3a
 3095 0043 0B       		.uleb128 0xb
 3096 0044 3B       		.uleb128 0x3b
 3097 0045 0B       		.uleb128 0xb
 3098 0046 01       		.uleb128 0x1
ARM GAS  C:\Users\Greg\AppData\Local\Temp\ccDYSYHP.s 			page 75


 3099 0047 13       		.uleb128 0x13
 3100 0048 00       		.byte	0
 3101 0049 00       		.byte	0
 3102 004a 07       		.uleb128 0x7
 3103 004b 0D       		.uleb128 0xd
 3104 004c 00       		.byte	0
 3105 004d 03       		.uleb128 0x3
 3106 004e 0E       		.uleb128 0xe
 3107 004f 3A       		.uleb128 0x3a
 3108 0050 0B       		.uleb128 0xb
 3109 0051 3B       		.uleb128 0x3b
 3110 0052 0B       		.uleb128 0xb
 3111 0053 49       		.uleb128 0x49
 3112 0054 13       		.uleb128 0x13
 3113 0055 38       		.uleb128 0x38
 3114 0056 0B       		.uleb128 0xb
 3115 0057 00       		.byte	0
 3116 0058 00       		.byte	0
 3117 0059 08       		.uleb128 0x8
 3118 005a 16       		.uleb128 0x16
 3119 005b 00       		.byte	0
 3120 005c 03       		.uleb128 0x3
 3121 005d 0E       		.uleb128 0xe
 3122 005e 3A       		.uleb128 0x3a
 3123 005f 0B       		.uleb128 0xb
 3124 0060 3B       		.uleb128 0x3b
 3125 0061 0B       		.uleb128 0xb
 3126 0062 49       		.uleb128 0x49
 3127 0063 13       		.uleb128 0x13
 3128 0064 00       		.byte	0
 3129 0065 00       		.byte	0
 3130 0066 09       		.uleb128 0x9
 3131 0067 0F       		.uleb128 0xf
 3132 0068 00       		.byte	0
 3133 0069 0B       		.uleb128 0xb
 3134 006a 0B       		.uleb128 0xb
 3135 006b 49       		.uleb128 0x49
 3136 006c 13       		.uleb128 0x13
 3137 006d 00       		.byte	0
 3138 006e 00       		.byte	0
 3139 006f 0A       		.uleb128 0xa
 3140 0070 01       		.uleb128 0x1
 3141 0071 01       		.byte	0x1
 3142 0072 49       		.uleb128 0x49
 3143 0073 13       		.uleb128 0x13
 3144 0074 01       		.uleb128 0x1
 3145 0075 13       		.uleb128 0x13
 3146 0076 00       		.byte	0
 3147 0077 00       		.byte	0
 3148 0078 0B       		.uleb128 0xb
 3149 0079 21       		.uleb128 0x21
 3150 007a 00       		.byte	0
 3151 007b 49       		.uleb128 0x49
 3152 007c 13       		.uleb128 0x13
 3153 007d 2F       		.uleb128 0x2f
 3154 007e 0B       		.uleb128 0xb
 3155 007f 00       		.byte	0
ARM GAS  C:\Users\Greg\AppData\Local\Temp\ccDYSYHP.s 			page 76


 3156 0080 00       		.byte	0
 3157 0081 0C       		.uleb128 0xc
 3158 0082 13       		.uleb128 0x13
 3159 0083 01       		.byte	0x1
 3160 0084 0B       		.uleb128 0xb
 3161 0085 0B       		.uleb128 0xb
 3162 0086 3A       		.uleb128 0x3a
 3163 0087 0B       		.uleb128 0xb
 3164 0088 3B       		.uleb128 0x3b
 3165 0089 05       		.uleb128 0x5
 3166 008a 01       		.uleb128 0x1
 3167 008b 13       		.uleb128 0x13
 3168 008c 00       		.byte	0
 3169 008d 00       		.byte	0
 3170 008e 0D       		.uleb128 0xd
 3171 008f 0D       		.uleb128 0xd
 3172 0090 00       		.byte	0
 3173 0091 03       		.uleb128 0x3
 3174 0092 0E       		.uleb128 0xe
 3175 0093 3A       		.uleb128 0x3a
 3176 0094 0B       		.uleb128 0xb
 3177 0095 3B       		.uleb128 0x3b
 3178 0096 05       		.uleb128 0x5
 3179 0097 49       		.uleb128 0x49
 3180 0098 13       		.uleb128 0x13
 3181 0099 38       		.uleb128 0x38
 3182 009a 0B       		.uleb128 0xb
 3183 009b 00       		.byte	0
 3184 009c 00       		.byte	0
 3185 009d 0E       		.uleb128 0xe
 3186 009e 2E       		.uleb128 0x2e
 3187 009f 01       		.byte	0x1
 3188 00a0 3F       		.uleb128 0x3f
 3189 00a1 19       		.uleb128 0x19
 3190 00a2 03       		.uleb128 0x3
 3191 00a3 0E       		.uleb128 0xe
 3192 00a4 3A       		.uleb128 0x3a
 3193 00a5 0B       		.uleb128 0xb
 3194 00a6 3B       		.uleb128 0x3b
 3195 00a7 0B       		.uleb128 0xb
 3196 00a8 27       		.uleb128 0x27
 3197 00a9 19       		.uleb128 0x19
 3198 00aa 49       		.uleb128 0x49
 3199 00ab 13       		.uleb128 0x13
 3200 00ac 11       		.uleb128 0x11
 3201 00ad 01       		.uleb128 0x1
 3202 00ae 12       		.uleb128 0x12
 3203 00af 06       		.uleb128 0x6
 3204 00b0 40       		.uleb128 0x40
 3205 00b1 18       		.uleb128 0x18
 3206 00b2 9642     		.uleb128 0x2116
 3207 00b4 19       		.uleb128 0x19
 3208 00b5 01       		.uleb128 0x1
 3209 00b6 13       		.uleb128 0x13
 3210 00b7 00       		.byte	0
 3211 00b8 00       		.byte	0
 3212 00b9 0F       		.uleb128 0xf
ARM GAS  C:\Users\Greg\AppData\Local\Temp\ccDYSYHP.s 			page 77


 3213 00ba 34       		.uleb128 0x34
 3214 00bb 00       		.byte	0
 3215 00bc 03       		.uleb128 0x3
 3216 00bd 0E       		.uleb128 0xe
 3217 00be 3A       		.uleb128 0x3a
 3218 00bf 0B       		.uleb128 0xb
 3219 00c0 3B       		.uleb128 0x3b
 3220 00c1 0B       		.uleb128 0xb
 3221 00c2 49       		.uleb128 0x49
 3222 00c3 13       		.uleb128 0x13
 3223 00c4 02       		.uleb128 0x2
 3224 00c5 18       		.uleb128 0x18
 3225 00c6 00       		.byte	0
 3226 00c7 00       		.byte	0
 3227 00c8 10       		.uleb128 0x10
 3228 00c9 2E       		.uleb128 0x2e
 3229 00ca 01       		.byte	0x1
 3230 00cb 3F       		.uleb128 0x3f
 3231 00cc 19       		.uleb128 0x19
 3232 00cd 03       		.uleb128 0x3
 3233 00ce 0E       		.uleb128 0xe
 3234 00cf 3A       		.uleb128 0x3a
 3235 00d0 0B       		.uleb128 0xb
 3236 00d1 3B       		.uleb128 0x3b
 3237 00d2 0B       		.uleb128 0xb
 3238 00d3 27       		.uleb128 0x27
 3239 00d4 19       		.uleb128 0x19
 3240 00d5 49       		.uleb128 0x49
 3241 00d6 13       		.uleb128 0x13
 3242 00d7 11       		.uleb128 0x11
 3243 00d8 01       		.uleb128 0x1
 3244 00d9 12       		.uleb128 0x12
 3245 00da 06       		.uleb128 0x6
 3246 00db 40       		.uleb128 0x40
 3247 00dc 18       		.uleb128 0x18
 3248 00dd 9742     		.uleb128 0x2117
 3249 00df 19       		.uleb128 0x19
 3250 00e0 01       		.uleb128 0x1
 3251 00e1 13       		.uleb128 0x13
 3252 00e2 00       		.byte	0
 3253 00e3 00       		.byte	0
 3254 00e4 11       		.uleb128 0x11
 3255 00e5 05       		.uleb128 0x5
 3256 00e6 00       		.byte	0
 3257 00e7 03       		.uleb128 0x3
 3258 00e8 0E       		.uleb128 0xe
 3259 00e9 3A       		.uleb128 0x3a
 3260 00ea 0B       		.uleb128 0xb
 3261 00eb 3B       		.uleb128 0x3b
 3262 00ec 0B       		.uleb128 0xb
 3263 00ed 49       		.uleb128 0x49
 3264 00ee 13       		.uleb128 0x13
 3265 00ef 02       		.uleb128 0x2
 3266 00f0 18       		.uleb128 0x18
 3267 00f1 00       		.byte	0
 3268 00f2 00       		.byte	0
 3269 00f3 12       		.uleb128 0x12
ARM GAS  C:\Users\Greg\AppData\Local\Temp\ccDYSYHP.s 			page 78


 3270 00f4 34       		.uleb128 0x34
 3271 00f5 00       		.byte	0
 3272 00f6 03       		.uleb128 0x3
 3273 00f7 08       		.uleb128 0x8
 3274 00f8 3A       		.uleb128 0x3a
 3275 00f9 0B       		.uleb128 0xb
 3276 00fa 3B       		.uleb128 0x3b
 3277 00fb 0B       		.uleb128 0xb
 3278 00fc 49       		.uleb128 0x49
 3279 00fd 13       		.uleb128 0x13
 3280 00fe 02       		.uleb128 0x2
 3281 00ff 18       		.uleb128 0x18
 3282 0100 00       		.byte	0
 3283 0101 00       		.byte	0
 3284 0102 13       		.uleb128 0x13
 3285 0103 2E       		.uleb128 0x2e
 3286 0104 01       		.byte	0x1
 3287 0105 3F       		.uleb128 0x3f
 3288 0106 19       		.uleb128 0x19
 3289 0107 03       		.uleb128 0x3
 3290 0108 0E       		.uleb128 0xe
 3291 0109 3A       		.uleb128 0x3a
 3292 010a 0B       		.uleb128 0xb
 3293 010b 3B       		.uleb128 0x3b
 3294 010c 05       		.uleb128 0x5
 3295 010d 27       		.uleb128 0x27
 3296 010e 19       		.uleb128 0x19
 3297 010f 49       		.uleb128 0x49
 3298 0110 13       		.uleb128 0x13
 3299 0111 11       		.uleb128 0x11
 3300 0112 01       		.uleb128 0x1
 3301 0113 12       		.uleb128 0x12
 3302 0114 06       		.uleb128 0x6
 3303 0115 40       		.uleb128 0x40
 3304 0116 18       		.uleb128 0x18
 3305 0117 9642     		.uleb128 0x2116
 3306 0119 19       		.uleb128 0x19
 3307 011a 01       		.uleb128 0x1
 3308 011b 13       		.uleb128 0x13
 3309 011c 00       		.byte	0
 3310 011d 00       		.byte	0
 3311 011e 14       		.uleb128 0x14
 3312 011f 34       		.uleb128 0x34
 3313 0120 00       		.byte	0
 3314 0121 03       		.uleb128 0x3
 3315 0122 0E       		.uleb128 0xe
 3316 0123 3A       		.uleb128 0x3a
 3317 0124 0B       		.uleb128 0xb
 3318 0125 3B       		.uleb128 0x3b
 3319 0126 05       		.uleb128 0x5
 3320 0127 49       		.uleb128 0x49
 3321 0128 13       		.uleb128 0x13
 3322 0129 02       		.uleb128 0x2
 3323 012a 18       		.uleb128 0x18
 3324 012b 00       		.byte	0
 3325 012c 00       		.byte	0
 3326 012d 15       		.uleb128 0x15
ARM GAS  C:\Users\Greg\AppData\Local\Temp\ccDYSYHP.s 			page 79


 3327 012e 34       		.uleb128 0x34
 3328 012f 00       		.byte	0
 3329 0130 03       		.uleb128 0x3
 3330 0131 08       		.uleb128 0x8
 3331 0132 3A       		.uleb128 0x3a
 3332 0133 0B       		.uleb128 0xb
 3333 0134 3B       		.uleb128 0x3b
 3334 0135 05       		.uleb128 0x5
 3335 0136 49       		.uleb128 0x49
 3336 0137 13       		.uleb128 0x13
 3337 0138 02       		.uleb128 0x2
 3338 0139 18       		.uleb128 0x18
 3339 013a 00       		.byte	0
 3340 013b 00       		.byte	0
 3341 013c 16       		.uleb128 0x16
 3342 013d 2E       		.uleb128 0x2e
 3343 013e 01       		.byte	0x1
 3344 013f 3F       		.uleb128 0x3f
 3345 0140 19       		.uleb128 0x19
 3346 0141 03       		.uleb128 0x3
 3347 0142 0E       		.uleb128 0xe
 3348 0143 3A       		.uleb128 0x3a
 3349 0144 0B       		.uleb128 0xb
 3350 0145 3B       		.uleb128 0x3b
 3351 0146 05       		.uleb128 0x5
 3352 0147 27       		.uleb128 0x27
 3353 0148 19       		.uleb128 0x19
 3354 0149 11       		.uleb128 0x11
 3355 014a 01       		.uleb128 0x1
 3356 014b 12       		.uleb128 0x12
 3357 014c 06       		.uleb128 0x6
 3358 014d 40       		.uleb128 0x40
 3359 014e 18       		.uleb128 0x18
 3360 014f 9642     		.uleb128 0x2116
 3361 0151 19       		.uleb128 0x19
 3362 0152 01       		.uleb128 0x1
 3363 0153 13       		.uleb128 0x13
 3364 0154 00       		.byte	0
 3365 0155 00       		.byte	0
 3366 0156 17       		.uleb128 0x17
 3367 0157 05       		.uleb128 0x5
 3368 0158 00       		.byte	0
 3369 0159 03       		.uleb128 0x3
 3370 015a 0E       		.uleb128 0xe
 3371 015b 3A       		.uleb128 0x3a
 3372 015c 0B       		.uleb128 0xb
 3373 015d 3B       		.uleb128 0x3b
 3374 015e 05       		.uleb128 0x5
 3375 015f 49       		.uleb128 0x49
 3376 0160 13       		.uleb128 0x13
 3377 0161 02       		.uleb128 0x2
 3378 0162 18       		.uleb128 0x18
 3379 0163 00       		.byte	0
 3380 0164 00       		.byte	0
 3381 0165 18       		.uleb128 0x18
 3382 0166 26       		.uleb128 0x26
 3383 0167 00       		.byte	0
ARM GAS  C:\Users\Greg\AppData\Local\Temp\ccDYSYHP.s 			page 80


 3384 0168 49       		.uleb128 0x49
 3385 0169 13       		.uleb128 0x13
 3386 016a 00       		.byte	0
 3387 016b 00       		.byte	0
 3388 016c 19       		.uleb128 0x19
 3389 016d 2E       		.uleb128 0x2e
 3390 016e 01       		.byte	0x1
 3391 016f 03       		.uleb128 0x3
 3392 0170 0E       		.uleb128 0xe
 3393 0171 3A       		.uleb128 0x3a
 3394 0172 0B       		.uleb128 0xb
 3395 0173 3B       		.uleb128 0x3b
 3396 0174 05       		.uleb128 0x5
 3397 0175 27       		.uleb128 0x27
 3398 0176 19       		.uleb128 0x19
 3399 0177 49       		.uleb128 0x49
 3400 0178 13       		.uleb128 0x13
 3401 0179 11       		.uleb128 0x11
 3402 017a 01       		.uleb128 0x1
 3403 017b 12       		.uleb128 0x12
 3404 017c 06       		.uleb128 0x6
 3405 017d 40       		.uleb128 0x40
 3406 017e 18       		.uleb128 0x18
 3407 017f 9742     		.uleb128 0x2117
 3408 0181 19       		.uleb128 0x19
 3409 0182 01       		.uleb128 0x1
 3410 0183 13       		.uleb128 0x13
 3411 0184 00       		.byte	0
 3412 0185 00       		.byte	0
 3413 0186 1A       		.uleb128 0x1a
 3414 0187 2E       		.uleb128 0x2e
 3415 0188 00       		.byte	0
 3416 0189 3F       		.uleb128 0x3f
 3417 018a 19       		.uleb128 0x19
 3418 018b 03       		.uleb128 0x3
 3419 018c 0E       		.uleb128 0xe
 3420 018d 3A       		.uleb128 0x3a
 3421 018e 0B       		.uleb128 0xb
 3422 018f 3B       		.uleb128 0x3b
 3423 0190 05       		.uleb128 0x5
 3424 0191 27       		.uleb128 0x27
 3425 0192 19       		.uleb128 0x19
 3426 0193 49       		.uleb128 0x49
 3427 0194 13       		.uleb128 0x13
 3428 0195 11       		.uleb128 0x11
 3429 0196 01       		.uleb128 0x1
 3430 0197 12       		.uleb128 0x12
 3431 0198 06       		.uleb128 0x6
 3432 0199 40       		.uleb128 0x40
 3433 019a 18       		.uleb128 0x18
 3434 019b 9642     		.uleb128 0x2116
 3435 019d 19       		.uleb128 0x19
 3436 019e 00       		.byte	0
 3437 019f 00       		.byte	0
 3438 01a0 1B       		.uleb128 0x1b
 3439 01a1 2E       		.uleb128 0x2e
 3440 01a2 01       		.byte	0x1
ARM GAS  C:\Users\Greg\AppData\Local\Temp\ccDYSYHP.s 			page 81


 3441 01a3 3F       		.uleb128 0x3f
 3442 01a4 19       		.uleb128 0x19
 3443 01a5 03       		.uleb128 0x3
 3444 01a6 0E       		.uleb128 0xe
 3445 01a7 3A       		.uleb128 0x3a
 3446 01a8 0B       		.uleb128 0xb
 3447 01a9 3B       		.uleb128 0x3b
 3448 01aa 05       		.uleb128 0x5
 3449 01ab 27       		.uleb128 0x27
 3450 01ac 19       		.uleb128 0x19
 3451 01ad 49       		.uleb128 0x49
 3452 01ae 13       		.uleb128 0x13
 3453 01af 11       		.uleb128 0x11
 3454 01b0 01       		.uleb128 0x1
 3455 01b1 12       		.uleb128 0x12
 3456 01b2 06       		.uleb128 0x6
 3457 01b3 40       		.uleb128 0x40
 3458 01b4 18       		.uleb128 0x18
 3459 01b5 9742     		.uleb128 0x2117
 3460 01b7 19       		.uleb128 0x19
 3461 01b8 01       		.uleb128 0x1
 3462 01b9 13       		.uleb128 0x13
 3463 01ba 00       		.byte	0
 3464 01bb 00       		.byte	0
 3465 01bc 1C       		.uleb128 0x1c
 3466 01bd 2E       		.uleb128 0x2e
 3467 01be 00       		.byte	0
 3468 01bf 3F       		.uleb128 0x3f
 3469 01c0 19       		.uleb128 0x19
 3470 01c1 03       		.uleb128 0x3
 3471 01c2 0E       		.uleb128 0xe
 3472 01c3 3A       		.uleb128 0x3a
 3473 01c4 0B       		.uleb128 0xb
 3474 01c5 3B       		.uleb128 0x3b
 3475 01c6 05       		.uleb128 0x5
 3476 01c7 27       		.uleb128 0x27
 3477 01c8 19       		.uleb128 0x19
 3478 01c9 49       		.uleb128 0x49
 3479 01ca 13       		.uleb128 0x13
 3480 01cb 11       		.uleb128 0x11
 3481 01cc 01       		.uleb128 0x1
 3482 01cd 12       		.uleb128 0x12
 3483 01ce 06       		.uleb128 0x6
 3484 01cf 40       		.uleb128 0x40
 3485 01d0 18       		.uleb128 0x18
 3486 01d1 9742     		.uleb128 0x2117
 3487 01d3 19       		.uleb128 0x19
 3488 01d4 00       		.byte	0
 3489 01d5 00       		.byte	0
 3490 01d6 1D       		.uleb128 0x1d
 3491 01d7 2E       		.uleb128 0x2e
 3492 01d8 01       		.byte	0x1
 3493 01d9 3F       		.uleb128 0x3f
 3494 01da 19       		.uleb128 0x19
 3495 01db 03       		.uleb128 0x3
 3496 01dc 0E       		.uleb128 0xe
 3497 01dd 3A       		.uleb128 0x3a
ARM GAS  C:\Users\Greg\AppData\Local\Temp\ccDYSYHP.s 			page 82


 3498 01de 0B       		.uleb128 0xb
 3499 01df 3B       		.uleb128 0x3b
 3500 01e0 05       		.uleb128 0x5
 3501 01e1 27       		.uleb128 0x27
 3502 01e2 19       		.uleb128 0x19
 3503 01e3 11       		.uleb128 0x11
 3504 01e4 01       		.uleb128 0x1
 3505 01e5 12       		.uleb128 0x12
 3506 01e6 06       		.uleb128 0x6
 3507 01e7 40       		.uleb128 0x40
 3508 01e8 18       		.uleb128 0x18
 3509 01e9 9742     		.uleb128 0x2117
 3510 01eb 19       		.uleb128 0x19
 3511 01ec 01       		.uleb128 0x1
 3512 01ed 13       		.uleb128 0x13
 3513 01ee 00       		.byte	0
 3514 01ef 00       		.byte	0
 3515 01f0 1E       		.uleb128 0x1e
 3516 01f1 05       		.uleb128 0x5
 3517 01f2 00       		.byte	0
 3518 01f3 03       		.uleb128 0x3
 3519 01f4 08       		.uleb128 0x8
 3520 01f5 3A       		.uleb128 0x3a
 3521 01f6 0B       		.uleb128 0xb
 3522 01f7 3B       		.uleb128 0x3b
 3523 01f8 05       		.uleb128 0x5
 3524 01f9 49       		.uleb128 0x49
 3525 01fa 13       		.uleb128 0x13
 3526 01fb 02       		.uleb128 0x2
 3527 01fc 18       		.uleb128 0x18
 3528 01fd 00       		.byte	0
 3529 01fe 00       		.byte	0
 3530 01ff 1F       		.uleb128 0x1f
 3531 0200 34       		.uleb128 0x34
 3532 0201 00       		.byte	0
 3533 0202 03       		.uleb128 0x3
 3534 0203 0E       		.uleb128 0xe
 3535 0204 3A       		.uleb128 0x3a
 3536 0205 0B       		.uleb128 0xb
 3537 0206 3B       		.uleb128 0x3b
 3538 0207 05       		.uleb128 0x5
 3539 0208 49       		.uleb128 0x49
 3540 0209 13       		.uleb128 0x13
 3541 020a 3F       		.uleb128 0x3f
 3542 020b 19       		.uleb128 0x19
 3543 020c 3C       		.uleb128 0x3c
 3544 020d 19       		.uleb128 0x19
 3545 020e 00       		.byte	0
 3546 020f 00       		.byte	0
 3547 0210 20       		.uleb128 0x20
 3548 0211 34       		.uleb128 0x34
 3549 0212 00       		.byte	0
 3550 0213 03       		.uleb128 0x3
 3551 0214 0E       		.uleb128 0xe
 3552 0215 3A       		.uleb128 0x3a
 3553 0216 0B       		.uleb128 0xb
 3554 0217 3B       		.uleb128 0x3b
ARM GAS  C:\Users\Greg\AppData\Local\Temp\ccDYSYHP.s 			page 83


 3555 0218 0B       		.uleb128 0xb
 3556 0219 49       		.uleb128 0x49
 3557 021a 13       		.uleb128 0x13
 3558 021b 3F       		.uleb128 0x3f
 3559 021c 19       		.uleb128 0x19
 3560 021d 02       		.uleb128 0x2
 3561 021e 18       		.uleb128 0x18
 3562 021f 00       		.byte	0
 3563 0220 00       		.byte	0
 3564 0221 21       		.uleb128 0x21
 3565 0222 34       		.uleb128 0x34
 3566 0223 00       		.byte	0
 3567 0224 03       		.uleb128 0x3
 3568 0225 0E       		.uleb128 0xe
 3569 0226 3A       		.uleb128 0x3a
 3570 0227 0B       		.uleb128 0xb
 3571 0228 3B       		.uleb128 0x3b
 3572 0229 0B       		.uleb128 0xb
 3573 022a 49       		.uleb128 0x49
 3574 022b 13       		.uleb128 0x13
 3575 022c 3F       		.uleb128 0x3f
 3576 022d 19       		.uleb128 0x19
 3577 022e 3C       		.uleb128 0x3c
 3578 022f 19       		.uleb128 0x19
 3579 0230 00       		.byte	0
 3580 0231 00       		.byte	0
 3581 0232 00       		.byte	0
 3582              		.section	.debug_aranges,"",%progbits
 3583 0000 E4000000 		.4byte	0xe4
 3584 0004 0200     		.2byte	0x2
 3585 0006 00000000 		.4byte	.Ldebug_info0
 3586 000a 04       		.byte	0x4
 3587 000b 00       		.byte	0
 3588 000c 0000     		.2byte	0
 3589 000e 0000     		.2byte	0
 3590 0010 00000000 		.4byte	.LFB0
 3591 0014 E8000000 		.4byte	.LFE0-.LFB0
 3592 0018 00000000 		.4byte	.LFB1
 3593 001c 60000000 		.4byte	.LFE1-.LFB1
 3594 0020 00000000 		.4byte	.LFB2
 3595 0024 A8000000 		.4byte	.LFE2-.LFB2
 3596 0028 00000000 		.4byte	.LFB3
 3597 002c 6C000000 		.4byte	.LFE3-.LFB3
 3598 0030 00000000 		.4byte	.LFB4
 3599 0034 2E000000 		.4byte	.LFE4-.LFB4
 3600 0038 00000000 		.4byte	.LFB5
 3601 003c DC000000 		.4byte	.LFE5-.LFB5
 3602 0040 00000000 		.4byte	.LFB6
 3603 0044 38000000 		.4byte	.LFE6-.LFB6
 3604 0048 00000000 		.4byte	.LFB7
 3605 004c 38000000 		.4byte	.LFE7-.LFB7
 3606 0050 00000000 		.4byte	.LFB8
 3607 0054 50000000 		.4byte	.LFE8-.LFB8
 3608 0058 00000000 		.4byte	.LFB9
 3609 005c 24000000 		.4byte	.LFE9-.LFB9
 3610 0060 00000000 		.4byte	.LFB10
 3611 0064 24000000 		.4byte	.LFE10-.LFB10
ARM GAS  C:\Users\Greg\AppData\Local\Temp\ccDYSYHP.s 			page 84


 3612 0068 00000000 		.4byte	.LFB11
 3613 006c 3C000000 		.4byte	.LFE11-.LFB11
 3614 0070 00000000 		.4byte	.LFB12
 3615 0074 50000000 		.4byte	.LFE12-.LFB12
 3616 0078 00000000 		.4byte	.LFB13
 3617 007c 34000000 		.4byte	.LFE13-.LFB13
 3618 0080 00000000 		.4byte	.LFB14
 3619 0084 58000000 		.4byte	.LFE14-.LFB14
 3620 0088 00000000 		.4byte	.LFB15
 3621 008c 8C000000 		.4byte	.LFE15-.LFB15
 3622 0090 00000000 		.4byte	.LFB16
 3623 0094 2C000000 		.4byte	.LFE16-.LFB16
 3624 0098 00000000 		.4byte	.LFB17
 3625 009c 2C000000 		.4byte	.LFE17-.LFB17
 3626 00a0 00000000 		.4byte	.LFB18
 3627 00a4 2C000000 		.4byte	.LFE18-.LFB18
 3628 00a8 00000000 		.4byte	.LFB19
 3629 00ac 24000000 		.4byte	.LFE19-.LFB19
 3630 00b0 00000000 		.4byte	.LFB20
 3631 00b4 A8000000 		.4byte	.LFE20-.LFB20
 3632 00b8 00000000 		.4byte	.LFB21
 3633 00bc 24000000 		.4byte	.LFE21-.LFB21
 3634 00c0 00000000 		.4byte	.LFB22
 3635 00c4 38000000 		.4byte	.LFE22-.LFB22
 3636 00c8 00000000 		.4byte	.LFB23
 3637 00cc 30000000 		.4byte	.LFE23-.LFB23
 3638 00d0 00000000 		.4byte	.LFB24
 3639 00d4 18000000 		.4byte	.LFE24-.LFB24
 3640 00d8 00000000 		.4byte	.LFB25
 3641 00dc 94000000 		.4byte	.LFE25-.LFB25
 3642 00e0 00000000 		.4byte	0
 3643 00e4 00000000 		.4byte	0
 3644              		.section	.debug_ranges,"",%progbits
 3645              	.Ldebug_ranges0:
 3646 0000 00000000 		.4byte	.LFB0
 3647 0004 E8000000 		.4byte	.LFE0
 3648 0008 00000000 		.4byte	.LFB1
 3649 000c 60000000 		.4byte	.LFE1
 3650 0010 00000000 		.4byte	.LFB2
 3651 0014 A8000000 		.4byte	.LFE2
 3652 0018 00000000 		.4byte	.LFB3
 3653 001c 6C000000 		.4byte	.LFE3
 3654 0020 00000000 		.4byte	.LFB4
 3655 0024 2E000000 		.4byte	.LFE4
 3656 0028 00000000 		.4byte	.LFB5
 3657 002c DC000000 		.4byte	.LFE5
 3658 0030 00000000 		.4byte	.LFB6
 3659 0034 38000000 		.4byte	.LFE6
 3660 0038 00000000 		.4byte	.LFB7
 3661 003c 38000000 		.4byte	.LFE7
 3662 0040 00000000 		.4byte	.LFB8
 3663 0044 50000000 		.4byte	.LFE8
 3664 0048 00000000 		.4byte	.LFB9
 3665 004c 24000000 		.4byte	.LFE9
 3666 0050 00000000 		.4byte	.LFB10
 3667 0054 24000000 		.4byte	.LFE10
 3668 0058 00000000 		.4byte	.LFB11
ARM GAS  C:\Users\Greg\AppData\Local\Temp\ccDYSYHP.s 			page 85


 3669 005c 3C000000 		.4byte	.LFE11
 3670 0060 00000000 		.4byte	.LFB12
 3671 0064 50000000 		.4byte	.LFE12
 3672 0068 00000000 		.4byte	.LFB13
 3673 006c 34000000 		.4byte	.LFE13
 3674 0070 00000000 		.4byte	.LFB14
 3675 0074 58000000 		.4byte	.LFE14
 3676 0078 00000000 		.4byte	.LFB15
 3677 007c 8C000000 		.4byte	.LFE15
 3678 0080 00000000 		.4byte	.LFB16
 3679 0084 2C000000 		.4byte	.LFE16
 3680 0088 00000000 		.4byte	.LFB17
 3681 008c 2C000000 		.4byte	.LFE17
 3682 0090 00000000 		.4byte	.LFB18
 3683 0094 2C000000 		.4byte	.LFE18
 3684 0098 00000000 		.4byte	.LFB19
 3685 009c 24000000 		.4byte	.LFE19
 3686 00a0 00000000 		.4byte	.LFB20
 3687 00a4 A8000000 		.4byte	.LFE20
 3688 00a8 00000000 		.4byte	.LFB21
 3689 00ac 24000000 		.4byte	.LFE21
 3690 00b0 00000000 		.4byte	.LFB22
 3691 00b4 38000000 		.4byte	.LFE22
 3692 00b8 00000000 		.4byte	.LFB23
 3693 00bc 30000000 		.4byte	.LFE23
 3694 00c0 00000000 		.4byte	.LFB24
 3695 00c4 18000000 		.4byte	.LFE24
 3696 00c8 00000000 		.4byte	.LFB25
 3697 00cc 94000000 		.4byte	.LFE25
 3698 00d0 00000000 		.4byte	0
 3699 00d4 00000000 		.4byte	0
 3700              		.section	.debug_line,"",%progbits
 3701              	.Ldebug_line0:
 3702 0000 08030000 		.section	.debug_str,"MS",%progbits,1
 3702      02006600 
 3702      00000201 
 3702      FB0E0D00 
 3702      01010101 
 3703              	.LASF36:
 3704 0000 70537461 		.ascii	"pStatusBlock\000"
 3704      74757342 
 3704      6C6F636B 
 3704      00
 3705              	.LASF34:
 3706 000d 636F756E 		.ascii	"count\000"
 3706      7400
 3707              	.LASF92:
 3708 0013 55534255 		.ascii	"USBUART_GetComPort\000"
 3708      4152545F 
 3708      47657443 
 3708      6F6D506F 
 3708      727400
 3709              	.LASF10:
 3710 0026 75696E74 		.ascii	"uint16\000"
 3710      313600
 3711              	.LASF53:
 3712 002d 55534255 		.ascii	"USBUART_GetInterfaceComPort\000"
ARM GAS  C:\Users\Greg\AppData\Local\Temp\ccDYSYHP.s 			page 86


 3712      4152545F 
 3712      47657449 
 3712      6E746572 
 3712      66616365 
 3713              	.LASF65:
 3714 0049 74784461 		.ascii	"txDataByte\000"
 3714      74614279 
 3714      746500
 3715              	.LASF66:
 3716 0054 64617461 		.ascii	"dataByte\000"
 3716      42797465 
 3716      00
 3717              	.LASF58:
 3718 005d 73747269 		.ascii	"string\000"
 3718      6E6700
 3719              	.LASF103:
 3720 0064 55534255 		.ascii	"USBUART_serialStateBitmap\000"
 3720      4152545F 
 3720      73657269 
 3720      616C5374 
 3720      61746542 
 3721              	.LASF82:
 3722 007e 55534255 		.ascii	"USBUART_GetCharFormat\000"
 3722      4152545F 
 3722      47657443 
 3722      68617246 
 3722      6F726D61 
 3723              	.LASF7:
 3724 0094 6C6F6E67 		.ascii	"long long unsigned int\000"
 3724      206C6F6E 
 3724      6720756E 
 3724      7369676E 
 3724      65642069 
 3725              	.LASF21:
 3726 00ab 61646472 		.ascii	"addr\000"
 3726      00
 3727              	.LASF40:
 3728 00b0 62526571 		.ascii	"bRequestType\000"
 3728      75657374 
 3728      54797065 
 3728      00
 3729              	.LASF94:
 3730 00bd 65704E75 		.ascii	"epNum\000"
 3730      6D00
 3731              	.LASF48:
 3732 00c3 77536572 		.ascii	"wSerialStateMSB\000"
 3732      69616C53 
 3732      74617465 
 3732      4D534200 
 3733              	.LASF107:
 3734 00d3 55534255 		.ascii	"USBUART_EP\000"
 3734      4152545F 
 3734      455000
 3735              	.LASF33:
 3736 00de 545F5553 		.ascii	"T_USBUART_XFER_STATUS_BLOCK\000"
 3736      42554152 
 3736      545F5846 
ARM GAS  C:\Users\Greg\AppData\Local\Temp\ccDYSYHP.s 			page 87


 3736      45525F53 
 3736      54415455 
 3737              	.LASF100:
 3738 00fa 55534255 		.ascii	"USBUART_linesCoding\000"
 3738      4152545F 
 3738      6C696E65 
 3738      73436F64 
 3738      696E6700 
 3739              	.LASF6:
 3740 010e 6C6F6E67 		.ascii	"long long int\000"
 3740      206C6F6E 
 3740      6720696E 
 3740      7400
 3741              	.LASF0:
 3742 011c 7369676E 		.ascii	"signed char\000"
 3742      65642063 
 3742      68617200 
 3743              	.LASF81:
 3744 0128 72617465 		.ascii	"rate\000"
 3744      00
 3745              	.LASF70:
 3746 012d 62797465 		.ascii	"bytesCount\000"
 3746      73436F75 
 3746      6E7400
 3747              	.LASF72:
 3748 0138 55534255 		.ascii	"USBUART_CDCIsReady\000"
 3748      4152545F 
 3748      43444349 
 3748      73526561 
 3748      647900
 3749              	.LASF79:
 3750 014b 73746174 		.ascii	"state\000"
 3750      6500
 3751              	.LASF39:
 3752 0151 55534255 		.ascii	"USBUART_ep0_data_struct\000"
 3752      4152545F 
 3752      6570305F 
 3752      64617461 
 3752      5F737472 
 3753              	.LASF4:
 3754 0169 6C6F6E67 		.ascii	"long int\000"
 3754      20696E74 
 3754      00
 3755              	.LASF76:
 3756 0172 55534255 		.ascii	"USBUART_GetChar\000"
 3756      4152545F 
 3756      47657443 
 3756      68617200 
 3757              	.LASF59:
 3758 0182 55534255 		.ascii	"USBUART_PutData\000"
 3758      4152545F 
 3758      50757444 
 3758      61746100 
 3759              	.LASF9:
 3760 0192 75696E74 		.ascii	"uint8\000"
 3760      3800
 3761              	.LASF20:
ARM GAS  C:\Users\Greg\AppData\Local\Temp\ccDYSYHP.s 			page 88


 3762 0198 6570546F 		.ascii	"epToggle\000"
 3762      67676C65 
 3762      00
 3763              	.LASF42:
 3764 01a1 7756616C 		.ascii	"wValue\000"
 3764      756500
 3765              	.LASF13:
 3766 01a8 646F7562 		.ascii	"double\000"
 3766      6C6500
 3767              	.LASF75:
 3768 01af 64617461 		.ascii	"dataLength\000"
 3768      4C656E67 
 3768      746800
 3769              	.LASF85:
 3770 01ba 55534255 		.ascii	"USBUART_GetLineControl\000"
 3770      4152545F 
 3770      4765744C 
 3770      696E6543 
 3770      6F6E7472 
 3771              	.LASF106:
 3772 01d1 55534255 		.ascii	"USBUART_cdcCommInInterruptEp\000"
 3772      4152545F 
 3772      63646343 
 3772      6F6D6D49 
 3772      6E496E74 
 3773              	.LASF11:
 3774 01ee 75696E74 		.ascii	"uint32\000"
 3774      333200
 3775              	.LASF47:
 3776 01f5 77536572 		.ascii	"wSerialState\000"
 3776      69616C53 
 3776      74617465 
 3776      00
 3777              	.LASF102:
 3778 0202 55534255 		.ascii	"USBUART_linesControlBitmap\000"
 3778      4152545F 
 3778      6C696E65 
 3778      73436F6E 
 3778      74726F6C 
 3779              	.LASF105:
 3780 021d 55534255 		.ascii	"USBUART_cdcDataOutEp\000"
 3780      4152545F 
 3780      63646344 
 3780      6174614F 
 3780      75744570 
 3781              	.LASF35:
 3782 0232 70446174 		.ascii	"pData\000"
 3782      6100
 3783              	.LASF22:
 3784 0238 65704D6F 		.ascii	"epMode\000"
 3784      646500
 3785              	.LASF96:
 3786 023f 65705479 		.ascii	"epType\000"
 3786      706500
 3787              	.LASF89:
 3788 0246 55534255 		.ascii	"USBUART_NotificationIsReady\000"
 3788      4152545F 
ARM GAS  C:\Users\Greg\AppData\Local\Temp\ccDYSYHP.s 			page 89


 3788      4E6F7469 
 3788      66696361 
 3788      74696F6E 
 3789              	.LASF80:
 3790 0262 55534255 		.ascii	"USBUART_GetDTERate\000"
 3790      4152545F 
 3790      47657444 
 3790      54455261 
 3790      746500
 3791              	.LASF78:
 3792 0275 55534255 		.ascii	"USBUART_IsLineChanged\000"
 3792      4152545F 
 3792      49734C69 
 3792      6E654368 
 3792      616E6765 
 3793              	.LASF8:
 3794 028b 756E7369 		.ascii	"unsigned int\000"
 3794      676E6564 
 3794      20696E74 
 3794      00
 3795              	.LASF71:
 3796 0298 55534255 		.ascii	"USBUART_DataIsReady\000"
 3796      4152545F 
 3796      44617461 
 3796      49735265 
 3796      61647900 
 3797              	.LASF5:
 3798 02ac 6C6F6E67 		.ascii	"long unsigned int\000"
 3798      20756E73 
 3798      69676E65 
 3798      6420696E 
 3798      7400
 3799              	.LASF57:
 3800 02be 65704E75 		.ascii	"epNumber\000"
 3800      6D626572 
 3800      00
 3801              	.LASF83:
 3802 02c7 55534255 		.ascii	"USBUART_GetParityType\000"
 3802      4152545F 
 3802      47657450 
 3802      61726974 
 3802      79547970 
 3803              	.LASF3:
 3804 02dd 73686F72 		.ascii	"short unsigned int\000"
 3804      7420756E 
 3804      7369676E 
 3804      65642069 
 3804      6E7400
 3805              	.LASF87:
 3806 02f0 73657269 		.ascii	"serialState\000"
 3806      616C5374 
 3806      61746500 
 3807              	.LASF63:
 3808 02fc 62756649 		.ascii	"bufIndex\000"
 3808      6E646578 
 3808      00
 3809              	.LASF74:
ARM GAS  C:\Users\Greg\AppData\Local\Temp\ccDYSYHP.s 			page 90


 3810 0305 55534255 		.ascii	"USBUART_GetAll\000"
 3810      4152545F 
 3810      47657441 
 3810      6C6C00
 3811              	.LASF108:
 3812 0314 55534255 		.ascii	"USBUART_currentTD\000"
 3812      4152545F 
 3812      63757272 
 3812      656E7454 
 3812      4400
 3813              	.LASF104:
 3814 0326 55534255 		.ascii	"USBUART_cdcDataInEp\000"
 3814      4152545F 
 3814      63646344 
 3814      61746149 
 3814      6E457000 
 3815              	.LASF25:
 3816 033a 696E7465 		.ascii	"interface\000"
 3816      72666163 
 3816      6500
 3817              	.LASF98:
 3818 0344 55534255 		.ascii	"USBUART_activeCom\000"
 3818      4152545F 
 3818      61637469 
 3818      7665436F 
 3818      6D00
 3819              	.LASF110:
 3820 0356 47656E65 		.ascii	"Generated_Source\\PSoC5\\USBUART_cdc.c\000"
 3820      72617465 
 3820      645F536F 
 3820      75726365 
 3820      5C50536F 
 3821              	.LASF19:
 3822 037b 68774570 		.ascii	"hwEpState\000"
 3822      53746174 
 3822      6500
 3823              	.LASF16:
 3824 0385 73697A65 		.ascii	"sizetype\000"
 3824      74797065 
 3824      00
 3825              	.LASF17:
 3826 038e 61747472 		.ascii	"attrib\000"
 3826      696200
 3827              	.LASF69:
 3828 0395 55534255 		.ascii	"USBUART_GetCount\000"
 3828      4152545F 
 3828      47657443 
 3828      6F756E74 
 3828      00
 3829              	.LASF86:
 3830 03a6 55534255 		.ascii	"USBUART_SendSerialState\000"
 3830      4152545F 
 3830      53656E64 
 3830      53657269 
 3830      616C5374 
 3831              	.LASF109:
 3832 03be 474E5520 		.ascii	"GNU C 4.9.3 20150303 (release) [ARM/embedded-4_9-br"
ARM GAS  C:\Users\Greg\AppData\Local\Temp\ccDYSYHP.s 			page 91


 3832      4320342E 
 3832      392E3320 
 3832      32303135 
 3832      30333033 
 3833 03f1 616E6368 		.ascii	"anch revision 221220] -mcpu=cortex-m3 -mthumb -g -O"
 3833      20726576 
 3833      6973696F 
 3833      6E203232 
 3833      31323230 
 3834 0424 30202D66 		.ascii	"0 -ffunction-sections -ffat-lto-objects\000"
 3834      66756E63 
 3834      74696F6E 
 3834      2D736563 
 3834      74696F6E 
 3835              	.LASF51:
 3836 044c 636F6D50 		.ascii	"comPort\000"
 3836      6F727400 
 3837              	.LASF84:
 3838 0454 55534255 		.ascii	"USBUART_GetDataBits\000"
 3838      4152545F 
 3838      47657444 
 3838      61746142 
 3838      69747300 
 3839              	.LASF101:
 3840 0468 55534255 		.ascii	"USBUART_linesChanged\000"
 3840      4152545F 
 3840      6C696E65 
 3840      73436861 
 3840      6E676564 
 3841              	.LASF60:
 3842 047d 55534255 		.ascii	"USBUART_PutString\000"
 3842      4152545F 
 3842      50757453 
 3842      7472696E 
 3842      6700
 3843              	.LASF12:
 3844 048f 666C6F61 		.ascii	"float\000"
 3844      7400
 3845              	.LASF64:
 3846 0495 55534255 		.ascii	"USBUART_PutChar\000"
 3846      4152545F 
 3846      50757443 
 3846      68617200 
 3847              	.LASF18:
 3848 04a5 61706945 		.ascii	"apiEpState\000"
 3848      70537461 
 3848      746500
 3849              	.LASF1:
 3850 04b0 756E7369 		.ascii	"unsigned char\000"
 3850      676E6564 
 3850      20636861 
 3850      7200
 3851              	.LASF91:
 3852 04be 636F6D4E 		.ascii	"comNumber\000"
 3852      756D6265 
 3852      7200
 3853              	.LASF44:
ARM GAS  C:\Users\Greg\AppData\Local\Temp\ccDYSYHP.s 			page 92


 3854 04c8 77496E64 		.ascii	"wIndex\000"
 3854      657800
 3855              	.LASF56:
 3856 04cf 6F757445 		.ascii	"outEp\000"
 3856      7000
 3857              	.LASF2:
 3858 04d5 73686F72 		.ascii	"short int\000"
 3858      7420696E 
 3858      7400
 3859              	.LASF111:
 3860 04df 433A5C53 		.ascii	"C:\\SVN\\apps\\trunk\\Cypress Academy\\PSoC-121-Ana"
 3860      564E5C61 
 3860      7070735C 
 3860      7472756E 
 3860      6B5C4379 
 3861 050d 6C6F675C 		.ascii	"log\\Scope\\KEES_Scope\\PSoC\\Scope.cydsn\000"
 3861      53636F70 
 3861      655C4B45 
 3861      45535F53 
 3861      636F7065 
 3862              	.LASF54:
 3863 0533 6E6F7445 		.ascii	"notEp\000"
 3863      7000
 3864              	.LASF43:
 3865 0539 7756616C 		.ascii	"wValueMSB\000"
 3865      75654D53 
 3865      4200
 3866              	.LASF37:
 3867 0543 545F5553 		.ascii	"T_USBUART_TD\000"
 3867      42554152 
 3867      545F5444 
 3867      00
 3868              	.LASF97:
 3869 0550 55534255 		.ascii	"USBUART_serialStateNotification\000"
 3869      4152545F 
 3869      73657269 
 3869      616C5374 
 3869      6174654E 
 3870              	.LASF67:
 3871 0570 55534255 		.ascii	"USBUART_PutCRLF\000"
 3871      4152545F 
 3871      50757443 
 3871      524C4600 
 3872              	.LASF28:
 3873 0580 61747472 		.ascii	"attributes\000"
 3873      69627574 
 3873      657300
 3874              	.LASF77:
 3875 058b 72784461 		.ascii	"rxData\000"
 3875      746100
 3876              	.LASF61:
 3877 0592 7374724C 		.ascii	"strLength\000"
 3877      656E6774 
 3877      6800
 3878              	.LASF55:
 3879 059c 55534255 		.ascii	"USBUART_CDC_Init\000"
 3879      4152545F 
ARM GAS  C:\Users\Greg\AppData\Local\Temp\ccDYSYHP.s 			page 93


 3879      4344435F 
 3879      496E6974 
 3879      00
 3880              	.LASF90:
 3881 05ad 55534255 		.ascii	"USBUART_SetComPort\000"
 3881      4152545F 
 3881      53657443 
 3881      6F6D506F 
 3881      727400
 3882              	.LASF27:
 3883 05c0 616C7453 		.ascii	"altSetting\000"
 3883      65747469 
 3883      6E6700
 3884              	.LASF15:
 3885 05cb 63686172 		.ascii	"char\000"
 3885      00
 3886              	.LASF24:
 3887 05d0 62756666 		.ascii	"bufferSize\000"
 3887      65725369 
 3887      7A6500
 3888              	.LASF50:
 3889 05db 72657175 		.ascii	"requestHandled\000"
 3889      65737448 
 3889      616E646C 
 3889      656400
 3890              	.LASF26:
 3891 05ea 545F5553 		.ascii	"T_USBUART_EP_CTL_BLOCK\000"
 3891      42554152 
 3891      545F4550 
 3891      5F43544C 
 3891      5F424C4F 
 3892              	.LASF23:
 3893 0601 62756666 		.ascii	"buffOffset\000"
 3893      4F666673 
 3893      657400
 3894              	.LASF14:
 3895 060c 63686172 		.ascii	"char8\000"
 3895      3800
 3896              	.LASF30:
 3897 0612 545F5553 		.ascii	"T_USBUART_EP_SETTINGS_BLOCK\000"
 3897      42554152 
 3897      545F4550 
 3897      5F534554 
 3897      54494E47 
 3898              	.LASF73:
 3899 062e 55534255 		.ascii	"USBUART_GetData\000"
 3899      4152545F 
 3899      47657444 
 3899      61746100 
 3900              	.LASF112:
 3901 063e 55534255 		.ascii	"USBUART_StrLen\000"
 3901      4152545F 
 3901      5374724C 
 3901      656E00
 3902              	.LASF32:
 3903 064d 6C656E67 		.ascii	"length\000"
 3903      746800
ARM GAS  C:\Users\Greg\AppData\Local\Temp\ccDYSYHP.s 			page 94


 3904              	.LASF31:
 3905 0654 73746174 		.ascii	"status\000"
 3905      757300
 3906              	.LASF46:
 3907 065b 774C656E 		.ascii	"wLengthMSB\000"
 3907      6774684D 
 3907      534200
 3908              	.LASF41:
 3909 0666 624E6F74 		.ascii	"bNotification\000"
 3909      69666963 
 3909      6174696F 
 3909      6E00
 3910              	.LASF38:
 3911 0674 65704461 		.ascii	"epData\000"
 3911      746100
 3912              	.LASF29:
 3913 067b 624D6973 		.ascii	"bMisc\000"
 3913      6300
 3914              	.LASF52:
 3915 0681 55534255 		.ascii	"USBUART_DispatchCDCClassRqst\000"
 3915      4152545F 
 3915      44697370 
 3915      61746368 
 3915      43444343 
 3916              	.LASF49:
 3917 069e 745F5553 		.ascii	"t_USBUART_cdc_notification\000"
 3917      42554152 
 3917      545F6364 
 3917      635F6E6F 
 3917      74696669 
 3918              	.LASF95:
 3919 06b9 63646343 		.ascii	"cdcComNums\000"
 3919      6F6D4E75 
 3919      6D7300
 3920              	.LASF99:
 3921 06c4 55534255 		.ascii	"USBUART_transferState\000"
 3921      4152545F 
 3921      7472616E 
 3921      73666572 
 3921      53746174 
 3922              	.LASF62:
 3923 06da 73656E64 		.ascii	"sendLength\000"
 3923      4C656E67 
 3923      746800
 3924              	.LASF93:
 3925 06e5 55534255 		.ascii	"USBUART_Cdc_EpInit\000"
 3925      4152545F 
 3925      4364635F 
 3925      4570496E 
 3925      697400
 3926              	.LASF68:
 3927 06f8 74784461 		.ascii	"txData\000"
 3927      746100
 3928              	.LASF88:
 3929 06ff 55534255 		.ascii	"USBUART_GetSerialState\000"
 3929      4152545F 
 3929      47657453 
ARM GAS  C:\Users\Greg\AppData\Local\Temp\ccDYSYHP.s 			page 95


 3929      65726961 
 3929      6C537461 
 3930              	.LASF45:
 3931 0716 77496E64 		.ascii	"wIndexMSB\000"
 3931      65784D53 
 3931      4200
 3932              		.ident	"GCC: (GNU Tools for ARM Embedded Processors) 4.9.3 20150303 (release) [ARM/embedded-4_9-br
