ARM GAS  C:\Users\Greg\AppData\Local\Temp\cc9Xo4a6.s 			page 1


   1              		.syntax unified
   2              		.cpu cortex-m3
   3              		.fpu softvfp
   4              		.eabi_attribute 20, 1
   5              		.eabi_attribute 21, 1
   6              		.eabi_attribute 23, 3
   7              		.eabi_attribute 24, 1
   8              		.eabi_attribute 25, 1
   9              		.eabi_attribute 26, 1
  10              		.eabi_attribute 30, 6
  11              		.eabi_attribute 34, 1
  12              		.eabi_attribute 18, 4
  13              		.thumb
  14              		.file	"Vtrigger_PM.c"
  15              		.text
  16              	.Ltext0:
  17              		.cfi_sections	.debug_frame
  18              		.bss
  19              		.align	2
  20              	Vtrigger_backup:
  21 0000 0000     		.space	2
  22 0002 0000     		.section	.text.Vtrigger_SaveConfig,"ax",%progbits
  23              		.align	2
  24              		.global	Vtrigger_SaveConfig
  25              		.thumb
  26              		.thumb_func
  27              		.type	Vtrigger_SaveConfig, %function
  28              	Vtrigger_SaveConfig:
  29              	.LFB0:
  30              		.file 1 "Generated_Source\\PSoC5\\Vtrigger_PM.c"
   1:Generated_Source\PSoC5/Vtrigger_PM.c **** /*******************************************************************************
   2:Generated_Source\PSoC5/Vtrigger_PM.c **** * File Name: Vtrigger_PM.c  
   3:Generated_Source\PSoC5/Vtrigger_PM.c **** * Version 1.90
   4:Generated_Source\PSoC5/Vtrigger_PM.c **** *
   5:Generated_Source\PSoC5/Vtrigger_PM.c **** * Description:
   6:Generated_Source\PSoC5/Vtrigger_PM.c **** *  This file provides the power management source code to API for the
   7:Generated_Source\PSoC5/Vtrigger_PM.c **** *  VDAC8.  
   8:Generated_Source\PSoC5/Vtrigger_PM.c **** *
   9:Generated_Source\PSoC5/Vtrigger_PM.c **** * Note:
  10:Generated_Source\PSoC5/Vtrigger_PM.c **** *  None
  11:Generated_Source\PSoC5/Vtrigger_PM.c **** *
  12:Generated_Source\PSoC5/Vtrigger_PM.c **** ********************************************************************************
  13:Generated_Source\PSoC5/Vtrigger_PM.c **** * Copyright 2008-2012, Cypress Semiconductor Corporation.  All rights reserved.
  14:Generated_Source\PSoC5/Vtrigger_PM.c **** * You may use this file only in accordance with the license, terms, conditions, 
  15:Generated_Source\PSoC5/Vtrigger_PM.c **** * disclaimers, and limitations in the end user license agreement accompanying 
  16:Generated_Source\PSoC5/Vtrigger_PM.c **** * the software package with which this file was provided.
  17:Generated_Source\PSoC5/Vtrigger_PM.c **** *******************************************************************************/
  18:Generated_Source\PSoC5/Vtrigger_PM.c **** 
  19:Generated_Source\PSoC5/Vtrigger_PM.c **** #include "Vtrigger.h"
  20:Generated_Source\PSoC5/Vtrigger_PM.c **** 
  21:Generated_Source\PSoC5/Vtrigger_PM.c **** static Vtrigger_backupStruct Vtrigger_backup;
  22:Generated_Source\PSoC5/Vtrigger_PM.c **** 
  23:Generated_Source\PSoC5/Vtrigger_PM.c **** 
  24:Generated_Source\PSoC5/Vtrigger_PM.c **** /*******************************************************************************
  25:Generated_Source\PSoC5/Vtrigger_PM.c **** * Function Name: Vtrigger_SaveConfig
  26:Generated_Source\PSoC5/Vtrigger_PM.c **** ********************************************************************************
  27:Generated_Source\PSoC5/Vtrigger_PM.c **** * Summary:
ARM GAS  C:\Users\Greg\AppData\Local\Temp\cc9Xo4a6.s 			page 2


  28:Generated_Source\PSoC5/Vtrigger_PM.c **** *  Save the current user configuration
  29:Generated_Source\PSoC5/Vtrigger_PM.c **** *
  30:Generated_Source\PSoC5/Vtrigger_PM.c **** * Parameters:  
  31:Generated_Source\PSoC5/Vtrigger_PM.c **** *  void  
  32:Generated_Source\PSoC5/Vtrigger_PM.c **** *
  33:Generated_Source\PSoC5/Vtrigger_PM.c **** * Return: 
  34:Generated_Source\PSoC5/Vtrigger_PM.c **** *  void
  35:Generated_Source\PSoC5/Vtrigger_PM.c **** *
  36:Generated_Source\PSoC5/Vtrigger_PM.c **** *******************************************************************************/
  37:Generated_Source\PSoC5/Vtrigger_PM.c **** void Vtrigger_SaveConfig(void) 
  38:Generated_Source\PSoC5/Vtrigger_PM.c **** {
  31              		.loc 1 38 0
  32              		.cfi_startproc
  33              		@ args = 0, pretend = 0, frame = 0
  34              		@ frame_needed = 1, uses_anonymous_args = 0
  35              		@ link register save eliminated.
  36 0000 80B4     		push	{r7}
  37              		.cfi_def_cfa_offset 4
  38              		.cfi_offset 7, -4
  39 0002 00AF     		add	r7, sp, #0
  40              		.cfi_def_cfa_register 7
  39:Generated_Source\PSoC5/Vtrigger_PM.c ****     if (!((Vtrigger_CR1 & Vtrigger_SRC_MASK) == Vtrigger_SRC_UDB))
  41              		.loc 1 39 0
  42 0004 074B     		ldr	r3, .L3
  43 0006 1B78     		ldrb	r3, [r3]
  44 0008 DBB2     		uxtb	r3, r3
  45 000a 03F02003 		and	r3, r3, #32
  46 000e 002B     		cmp	r3, #0
  47 0010 04D1     		bne	.L1
  40:Generated_Source\PSoC5/Vtrigger_PM.c ****     {
  41:Generated_Source\PSoC5/Vtrigger_PM.c ****         Vtrigger_backup.data_value = Vtrigger_Data;
  48              		.loc 1 41 0
  49 0012 054B     		ldr	r3, .L3+4
  50 0014 1B78     		ldrb	r3, [r3]
  51 0016 DAB2     		uxtb	r2, r3
  52 0018 044B     		ldr	r3, .L3+8
  53 001a 5A70     		strb	r2, [r3, #1]
  54              	.L1:
  42:Generated_Source\PSoC5/Vtrigger_PM.c ****     }
  43:Generated_Source\PSoC5/Vtrigger_PM.c **** }
  55              		.loc 1 43 0
  56 001c BD46     		mov	sp, r7
  57              		.cfi_def_cfa_register 13
  58              		@ sp needed
  59 001e 5DF8047B 		ldr	r7, [sp], #4
  60              		.cfi_restore 7
  61              		.cfi_def_cfa_offset 0
  62 0022 7047     		bx	lr
  63              	.L4:
  64              		.align	2
  65              	.L3:
  66 0024 2D580040 		.word	1073764397
  67 0028 835B0040 		.word	1073765251
  68 002c 00000000 		.word	Vtrigger_backup
  69              		.cfi_endproc
  70              	.LFE0:
  71              		.size	Vtrigger_SaveConfig, .-Vtrigger_SaveConfig
ARM GAS  C:\Users\Greg\AppData\Local\Temp\cc9Xo4a6.s 			page 3


  72              		.section	.text.Vtrigger_RestoreConfig,"ax",%progbits
  73              		.align	2
  74              		.global	Vtrigger_RestoreConfig
  75              		.thumb
  76              		.thumb_func
  77              		.type	Vtrigger_RestoreConfig, %function
  78              	Vtrigger_RestoreConfig:
  79              	.LFB1:
  44:Generated_Source\PSoC5/Vtrigger_PM.c **** 
  45:Generated_Source\PSoC5/Vtrigger_PM.c **** 
  46:Generated_Source\PSoC5/Vtrigger_PM.c **** /*******************************************************************************
  47:Generated_Source\PSoC5/Vtrigger_PM.c **** * Function Name: Vtrigger_RestoreConfig
  48:Generated_Source\PSoC5/Vtrigger_PM.c **** ********************************************************************************
  49:Generated_Source\PSoC5/Vtrigger_PM.c **** *
  50:Generated_Source\PSoC5/Vtrigger_PM.c **** * Summary:
  51:Generated_Source\PSoC5/Vtrigger_PM.c **** *  Restores the current user configuration.
  52:Generated_Source\PSoC5/Vtrigger_PM.c **** *
  53:Generated_Source\PSoC5/Vtrigger_PM.c **** * Parameters:  
  54:Generated_Source\PSoC5/Vtrigger_PM.c **** *  void
  55:Generated_Source\PSoC5/Vtrigger_PM.c **** *
  56:Generated_Source\PSoC5/Vtrigger_PM.c **** * Return: 
  57:Generated_Source\PSoC5/Vtrigger_PM.c **** *  void
  58:Generated_Source\PSoC5/Vtrigger_PM.c **** *
  59:Generated_Source\PSoC5/Vtrigger_PM.c **** *******************************************************************************/
  60:Generated_Source\PSoC5/Vtrigger_PM.c **** void Vtrigger_RestoreConfig(void) 
  61:Generated_Source\PSoC5/Vtrigger_PM.c **** {
  80              		.loc 1 61 0
  81              		.cfi_startproc
  82              		@ args = 0, pretend = 0, frame = 0
  83              		@ frame_needed = 1, uses_anonymous_args = 0
  84              		@ link register save eliminated.
  85 0000 80B4     		push	{r7}
  86              		.cfi_def_cfa_offset 4
  87              		.cfi_offset 7, -4
  88 0002 00AF     		add	r7, sp, #0
  89              		.cfi_def_cfa_register 7
  62:Generated_Source\PSoC5/Vtrigger_PM.c ****     if (!((Vtrigger_CR1 & Vtrigger_SRC_MASK) == Vtrigger_SRC_UDB))
  90              		.loc 1 62 0
  91 0004 154B     		ldr	r3, .L8
  92 0006 1B78     		ldrb	r3, [r3]
  93 0008 DBB2     		uxtb	r3, r3
  94 000a 03F02003 		and	r3, r3, #32
  95 000e 002B     		cmp	r3, #0
  96 0010 1FD1     		bne	.L5
  63:Generated_Source\PSoC5/Vtrigger_PM.c ****     {
  64:Generated_Source\PSoC5/Vtrigger_PM.c ****         if((Vtrigger_Strobe & Vtrigger_STRB_MASK) == Vtrigger_STRB_EN)
  97              		.loc 1 64 0
  98 0012 134B     		ldr	r3, .L8+4
  99 0014 1B78     		ldrb	r3, [r3]
 100 0016 DBB2     		uxtb	r3, r3
 101 0018 03F00803 		and	r3, r3, #8
 102 001c 002B     		cmp	r3, #0
 103 001e 14D0     		beq	.L7
  65:Generated_Source\PSoC5/Vtrigger_PM.c ****         {
  66:Generated_Source\PSoC5/Vtrigger_PM.c ****             Vtrigger_Strobe &= (uint8)(~Vtrigger_STRB_MASK);
 104              		.loc 1 66 0
 105 0020 0F4A     		ldr	r2, .L8+4
ARM GAS  C:\Users\Greg\AppData\Local\Temp\cc9Xo4a6.s 			page 4


 106 0022 0F4B     		ldr	r3, .L8+4
 107 0024 1B78     		ldrb	r3, [r3]
 108 0026 DBB2     		uxtb	r3, r3
 109 0028 23F00803 		bic	r3, r3, #8
 110 002c DBB2     		uxtb	r3, r3
 111 002e 1370     		strb	r3, [r2]
  67:Generated_Source\PSoC5/Vtrigger_PM.c ****             Vtrigger_Data = Vtrigger_backup.data_value;
 112              		.loc 1 67 0
 113 0030 0C4B     		ldr	r3, .L8+8
 114 0032 0D4A     		ldr	r2, .L8+12
 115 0034 5278     		ldrb	r2, [r2, #1]	@ zero_extendqisi2
 116 0036 1A70     		strb	r2, [r3]
  68:Generated_Source\PSoC5/Vtrigger_PM.c ****             Vtrigger_Strobe |= Vtrigger_STRB_EN;
 117              		.loc 1 68 0
 118 0038 094A     		ldr	r2, .L8+4
 119 003a 094B     		ldr	r3, .L8+4
 120 003c 1B78     		ldrb	r3, [r3]
 121 003e DBB2     		uxtb	r3, r3
 122 0040 43F00803 		orr	r3, r3, #8
 123 0044 DBB2     		uxtb	r3, r3
 124 0046 1370     		strb	r3, [r2]
 125 0048 03E0     		b	.L5
 126              	.L7:
  69:Generated_Source\PSoC5/Vtrigger_PM.c ****         }
  70:Generated_Source\PSoC5/Vtrigger_PM.c ****         else
  71:Generated_Source\PSoC5/Vtrigger_PM.c ****         {
  72:Generated_Source\PSoC5/Vtrigger_PM.c ****             Vtrigger_Data = Vtrigger_backup.data_value;
 127              		.loc 1 72 0
 128 004a 064B     		ldr	r3, .L8+8
 129 004c 064A     		ldr	r2, .L8+12
 130 004e 5278     		ldrb	r2, [r2, #1]	@ zero_extendqisi2
 131 0050 1A70     		strb	r2, [r3]
 132              	.L5:
  73:Generated_Source\PSoC5/Vtrigger_PM.c ****         }
  74:Generated_Source\PSoC5/Vtrigger_PM.c ****     }
  75:Generated_Source\PSoC5/Vtrigger_PM.c **** }
 133              		.loc 1 75 0
 134 0052 BD46     		mov	sp, r7
 135              		.cfi_def_cfa_register 13
 136              		@ sp needed
 137 0054 5DF8047B 		ldr	r7, [sp], #4
 138              		.cfi_restore 7
 139              		.cfi_def_cfa_offset 0
 140 0058 7047     		bx	lr
 141              	.L9:
 142 005a 00BF     		.align	2
 143              	.L8:
 144 005c 2D580040 		.word	1073764397
 145 0060 9F5A0040 		.word	1073765023
 146 0064 835B0040 		.word	1073765251
 147 0068 00000000 		.word	Vtrigger_backup
 148              		.cfi_endproc
 149              	.LFE1:
 150              		.size	Vtrigger_RestoreConfig, .-Vtrigger_RestoreConfig
 151              		.section	.text.Vtrigger_Sleep,"ax",%progbits
 152              		.align	2
 153              		.global	Vtrigger_Sleep
ARM GAS  C:\Users\Greg\AppData\Local\Temp\cc9Xo4a6.s 			page 5


 154              		.thumb
 155              		.thumb_func
 156              		.type	Vtrigger_Sleep, %function
 157              	Vtrigger_Sleep:
 158              	.LFB2:
  76:Generated_Source\PSoC5/Vtrigger_PM.c **** 
  77:Generated_Source\PSoC5/Vtrigger_PM.c **** 
  78:Generated_Source\PSoC5/Vtrigger_PM.c **** /*******************************************************************************
  79:Generated_Source\PSoC5/Vtrigger_PM.c **** * Function Name: Vtrigger_Sleep
  80:Generated_Source\PSoC5/Vtrigger_PM.c **** ********************************************************************************
  81:Generated_Source\PSoC5/Vtrigger_PM.c **** * Summary:
  82:Generated_Source\PSoC5/Vtrigger_PM.c **** *  Stop and Save the user configuration
  83:Generated_Source\PSoC5/Vtrigger_PM.c **** *
  84:Generated_Source\PSoC5/Vtrigger_PM.c **** * Parameters:  
  85:Generated_Source\PSoC5/Vtrigger_PM.c **** *  void:  
  86:Generated_Source\PSoC5/Vtrigger_PM.c **** *
  87:Generated_Source\PSoC5/Vtrigger_PM.c **** * Return: 
  88:Generated_Source\PSoC5/Vtrigger_PM.c **** *  void
  89:Generated_Source\PSoC5/Vtrigger_PM.c **** *
  90:Generated_Source\PSoC5/Vtrigger_PM.c **** * Global variables:
  91:Generated_Source\PSoC5/Vtrigger_PM.c **** *  Vtrigger_backup.enableState:  Is modified depending on the enable 
  92:Generated_Source\PSoC5/Vtrigger_PM.c **** *  state  of the block before entering sleep mode.
  93:Generated_Source\PSoC5/Vtrigger_PM.c **** *
  94:Generated_Source\PSoC5/Vtrigger_PM.c **** *******************************************************************************/
  95:Generated_Source\PSoC5/Vtrigger_PM.c **** void Vtrigger_Sleep(void) 
  96:Generated_Source\PSoC5/Vtrigger_PM.c **** {
 159              		.loc 1 96 0
 160              		.cfi_startproc
 161              		@ args = 0, pretend = 0, frame = 0
 162              		@ frame_needed = 1, uses_anonymous_args = 0
 163 0000 80B5     		push	{r7, lr}
 164              		.cfi_def_cfa_offset 8
 165              		.cfi_offset 7, -8
 166              		.cfi_offset 14, -4
 167 0002 00AF     		add	r7, sp, #0
 168              		.cfi_def_cfa_register 7
  97:Generated_Source\PSoC5/Vtrigger_PM.c ****     /* Save VDAC8's enable state */    
  98:Generated_Source\PSoC5/Vtrigger_PM.c ****     if(Vtrigger_ACT_PWR_EN == (Vtrigger_PWRMGR & Vtrigger_ACT_PWR_EN))
 169              		.loc 1 98 0
 170 0004 094B     		ldr	r3, .L13
 171 0006 1B78     		ldrb	r3, [r3]
 172 0008 DBB2     		uxtb	r3, r3
 173 000a 03F00803 		and	r3, r3, #8
 174 000e 002B     		cmp	r3, #0
 175 0010 03D0     		beq	.L11
  99:Generated_Source\PSoC5/Vtrigger_PM.c ****     {
 100:Generated_Source\PSoC5/Vtrigger_PM.c ****         /* VDAC8 is enabled */
 101:Generated_Source\PSoC5/Vtrigger_PM.c ****         Vtrigger_backup.enableState = 1u;
 176              		.loc 1 101 0
 177 0012 074B     		ldr	r3, .L13+4
 178 0014 0122     		movs	r2, #1
 179 0016 1A70     		strb	r2, [r3]
 180 0018 02E0     		b	.L12
 181              	.L11:
 102:Generated_Source\PSoC5/Vtrigger_PM.c ****     }
 103:Generated_Source\PSoC5/Vtrigger_PM.c ****     else
 104:Generated_Source\PSoC5/Vtrigger_PM.c ****     {
ARM GAS  C:\Users\Greg\AppData\Local\Temp\cc9Xo4a6.s 			page 6


 105:Generated_Source\PSoC5/Vtrigger_PM.c ****         /* VDAC8 is disabled */
 106:Generated_Source\PSoC5/Vtrigger_PM.c ****         Vtrigger_backup.enableState = 0u;
 182              		.loc 1 106 0
 183 001a 054B     		ldr	r3, .L13+4
 184 001c 0022     		movs	r2, #0
 185 001e 1A70     		strb	r2, [r3]
 186              	.L12:
 107:Generated_Source\PSoC5/Vtrigger_PM.c ****     }
 108:Generated_Source\PSoC5/Vtrigger_PM.c ****     
 109:Generated_Source\PSoC5/Vtrigger_PM.c ****     Vtrigger_Stop();
 187              		.loc 1 109 0
 188 0020 FFF7FEFF 		bl	Vtrigger_Stop
 110:Generated_Source\PSoC5/Vtrigger_PM.c ****     Vtrigger_SaveConfig();
 189              		.loc 1 110 0
 190 0024 FFF7FEFF 		bl	Vtrigger_SaveConfig
 111:Generated_Source\PSoC5/Vtrigger_PM.c **** }
 191              		.loc 1 111 0
 192 0028 80BD     		pop	{r7, pc}
 193              	.L14:
 194 002a 00BF     		.align	2
 195              	.L13:
 196 002c A8430040 		.word	1073759144
 197 0030 00000000 		.word	Vtrigger_backup
 198              		.cfi_endproc
 199              	.LFE2:
 200              		.size	Vtrigger_Sleep, .-Vtrigger_Sleep
 201              		.section	.text.Vtrigger_Wakeup,"ax",%progbits
 202              		.align	2
 203              		.global	Vtrigger_Wakeup
 204              		.thumb
 205              		.thumb_func
 206              		.type	Vtrigger_Wakeup, %function
 207              	Vtrigger_Wakeup:
 208              	.LFB3:
 112:Generated_Source\PSoC5/Vtrigger_PM.c **** 
 113:Generated_Source\PSoC5/Vtrigger_PM.c **** 
 114:Generated_Source\PSoC5/Vtrigger_PM.c **** /*******************************************************************************
 115:Generated_Source\PSoC5/Vtrigger_PM.c **** * Function Name: Vtrigger_Wakeup
 116:Generated_Source\PSoC5/Vtrigger_PM.c **** ********************************************************************************
 117:Generated_Source\PSoC5/Vtrigger_PM.c **** *
 118:Generated_Source\PSoC5/Vtrigger_PM.c **** * Summary:
 119:Generated_Source\PSoC5/Vtrigger_PM.c **** *  Restores and enables the user configuration
 120:Generated_Source\PSoC5/Vtrigger_PM.c **** *  
 121:Generated_Source\PSoC5/Vtrigger_PM.c **** * Parameters:  
 122:Generated_Source\PSoC5/Vtrigger_PM.c **** *  void
 123:Generated_Source\PSoC5/Vtrigger_PM.c **** *
 124:Generated_Source\PSoC5/Vtrigger_PM.c **** * Return: 
 125:Generated_Source\PSoC5/Vtrigger_PM.c **** *  void
 126:Generated_Source\PSoC5/Vtrigger_PM.c **** *
 127:Generated_Source\PSoC5/Vtrigger_PM.c **** * Global variables:
 128:Generated_Source\PSoC5/Vtrigger_PM.c **** *  Vtrigger_backup.enableState:  Is used to restore the enable state of 
 129:Generated_Source\PSoC5/Vtrigger_PM.c **** *  block on wakeup from sleep mode.
 130:Generated_Source\PSoC5/Vtrigger_PM.c **** *
 131:Generated_Source\PSoC5/Vtrigger_PM.c **** *******************************************************************************/
 132:Generated_Source\PSoC5/Vtrigger_PM.c **** void Vtrigger_Wakeup(void) 
 133:Generated_Source\PSoC5/Vtrigger_PM.c **** {
 209              		.loc 1 133 0
ARM GAS  C:\Users\Greg\AppData\Local\Temp\cc9Xo4a6.s 			page 7


 210              		.cfi_startproc
 211              		@ args = 0, pretend = 0, frame = 0
 212              		@ frame_needed = 1, uses_anonymous_args = 0
 213 0000 80B5     		push	{r7, lr}
 214              		.cfi_def_cfa_offset 8
 215              		.cfi_offset 7, -8
 216              		.cfi_offset 14, -4
 217 0002 00AF     		add	r7, sp, #0
 218              		.cfi_def_cfa_register 7
 134:Generated_Source\PSoC5/Vtrigger_PM.c ****     Vtrigger_RestoreConfig();
 219              		.loc 1 134 0
 220 0004 FFF7FEFF 		bl	Vtrigger_RestoreConfig
 135:Generated_Source\PSoC5/Vtrigger_PM.c ****     
 136:Generated_Source\PSoC5/Vtrigger_PM.c ****     if(Vtrigger_backup.enableState == 1u)
 221              		.loc 1 136 0
 222 0008 064B     		ldr	r3, .L17
 223 000a 1B78     		ldrb	r3, [r3]	@ zero_extendqisi2
 224 000c 012B     		cmp	r3, #1
 225 000e 07D1     		bne	.L15
 137:Generated_Source\PSoC5/Vtrigger_PM.c ****     {
 138:Generated_Source\PSoC5/Vtrigger_PM.c ****         /* Enable VDAC8's operation */
 139:Generated_Source\PSoC5/Vtrigger_PM.c ****         Vtrigger_Enable();
 226              		.loc 1 139 0
 227 0010 FFF7FEFF 		bl	Vtrigger_Enable
 140:Generated_Source\PSoC5/Vtrigger_PM.c **** 
 141:Generated_Source\PSoC5/Vtrigger_PM.c ****         /* Restore the data register */
 142:Generated_Source\PSoC5/Vtrigger_PM.c ****         Vtrigger_SetValue(Vtrigger_Data);
 228              		.loc 1 142 0
 229 0014 044B     		ldr	r3, .L17+4
 230 0016 1B78     		ldrb	r3, [r3]
 231 0018 DBB2     		uxtb	r3, r3
 232 001a 1846     		mov	r0, r3
 233 001c FFF7FEFF 		bl	Vtrigger_SetValue
 234              	.L15:
 143:Generated_Source\PSoC5/Vtrigger_PM.c ****     } /* Do nothing if VDAC8 was disabled before */    
 144:Generated_Source\PSoC5/Vtrigger_PM.c **** }
 235              		.loc 1 144 0
 236 0020 80BD     		pop	{r7, pc}
 237              	.L18:
 238 0022 00BF     		.align	2
 239              	.L17:
 240 0024 00000000 		.word	Vtrigger_backup
 241 0028 835B0040 		.word	1073765251
 242              		.cfi_endproc
 243              	.LFE3:
 244              		.size	Vtrigger_Wakeup, .-Vtrigger_Wakeup
 245              		.text
 246              	.Letext0:
 247              		.file 2 "Generated_Source\\PSoC5\\cytypes.h"
 248              		.file 3 "Generated_Source\\PSoC5\\Vtrigger.h"