ARM GAS  C:\Users\Greg\AppData\Local\Temp\ccJi8SrT.s 			page 1


   1              		.syntax unified
   2              		.cpu cortex-m3
   3              		.fpu softvfp
   4              		.eabi_attribute 20, 1
   5              		.eabi_attribute 21, 1
   6              		.eabi_attribute 23, 3
   7              		.eabi_attribute 24, 1
   8              		.eabi_attribute 25, 1
   9              		.eabi_attribute 26, 1
  10              		.eabi_attribute 30, 6
  11              		.eabi_attribute 34, 1
  12              		.eabi_attribute 18, 4
  13              		.thumb
  14              		.file	"Vtrigger.c"
  15              		.text
  16              	.Ltext0:
  17              		.cfi_sections	.debug_frame
  18              		.global	Vtrigger_initVar
  19              		.bss
  20              		.type	Vtrigger_initVar, %object
  21              		.size	Vtrigger_initVar, 1
  22              	Vtrigger_initVar:
  23 0000 00       		.space	1
  24              		.section	.text.Vtrigger_Init,"ax",%progbits
  25              		.align	2
  26              		.global	Vtrigger_Init
  27              		.thumb
  28              		.thumb_func
  29              		.type	Vtrigger_Init, %function
  30              	Vtrigger_Init:
  31              	.LFB0:
  32              		.file 1 "Generated_Source\\PSoC5\\Vtrigger.c"
   1:Generated_Source\PSoC5/Vtrigger.c **** /*******************************************************************************
   2:Generated_Source\PSoC5/Vtrigger.c **** * File Name: Vtrigger.c  
   3:Generated_Source\PSoC5/Vtrigger.c **** * Version 1.90
   4:Generated_Source\PSoC5/Vtrigger.c **** *
   5:Generated_Source\PSoC5/Vtrigger.c **** * Description:
   6:Generated_Source\PSoC5/Vtrigger.c **** *  This file provides the source code to the API for the 8-bit Voltage DAC 
   7:Generated_Source\PSoC5/Vtrigger.c **** *  (VDAC8) User Module.
   8:Generated_Source\PSoC5/Vtrigger.c **** *
   9:Generated_Source\PSoC5/Vtrigger.c **** * Note:
  10:Generated_Source\PSoC5/Vtrigger.c **** *  Any unusual or non-standard behavior should be noted here. Other-
  11:Generated_Source\PSoC5/Vtrigger.c **** *  wise, this section should remain blank.
  12:Generated_Source\PSoC5/Vtrigger.c **** *
  13:Generated_Source\PSoC5/Vtrigger.c **** ********************************************************************************
  14:Generated_Source\PSoC5/Vtrigger.c **** * Copyright 2008-2012, Cypress Semiconductor Corporation.  All rights reserved.
  15:Generated_Source\PSoC5/Vtrigger.c **** * You may use this file only in accordance with the license, terms, conditions, 
  16:Generated_Source\PSoC5/Vtrigger.c **** * disclaimers, and limitations in the end user license agreement accompanying 
  17:Generated_Source\PSoC5/Vtrigger.c **** * the software package with which this file was provided.
  18:Generated_Source\PSoC5/Vtrigger.c **** *******************************************************************************/
  19:Generated_Source\PSoC5/Vtrigger.c **** 
  20:Generated_Source\PSoC5/Vtrigger.c **** #include "cytypes.h"
  21:Generated_Source\PSoC5/Vtrigger.c **** #include "Vtrigger.h"
  22:Generated_Source\PSoC5/Vtrigger.c **** 
  23:Generated_Source\PSoC5/Vtrigger.c **** #if (CY_PSOC5A)
  24:Generated_Source\PSoC5/Vtrigger.c **** #include <CyLib.h>
  25:Generated_Source\PSoC5/Vtrigger.c **** #endif /* CY_PSOC5A */
ARM GAS  C:\Users\Greg\AppData\Local\Temp\ccJi8SrT.s 			page 2


  26:Generated_Source\PSoC5/Vtrigger.c **** 
  27:Generated_Source\PSoC5/Vtrigger.c **** uint8 Vtrigger_initVar = 0u;
  28:Generated_Source\PSoC5/Vtrigger.c **** 
  29:Generated_Source\PSoC5/Vtrigger.c **** #if (CY_PSOC5A)
  30:Generated_Source\PSoC5/Vtrigger.c ****     static uint8 Vtrigger_restoreVal = 0u;
  31:Generated_Source\PSoC5/Vtrigger.c **** #endif /* CY_PSOC5A */
  32:Generated_Source\PSoC5/Vtrigger.c **** 
  33:Generated_Source\PSoC5/Vtrigger.c **** #if (CY_PSOC5A)
  34:Generated_Source\PSoC5/Vtrigger.c ****     static Vtrigger_backupStruct Vtrigger_backup;
  35:Generated_Source\PSoC5/Vtrigger.c **** #endif /* CY_PSOC5A */
  36:Generated_Source\PSoC5/Vtrigger.c **** 
  37:Generated_Source\PSoC5/Vtrigger.c **** 
  38:Generated_Source\PSoC5/Vtrigger.c **** /*******************************************************************************
  39:Generated_Source\PSoC5/Vtrigger.c **** * Function Name: Vtrigger_Init
  40:Generated_Source\PSoC5/Vtrigger.c **** ********************************************************************************
  41:Generated_Source\PSoC5/Vtrigger.c **** * Summary:
  42:Generated_Source\PSoC5/Vtrigger.c **** *  Initialize to the schematic state.
  43:Generated_Source\PSoC5/Vtrigger.c **** * 
  44:Generated_Source\PSoC5/Vtrigger.c **** * Parameters:
  45:Generated_Source\PSoC5/Vtrigger.c **** *  void:
  46:Generated_Source\PSoC5/Vtrigger.c **** *
  47:Generated_Source\PSoC5/Vtrigger.c **** * Return:
  48:Generated_Source\PSoC5/Vtrigger.c **** *  void
  49:Generated_Source\PSoC5/Vtrigger.c **** *
  50:Generated_Source\PSoC5/Vtrigger.c **** * Theory:
  51:Generated_Source\PSoC5/Vtrigger.c **** *
  52:Generated_Source\PSoC5/Vtrigger.c **** * Side Effects:
  53:Generated_Source\PSoC5/Vtrigger.c **** *
  54:Generated_Source\PSoC5/Vtrigger.c **** *******************************************************************************/
  55:Generated_Source\PSoC5/Vtrigger.c **** void Vtrigger_Init(void) 
  56:Generated_Source\PSoC5/Vtrigger.c **** {
  33              		.loc 1 56 0
  34              		.cfi_startproc
  35              		@ args = 0, pretend = 0, frame = 0
  36              		@ frame_needed = 1, uses_anonymous_args = 0
  37 0000 80B5     		push	{r7, lr}
  38              		.cfi_def_cfa_offset 8
  39              		.cfi_offset 7, -8
  40              		.cfi_offset 14, -4
  41 0002 00AF     		add	r7, sp, #0
  42              		.cfi_def_cfa_register 7
  57:Generated_Source\PSoC5/Vtrigger.c ****     Vtrigger_CR0 = (Vtrigger_MODE_V );
  43              		.loc 1 57 0
  44 0004 064B     		ldr	r3, .L2
  45 0006 0022     		movs	r2, #0
  46 0008 1A70     		strb	r2, [r3]
  58:Generated_Source\PSoC5/Vtrigger.c **** 
  59:Generated_Source\PSoC5/Vtrigger.c ****     /* Set default data source */
  60:Generated_Source\PSoC5/Vtrigger.c ****     #if(Vtrigger_DEFAULT_DATA_SRC != 0 )
  61:Generated_Source\PSoC5/Vtrigger.c ****         Vtrigger_CR1 = (Vtrigger_DEFAULT_CNTL | Vtrigger_DACBUS_ENABLE) ;
  62:Generated_Source\PSoC5/Vtrigger.c ****     #else
  63:Generated_Source\PSoC5/Vtrigger.c ****         Vtrigger_CR1 = (Vtrigger_DEFAULT_CNTL | Vtrigger_DACBUS_DISABLE) ;
  47              		.loc 1 63 0
  48 000a 064B     		ldr	r3, .L2+4
  49 000c 0022     		movs	r2, #0
  50 000e 1A70     		strb	r2, [r3]
  64:Generated_Source\PSoC5/Vtrigger.c ****     #endif /* (Vtrigger_DEFAULT_DATA_SRC != 0 ) */
ARM GAS  C:\Users\Greg\AppData\Local\Temp\ccJi8SrT.s 			page 3


  65:Generated_Source\PSoC5/Vtrigger.c **** 
  66:Generated_Source\PSoC5/Vtrigger.c ****     /* Set default strobe mode */
  67:Generated_Source\PSoC5/Vtrigger.c ****     #if(Vtrigger_DEFAULT_STRB != 0)
  68:Generated_Source\PSoC5/Vtrigger.c ****         Vtrigger_Strobe |= Vtrigger_STRB_EN ;
  69:Generated_Source\PSoC5/Vtrigger.c ****     #endif/* (Vtrigger_DEFAULT_STRB != 0) */
  70:Generated_Source\PSoC5/Vtrigger.c **** 
  71:Generated_Source\PSoC5/Vtrigger.c ****     /* Set default range */
  72:Generated_Source\PSoC5/Vtrigger.c ****     Vtrigger_SetRange(Vtrigger_DEFAULT_RANGE); 
  51              		.loc 1 72 0
  52 0010 0420     		movs	r0, #4
  53 0012 FFF7FEFF 		bl	Vtrigger_SetRange
  73:Generated_Source\PSoC5/Vtrigger.c **** 
  74:Generated_Source\PSoC5/Vtrigger.c ****     /* Set default speed */
  75:Generated_Source\PSoC5/Vtrigger.c ****     Vtrigger_SetSpeed(Vtrigger_DEFAULT_SPEED);
  54              		.loc 1 75 0
  55 0016 0020     		movs	r0, #0
  56 0018 FFF7FEFF 		bl	Vtrigger_SetSpeed
  76:Generated_Source\PSoC5/Vtrigger.c **** }
  57              		.loc 1 76 0
  58 001c 80BD     		pop	{r7, pc}
  59              	.L3:
  60 001e 00BF     		.align	2
  61              	.L2:
  62 0020 2C580040 		.word	1073764396
  63 0024 2D580040 		.word	1073764397
  64              		.cfi_endproc
  65              	.LFE0:
  66              		.size	Vtrigger_Init, .-Vtrigger_Init
  67              		.section	.text.Vtrigger_Enable,"ax",%progbits
  68              		.align	2
  69              		.global	Vtrigger_Enable
  70              		.thumb
  71              		.thumb_func
  72              		.type	Vtrigger_Enable, %function
  73              	Vtrigger_Enable:
  74              	.LFB1:
  77:Generated_Source\PSoC5/Vtrigger.c **** 
  78:Generated_Source\PSoC5/Vtrigger.c **** 
  79:Generated_Source\PSoC5/Vtrigger.c **** /*******************************************************************************
  80:Generated_Source\PSoC5/Vtrigger.c **** * Function Name: Vtrigger_Enable
  81:Generated_Source\PSoC5/Vtrigger.c **** ********************************************************************************
  82:Generated_Source\PSoC5/Vtrigger.c **** * Summary:
  83:Generated_Source\PSoC5/Vtrigger.c **** *  Enable the VDAC8
  84:Generated_Source\PSoC5/Vtrigger.c **** * 
  85:Generated_Source\PSoC5/Vtrigger.c **** * Parameters:
  86:Generated_Source\PSoC5/Vtrigger.c **** *  void
  87:Generated_Source\PSoC5/Vtrigger.c **** *
  88:Generated_Source\PSoC5/Vtrigger.c **** * Return:
  89:Generated_Source\PSoC5/Vtrigger.c **** *  void
  90:Generated_Source\PSoC5/Vtrigger.c **** *
  91:Generated_Source\PSoC5/Vtrigger.c **** * Theory:
  92:Generated_Source\PSoC5/Vtrigger.c **** *
  93:Generated_Source\PSoC5/Vtrigger.c **** * Side Effects:
  94:Generated_Source\PSoC5/Vtrigger.c **** *
  95:Generated_Source\PSoC5/Vtrigger.c **** *******************************************************************************/
  96:Generated_Source\PSoC5/Vtrigger.c **** void Vtrigger_Enable(void) 
  97:Generated_Source\PSoC5/Vtrigger.c **** {
ARM GAS  C:\Users\Greg\AppData\Local\Temp\ccJi8SrT.s 			page 4


  75              		.loc 1 97 0
  76              		.cfi_startproc
  77              		@ args = 0, pretend = 0, frame = 0
  78              		@ frame_needed = 1, uses_anonymous_args = 0
  79              		@ link register save eliminated.
  80 0000 80B4     		push	{r7}
  81              		.cfi_def_cfa_offset 4
  82              		.cfi_offset 7, -4
  83 0002 00AF     		add	r7, sp, #0
  84              		.cfi_def_cfa_register 7
  98:Generated_Source\PSoC5/Vtrigger.c ****     Vtrigger_PWRMGR |= Vtrigger_ACT_PWR_EN;
  85              		.loc 1 98 0
  86 0004 094A     		ldr	r2, .L5
  87 0006 094B     		ldr	r3, .L5
  88 0008 1B78     		ldrb	r3, [r3]
  89 000a DBB2     		uxtb	r3, r3
  90 000c 43F00803 		orr	r3, r3, #8
  91 0010 DBB2     		uxtb	r3, r3
  92 0012 1370     		strb	r3, [r2]
  99:Generated_Source\PSoC5/Vtrigger.c ****     Vtrigger_STBY_PWRMGR |= Vtrigger_STBY_PWR_EN;
  93              		.loc 1 99 0
  94 0014 064A     		ldr	r2, .L5+4
  95 0016 064B     		ldr	r3, .L5+4
  96 0018 1B78     		ldrb	r3, [r3]
  97 001a DBB2     		uxtb	r3, r3
  98 001c 43F00803 		orr	r3, r3, #8
  99 0020 DBB2     		uxtb	r3, r3
 100 0022 1370     		strb	r3, [r2]
 100:Generated_Source\PSoC5/Vtrigger.c **** 
 101:Generated_Source\PSoC5/Vtrigger.c ****     /*This is to restore the value of register CR0 ,
 102:Generated_Source\PSoC5/Vtrigger.c ****     which is modified  in Stop API , this prevents misbehaviour of VDAC */
 103:Generated_Source\PSoC5/Vtrigger.c ****     #if (CY_PSOC5A)
 104:Generated_Source\PSoC5/Vtrigger.c ****         if(Vtrigger_restoreVal == 1u) 
 105:Generated_Source\PSoC5/Vtrigger.c ****         {
 106:Generated_Source\PSoC5/Vtrigger.c ****              Vtrigger_CR0 = Vtrigger_backup.data_value;
 107:Generated_Source\PSoC5/Vtrigger.c ****              Vtrigger_restoreVal = 0u;
 108:Generated_Source\PSoC5/Vtrigger.c ****         }
 109:Generated_Source\PSoC5/Vtrigger.c ****     #endif /* CY_PSOC5A */
 110:Generated_Source\PSoC5/Vtrigger.c **** }
 101              		.loc 1 110 0
 102 0024 BD46     		mov	sp, r7
 103              		.cfi_def_cfa_register 13
 104              		@ sp needed
 105 0026 5DF8047B 		ldr	r7, [sp], #4
 106              		.cfi_restore 7
 107              		.cfi_def_cfa_offset 0
 108 002a 7047     		bx	lr
 109              	.L6:
 110              		.align	2
 111              	.L5:
 112 002c A8430040 		.word	1073759144
 113 0030 B8430040 		.word	1073759160
 114              		.cfi_endproc
 115              	.LFE1:
 116              		.size	Vtrigger_Enable, .-Vtrigger_Enable
 117              		.section	.text.Vtrigger_Start,"ax",%progbits
 118              		.align	2
ARM GAS  C:\Users\Greg\AppData\Local\Temp\ccJi8SrT.s 			page 5


 119              		.global	Vtrigger_Start
 120              		.thumb
 121              		.thumb_func
 122              		.type	Vtrigger_Start, %function
 123              	Vtrigger_Start:
 124              	.LFB2:
 111:Generated_Source\PSoC5/Vtrigger.c **** 
 112:Generated_Source\PSoC5/Vtrigger.c **** 
 113:Generated_Source\PSoC5/Vtrigger.c **** /*******************************************************************************
 114:Generated_Source\PSoC5/Vtrigger.c **** * Function Name: Vtrigger_Start
 115:Generated_Source\PSoC5/Vtrigger.c **** ********************************************************************************
 116:Generated_Source\PSoC5/Vtrigger.c **** *
 117:Generated_Source\PSoC5/Vtrigger.c **** * Summary:
 118:Generated_Source\PSoC5/Vtrigger.c **** *  The start function initializes the voltage DAC with the default values, 
 119:Generated_Source\PSoC5/Vtrigger.c **** *  and sets the power to the given level.  A power level of 0, is the same as
 120:Generated_Source\PSoC5/Vtrigger.c **** *  executing the stop function.
 121:Generated_Source\PSoC5/Vtrigger.c **** *
 122:Generated_Source\PSoC5/Vtrigger.c **** * Parameters:
 123:Generated_Source\PSoC5/Vtrigger.c **** *  Power: Sets power level between off (0) and (3) high power
 124:Generated_Source\PSoC5/Vtrigger.c **** *
 125:Generated_Source\PSoC5/Vtrigger.c **** * Return:
 126:Generated_Source\PSoC5/Vtrigger.c **** *  void 
 127:Generated_Source\PSoC5/Vtrigger.c **** *
 128:Generated_Source\PSoC5/Vtrigger.c **** * Global variables:
 129:Generated_Source\PSoC5/Vtrigger.c **** *  Vtrigger_initVar: Is modified when this function is called for the 
 130:Generated_Source\PSoC5/Vtrigger.c **** *  first time. Is used to ensure that initialization happens only once.
 131:Generated_Source\PSoC5/Vtrigger.c **** *
 132:Generated_Source\PSoC5/Vtrigger.c **** *******************************************************************************/
 133:Generated_Source\PSoC5/Vtrigger.c **** void Vtrigger_Start(void)  
 134:Generated_Source\PSoC5/Vtrigger.c **** {
 125              		.loc 1 134 0
 126              		.cfi_startproc
 127              		@ args = 0, pretend = 0, frame = 0
 128              		@ frame_needed = 1, uses_anonymous_args = 0
 129 0000 80B5     		push	{r7, lr}
 130              		.cfi_def_cfa_offset 8
 131              		.cfi_offset 7, -8
 132              		.cfi_offset 14, -4
 133 0002 00AF     		add	r7, sp, #0
 134              		.cfi_def_cfa_register 7
 135:Generated_Source\PSoC5/Vtrigger.c ****     /* Hardware initiazation only needs to occure the first time */
 136:Generated_Source\PSoC5/Vtrigger.c ****     if(Vtrigger_initVar == 0u)
 135              		.loc 1 136 0
 136 0004 074B     		ldr	r3, .L9
 137 0006 1B78     		ldrb	r3, [r3]	@ zero_extendqisi2
 138 0008 002B     		cmp	r3, #0
 139 000a 04D1     		bne	.L8
 137:Generated_Source\PSoC5/Vtrigger.c ****     { 
 138:Generated_Source\PSoC5/Vtrigger.c ****         Vtrigger_Init();
 140              		.loc 1 138 0
 141 000c FFF7FEFF 		bl	Vtrigger_Init
 139:Generated_Source\PSoC5/Vtrigger.c ****         Vtrigger_initVar = 1u;
 142              		.loc 1 139 0
 143 0010 044B     		ldr	r3, .L9
 144 0012 0122     		movs	r2, #1
 145 0014 1A70     		strb	r2, [r3]
 146              	.L8:
ARM GAS  C:\Users\Greg\AppData\Local\Temp\ccJi8SrT.s 			page 6


 140:Generated_Source\PSoC5/Vtrigger.c ****     }
 141:Generated_Source\PSoC5/Vtrigger.c **** 
 142:Generated_Source\PSoC5/Vtrigger.c ****     /* Enable power to DAC */
 143:Generated_Source\PSoC5/Vtrigger.c ****     Vtrigger_Enable();
 147              		.loc 1 143 0
 148 0016 FFF7FEFF 		bl	Vtrigger_Enable
 144:Generated_Source\PSoC5/Vtrigger.c **** 
 145:Generated_Source\PSoC5/Vtrigger.c ****     /* Set default value */
 146:Generated_Source\PSoC5/Vtrigger.c ****     Vtrigger_SetValue(Vtrigger_DEFAULT_DATA); 
 149              		.loc 1 146 0
 150 001a 9C20     		movs	r0, #156
 151 001c FFF7FEFF 		bl	Vtrigger_SetValue
 147:Generated_Source\PSoC5/Vtrigger.c **** }
 152              		.loc 1 147 0
 153 0020 80BD     		pop	{r7, pc}
 154              	.L10:
 155 0022 00BF     		.align	2
 156              	.L9:
 157 0024 00000000 		.word	Vtrigger_initVar
 158              		.cfi_endproc
 159              	.LFE2:
 160              		.size	Vtrigger_Start, .-Vtrigger_Start
 161              		.section	.text.Vtrigger_Stop,"ax",%progbits
 162              		.align	2
 163              		.global	Vtrigger_Stop
 164              		.thumb
 165              		.thumb_func
 166              		.type	Vtrigger_Stop, %function
 167              	Vtrigger_Stop:
 168              	.LFB3:
 148:Generated_Source\PSoC5/Vtrigger.c **** 
 149:Generated_Source\PSoC5/Vtrigger.c **** 
 150:Generated_Source\PSoC5/Vtrigger.c **** /*******************************************************************************
 151:Generated_Source\PSoC5/Vtrigger.c **** * Function Name: Vtrigger_Stop
 152:Generated_Source\PSoC5/Vtrigger.c **** ********************************************************************************
 153:Generated_Source\PSoC5/Vtrigger.c **** *
 154:Generated_Source\PSoC5/Vtrigger.c **** * Summary:
 155:Generated_Source\PSoC5/Vtrigger.c **** *  Powers down DAC to lowest power state.
 156:Generated_Source\PSoC5/Vtrigger.c **** *
 157:Generated_Source\PSoC5/Vtrigger.c **** * Parameters:
 158:Generated_Source\PSoC5/Vtrigger.c **** *  void
 159:Generated_Source\PSoC5/Vtrigger.c **** *
 160:Generated_Source\PSoC5/Vtrigger.c **** * Return:
 161:Generated_Source\PSoC5/Vtrigger.c **** *  void
 162:Generated_Source\PSoC5/Vtrigger.c **** *
 163:Generated_Source\PSoC5/Vtrigger.c **** * Theory:
 164:Generated_Source\PSoC5/Vtrigger.c **** *
 165:Generated_Source\PSoC5/Vtrigger.c **** * Side Effects:
 166:Generated_Source\PSoC5/Vtrigger.c **** *
 167:Generated_Source\PSoC5/Vtrigger.c **** *******************************************************************************/
 168:Generated_Source\PSoC5/Vtrigger.c **** void Vtrigger_Stop(void) 
 169:Generated_Source\PSoC5/Vtrigger.c **** {
 169              		.loc 1 169 0
 170              		.cfi_startproc
 171              		@ args = 0, pretend = 0, frame = 0
 172              		@ frame_needed = 1, uses_anonymous_args = 0
 173              		@ link register save eliminated.
ARM GAS  C:\Users\Greg\AppData\Local\Temp\ccJi8SrT.s 			page 7


 174 0000 80B4     		push	{r7}
 175              		.cfi_def_cfa_offset 4
 176              		.cfi_offset 7, -4
 177 0002 00AF     		add	r7, sp, #0
 178              		.cfi_def_cfa_register 7
 170:Generated_Source\PSoC5/Vtrigger.c ****     /* Disble power to DAC */
 171:Generated_Source\PSoC5/Vtrigger.c ****     Vtrigger_PWRMGR &= (uint8)(~Vtrigger_ACT_PWR_EN);
 179              		.loc 1 171 0
 180 0004 094A     		ldr	r2, .L12
 181 0006 094B     		ldr	r3, .L12
 182 0008 1B78     		ldrb	r3, [r3]
 183 000a DBB2     		uxtb	r3, r3
 184 000c 23F00803 		bic	r3, r3, #8
 185 0010 DBB2     		uxtb	r3, r3
 186 0012 1370     		strb	r3, [r2]
 172:Generated_Source\PSoC5/Vtrigger.c ****     Vtrigger_STBY_PWRMGR &= (uint8)(~Vtrigger_STBY_PWR_EN);
 187              		.loc 1 172 0
 188 0014 064A     		ldr	r2, .L12+4
 189 0016 064B     		ldr	r3, .L12+4
 190 0018 1B78     		ldrb	r3, [r3]
 191 001a DBB2     		uxtb	r3, r3
 192 001c 23F00803 		bic	r3, r3, #8
 193 0020 DBB2     		uxtb	r3, r3
 194 0022 1370     		strb	r3, [r2]
 173:Generated_Source\PSoC5/Vtrigger.c **** 
 174:Generated_Source\PSoC5/Vtrigger.c ****     /* This is a work around for PSoC5A  ,
 175:Generated_Source\PSoC5/Vtrigger.c ****     this sets VDAC to current mode with output off */
 176:Generated_Source\PSoC5/Vtrigger.c ****     #if (CY_PSOC5A)
 177:Generated_Source\PSoC5/Vtrigger.c ****         Vtrigger_backup.data_value = Vtrigger_CR0;
 178:Generated_Source\PSoC5/Vtrigger.c ****         Vtrigger_CR0 = Vtrigger_CUR_MODE_OUT_OFF;
 179:Generated_Source\PSoC5/Vtrigger.c ****         Vtrigger_restoreVal = 1u;
 180:Generated_Source\PSoC5/Vtrigger.c ****     #endif /* CY_PSOC5A */
 181:Generated_Source\PSoC5/Vtrigger.c **** }
 195              		.loc 1 181 0
 196 0024 BD46     		mov	sp, r7
 197              		.cfi_def_cfa_register 13
 198              		@ sp needed
 199 0026 5DF8047B 		ldr	r7, [sp], #4
 200              		.cfi_restore 7
 201              		.cfi_def_cfa_offset 0
 202 002a 7047     		bx	lr
 203              	.L13:
 204              		.align	2
 205              	.L12:
 206 002c A8430040 		.word	1073759144
 207 0030 B8430040 		.word	1073759160
 208              		.cfi_endproc
 209              	.LFE3:
 210              		.size	Vtrigger_Stop, .-Vtrigger_Stop
 211              		.section	.text.Vtrigger_SetSpeed,"ax",%progbits
 212              		.align	2
 213              		.global	Vtrigger_SetSpeed
 214              		.thumb
 215              		.thumb_func
 216              		.type	Vtrigger_SetSpeed, %function
 217              	Vtrigger_SetSpeed:
 218              	.LFB4:
ARM GAS  C:\Users\Greg\AppData\Local\Temp\ccJi8SrT.s 			page 8


 182:Generated_Source\PSoC5/Vtrigger.c **** 
 183:Generated_Source\PSoC5/Vtrigger.c **** 
 184:Generated_Source\PSoC5/Vtrigger.c **** /*******************************************************************************
 185:Generated_Source\PSoC5/Vtrigger.c **** * Function Name: Vtrigger_SetSpeed
 186:Generated_Source\PSoC5/Vtrigger.c **** ********************************************************************************
 187:Generated_Source\PSoC5/Vtrigger.c **** *
 188:Generated_Source\PSoC5/Vtrigger.c **** * Summary:
 189:Generated_Source\PSoC5/Vtrigger.c **** *  Set DAC speed
 190:Generated_Source\PSoC5/Vtrigger.c **** *
 191:Generated_Source\PSoC5/Vtrigger.c **** * Parameters:
 192:Generated_Source\PSoC5/Vtrigger.c **** *  power: Sets speed value
 193:Generated_Source\PSoC5/Vtrigger.c **** *
 194:Generated_Source\PSoC5/Vtrigger.c **** * Return:
 195:Generated_Source\PSoC5/Vtrigger.c **** *  void
 196:Generated_Source\PSoC5/Vtrigger.c **** *
 197:Generated_Source\PSoC5/Vtrigger.c **** * Theory:
 198:Generated_Source\PSoC5/Vtrigger.c **** *
 199:Generated_Source\PSoC5/Vtrigger.c **** * Side Effects:
 200:Generated_Source\PSoC5/Vtrigger.c **** *
 201:Generated_Source\PSoC5/Vtrigger.c **** *******************************************************************************/
 202:Generated_Source\PSoC5/Vtrigger.c **** void Vtrigger_SetSpeed(uint8 speed) 
 203:Generated_Source\PSoC5/Vtrigger.c **** {
 219              		.loc 1 203 0
 220              		.cfi_startproc
 221              		@ args = 0, pretend = 0, frame = 8
 222              		@ frame_needed = 1, uses_anonymous_args = 0
 223              		@ link register save eliminated.
 224 0000 80B4     		push	{r7}
 225              		.cfi_def_cfa_offset 4
 226              		.cfi_offset 7, -4
 227 0002 83B0     		sub	sp, sp, #12
 228              		.cfi_def_cfa_offset 16
 229 0004 00AF     		add	r7, sp, #0
 230              		.cfi_def_cfa_register 7
 231 0006 0346     		mov	r3, r0
 232 0008 FB71     		strb	r3, [r7, #7]
 204:Generated_Source\PSoC5/Vtrigger.c ****     /* Clear power mask then write in new value */
 205:Generated_Source\PSoC5/Vtrigger.c ****     Vtrigger_CR0 &= (uint8)(~Vtrigger_HS_MASK);
 233              		.loc 1 205 0
 234 000a 0C4A     		ldr	r2, .L15
 235 000c 0B4B     		ldr	r3, .L15
 236 000e 1B78     		ldrb	r3, [r3]
 237 0010 DBB2     		uxtb	r3, r3
 238 0012 23F00203 		bic	r3, r3, #2
 239 0016 DBB2     		uxtb	r3, r3
 240 0018 1370     		strb	r3, [r2]
 206:Generated_Source\PSoC5/Vtrigger.c ****     Vtrigger_CR0 |=  (speed & Vtrigger_HS_MASK);
 241              		.loc 1 206 0
 242 001a 0849     		ldr	r1, .L15
 243 001c 074B     		ldr	r3, .L15
 244 001e 1B78     		ldrb	r3, [r3]
 245 0020 DAB2     		uxtb	r2, r3
 246 0022 FB79     		ldrb	r3, [r7, #7]
 247 0024 03F00203 		and	r3, r3, #2
 248 0028 DBB2     		uxtb	r3, r3
 249 002a 1343     		orrs	r3, r3, r2
 250 002c DBB2     		uxtb	r3, r3
ARM GAS  C:\Users\Greg\AppData\Local\Temp\ccJi8SrT.s 			page 9


 251 002e 0B70     		strb	r3, [r1]
 207:Generated_Source\PSoC5/Vtrigger.c **** }
 252              		.loc 1 207 0
 253 0030 0C37     		adds	r7, r7, #12
 254              		.cfi_def_cfa_offset 4
 255 0032 BD46     		mov	sp, r7
 256              		.cfi_def_cfa_register 13
 257              		@ sp needed
 258 0034 5DF8047B 		ldr	r7, [sp], #4
 259              		.cfi_restore 7
 260              		.cfi_def_cfa_offset 0
 261 0038 7047     		bx	lr
 262              	.L16:
 263 003a 00BF     		.align	2
 264              	.L15:
 265 003c 2C580040 		.word	1073764396
 266              		.cfi_endproc
 267              	.LFE4:
 268              		.size	Vtrigger_SetSpeed, .-Vtrigger_SetSpeed
 269              		.section	.text.Vtrigger_SetRange,"ax",%progbits
 270              		.align	2
 271              		.global	Vtrigger_SetRange
 272              		.thumb
 273              		.thumb_func
 274              		.type	Vtrigger_SetRange, %function
 275              	Vtrigger_SetRange:
 276              	.LFB5:
 208:Generated_Source\PSoC5/Vtrigger.c **** 
 209:Generated_Source\PSoC5/Vtrigger.c **** 
 210:Generated_Source\PSoC5/Vtrigger.c **** /*******************************************************************************
 211:Generated_Source\PSoC5/Vtrigger.c **** * Function Name: Vtrigger_SetRange
 212:Generated_Source\PSoC5/Vtrigger.c **** ********************************************************************************
 213:Generated_Source\PSoC5/Vtrigger.c **** *
 214:Generated_Source\PSoC5/Vtrigger.c **** * Summary:
 215:Generated_Source\PSoC5/Vtrigger.c **** *  Set one of three current ranges.
 216:Generated_Source\PSoC5/Vtrigger.c **** *
 217:Generated_Source\PSoC5/Vtrigger.c **** * Parameters:
 218:Generated_Source\PSoC5/Vtrigger.c **** *  Range: Sets one of Three valid ranges.
 219:Generated_Source\PSoC5/Vtrigger.c **** *
 220:Generated_Source\PSoC5/Vtrigger.c **** * Return:
 221:Generated_Source\PSoC5/Vtrigger.c **** *  void 
 222:Generated_Source\PSoC5/Vtrigger.c **** *
 223:Generated_Source\PSoC5/Vtrigger.c **** * Theory:
 224:Generated_Source\PSoC5/Vtrigger.c **** *
 225:Generated_Source\PSoC5/Vtrigger.c **** * Side Effects:
 226:Generated_Source\PSoC5/Vtrigger.c **** *
 227:Generated_Source\PSoC5/Vtrigger.c **** *******************************************************************************/
 228:Generated_Source\PSoC5/Vtrigger.c **** void Vtrigger_SetRange(uint8 range) 
 229:Generated_Source\PSoC5/Vtrigger.c **** {
 277              		.loc 1 229 0
 278              		.cfi_startproc
 279              		@ args = 0, pretend = 0, frame = 8
 280              		@ frame_needed = 1, uses_anonymous_args = 0
 281 0000 80B5     		push	{r7, lr}
 282              		.cfi_def_cfa_offset 8
 283              		.cfi_offset 7, -8
 284              		.cfi_offset 14, -4
ARM GAS  C:\Users\Greg\AppData\Local\Temp\ccJi8SrT.s 			page 10


 285 0002 82B0     		sub	sp, sp, #8
 286              		.cfi_def_cfa_offset 16
 287 0004 00AF     		add	r7, sp, #0
 288              		.cfi_def_cfa_register 7
 289 0006 0346     		mov	r3, r0
 290 0008 FB71     		strb	r3, [r7, #7]
 230:Generated_Source\PSoC5/Vtrigger.c ****     Vtrigger_CR0 &= (uint8)(~Vtrigger_RANGE_MASK);      /* Clear existing mode */
 291              		.loc 1 230 0
 292 000a 0C4A     		ldr	r2, .L18
 293 000c 0B4B     		ldr	r3, .L18
 294 000e 1B78     		ldrb	r3, [r3]
 295 0010 DBB2     		uxtb	r3, r3
 296 0012 23F00C03 		bic	r3, r3, #12
 297 0016 DBB2     		uxtb	r3, r3
 298 0018 1370     		strb	r3, [r2]
 231:Generated_Source\PSoC5/Vtrigger.c ****     Vtrigger_CR0 |= (range & Vtrigger_RANGE_MASK);      /*  Set Range  */
 299              		.loc 1 231 0
 300 001a 0849     		ldr	r1, .L18
 301 001c 074B     		ldr	r3, .L18
 302 001e 1B78     		ldrb	r3, [r3]
 303 0020 DAB2     		uxtb	r2, r3
 304 0022 FB79     		ldrb	r3, [r7, #7]
 305 0024 03F00C03 		and	r3, r3, #12
 306 0028 DBB2     		uxtb	r3, r3
 307 002a 1343     		orrs	r3, r3, r2
 308 002c DBB2     		uxtb	r3, r3
 309 002e 0B70     		strb	r3, [r1]
 232:Generated_Source\PSoC5/Vtrigger.c ****     Vtrigger_DacTrim();
 310              		.loc 1 232 0
 311 0030 FFF7FEFF 		bl	Vtrigger_DacTrim
 233:Generated_Source\PSoC5/Vtrigger.c **** }
 312              		.loc 1 233 0
 313 0034 0837     		adds	r7, r7, #8
 314              		.cfi_def_cfa_offset 8
 315 0036 BD46     		mov	sp, r7
 316              		.cfi_def_cfa_register 13
 317              		@ sp needed
 318 0038 80BD     		pop	{r7, pc}
 319              	.L19:
 320 003a 00BF     		.align	2
 321              	.L18:
 322 003c 2C580040 		.word	1073764396
 323              		.cfi_endproc
 324              	.LFE5:
 325              		.size	Vtrigger_SetRange, .-Vtrigger_SetRange
 326              		.section	.text.Vtrigger_SetValue,"ax",%progbits
 327              		.align	2
 328              		.global	Vtrigger_SetValue
 329              		.thumb
 330              		.thumb_func
 331              		.type	Vtrigger_SetValue, %function
 332              	Vtrigger_SetValue:
 333              	.LFB6:
 234:Generated_Source\PSoC5/Vtrigger.c **** 
 235:Generated_Source\PSoC5/Vtrigger.c **** 
 236:Generated_Source\PSoC5/Vtrigger.c **** /*******************************************************************************
 237:Generated_Source\PSoC5/Vtrigger.c **** * Function Name: Vtrigger_SetValue
ARM GAS  C:\Users\Greg\AppData\Local\Temp\ccJi8SrT.s 			page 11


 238:Generated_Source\PSoC5/Vtrigger.c **** ********************************************************************************
 239:Generated_Source\PSoC5/Vtrigger.c **** *
 240:Generated_Source\PSoC5/Vtrigger.c **** * Summary:
 241:Generated_Source\PSoC5/Vtrigger.c **** *  Set 8-bit DAC value
 242:Generated_Source\PSoC5/Vtrigger.c **** *
 243:Generated_Source\PSoC5/Vtrigger.c **** * Parameters:  
 244:Generated_Source\PSoC5/Vtrigger.c **** *  value:  Sets DAC value between 0 and 255.
 245:Generated_Source\PSoC5/Vtrigger.c **** *
 246:Generated_Source\PSoC5/Vtrigger.c **** * Return: 
 247:Generated_Source\PSoC5/Vtrigger.c **** *  void 
 248:Generated_Source\PSoC5/Vtrigger.c **** *
 249:Generated_Source\PSoC5/Vtrigger.c **** * Theory: 
 250:Generated_Source\PSoC5/Vtrigger.c **** *
 251:Generated_Source\PSoC5/Vtrigger.c **** * Side Effects:
 252:Generated_Source\PSoC5/Vtrigger.c **** *
 253:Generated_Source\PSoC5/Vtrigger.c **** *******************************************************************************/
 254:Generated_Source\PSoC5/Vtrigger.c **** void Vtrigger_SetValue(uint8 value) 
 255:Generated_Source\PSoC5/Vtrigger.c **** {
 334              		.loc 1 255 0
 335              		.cfi_startproc
 336              		@ args = 0, pretend = 0, frame = 8
 337              		@ frame_needed = 1, uses_anonymous_args = 0
 338              		@ link register save eliminated.
 339 0000 80B4     		push	{r7}
 340              		.cfi_def_cfa_offset 4
 341              		.cfi_offset 7, -4
 342 0002 83B0     		sub	sp, sp, #12
 343              		.cfi_def_cfa_offset 16
 344 0004 00AF     		add	r7, sp, #0
 345              		.cfi_def_cfa_register 7
 346 0006 0346     		mov	r3, r0
 347 0008 FB71     		strb	r3, [r7, #7]
 256:Generated_Source\PSoC5/Vtrigger.c ****     #if (CY_PSOC5A)
 257:Generated_Source\PSoC5/Vtrigger.c ****         uint8 Vtrigger_intrStatus = CyEnterCriticalSection();
 258:Generated_Source\PSoC5/Vtrigger.c ****     #endif /* CY_PSOC5A */
 259:Generated_Source\PSoC5/Vtrigger.c **** 
 260:Generated_Source\PSoC5/Vtrigger.c ****     Vtrigger_Data = value;                /*  Set Value  */
 348              		.loc 1 260 0
 349 000a 044A     		ldr	r2, .L21
 350 000c FB79     		ldrb	r3, [r7, #7]
 351 000e 1370     		strb	r3, [r2]
 261:Generated_Source\PSoC5/Vtrigger.c **** 
 262:Generated_Source\PSoC5/Vtrigger.c ****     /* PSOC5A requires a double write */
 263:Generated_Source\PSoC5/Vtrigger.c ****     /* Exit Critical Section */
 264:Generated_Source\PSoC5/Vtrigger.c ****     #if (CY_PSOC5A)
 265:Generated_Source\PSoC5/Vtrigger.c ****         Vtrigger_Data = value;
 266:Generated_Source\PSoC5/Vtrigger.c ****         CyExitCriticalSection(Vtrigger_intrStatus);
 267:Generated_Source\PSoC5/Vtrigger.c ****     #endif /* CY_PSOC5A */
 268:Generated_Source\PSoC5/Vtrigger.c **** }
 352              		.loc 1 268 0
 353 0010 0C37     		adds	r7, r7, #12
 354              		.cfi_def_cfa_offset 4
 355 0012 BD46     		mov	sp, r7
 356              		.cfi_def_cfa_register 13
 357              		@ sp needed
 358 0014 5DF8047B 		ldr	r7, [sp], #4
 359              		.cfi_restore 7
ARM GAS  C:\Users\Greg\AppData\Local\Temp\ccJi8SrT.s 			page 12


 360              		.cfi_def_cfa_offset 0
 361 0018 7047     		bx	lr
 362              	.L22:
 363 001a 00BF     		.align	2
 364              	.L21:
 365 001c 835B0040 		.word	1073765251
 366              		.cfi_endproc
 367              	.LFE6:
 368              		.size	Vtrigger_SetValue, .-Vtrigger_SetValue
 369              		.section	.text.Vtrigger_DacTrim,"ax",%progbits
 370              		.align	2
 371              		.global	Vtrigger_DacTrim
 372              		.thumb
 373              		.thumb_func
 374              		.type	Vtrigger_DacTrim, %function
 375              	Vtrigger_DacTrim:
 376              	.LFB7:
 269:Generated_Source\PSoC5/Vtrigger.c **** 
 270:Generated_Source\PSoC5/Vtrigger.c **** 
 271:Generated_Source\PSoC5/Vtrigger.c **** /*******************************************************************************
 272:Generated_Source\PSoC5/Vtrigger.c **** * Function Name: Vtrigger_DacTrim
 273:Generated_Source\PSoC5/Vtrigger.c **** ********************************************************************************
 274:Generated_Source\PSoC5/Vtrigger.c **** *
 275:Generated_Source\PSoC5/Vtrigger.c **** * Summary:
 276:Generated_Source\PSoC5/Vtrigger.c **** *  Set the trim value for the given range.
 277:Generated_Source\PSoC5/Vtrigger.c **** *
 278:Generated_Source\PSoC5/Vtrigger.c **** * Parameters:
 279:Generated_Source\PSoC5/Vtrigger.c **** *  range:  1V or 4V range.  See constants.
 280:Generated_Source\PSoC5/Vtrigger.c **** *
 281:Generated_Source\PSoC5/Vtrigger.c **** * Return:
 282:Generated_Source\PSoC5/Vtrigger.c **** *  void
 283:Generated_Source\PSoC5/Vtrigger.c **** *
 284:Generated_Source\PSoC5/Vtrigger.c **** * Theory: 
 285:Generated_Source\PSoC5/Vtrigger.c **** *
 286:Generated_Source\PSoC5/Vtrigger.c **** * Side Effects:
 287:Generated_Source\PSoC5/Vtrigger.c **** *
 288:Generated_Source\PSoC5/Vtrigger.c **** *******************************************************************************/
 289:Generated_Source\PSoC5/Vtrigger.c **** void Vtrigger_DacTrim(void) 
 290:Generated_Source\PSoC5/Vtrigger.c **** {
 377              		.loc 1 290 0
 378              		.cfi_startproc
 379              		@ args = 0, pretend = 0, frame = 8
 380              		@ frame_needed = 1, uses_anonymous_args = 0
 381              		@ link register save eliminated.
 382 0000 80B4     		push	{r7}
 383              		.cfi_def_cfa_offset 4
 384              		.cfi_offset 7, -4
 385 0002 83B0     		sub	sp, sp, #12
 386              		.cfi_def_cfa_offset 16
 387 0004 00AF     		add	r7, sp, #0
 388              		.cfi_def_cfa_register 7
 291:Generated_Source\PSoC5/Vtrigger.c ****     uint8 mode;
 292:Generated_Source\PSoC5/Vtrigger.c **** 
 293:Generated_Source\PSoC5/Vtrigger.c ****     mode = (uint8)((Vtrigger_CR0 & Vtrigger_RANGE_MASK) >> 2) + Vtrigger_TRIM_M7_1V_RNG_OFFSET;
 389              		.loc 1 293 0
 390 0006 0B4B     		ldr	r3, .L24
 391 0008 1B78     		ldrb	r3, [r3]
ARM GAS  C:\Users\Greg\AppData\Local\Temp\ccJi8SrT.s 			page 13


 392 000a DBB2     		uxtb	r3, r3
 393 000c 03F00C03 		and	r3, r3, #12
 394 0010 9B08     		lsrs	r3, r3, #2
 395 0012 DBB2     		uxtb	r3, r3
 396 0014 0633     		adds	r3, r3, #6
 397 0016 FB71     		strb	r3, [r7, #7]
 294:Generated_Source\PSoC5/Vtrigger.c ****     Vtrigger_TR = CY_GET_XTND_REG8((uint8 *)(Vtrigger_DAC_TRIM_BASE + mode));
 398              		.loc 1 294 0
 399 0018 074A     		ldr	r2, .L24+4
 400 001a FB79     		ldrb	r3, [r7, #7]	@ zero_extendqisi2
 401 001c 03F19243 		add	r3, r3, #1224736768
 402 0020 03F59C73 		add	r3, r3, #312
 403 0024 1B78     		ldrb	r3, [r3]
 404 0026 DBB2     		uxtb	r3, r3
 405 0028 1370     		strb	r3, [r2]
 295:Generated_Source\PSoC5/Vtrigger.c **** }
 406              		.loc 1 295 0
 407 002a 0C37     		adds	r7, r7, #12
 408              		.cfi_def_cfa_offset 4
 409 002c BD46     		mov	sp, r7
 410              		.cfi_def_cfa_register 13
 411              		@ sp needed
 412 002e 5DF8047B 		ldr	r7, [sp], #4
 413              		.cfi_restore 7
 414              		.cfi_def_cfa_offset 0
 415 0032 7047     		bx	lr
 416              	.L25:
 417              		.align	2
 418              	.L24:
 419 0034 2C580040 		.word	1073764396
 420 0038 0B460040 		.word	1073759755
 421              		.cfi_endproc
 422              	.LFE7:
 423              		.size	Vtrigger_DacTrim, .-Vtrigger_DacTrim
 424              		.text
 425              	.Letext0:
 426              		.file 2 "Generated_Source\\PSoC5\\cytypes.h"