ARM GAS  C:\Users\Greg\AppData\Local\Temp\ccn7qKfM.s 			page 1


   1              		.syntax unified
   2              		.cpu cortex-m3
   3              		.fpu softvfp
   4              		.eabi_attribute 20, 1
   5              		.eabi_attribute 21, 1
   6              		.eabi_attribute 23, 3
   7              		.eabi_attribute 24, 1
   8              		.eabi_attribute 25, 1
   9              		.eabi_attribute 26, 1
  10              		.eabi_attribute 30, 6
  11              		.eabi_attribute 34, 1
  12              		.eabi_attribute 18, 4
  13              		.thumb
  14              		.file	"Wave_DAC_VDAC8.c"
  15              		.text
  16              	.Ltext0:
  17              		.cfi_sections	.debug_frame
  18              		.global	Wave_DAC_VDAC8_initVar
  19              		.bss
  20              		.type	Wave_DAC_VDAC8_initVar, %object
  21              		.size	Wave_DAC_VDAC8_initVar, 1
  22              	Wave_DAC_VDAC8_initVar:
  23 0000 00       		.space	1
  24              		.section	.text.Wave_DAC_VDAC8_Init,"ax",%progbits
  25              		.align	2
  26              		.global	Wave_DAC_VDAC8_Init
  27              		.thumb
  28              		.thumb_func
  29              		.type	Wave_DAC_VDAC8_Init, %function
  30              	Wave_DAC_VDAC8_Init:
  31              	.LFB0:
  32              		.file 1 "Generated_Source\\PSoC5\\Wave_DAC_VDAC8.c"
   1:Generated_Source\PSoC5/Wave_DAC_VDAC8.c **** /*******************************************************************************
   2:Generated_Source\PSoC5/Wave_DAC_VDAC8.c **** * File Name: Wave_DAC_VDAC8.c  
   3:Generated_Source\PSoC5/Wave_DAC_VDAC8.c **** * Version 1.90
   4:Generated_Source\PSoC5/Wave_DAC_VDAC8.c **** *
   5:Generated_Source\PSoC5/Wave_DAC_VDAC8.c **** * Description:
   6:Generated_Source\PSoC5/Wave_DAC_VDAC8.c **** *  This file provides the source code to the API for the 8-bit Voltage DAC 
   7:Generated_Source\PSoC5/Wave_DAC_VDAC8.c **** *  (VDAC8) User Module.
   8:Generated_Source\PSoC5/Wave_DAC_VDAC8.c **** *
   9:Generated_Source\PSoC5/Wave_DAC_VDAC8.c **** * Note:
  10:Generated_Source\PSoC5/Wave_DAC_VDAC8.c **** *  Any unusual or non-standard behavior should be noted here. Other-
  11:Generated_Source\PSoC5/Wave_DAC_VDAC8.c **** *  wise, this section should remain blank.
  12:Generated_Source\PSoC5/Wave_DAC_VDAC8.c **** *
  13:Generated_Source\PSoC5/Wave_DAC_VDAC8.c **** ********************************************************************************
  14:Generated_Source\PSoC5/Wave_DAC_VDAC8.c **** * Copyright 2008-2012, Cypress Semiconductor Corporation.  All rights reserved.
  15:Generated_Source\PSoC5/Wave_DAC_VDAC8.c **** * You may use this file only in accordance with the license, terms, conditions, 
  16:Generated_Source\PSoC5/Wave_DAC_VDAC8.c **** * disclaimers, and limitations in the end user license agreement accompanying 
  17:Generated_Source\PSoC5/Wave_DAC_VDAC8.c **** * the software package with which this file was provided.
  18:Generated_Source\PSoC5/Wave_DAC_VDAC8.c **** *******************************************************************************/
  19:Generated_Source\PSoC5/Wave_DAC_VDAC8.c **** 
  20:Generated_Source\PSoC5/Wave_DAC_VDAC8.c **** #include "cytypes.h"
  21:Generated_Source\PSoC5/Wave_DAC_VDAC8.c **** #include "Wave_DAC_VDAC8.h"
  22:Generated_Source\PSoC5/Wave_DAC_VDAC8.c **** 
  23:Generated_Source\PSoC5/Wave_DAC_VDAC8.c **** #if (CY_PSOC5A)
  24:Generated_Source\PSoC5/Wave_DAC_VDAC8.c **** #include <CyLib.h>
  25:Generated_Source\PSoC5/Wave_DAC_VDAC8.c **** #endif /* CY_PSOC5A */
ARM GAS  C:\Users\Greg\AppData\Local\Temp\ccn7qKfM.s 			page 2


  26:Generated_Source\PSoC5/Wave_DAC_VDAC8.c **** 
  27:Generated_Source\PSoC5/Wave_DAC_VDAC8.c **** uint8 Wave_DAC_VDAC8_initVar = 0u;
  28:Generated_Source\PSoC5/Wave_DAC_VDAC8.c **** 
  29:Generated_Source\PSoC5/Wave_DAC_VDAC8.c **** #if (CY_PSOC5A)
  30:Generated_Source\PSoC5/Wave_DAC_VDAC8.c ****     static uint8 Wave_DAC_VDAC8_restoreVal = 0u;
  31:Generated_Source\PSoC5/Wave_DAC_VDAC8.c **** #endif /* CY_PSOC5A */
  32:Generated_Source\PSoC5/Wave_DAC_VDAC8.c **** 
  33:Generated_Source\PSoC5/Wave_DAC_VDAC8.c **** #if (CY_PSOC5A)
  34:Generated_Source\PSoC5/Wave_DAC_VDAC8.c ****     static Wave_DAC_VDAC8_backupStruct Wave_DAC_VDAC8_backup;
  35:Generated_Source\PSoC5/Wave_DAC_VDAC8.c **** #endif /* CY_PSOC5A */
  36:Generated_Source\PSoC5/Wave_DAC_VDAC8.c **** 
  37:Generated_Source\PSoC5/Wave_DAC_VDAC8.c **** 
  38:Generated_Source\PSoC5/Wave_DAC_VDAC8.c **** /*******************************************************************************
  39:Generated_Source\PSoC5/Wave_DAC_VDAC8.c **** * Function Name: Wave_DAC_VDAC8_Init
  40:Generated_Source\PSoC5/Wave_DAC_VDAC8.c **** ********************************************************************************
  41:Generated_Source\PSoC5/Wave_DAC_VDAC8.c **** * Summary:
  42:Generated_Source\PSoC5/Wave_DAC_VDAC8.c **** *  Initialize to the schematic state.
  43:Generated_Source\PSoC5/Wave_DAC_VDAC8.c **** * 
  44:Generated_Source\PSoC5/Wave_DAC_VDAC8.c **** * Parameters:
  45:Generated_Source\PSoC5/Wave_DAC_VDAC8.c **** *  void:
  46:Generated_Source\PSoC5/Wave_DAC_VDAC8.c **** *
  47:Generated_Source\PSoC5/Wave_DAC_VDAC8.c **** * Return:
  48:Generated_Source\PSoC5/Wave_DAC_VDAC8.c **** *  void
  49:Generated_Source\PSoC5/Wave_DAC_VDAC8.c **** *
  50:Generated_Source\PSoC5/Wave_DAC_VDAC8.c **** * Theory:
  51:Generated_Source\PSoC5/Wave_DAC_VDAC8.c **** *
  52:Generated_Source\PSoC5/Wave_DAC_VDAC8.c **** * Side Effects:
  53:Generated_Source\PSoC5/Wave_DAC_VDAC8.c **** *
  54:Generated_Source\PSoC5/Wave_DAC_VDAC8.c **** *******************************************************************************/
  55:Generated_Source\PSoC5/Wave_DAC_VDAC8.c **** void Wave_DAC_VDAC8_Init(void) 
  56:Generated_Source\PSoC5/Wave_DAC_VDAC8.c **** {
  33              		.loc 1 56 0
  34              		.cfi_startproc
  35              		@ args = 0, pretend = 0, frame = 0
  36              		@ frame_needed = 1, uses_anonymous_args = 0
  37 0000 80B5     		push	{r7, lr}
  38              		.cfi_def_cfa_offset 8
  39              		.cfi_offset 7, -8
  40              		.cfi_offset 14, -4
  41 0002 00AF     		add	r7, sp, #0
  42              		.cfi_def_cfa_register 7
  57:Generated_Source\PSoC5/Wave_DAC_VDAC8.c ****     Wave_DAC_VDAC8_CR0 = (Wave_DAC_VDAC8_MODE_V );
  43              		.loc 1 57 0
  44 0004 0A4B     		ldr	r3, .L2
  45 0006 0022     		movs	r2, #0
  46 0008 1A70     		strb	r2, [r3]
  58:Generated_Source\PSoC5/Wave_DAC_VDAC8.c **** 
  59:Generated_Source\PSoC5/Wave_DAC_VDAC8.c ****     /* Set default data source */
  60:Generated_Source\PSoC5/Wave_DAC_VDAC8.c ****     #if(Wave_DAC_VDAC8_DEFAULT_DATA_SRC != 0 )
  61:Generated_Source\PSoC5/Wave_DAC_VDAC8.c ****         Wave_DAC_VDAC8_CR1 = (Wave_DAC_VDAC8_DEFAULT_CNTL | Wave_DAC_VDAC8_DACBUS_ENABLE) ;
  62:Generated_Source\PSoC5/Wave_DAC_VDAC8.c ****     #else
  63:Generated_Source\PSoC5/Wave_DAC_VDAC8.c ****         Wave_DAC_VDAC8_CR1 = (Wave_DAC_VDAC8_DEFAULT_CNTL | Wave_DAC_VDAC8_DACBUS_DISABLE) ;
  47              		.loc 1 63 0
  48 000a 0A4B     		ldr	r3, .L2+4
  49 000c 0022     		movs	r2, #0
  50 000e 1A70     		strb	r2, [r3]
  64:Generated_Source\PSoC5/Wave_DAC_VDAC8.c ****     #endif /* (Wave_DAC_VDAC8_DEFAULT_DATA_SRC != 0 ) */
ARM GAS  C:\Users\Greg\AppData\Local\Temp\ccn7qKfM.s 			page 3


  65:Generated_Source\PSoC5/Wave_DAC_VDAC8.c **** 
  66:Generated_Source\PSoC5/Wave_DAC_VDAC8.c ****     /* Set default strobe mode */
  67:Generated_Source\PSoC5/Wave_DAC_VDAC8.c ****     #if(Wave_DAC_VDAC8_DEFAULT_STRB != 0)
  68:Generated_Source\PSoC5/Wave_DAC_VDAC8.c ****         Wave_DAC_VDAC8_Strobe |= Wave_DAC_VDAC8_STRB_EN ;
  51              		.loc 1 68 0
  52 0010 094A     		ldr	r2, .L2+8
  53 0012 094B     		ldr	r3, .L2+8
  54 0014 1B78     		ldrb	r3, [r3]
  55 0016 DBB2     		uxtb	r3, r3
  56 0018 43F00803 		orr	r3, r3, #8
  57 001c DBB2     		uxtb	r3, r3
  58 001e 1370     		strb	r3, [r2]
  69:Generated_Source\PSoC5/Wave_DAC_VDAC8.c ****     #endif/* (Wave_DAC_VDAC8_DEFAULT_STRB != 0) */
  70:Generated_Source\PSoC5/Wave_DAC_VDAC8.c **** 
  71:Generated_Source\PSoC5/Wave_DAC_VDAC8.c ****     /* Set default range */
  72:Generated_Source\PSoC5/Wave_DAC_VDAC8.c ****     Wave_DAC_VDAC8_SetRange(Wave_DAC_VDAC8_DEFAULT_RANGE); 
  59              		.loc 1 72 0
  60 0020 0020     		movs	r0, #0
  61 0022 FFF7FEFF 		bl	Wave_DAC_VDAC8_SetRange
  73:Generated_Source\PSoC5/Wave_DAC_VDAC8.c **** 
  74:Generated_Source\PSoC5/Wave_DAC_VDAC8.c ****     /* Set default speed */
  75:Generated_Source\PSoC5/Wave_DAC_VDAC8.c ****     Wave_DAC_VDAC8_SetSpeed(Wave_DAC_VDAC8_DEFAULT_SPEED);
  62              		.loc 1 75 0
  63 0026 0220     		movs	r0, #2
  64 0028 FFF7FEFF 		bl	Wave_DAC_VDAC8_SetSpeed
  76:Generated_Source\PSoC5/Wave_DAC_VDAC8.c **** }
  65              		.loc 1 76 0
  66 002c 80BD     		pop	{r7, pc}
  67              	.L3:
  68 002e 00BF     		.align	2
  69              	.L2:
  70 0030 24580040 		.word	1073764388
  71 0034 25580040 		.word	1073764389
  72 0038 8F5A0040 		.word	1073765007
  73              		.cfi_endproc
  74              	.LFE0:
  75              		.size	Wave_DAC_VDAC8_Init, .-Wave_DAC_VDAC8_Init
  76              		.section	.text.Wave_DAC_VDAC8_Enable,"ax",%progbits
  77              		.align	2
  78              		.global	Wave_DAC_VDAC8_Enable
  79              		.thumb
  80              		.thumb_func
  81              		.type	Wave_DAC_VDAC8_Enable, %function
  82              	Wave_DAC_VDAC8_Enable:
  83              	.LFB1:
  77:Generated_Source\PSoC5/Wave_DAC_VDAC8.c **** 
  78:Generated_Source\PSoC5/Wave_DAC_VDAC8.c **** 
  79:Generated_Source\PSoC5/Wave_DAC_VDAC8.c **** /*******************************************************************************
  80:Generated_Source\PSoC5/Wave_DAC_VDAC8.c **** * Function Name: Wave_DAC_VDAC8_Enable
  81:Generated_Source\PSoC5/Wave_DAC_VDAC8.c **** ********************************************************************************
  82:Generated_Source\PSoC5/Wave_DAC_VDAC8.c **** * Summary:
  83:Generated_Source\PSoC5/Wave_DAC_VDAC8.c **** *  Enable the VDAC8
  84:Generated_Source\PSoC5/Wave_DAC_VDAC8.c **** * 
  85:Generated_Source\PSoC5/Wave_DAC_VDAC8.c **** * Parameters:
  86:Generated_Source\PSoC5/Wave_DAC_VDAC8.c **** *  void
  87:Generated_Source\PSoC5/Wave_DAC_VDAC8.c **** *
  88:Generated_Source\PSoC5/Wave_DAC_VDAC8.c **** * Return:
ARM GAS  C:\Users\Greg\AppData\Local\Temp\ccn7qKfM.s 			page 4


  89:Generated_Source\PSoC5/Wave_DAC_VDAC8.c **** *  void
  90:Generated_Source\PSoC5/Wave_DAC_VDAC8.c **** *
  91:Generated_Source\PSoC5/Wave_DAC_VDAC8.c **** * Theory:
  92:Generated_Source\PSoC5/Wave_DAC_VDAC8.c **** *
  93:Generated_Source\PSoC5/Wave_DAC_VDAC8.c **** * Side Effects:
  94:Generated_Source\PSoC5/Wave_DAC_VDAC8.c **** *
  95:Generated_Source\PSoC5/Wave_DAC_VDAC8.c **** *******************************************************************************/
  96:Generated_Source\PSoC5/Wave_DAC_VDAC8.c **** void Wave_DAC_VDAC8_Enable(void) 
  97:Generated_Source\PSoC5/Wave_DAC_VDAC8.c **** {
  84              		.loc 1 97 0
  85              		.cfi_startproc
  86              		@ args = 0, pretend = 0, frame = 0
  87              		@ frame_needed = 1, uses_anonymous_args = 0
  88              		@ link register save eliminated.
  89 0000 80B4     		push	{r7}
  90              		.cfi_def_cfa_offset 4
  91              		.cfi_offset 7, -4
  92 0002 00AF     		add	r7, sp, #0
  93              		.cfi_def_cfa_register 7
  98:Generated_Source\PSoC5/Wave_DAC_VDAC8.c ****     Wave_DAC_VDAC8_PWRMGR |= Wave_DAC_VDAC8_ACT_PWR_EN;
  94              		.loc 1 98 0
  95 0004 094A     		ldr	r2, .L5
  96 0006 094B     		ldr	r3, .L5
  97 0008 1B78     		ldrb	r3, [r3]
  98 000a DBB2     		uxtb	r3, r3
  99 000c 43F00203 		orr	r3, r3, #2
 100 0010 DBB2     		uxtb	r3, r3
 101 0012 1370     		strb	r3, [r2]
  99:Generated_Source\PSoC5/Wave_DAC_VDAC8.c ****     Wave_DAC_VDAC8_STBY_PWRMGR |= Wave_DAC_VDAC8_STBY_PWR_EN;
 102              		.loc 1 99 0
 103 0014 064A     		ldr	r2, .L5+4
 104 0016 064B     		ldr	r3, .L5+4
 105 0018 1B78     		ldrb	r3, [r3]
 106 001a DBB2     		uxtb	r3, r3
 107 001c 43F00203 		orr	r3, r3, #2
 108 0020 DBB2     		uxtb	r3, r3
 109 0022 1370     		strb	r3, [r2]
 100:Generated_Source\PSoC5/Wave_DAC_VDAC8.c **** 
 101:Generated_Source\PSoC5/Wave_DAC_VDAC8.c ****     /*This is to restore the value of register CR0 ,
 102:Generated_Source\PSoC5/Wave_DAC_VDAC8.c ****     which is modified  in Stop API , this prevents misbehaviour of VDAC */
 103:Generated_Source\PSoC5/Wave_DAC_VDAC8.c ****     #if (CY_PSOC5A)
 104:Generated_Source\PSoC5/Wave_DAC_VDAC8.c ****         if(Wave_DAC_VDAC8_restoreVal == 1u) 
 105:Generated_Source\PSoC5/Wave_DAC_VDAC8.c ****         {
 106:Generated_Source\PSoC5/Wave_DAC_VDAC8.c ****              Wave_DAC_VDAC8_CR0 = Wave_DAC_VDAC8_backup.data_value;
 107:Generated_Source\PSoC5/Wave_DAC_VDAC8.c ****              Wave_DAC_VDAC8_restoreVal = 0u;
 108:Generated_Source\PSoC5/Wave_DAC_VDAC8.c ****         }
 109:Generated_Source\PSoC5/Wave_DAC_VDAC8.c ****     #endif /* CY_PSOC5A */
 110:Generated_Source\PSoC5/Wave_DAC_VDAC8.c **** }
 110              		.loc 1 110 0
 111 0024 BD46     		mov	sp, r7
 112              		.cfi_def_cfa_register 13
 113              		@ sp needed
 114 0026 5DF8047B 		ldr	r7, [sp], #4
 115              		.cfi_restore 7
 116              		.cfi_def_cfa_offset 0
 117 002a 7047     		bx	lr
 118              	.L6:
ARM GAS  C:\Users\Greg\AppData\Local\Temp\ccn7qKfM.s 			page 5


 119              		.align	2
 120              	.L5:
 121 002c A8430040 		.word	1073759144
 122 0030 B8430040 		.word	1073759160
 123              		.cfi_endproc
 124              	.LFE1:
 125              		.size	Wave_DAC_VDAC8_Enable, .-Wave_DAC_VDAC8_Enable
 126              		.section	.text.Wave_DAC_VDAC8_Start,"ax",%progbits
 127              		.align	2
 128              		.global	Wave_DAC_VDAC8_Start
 129              		.thumb
 130              		.thumb_func
 131              		.type	Wave_DAC_VDAC8_Start, %function
 132              	Wave_DAC_VDAC8_Start:
 133              	.LFB2:
 111:Generated_Source\PSoC5/Wave_DAC_VDAC8.c **** 
 112:Generated_Source\PSoC5/Wave_DAC_VDAC8.c **** 
 113:Generated_Source\PSoC5/Wave_DAC_VDAC8.c **** /*******************************************************************************
 114:Generated_Source\PSoC5/Wave_DAC_VDAC8.c **** * Function Name: Wave_DAC_VDAC8_Start
 115:Generated_Source\PSoC5/Wave_DAC_VDAC8.c **** ********************************************************************************
 116:Generated_Source\PSoC5/Wave_DAC_VDAC8.c **** *
 117:Generated_Source\PSoC5/Wave_DAC_VDAC8.c **** * Summary:
 118:Generated_Source\PSoC5/Wave_DAC_VDAC8.c **** *  The start function initializes the voltage DAC with the default values, 
 119:Generated_Source\PSoC5/Wave_DAC_VDAC8.c **** *  and sets the power to the given level.  A power level of 0, is the same as
 120:Generated_Source\PSoC5/Wave_DAC_VDAC8.c **** *  executing the stop function.
 121:Generated_Source\PSoC5/Wave_DAC_VDAC8.c **** *
 122:Generated_Source\PSoC5/Wave_DAC_VDAC8.c **** * Parameters:
 123:Generated_Source\PSoC5/Wave_DAC_VDAC8.c **** *  Power: Sets power level between off (0) and (3) high power
 124:Generated_Source\PSoC5/Wave_DAC_VDAC8.c **** *
 125:Generated_Source\PSoC5/Wave_DAC_VDAC8.c **** * Return:
 126:Generated_Source\PSoC5/Wave_DAC_VDAC8.c **** *  void 
 127:Generated_Source\PSoC5/Wave_DAC_VDAC8.c **** *
 128:Generated_Source\PSoC5/Wave_DAC_VDAC8.c **** * Global variables:
 129:Generated_Source\PSoC5/Wave_DAC_VDAC8.c **** *  Wave_DAC_VDAC8_initVar: Is modified when this function is called for the 
 130:Generated_Source\PSoC5/Wave_DAC_VDAC8.c **** *  first time. Is used to ensure that initialization happens only once.
 131:Generated_Source\PSoC5/Wave_DAC_VDAC8.c **** *
 132:Generated_Source\PSoC5/Wave_DAC_VDAC8.c **** *******************************************************************************/
 133:Generated_Source\PSoC5/Wave_DAC_VDAC8.c **** void Wave_DAC_VDAC8_Start(void)  
 134:Generated_Source\PSoC5/Wave_DAC_VDAC8.c **** {
 134              		.loc 1 134 0
 135              		.cfi_startproc
 136              		@ args = 0, pretend = 0, frame = 0
 137              		@ frame_needed = 1, uses_anonymous_args = 0
 138 0000 80B5     		push	{r7, lr}
 139              		.cfi_def_cfa_offset 8
 140              		.cfi_offset 7, -8
 141              		.cfi_offset 14, -4
 142 0002 00AF     		add	r7, sp, #0
 143              		.cfi_def_cfa_register 7
 135:Generated_Source\PSoC5/Wave_DAC_VDAC8.c ****     /* Hardware initiazation only needs to occure the first time */
 136:Generated_Source\PSoC5/Wave_DAC_VDAC8.c ****     if(Wave_DAC_VDAC8_initVar == 0u)
 144              		.loc 1 136 0
 145 0004 074B     		ldr	r3, .L9
 146 0006 1B78     		ldrb	r3, [r3]	@ zero_extendqisi2
 147 0008 002B     		cmp	r3, #0
 148 000a 04D1     		bne	.L8
 137:Generated_Source\PSoC5/Wave_DAC_VDAC8.c ****     { 
ARM GAS  C:\Users\Greg\AppData\Local\Temp\ccn7qKfM.s 			page 6


 138:Generated_Source\PSoC5/Wave_DAC_VDAC8.c ****         Wave_DAC_VDAC8_Init();
 149              		.loc 1 138 0
 150 000c FFF7FEFF 		bl	Wave_DAC_VDAC8_Init
 139:Generated_Source\PSoC5/Wave_DAC_VDAC8.c ****         Wave_DAC_VDAC8_initVar = 1u;
 151              		.loc 1 139 0
 152 0010 044B     		ldr	r3, .L9
 153 0012 0122     		movs	r2, #1
 154 0014 1A70     		strb	r2, [r3]
 155              	.L8:
 140:Generated_Source\PSoC5/Wave_DAC_VDAC8.c ****     }
 141:Generated_Source\PSoC5/Wave_DAC_VDAC8.c **** 
 142:Generated_Source\PSoC5/Wave_DAC_VDAC8.c ****     /* Enable power to DAC */
 143:Generated_Source\PSoC5/Wave_DAC_VDAC8.c ****     Wave_DAC_VDAC8_Enable();
 156              		.loc 1 143 0
 157 0016 FFF7FEFF 		bl	Wave_DAC_VDAC8_Enable
 144:Generated_Source\PSoC5/Wave_DAC_VDAC8.c **** 
 145:Generated_Source\PSoC5/Wave_DAC_VDAC8.c ****     /* Set default value */
 146:Generated_Source\PSoC5/Wave_DAC_VDAC8.c ****     Wave_DAC_VDAC8_SetValue(Wave_DAC_VDAC8_DEFAULT_DATA); 
 158              		.loc 1 146 0
 159 001a 6420     		movs	r0, #100
 160 001c FFF7FEFF 		bl	Wave_DAC_VDAC8_SetValue
 147:Generated_Source\PSoC5/Wave_DAC_VDAC8.c **** }
 161              		.loc 1 147 0
 162 0020 80BD     		pop	{r7, pc}
 163              	.L10:
 164 0022 00BF     		.align	2
 165              	.L9:
 166 0024 00000000 		.word	Wave_DAC_VDAC8_initVar
 167              		.cfi_endproc
 168              	.LFE2:
 169              		.size	Wave_DAC_VDAC8_Start, .-Wave_DAC_VDAC8_Start
 170              		.section	.text.Wave_DAC_VDAC8_Stop,"ax",%progbits
 171              		.align	2
 172              		.global	Wave_DAC_VDAC8_Stop
 173              		.thumb
 174              		.thumb_func
 175              		.type	Wave_DAC_VDAC8_Stop, %function
 176              	Wave_DAC_VDAC8_Stop:
 177              	.LFB3:
 148:Generated_Source\PSoC5/Wave_DAC_VDAC8.c **** 
 149:Generated_Source\PSoC5/Wave_DAC_VDAC8.c **** 
 150:Generated_Source\PSoC5/Wave_DAC_VDAC8.c **** /*******************************************************************************
 151:Generated_Source\PSoC5/Wave_DAC_VDAC8.c **** * Function Name: Wave_DAC_VDAC8_Stop
 152:Generated_Source\PSoC5/Wave_DAC_VDAC8.c **** ********************************************************************************
 153:Generated_Source\PSoC5/Wave_DAC_VDAC8.c **** *
 154:Generated_Source\PSoC5/Wave_DAC_VDAC8.c **** * Summary:
 155:Generated_Source\PSoC5/Wave_DAC_VDAC8.c **** *  Powers down DAC to lowest power state.
 156:Generated_Source\PSoC5/Wave_DAC_VDAC8.c **** *
 157:Generated_Source\PSoC5/Wave_DAC_VDAC8.c **** * Parameters:
 158:Generated_Source\PSoC5/Wave_DAC_VDAC8.c **** *  void
 159:Generated_Source\PSoC5/Wave_DAC_VDAC8.c **** *
 160:Generated_Source\PSoC5/Wave_DAC_VDAC8.c **** * Return:
 161:Generated_Source\PSoC5/Wave_DAC_VDAC8.c **** *  void
 162:Generated_Source\PSoC5/Wave_DAC_VDAC8.c **** *
 163:Generated_Source\PSoC5/Wave_DAC_VDAC8.c **** * Theory:
 164:Generated_Source\PSoC5/Wave_DAC_VDAC8.c **** *
 165:Generated_Source\PSoC5/Wave_DAC_VDAC8.c **** * Side Effects:
ARM GAS  C:\Users\Greg\AppData\Local\Temp\ccn7qKfM.s 			page 7


 166:Generated_Source\PSoC5/Wave_DAC_VDAC8.c **** *
 167:Generated_Source\PSoC5/Wave_DAC_VDAC8.c **** *******************************************************************************/
 168:Generated_Source\PSoC5/Wave_DAC_VDAC8.c **** void Wave_DAC_VDAC8_Stop(void) 
 169:Generated_Source\PSoC5/Wave_DAC_VDAC8.c **** {
 178              		.loc 1 169 0
 179              		.cfi_startproc
 180              		@ args = 0, pretend = 0, frame = 0
 181              		@ frame_needed = 1, uses_anonymous_args = 0
 182              		@ link register save eliminated.
 183 0000 80B4     		push	{r7}
 184              		.cfi_def_cfa_offset 4
 185              		.cfi_offset 7, -4
 186 0002 00AF     		add	r7, sp, #0
 187              		.cfi_def_cfa_register 7
 170:Generated_Source\PSoC5/Wave_DAC_VDAC8.c ****     /* Disble power to DAC */
 171:Generated_Source\PSoC5/Wave_DAC_VDAC8.c ****     Wave_DAC_VDAC8_PWRMGR &= (uint8)(~Wave_DAC_VDAC8_ACT_PWR_EN);
 188              		.loc 1 171 0
 189 0004 094A     		ldr	r2, .L12
 190 0006 094B     		ldr	r3, .L12
 191 0008 1B78     		ldrb	r3, [r3]
 192 000a DBB2     		uxtb	r3, r3
 193 000c 23F00203 		bic	r3, r3, #2
 194 0010 DBB2     		uxtb	r3, r3
 195 0012 1370     		strb	r3, [r2]
 172:Generated_Source\PSoC5/Wave_DAC_VDAC8.c ****     Wave_DAC_VDAC8_STBY_PWRMGR &= (uint8)(~Wave_DAC_VDAC8_STBY_PWR_EN);
 196              		.loc 1 172 0
 197 0014 064A     		ldr	r2, .L12+4
 198 0016 064B     		ldr	r3, .L12+4
 199 0018 1B78     		ldrb	r3, [r3]
 200 001a DBB2     		uxtb	r3, r3
 201 001c 23F00203 		bic	r3, r3, #2
 202 0020 DBB2     		uxtb	r3, r3
 203 0022 1370     		strb	r3, [r2]
 173:Generated_Source\PSoC5/Wave_DAC_VDAC8.c **** 
 174:Generated_Source\PSoC5/Wave_DAC_VDAC8.c ****     /* This is a work around for PSoC5A  ,
 175:Generated_Source\PSoC5/Wave_DAC_VDAC8.c ****     this sets VDAC to current mode with output off */
 176:Generated_Source\PSoC5/Wave_DAC_VDAC8.c ****     #if (CY_PSOC5A)
 177:Generated_Source\PSoC5/Wave_DAC_VDAC8.c ****         Wave_DAC_VDAC8_backup.data_value = Wave_DAC_VDAC8_CR0;
 178:Generated_Source\PSoC5/Wave_DAC_VDAC8.c ****         Wave_DAC_VDAC8_CR0 = Wave_DAC_VDAC8_CUR_MODE_OUT_OFF;
 179:Generated_Source\PSoC5/Wave_DAC_VDAC8.c ****         Wave_DAC_VDAC8_restoreVal = 1u;
 180:Generated_Source\PSoC5/Wave_DAC_VDAC8.c ****     #endif /* CY_PSOC5A */
 181:Generated_Source\PSoC5/Wave_DAC_VDAC8.c **** }
 204              		.loc 1 181 0
 205 0024 BD46     		mov	sp, r7
 206              		.cfi_def_cfa_register 13
 207              		@ sp needed
 208 0026 5DF8047B 		ldr	r7, [sp], #4
 209              		.cfi_restore 7
 210              		.cfi_def_cfa_offset 0
 211 002a 7047     		bx	lr
 212              	.L13:
 213              		.align	2
 214              	.L12:
 215 002c A8430040 		.word	1073759144
 216 0030 B8430040 		.word	1073759160
 217              		.cfi_endproc
 218              	.LFE3:
ARM GAS  C:\Users\Greg\AppData\Local\Temp\ccn7qKfM.s 			page 8


 219              		.size	Wave_DAC_VDAC8_Stop, .-Wave_DAC_VDAC8_Stop
 220              		.section	.text.Wave_DAC_VDAC8_SetSpeed,"ax",%progbits
 221              		.align	2
 222              		.global	Wave_DAC_VDAC8_SetSpeed
 223              		.thumb
 224              		.thumb_func
 225              		.type	Wave_DAC_VDAC8_SetSpeed, %function
 226              	Wave_DAC_VDAC8_SetSpeed:
 227              	.LFB4:
 182:Generated_Source\PSoC5/Wave_DAC_VDAC8.c **** 
 183:Generated_Source\PSoC5/Wave_DAC_VDAC8.c **** 
 184:Generated_Source\PSoC5/Wave_DAC_VDAC8.c **** /*******************************************************************************
 185:Generated_Source\PSoC5/Wave_DAC_VDAC8.c **** * Function Name: Wave_DAC_VDAC8_SetSpeed
 186:Generated_Source\PSoC5/Wave_DAC_VDAC8.c **** ********************************************************************************
 187:Generated_Source\PSoC5/Wave_DAC_VDAC8.c **** *
 188:Generated_Source\PSoC5/Wave_DAC_VDAC8.c **** * Summary:
 189:Generated_Source\PSoC5/Wave_DAC_VDAC8.c **** *  Set DAC speed
 190:Generated_Source\PSoC5/Wave_DAC_VDAC8.c **** *
 191:Generated_Source\PSoC5/Wave_DAC_VDAC8.c **** * Parameters:
 192:Generated_Source\PSoC5/Wave_DAC_VDAC8.c **** *  power: Sets speed value
 193:Generated_Source\PSoC5/Wave_DAC_VDAC8.c **** *
 194:Generated_Source\PSoC5/Wave_DAC_VDAC8.c **** * Return:
 195:Generated_Source\PSoC5/Wave_DAC_VDAC8.c **** *  void
 196:Generated_Source\PSoC5/Wave_DAC_VDAC8.c **** *
 197:Generated_Source\PSoC5/Wave_DAC_VDAC8.c **** * Theory:
 198:Generated_Source\PSoC5/Wave_DAC_VDAC8.c **** *
 199:Generated_Source\PSoC5/Wave_DAC_VDAC8.c **** * Side Effects:
 200:Generated_Source\PSoC5/Wave_DAC_VDAC8.c **** *
 201:Generated_Source\PSoC5/Wave_DAC_VDAC8.c **** *******************************************************************************/
 202:Generated_Source\PSoC5/Wave_DAC_VDAC8.c **** void Wave_DAC_VDAC8_SetSpeed(uint8 speed) 
 203:Generated_Source\PSoC5/Wave_DAC_VDAC8.c **** {
 228              		.loc 1 203 0
 229              		.cfi_startproc
 230              		@ args = 0, pretend = 0, frame = 8
 231              		@ frame_needed = 1, uses_anonymous_args = 0
 232              		@ link register save eliminated.
 233 0000 80B4     		push	{r7}
 234              		.cfi_def_cfa_offset 4
 235              		.cfi_offset 7, -4
 236 0002 83B0     		sub	sp, sp, #12
 237              		.cfi_def_cfa_offset 16
 238 0004 00AF     		add	r7, sp, #0
 239              		.cfi_def_cfa_register 7
 240 0006 0346     		mov	r3, r0
 241 0008 FB71     		strb	r3, [r7, #7]
 204:Generated_Source\PSoC5/Wave_DAC_VDAC8.c ****     /* Clear power mask then write in new value */
 205:Generated_Source\PSoC5/Wave_DAC_VDAC8.c ****     Wave_DAC_VDAC8_CR0 &= (uint8)(~Wave_DAC_VDAC8_HS_MASK);
 242              		.loc 1 205 0
 243 000a 0C4A     		ldr	r2, .L15
 244 000c 0B4B     		ldr	r3, .L15
 245 000e 1B78     		ldrb	r3, [r3]
 246 0010 DBB2     		uxtb	r3, r3
 247 0012 23F00203 		bic	r3, r3, #2
 248 0016 DBB2     		uxtb	r3, r3
 249 0018 1370     		strb	r3, [r2]
 206:Generated_Source\PSoC5/Wave_DAC_VDAC8.c ****     Wave_DAC_VDAC8_CR0 |=  (speed & Wave_DAC_VDAC8_HS_MASK);
 250              		.loc 1 206 0
ARM GAS  C:\Users\Greg\AppData\Local\Temp\ccn7qKfM.s 			page 9


 251 001a 0849     		ldr	r1, .L15
 252 001c 074B     		ldr	r3, .L15
 253 001e 1B78     		ldrb	r3, [r3]
 254 0020 DAB2     		uxtb	r2, r3
 255 0022 FB79     		ldrb	r3, [r7, #7]
 256 0024 03F00203 		and	r3, r3, #2
 257 0028 DBB2     		uxtb	r3, r3
 258 002a 1343     		orrs	r3, r3, r2
 259 002c DBB2     		uxtb	r3, r3
 260 002e 0B70     		strb	r3, [r1]
 207:Generated_Source\PSoC5/Wave_DAC_VDAC8.c **** }
 261              		.loc 1 207 0
 262 0030 0C37     		adds	r7, r7, #12
 263              		.cfi_def_cfa_offset 4
 264 0032 BD46     		mov	sp, r7
 265              		.cfi_def_cfa_register 13
 266              		@ sp needed
 267 0034 5DF8047B 		ldr	r7, [sp], #4
 268              		.cfi_restore 7
 269              		.cfi_def_cfa_offset 0
 270 0038 7047     		bx	lr
 271              	.L16:
 272 003a 00BF     		.align	2
 273              	.L15:
 274 003c 24580040 		.word	1073764388
 275              		.cfi_endproc
 276              	.LFE4:
 277              		.size	Wave_DAC_VDAC8_SetSpeed, .-Wave_DAC_VDAC8_SetSpeed
 278              		.section	.text.Wave_DAC_VDAC8_SetRange,"ax",%progbits
 279              		.align	2
 280              		.global	Wave_DAC_VDAC8_SetRange
 281              		.thumb
 282              		.thumb_func
 283              		.type	Wave_DAC_VDAC8_SetRange, %function
 284              	Wave_DAC_VDAC8_SetRange:
 285              	.LFB5:
 208:Generated_Source\PSoC5/Wave_DAC_VDAC8.c **** 
 209:Generated_Source\PSoC5/Wave_DAC_VDAC8.c **** 
 210:Generated_Source\PSoC5/Wave_DAC_VDAC8.c **** /*******************************************************************************
 211:Generated_Source\PSoC5/Wave_DAC_VDAC8.c **** * Function Name: Wave_DAC_VDAC8_SetRange
 212:Generated_Source\PSoC5/Wave_DAC_VDAC8.c **** ********************************************************************************
 213:Generated_Source\PSoC5/Wave_DAC_VDAC8.c **** *
 214:Generated_Source\PSoC5/Wave_DAC_VDAC8.c **** * Summary:
 215:Generated_Source\PSoC5/Wave_DAC_VDAC8.c **** *  Set one of three current ranges.
 216:Generated_Source\PSoC5/Wave_DAC_VDAC8.c **** *
 217:Generated_Source\PSoC5/Wave_DAC_VDAC8.c **** * Parameters:
 218:Generated_Source\PSoC5/Wave_DAC_VDAC8.c **** *  Range: Sets one of Three valid ranges.
 219:Generated_Source\PSoC5/Wave_DAC_VDAC8.c **** *
 220:Generated_Source\PSoC5/Wave_DAC_VDAC8.c **** * Return:
 221:Generated_Source\PSoC5/Wave_DAC_VDAC8.c **** *  void 
 222:Generated_Source\PSoC5/Wave_DAC_VDAC8.c **** *
 223:Generated_Source\PSoC5/Wave_DAC_VDAC8.c **** * Theory:
 224:Generated_Source\PSoC5/Wave_DAC_VDAC8.c **** *
 225:Generated_Source\PSoC5/Wave_DAC_VDAC8.c **** * Side Effects:
 226:Generated_Source\PSoC5/Wave_DAC_VDAC8.c **** *
 227:Generated_Source\PSoC5/Wave_DAC_VDAC8.c **** *******************************************************************************/
 228:Generated_Source\PSoC5/Wave_DAC_VDAC8.c **** void Wave_DAC_VDAC8_SetRange(uint8 range) 
ARM GAS  C:\Users\Greg\AppData\Local\Temp\ccn7qKfM.s 			page 10


 229:Generated_Source\PSoC5/Wave_DAC_VDAC8.c **** {
 286              		.loc 1 229 0
 287              		.cfi_startproc
 288              		@ args = 0, pretend = 0, frame = 8
 289              		@ frame_needed = 1, uses_anonymous_args = 0
 290 0000 80B5     		push	{r7, lr}
 291              		.cfi_def_cfa_offset 8
 292              		.cfi_offset 7, -8
 293              		.cfi_offset 14, -4
 294 0002 82B0     		sub	sp, sp, #8
 295              		.cfi_def_cfa_offset 16
 296 0004 00AF     		add	r7, sp, #0
 297              		.cfi_def_cfa_register 7
 298 0006 0346     		mov	r3, r0
 299 0008 FB71     		strb	r3, [r7, #7]
 230:Generated_Source\PSoC5/Wave_DAC_VDAC8.c ****     Wave_DAC_VDAC8_CR0 &= (uint8)(~Wave_DAC_VDAC8_RANGE_MASK);      /* Clear existing mode */
 300              		.loc 1 230 0
 301 000a 0C4A     		ldr	r2, .L18
 302 000c 0B4B     		ldr	r3, .L18
 303 000e 1B78     		ldrb	r3, [r3]
 304 0010 DBB2     		uxtb	r3, r3
 305 0012 23F00C03 		bic	r3, r3, #12
 306 0016 DBB2     		uxtb	r3, r3
 307 0018 1370     		strb	r3, [r2]
 231:Generated_Source\PSoC5/Wave_DAC_VDAC8.c ****     Wave_DAC_VDAC8_CR0 |= (range & Wave_DAC_VDAC8_RANGE_MASK);      /*  Set Range  */
 308              		.loc 1 231 0
 309 001a 0849     		ldr	r1, .L18
 310 001c 074B     		ldr	r3, .L18
 311 001e 1B78     		ldrb	r3, [r3]
 312 0020 DAB2     		uxtb	r2, r3
 313 0022 FB79     		ldrb	r3, [r7, #7]
 314 0024 03F00C03 		and	r3, r3, #12
 315 0028 DBB2     		uxtb	r3, r3
 316 002a 1343     		orrs	r3, r3, r2
 317 002c DBB2     		uxtb	r3, r3
 318 002e 0B70     		strb	r3, [r1]
 232:Generated_Source\PSoC5/Wave_DAC_VDAC8.c ****     Wave_DAC_VDAC8_DacTrim();
 319              		.loc 1 232 0
 320 0030 FFF7FEFF 		bl	Wave_DAC_VDAC8_DacTrim
 233:Generated_Source\PSoC5/Wave_DAC_VDAC8.c **** }
 321              		.loc 1 233 0
 322 0034 0837     		adds	r7, r7, #8
 323              		.cfi_def_cfa_offset 8
 324 0036 BD46     		mov	sp, r7
 325              		.cfi_def_cfa_register 13
 326              		@ sp needed
 327 0038 80BD     		pop	{r7, pc}
 328              	.L19:
 329 003a 00BF     		.align	2
 330              	.L18:
 331 003c 24580040 		.word	1073764388
 332              		.cfi_endproc
 333              	.LFE5:
 334              		.size	Wave_DAC_VDAC8_SetRange, .-Wave_DAC_VDAC8_SetRange
 335              		.section	.text.Wave_DAC_VDAC8_SetValue,"ax",%progbits
 336              		.align	2
 337              		.global	Wave_DAC_VDAC8_SetValue
ARM GAS  C:\Users\Greg\AppData\Local\Temp\ccn7qKfM.s 			page 11


 338              		.thumb
 339              		.thumb_func
 340              		.type	Wave_DAC_VDAC8_SetValue, %function
 341              	Wave_DAC_VDAC8_SetValue:
 342              	.LFB6:
 234:Generated_Source\PSoC5/Wave_DAC_VDAC8.c **** 
 235:Generated_Source\PSoC5/Wave_DAC_VDAC8.c **** 
 236:Generated_Source\PSoC5/Wave_DAC_VDAC8.c **** /*******************************************************************************
 237:Generated_Source\PSoC5/Wave_DAC_VDAC8.c **** * Function Name: Wave_DAC_VDAC8_SetValue
 238:Generated_Source\PSoC5/Wave_DAC_VDAC8.c **** ********************************************************************************
 239:Generated_Source\PSoC5/Wave_DAC_VDAC8.c **** *
 240:Generated_Source\PSoC5/Wave_DAC_VDAC8.c **** * Summary:
 241:Generated_Source\PSoC5/Wave_DAC_VDAC8.c **** *  Set 8-bit DAC value
 242:Generated_Source\PSoC5/Wave_DAC_VDAC8.c **** *
 243:Generated_Source\PSoC5/Wave_DAC_VDAC8.c **** * Parameters:  
 244:Generated_Source\PSoC5/Wave_DAC_VDAC8.c **** *  value:  Sets DAC value between 0 and 255.
 245:Generated_Source\PSoC5/Wave_DAC_VDAC8.c **** *
 246:Generated_Source\PSoC5/Wave_DAC_VDAC8.c **** * Return: 
 247:Generated_Source\PSoC5/Wave_DAC_VDAC8.c **** *  void 
 248:Generated_Source\PSoC5/Wave_DAC_VDAC8.c **** *
 249:Generated_Source\PSoC5/Wave_DAC_VDAC8.c **** * Theory: 
 250:Generated_Source\PSoC5/Wave_DAC_VDAC8.c **** *
 251:Generated_Source\PSoC5/Wave_DAC_VDAC8.c **** * Side Effects:
 252:Generated_Source\PSoC5/Wave_DAC_VDAC8.c **** *
 253:Generated_Source\PSoC5/Wave_DAC_VDAC8.c **** *******************************************************************************/
 254:Generated_Source\PSoC5/Wave_DAC_VDAC8.c **** void Wave_DAC_VDAC8_SetValue(uint8 value) 
 255:Generated_Source\PSoC5/Wave_DAC_VDAC8.c **** {
 343              		.loc 1 255 0
 344              		.cfi_startproc
 345              		@ args = 0, pretend = 0, frame = 8
 346              		@ frame_needed = 1, uses_anonymous_args = 0
 347              		@ link register save eliminated.
 348 0000 80B4     		push	{r7}
 349              		.cfi_def_cfa_offset 4
 350              		.cfi_offset 7, -4
 351 0002 83B0     		sub	sp, sp, #12
 352              		.cfi_def_cfa_offset 16
 353 0004 00AF     		add	r7, sp, #0
 354              		.cfi_def_cfa_register 7
 355 0006 0346     		mov	r3, r0
 356 0008 FB71     		strb	r3, [r7, #7]
 256:Generated_Source\PSoC5/Wave_DAC_VDAC8.c ****     #if (CY_PSOC5A)
 257:Generated_Source\PSoC5/Wave_DAC_VDAC8.c ****         uint8 Wave_DAC_VDAC8_intrStatus = CyEnterCriticalSection();
 258:Generated_Source\PSoC5/Wave_DAC_VDAC8.c ****     #endif /* CY_PSOC5A */
 259:Generated_Source\PSoC5/Wave_DAC_VDAC8.c **** 
 260:Generated_Source\PSoC5/Wave_DAC_VDAC8.c ****     Wave_DAC_VDAC8_Data = value;                /*  Set Value  */
 357              		.loc 1 260 0
 358 000a 044A     		ldr	r2, .L21
 359 000c FB79     		ldrb	r3, [r7, #7]
 360 000e 1370     		strb	r3, [r2]
 261:Generated_Source\PSoC5/Wave_DAC_VDAC8.c **** 
 262:Generated_Source\PSoC5/Wave_DAC_VDAC8.c ****     /* PSOC5A requires a double write */
 263:Generated_Source\PSoC5/Wave_DAC_VDAC8.c ****     /* Exit Critical Section */
 264:Generated_Source\PSoC5/Wave_DAC_VDAC8.c ****     #if (CY_PSOC5A)
 265:Generated_Source\PSoC5/Wave_DAC_VDAC8.c ****         Wave_DAC_VDAC8_Data = value;
 266:Generated_Source\PSoC5/Wave_DAC_VDAC8.c ****         CyExitCriticalSection(Wave_DAC_VDAC8_intrStatus);
 267:Generated_Source\PSoC5/Wave_DAC_VDAC8.c ****     #endif /* CY_PSOC5A */
ARM GAS  C:\Users\Greg\AppData\Local\Temp\ccn7qKfM.s 			page 12


 268:Generated_Source\PSoC5/Wave_DAC_VDAC8.c **** }
 361              		.loc 1 268 0
 362 0010 0C37     		adds	r7, r7, #12
 363              		.cfi_def_cfa_offset 4
 364 0012 BD46     		mov	sp, r7
 365              		.cfi_def_cfa_register 13
 366              		@ sp needed
 367 0014 5DF8047B 		ldr	r7, [sp], #4
 368              		.cfi_restore 7
 369              		.cfi_def_cfa_offset 0
 370 0018 7047     		bx	lr
 371              	.L22:
 372 001a 00BF     		.align	2
 373              	.L21:
 374 001c 815B0040 		.word	1073765249
 375              		.cfi_endproc
 376              	.LFE6:
 377              		.size	Wave_DAC_VDAC8_SetValue, .-Wave_DAC_VDAC8_SetValue
 378              		.section	.text.Wave_DAC_VDAC8_DacTrim,"ax",%progbits
 379              		.align	2
 380              		.global	Wave_DAC_VDAC8_DacTrim
 381              		.thumb
 382              		.thumb_func
 383              		.type	Wave_DAC_VDAC8_DacTrim, %function
 384              	Wave_DAC_VDAC8_DacTrim:
 385              	.LFB7:
 269:Generated_Source\PSoC5/Wave_DAC_VDAC8.c **** 
 270:Generated_Source\PSoC5/Wave_DAC_VDAC8.c **** 
 271:Generated_Source\PSoC5/Wave_DAC_VDAC8.c **** /*******************************************************************************
 272:Generated_Source\PSoC5/Wave_DAC_VDAC8.c **** * Function Name: Wave_DAC_VDAC8_DacTrim
 273:Generated_Source\PSoC5/Wave_DAC_VDAC8.c **** ********************************************************************************
 274:Generated_Source\PSoC5/Wave_DAC_VDAC8.c **** *
 275:Generated_Source\PSoC5/Wave_DAC_VDAC8.c **** * Summary:
 276:Generated_Source\PSoC5/Wave_DAC_VDAC8.c **** *  Set the trim value for the given range.
 277:Generated_Source\PSoC5/Wave_DAC_VDAC8.c **** *
 278:Generated_Source\PSoC5/Wave_DAC_VDAC8.c **** * Parameters:
 279:Generated_Source\PSoC5/Wave_DAC_VDAC8.c **** *  range:  1V or 4V range.  See constants.
 280:Generated_Source\PSoC5/Wave_DAC_VDAC8.c **** *
 281:Generated_Source\PSoC5/Wave_DAC_VDAC8.c **** * Return:
 282:Generated_Source\PSoC5/Wave_DAC_VDAC8.c **** *  void
 283:Generated_Source\PSoC5/Wave_DAC_VDAC8.c **** *
 284:Generated_Source\PSoC5/Wave_DAC_VDAC8.c **** * Theory: 
 285:Generated_Source\PSoC5/Wave_DAC_VDAC8.c **** *
 286:Generated_Source\PSoC5/Wave_DAC_VDAC8.c **** * Side Effects:
 287:Generated_Source\PSoC5/Wave_DAC_VDAC8.c **** *
 288:Generated_Source\PSoC5/Wave_DAC_VDAC8.c **** *******************************************************************************/
 289:Generated_Source\PSoC5/Wave_DAC_VDAC8.c **** void Wave_DAC_VDAC8_DacTrim(void) 
 290:Generated_Source\PSoC5/Wave_DAC_VDAC8.c **** {
 386              		.loc 1 290 0
 387              		.cfi_startproc
 388              		@ args = 0, pretend = 0, frame = 8
 389              		@ frame_needed = 1, uses_anonymous_args = 0
 390              		@ link register save eliminated.
 391 0000 80B4     		push	{r7}
 392              		.cfi_def_cfa_offset 4
 393              		.cfi_offset 7, -4
 394 0002 83B0     		sub	sp, sp, #12
ARM GAS  C:\Users\Greg\AppData\Local\Temp\ccn7qKfM.s 			page 13


 395              		.cfi_def_cfa_offset 16
 396 0004 00AF     		add	r7, sp, #0
 397              		.cfi_def_cfa_register 7
 291:Generated_Source\PSoC5/Wave_DAC_VDAC8.c ****     uint8 mode;
 292:Generated_Source\PSoC5/Wave_DAC_VDAC8.c **** 
 293:Generated_Source\PSoC5/Wave_DAC_VDAC8.c ****     mode = (uint8)((Wave_DAC_VDAC8_CR0 & Wave_DAC_VDAC8_RANGE_MASK) >> 2) + Wave_DAC_VDAC8_TRIM_M7_
 398              		.loc 1 293 0
 399 0006 0B4B     		ldr	r3, .L24
 400 0008 1B78     		ldrb	r3, [r3]
 401 000a DBB2     		uxtb	r3, r3
 402 000c 03F00C03 		and	r3, r3, #12
 403 0010 9B08     		lsrs	r3, r3, #2
 404 0012 DBB2     		uxtb	r3, r3
 405 0014 0633     		adds	r3, r3, #6
 406 0016 FB71     		strb	r3, [r7, #7]
 294:Generated_Source\PSoC5/Wave_DAC_VDAC8.c ****     Wave_DAC_VDAC8_TR = CY_GET_XTND_REG8((uint8 *)(Wave_DAC_VDAC8_DAC_TRIM_BASE + mode));
 407              		.loc 1 294 0
 408 0018 074A     		ldr	r2, .L24+4
 409 001a FB79     		ldrb	r3, [r7, #7]	@ zero_extendqisi2
 410 001c 03F19243 		add	r3, r3, #1224736768
 411 0020 03F59873 		add	r3, r3, #304
 412 0024 1B78     		ldrb	r3, [r3]
 413 0026 DBB2     		uxtb	r3, r3
 414 0028 1370     		strb	r3, [r2]
 295:Generated_Source\PSoC5/Wave_DAC_VDAC8.c **** }
 415              		.loc 1 295 0
 416 002a 0C37     		adds	r7, r7, #12
 417              		.cfi_def_cfa_offset 4
 418 002c BD46     		mov	sp, r7
 419              		.cfi_def_cfa_register 13
 420              		@ sp needed
 421 002e 5DF8047B 		ldr	r7, [sp], #4
 422              		.cfi_restore 7
 423              		.cfi_def_cfa_offset 0
 424 0032 7047     		bx	lr
 425              	.L25:
 426              		.align	2
 427              	.L24:
 428 0034 24580040 		.word	1073764388
 429 0038 09460040 		.word	1073759753
 430              		.cfi_endproc
 431              	.LFE7:
 432              		.size	Wave_DAC_VDAC8_DacTrim, .-Wave_DAC_VDAC8_DacTrim
 433              		.text
 434              	.Letext0:
 435              		.file 2 "Generated_Source\\PSoC5\\cytypes.h"