ARM GAS  C:\Users\Greg\AppData\Local\Temp\ccqdNYgB.s 			page 1


   1              		.syntax unified
   2              		.cpu cortex-m3
   3              		.fpu softvfp
   4              		.eabi_attribute 20, 1
   5              		.eabi_attribute 21, 1
   6              		.eabi_attribute 23, 3
   7              		.eabi_attribute 24, 1
   8              		.eabi_attribute 25, 1
   9              		.eabi_attribute 26, 1
  10              		.eabi_attribute 30, 6
  11              		.eabi_attribute 34, 1
  12              		.eabi_attribute 18, 4
  13              		.thumb
  14              		.file	"Wave_DAC_PM.c"
  15              		.text
  16              	.Ltext0:
  17              		.cfi_sections	.debug_frame
  18              		.bss
  19              		.align	2
  20              	Wave_DAC_backup:
  21 0000 00       		.space	1
  22 0001 000000   		.section	.text.Wave_DAC_Sleep,"ax",%progbits
  23              		.align	2
  24              		.global	Wave_DAC_Sleep
  25              		.thumb
  26              		.thumb_func
  27              		.type	Wave_DAC_Sleep, %function
  28              	Wave_DAC_Sleep:
  29              	.LFB0:
  30              		.file 1 "Generated_Source\\PSoC5\\Wave_DAC_PM.c"
   1:Generated_Source\PSoC5/Wave_DAC_PM.c **** /*******************************************************************************
   2:Generated_Source\PSoC5/Wave_DAC_PM.c **** * File Name: Wave_DAC_PM.c  
   3:Generated_Source\PSoC5/Wave_DAC_PM.c **** * Version 2.10
   4:Generated_Source\PSoC5/Wave_DAC_PM.c **** *
   5:Generated_Source\PSoC5/Wave_DAC_PM.c **** * Description:
   6:Generated_Source\PSoC5/Wave_DAC_PM.c **** *  This file provides the power manager source code to the API for 
   7:Generated_Source\PSoC5/Wave_DAC_PM.c **** *  the WaveDAC8 component.
   8:Generated_Source\PSoC5/Wave_DAC_PM.c **** *
   9:Generated_Source\PSoC5/Wave_DAC_PM.c **** ********************************************************************************
  10:Generated_Source\PSoC5/Wave_DAC_PM.c **** * Copyright 2013, Cypress Semiconductor Corporation.  All rights reserved.
  11:Generated_Source\PSoC5/Wave_DAC_PM.c **** * You may use this file only in accordance with the license, terms, conditions, 
  12:Generated_Source\PSoC5/Wave_DAC_PM.c **** * disclaimers, and limitations in the end user license agreement accompanying 
  13:Generated_Source\PSoC5/Wave_DAC_PM.c **** * the software package with which this file was provided.
  14:Generated_Source\PSoC5/Wave_DAC_PM.c **** *******************************************************************************/
  15:Generated_Source\PSoC5/Wave_DAC_PM.c **** 
  16:Generated_Source\PSoC5/Wave_DAC_PM.c **** #include "Wave_DAC.h"
  17:Generated_Source\PSoC5/Wave_DAC_PM.c **** 
  18:Generated_Source\PSoC5/Wave_DAC_PM.c **** static Wave_DAC_BACKUP_STRUCT  Wave_DAC_backup;
  19:Generated_Source\PSoC5/Wave_DAC_PM.c **** 
  20:Generated_Source\PSoC5/Wave_DAC_PM.c **** 
  21:Generated_Source\PSoC5/Wave_DAC_PM.c **** /*******************************************************************************
  22:Generated_Source\PSoC5/Wave_DAC_PM.c **** * Function Name: Wave_DAC_Sleep
  23:Generated_Source\PSoC5/Wave_DAC_PM.c **** ********************************************************************************
  24:Generated_Source\PSoC5/Wave_DAC_PM.c **** *
  25:Generated_Source\PSoC5/Wave_DAC_PM.c **** * Summary:
  26:Generated_Source\PSoC5/Wave_DAC_PM.c **** *  Stops the component and saves its configuration. Should be called 
  27:Generated_Source\PSoC5/Wave_DAC_PM.c **** *  just prior to entering sleep.
ARM GAS  C:\Users\Greg\AppData\Local\Temp\ccqdNYgB.s 			page 2


  28:Generated_Source\PSoC5/Wave_DAC_PM.c **** *  
  29:Generated_Source\PSoC5/Wave_DAC_PM.c **** * Parameters:  
  30:Generated_Source\PSoC5/Wave_DAC_PM.c **** *  None
  31:Generated_Source\PSoC5/Wave_DAC_PM.c **** *
  32:Generated_Source\PSoC5/Wave_DAC_PM.c **** * Return: 
  33:Generated_Source\PSoC5/Wave_DAC_PM.c **** *  None
  34:Generated_Source\PSoC5/Wave_DAC_PM.c **** *
  35:Generated_Source\PSoC5/Wave_DAC_PM.c **** * Global variables:
  36:Generated_Source\PSoC5/Wave_DAC_PM.c **** *  Wave_DAC_backup:  The structure field 'enableState' is modified 
  37:Generated_Source\PSoC5/Wave_DAC_PM.c **** *  depending on the enable state of the block before entering to sleep mode.
  38:Generated_Source\PSoC5/Wave_DAC_PM.c **** *
  39:Generated_Source\PSoC5/Wave_DAC_PM.c **** * Reentrant:
  40:Generated_Source\PSoC5/Wave_DAC_PM.c **** *  No
  41:Generated_Source\PSoC5/Wave_DAC_PM.c **** *
  42:Generated_Source\PSoC5/Wave_DAC_PM.c **** *******************************************************************************/
  43:Generated_Source\PSoC5/Wave_DAC_PM.c **** void Wave_DAC_Sleep(void) 
  44:Generated_Source\PSoC5/Wave_DAC_PM.c **** {
  31              		.loc 1 44 0
  32              		.cfi_startproc
  33              		@ args = 0, pretend = 0, frame = 0
  34              		@ frame_needed = 1, uses_anonymous_args = 0
  35 0000 80B5     		push	{r7, lr}
  36              		.cfi_def_cfa_offset 8
  37              		.cfi_offset 7, -8
  38              		.cfi_offset 14, -4
  39 0002 00AF     		add	r7, sp, #0
  40              		.cfi_def_cfa_register 7
  45:Generated_Source\PSoC5/Wave_DAC_PM.c **** 	/* Save DAC8's enable state */
  46:Generated_Source\PSoC5/Wave_DAC_PM.c **** 
  47:Generated_Source\PSoC5/Wave_DAC_PM.c **** 	Wave_DAC_backup.enableState = (Wave_DAC_VDAC8_ACT_PWR_EN == 
  48:Generated_Source\PSoC5/Wave_DAC_PM.c **** 		(Wave_DAC_VDAC8_PWRMGR_REG & Wave_DAC_VDAC8_ACT_PWR_EN)) ? 1u : 0u ;
  41              		.loc 1 48 0
  42 0004 084B     		ldr	r3, .L4
  43 0006 1B78     		ldrb	r3, [r3]
  44 0008 DBB2     		uxtb	r3, r3
  45 000a 03F00203 		and	r3, r3, #2
  47:Generated_Source\PSoC5/Wave_DAC_PM.c **** 		(Wave_DAC_VDAC8_PWRMGR_REG & Wave_DAC_VDAC8_ACT_PWR_EN)) ? 1u : 0u ;
  46              		.loc 1 47 0
  47 000e 002B     		cmp	r3, #0
  48 0010 01D0     		beq	.L2
  47:Generated_Source\PSoC5/Wave_DAC_PM.c **** 		(Wave_DAC_VDAC8_PWRMGR_REG & Wave_DAC_VDAC8_ACT_PWR_EN)) ? 1u : 0u ;
  49              		.loc 1 47 0 is_stmt 0 discriminator 1
  50 0012 0122     		movs	r2, #1
  51 0014 00E0     		b	.L3
  52              	.L2:
  47:Generated_Source\PSoC5/Wave_DAC_PM.c **** 		(Wave_DAC_VDAC8_PWRMGR_REG & Wave_DAC_VDAC8_ACT_PWR_EN)) ? 1u : 0u ;
  53              		.loc 1 47 0 discriminator 2
  54 0016 0022     		movs	r2, #0
  55              	.L3:
  47:Generated_Source\PSoC5/Wave_DAC_PM.c **** 		(Wave_DAC_VDAC8_PWRMGR_REG & Wave_DAC_VDAC8_ACT_PWR_EN)) ? 1u : 0u ;
  56              		.loc 1 47 0 discriminator 4
  57 0018 044B     		ldr	r3, .L4+4
  58 001a 1A70     		strb	r2, [r3]
  49:Generated_Source\PSoC5/Wave_DAC_PM.c **** 	
  50:Generated_Source\PSoC5/Wave_DAC_PM.c **** 	Wave_DAC_Stop();
  59              		.loc 1 50 0 is_stmt 1 discriminator 4
  60 001c FFF7FEFF 		bl	Wave_DAC_Stop
ARM GAS  C:\Users\Greg\AppData\Local\Temp\ccqdNYgB.s 			page 3


  51:Generated_Source\PSoC5/Wave_DAC_PM.c **** 	Wave_DAC_SaveConfig();
  61              		.loc 1 51 0 discriminator 4
  62 0020 FFF7FEFF 		bl	Wave_DAC_VDAC8_SaveConfig
  52:Generated_Source\PSoC5/Wave_DAC_PM.c **** }
  63              		.loc 1 52 0 discriminator 4
  64 0024 80BD     		pop	{r7, pc}
  65              	.L5:
  66 0026 00BF     		.align	2
  67              	.L4:
  68 0028 A8430040 		.word	1073759144
  69 002c 00000000 		.word	Wave_DAC_backup
  70              		.cfi_endproc
  71              	.LFE0:
  72              		.size	Wave_DAC_Sleep, .-Wave_DAC_Sleep
  73              		.section	.text.Wave_DAC_Wakeup,"ax",%progbits
  74              		.align	2
  75              		.global	Wave_DAC_Wakeup
  76              		.thumb
  77              		.thumb_func
  78              		.type	Wave_DAC_Wakeup, %function
  79              	Wave_DAC_Wakeup:
  80              	.LFB1:
  53:Generated_Source\PSoC5/Wave_DAC_PM.c **** 
  54:Generated_Source\PSoC5/Wave_DAC_PM.c **** 
  55:Generated_Source\PSoC5/Wave_DAC_PM.c **** /*******************************************************************************
  56:Generated_Source\PSoC5/Wave_DAC_PM.c **** * Function Name: Wave_DAC_Wakeup
  57:Generated_Source\PSoC5/Wave_DAC_PM.c **** ********************************************************************************
  58:Generated_Source\PSoC5/Wave_DAC_PM.c **** *
  59:Generated_Source\PSoC5/Wave_DAC_PM.c **** * Summary:
  60:Generated_Source\PSoC5/Wave_DAC_PM.c **** *  Restores the component configuration. Should be called
  61:Generated_Source\PSoC5/Wave_DAC_PM.c **** *  just after awaking from sleep.
  62:Generated_Source\PSoC5/Wave_DAC_PM.c **** *  
  63:Generated_Source\PSoC5/Wave_DAC_PM.c **** * Parameters:  
  64:Generated_Source\PSoC5/Wave_DAC_PM.c **** *  None
  65:Generated_Source\PSoC5/Wave_DAC_PM.c **** *
  66:Generated_Source\PSoC5/Wave_DAC_PM.c **** * Return: 
  67:Generated_Source\PSoC5/Wave_DAC_PM.c **** *  void
  68:Generated_Source\PSoC5/Wave_DAC_PM.c **** *
  69:Generated_Source\PSoC5/Wave_DAC_PM.c **** * Global variables:
  70:Generated_Source\PSoC5/Wave_DAC_PM.c **** *  Wave_DAC_backup:  The structure field 'enableState' is used to 
  71:Generated_Source\PSoC5/Wave_DAC_PM.c **** *  restore the enable state of block after wakeup from sleep mode.
  72:Generated_Source\PSoC5/Wave_DAC_PM.c **** *
  73:Generated_Source\PSoC5/Wave_DAC_PM.c **** * Reentrant:
  74:Generated_Source\PSoC5/Wave_DAC_PM.c **** *  No
  75:Generated_Source\PSoC5/Wave_DAC_PM.c **** *
  76:Generated_Source\PSoC5/Wave_DAC_PM.c **** *******************************************************************************/
  77:Generated_Source\PSoC5/Wave_DAC_PM.c **** void Wave_DAC_Wakeup(void) 
  78:Generated_Source\PSoC5/Wave_DAC_PM.c **** {
  81              		.loc 1 78 0
  82              		.cfi_startproc
  83              		@ args = 0, pretend = 0, frame = 0
  84              		@ frame_needed = 1, uses_anonymous_args = 0
  85 0000 80B5     		push	{r7, lr}
  86              		.cfi_def_cfa_offset 8
  87              		.cfi_offset 7, -8
  88              		.cfi_offset 14, -4
  89 0002 00AF     		add	r7, sp, #0
ARM GAS  C:\Users\Greg\AppData\Local\Temp\ccqdNYgB.s 			page 4


  90              		.cfi_def_cfa_register 7
  79:Generated_Source\PSoC5/Wave_DAC_PM.c **** 	Wave_DAC_RestoreConfig();
  91              		.loc 1 79 0
  92 0004 FFF7FEFF 		bl	Wave_DAC_VDAC8_RestoreConfig
  80:Generated_Source\PSoC5/Wave_DAC_PM.c **** 
  81:Generated_Source\PSoC5/Wave_DAC_PM.c **** 	if(Wave_DAC_backup.enableState == 1u)
  93              		.loc 1 81 0
  94 0008 034B     		ldr	r3, .L8
  95 000a 1B78     		ldrb	r3, [r3]	@ zero_extendqisi2
  96 000c 012B     		cmp	r3, #1
  97 000e 01D1     		bne	.L6
  82:Generated_Source\PSoC5/Wave_DAC_PM.c **** 	{
  83:Generated_Source\PSoC5/Wave_DAC_PM.c **** 		Wave_DAC_Enable();
  98              		.loc 1 83 0
  99 0010 FFF7FEFF 		bl	Wave_DAC_Enable
 100              	.L6:
  84:Generated_Source\PSoC5/Wave_DAC_PM.c **** 	}
  85:Generated_Source\PSoC5/Wave_DAC_PM.c **** }
 101              		.loc 1 85 0
 102 0014 80BD     		pop	{r7, pc}
 103              	.L9:
 104 0016 00BF     		.align	2
 105              	.L8:
 106 0018 00000000 		.word	Wave_DAC_backup
 107              		.cfi_endproc
 108              	.LFE1:
 109              		.size	Wave_DAC_Wakeup, .-Wave_DAC_Wakeup
 110              		.text
 111              	.Letext0:
 112              		.file 2 "Generated_Source\\PSoC5\\cytypes.h"
 113              		.file 3 "Generated_Source\\PSoC5\\Wave_DAC.h"